
CanSat_V3 - 1kHz.elf:     file format elf32-avr

Sections:
Idx Name          Size      VMA       LMA       File off  Algn
  0 .text         00003c9c  00000000  00000000  00000094  2**1
                  CONTENTS, ALLOC, LOAD, READONLY, CODE
  1 .data         000000d0  00802000  00003c9c  00003d30  2**0
                  CONTENTS, ALLOC, LOAD, DATA
  2 .bss          000005b5  008020d0  008020d0  00003e00  2**0
                  ALLOC
  3 .comment      00000030  00000000  00000000  00003e00  2**0
                  CONTENTS, READONLY
  4 .note.gnu.avr.deviceinfo 00000044  00000000  00000000  00003e30  2**2
                  CONTENTS, READONLY
  5 .debug_aranges 00000278  00000000  00000000  00003e74  2**0
                  CONTENTS, READONLY, DEBUGGING
  6 .debug_info   0000522b  00000000  00000000  000040ec  2**0
                  CONTENTS, READONLY, DEBUGGING
  7 .debug_abbrev 00000bef  00000000  00000000  00009317  2**0
                  CONTENTS, READONLY, DEBUGGING
  8 .debug_line   00001fca  00000000  00000000  00009f06  2**0
                  CONTENTS, READONLY, DEBUGGING
  9 .debug_frame  0000090c  00000000  00000000  0000bed0  2**2
                  CONTENTS, READONLY, DEBUGGING
 10 .debug_str    00001e61  00000000  00000000  0000c7dc  2**0
                  CONTENTS, READONLY, DEBUGGING
 11 .debug_loc    0000203b  00000000  00000000  0000e63d  2**0
                  CONTENTS, READONLY, DEBUGGING
 12 .debug_ranges 00000228  00000000  00000000  00010678  2**0
                  CONTENTS, READONLY, DEBUGGING

Disassembly of section .text:

00000000 <__vectors>:
       0:	06 c1       	rjmp	.+524    	; 0x20e <__ctors_end>
       2:	00 00       	nop
       4:	24 c1       	rjmp	.+584    	; 0x24e <__bad_interrupt>
       6:	00 00       	nop
       8:	22 c1       	rjmp	.+580    	; 0x24e <__bad_interrupt>
       a:	00 00       	nop
       c:	20 c1       	rjmp	.+576    	; 0x24e <__bad_interrupt>
       e:	00 00       	nop
      10:	1e c1       	rjmp	.+572    	; 0x24e <__bad_interrupt>
      12:	00 00       	nop
      14:	1c c1       	rjmp	.+568    	; 0x24e <__bad_interrupt>
      16:	00 00       	nop
      18:	1a c1       	rjmp	.+564    	; 0x24e <__bad_interrupt>
      1a:	00 00       	nop
      1c:	18 c1       	rjmp	.+560    	; 0x24e <__bad_interrupt>
      1e:	00 00       	nop
      20:	16 c1       	rjmp	.+556    	; 0x24e <__bad_interrupt>
      22:	00 00       	nop
      24:	14 c1       	rjmp	.+552    	; 0x24e <__bad_interrupt>
      26:	00 00       	nop
      28:	12 c1       	rjmp	.+548    	; 0x24e <__bad_interrupt>
      2a:	00 00       	nop
      2c:	10 c1       	rjmp	.+544    	; 0x24e <__bad_interrupt>
      2e:	00 00       	nop
      30:	0e c1       	rjmp	.+540    	; 0x24e <__bad_interrupt>
      32:	00 00       	nop
      34:	0c c1       	rjmp	.+536    	; 0x24e <__bad_interrupt>
      36:	00 00       	nop
      38:	aa c3       	rjmp	.+1876   	; 0x78e <__vector_14>
      3a:	00 00       	nop
      3c:	08 c1       	rjmp	.+528    	; 0x24e <__bad_interrupt>
      3e:	00 00       	nop
      40:	06 c1       	rjmp	.+524    	; 0x24e <__bad_interrupt>
      42:	00 00       	nop
      44:	04 c1       	rjmp	.+520    	; 0x24e <__bad_interrupt>
      46:	00 00       	nop
      48:	02 c1       	rjmp	.+516    	; 0x24e <__bad_interrupt>
      4a:	00 00       	nop
      4c:	00 c1       	rjmp	.+512    	; 0x24e <__bad_interrupt>
      4e:	00 00       	nop
      50:	fe c0       	rjmp	.+508    	; 0x24e <__bad_interrupt>
      52:	00 00       	nop
      54:	fc c0       	rjmp	.+504    	; 0x24e <__bad_interrupt>
      56:	00 00       	nop
      58:	fa c0       	rjmp	.+500    	; 0x24e <__bad_interrupt>
      5a:	00 00       	nop
      5c:	f8 c0       	rjmp	.+496    	; 0x24e <__bad_interrupt>
      5e:	00 00       	nop
      60:	f6 c0       	rjmp	.+492    	; 0x24e <__bad_interrupt>
      62:	00 00       	nop
      64:	f4 c0       	rjmp	.+488    	; 0x24e <__bad_interrupt>
      66:	00 00       	nop
      68:	f2 c0       	rjmp	.+484    	; 0x24e <__bad_interrupt>
      6a:	00 00       	nop
      6c:	f0 c0       	rjmp	.+480    	; 0x24e <__bad_interrupt>
      6e:	00 00       	nop
      70:	ee c0       	rjmp	.+476    	; 0x24e <__bad_interrupt>
      72:	00 00       	nop
      74:	ec c0       	rjmp	.+472    	; 0x24e <__bad_interrupt>
      76:	00 00       	nop
      78:	ea c0       	rjmp	.+468    	; 0x24e <__bad_interrupt>
      7a:	00 00       	nop
      7c:	e8 c0       	rjmp	.+464    	; 0x24e <__bad_interrupt>
      7e:	00 00       	nop
      80:	e6 c0       	rjmp	.+460    	; 0x24e <__bad_interrupt>
      82:	00 00       	nop
      84:	e4 c0       	rjmp	.+456    	; 0x24e <__bad_interrupt>
      86:	00 00       	nop
      88:	e2 c0       	rjmp	.+452    	; 0x24e <__bad_interrupt>
      8a:	00 00       	nop
      8c:	e0 c0       	rjmp	.+448    	; 0x24e <__bad_interrupt>
      8e:	00 00       	nop
      90:	de c0       	rjmp	.+444    	; 0x24e <__bad_interrupt>
      92:	00 00       	nop
      94:	dc c0       	rjmp	.+440    	; 0x24e <__bad_interrupt>
      96:	00 00       	nop
      98:	da c0       	rjmp	.+436    	; 0x24e <__bad_interrupt>
      9a:	00 00       	nop
      9c:	d8 c0       	rjmp	.+432    	; 0x24e <__bad_interrupt>
      9e:	00 00       	nop
      a0:	d6 c0       	rjmp	.+428    	; 0x24e <__bad_interrupt>
      a2:	00 00       	nop
      a4:	d4 c0       	rjmp	.+424    	; 0x24e <__bad_interrupt>
      a6:	00 00       	nop
      a8:	d2 c0       	rjmp	.+420    	; 0x24e <__bad_interrupt>
      aa:	00 00       	nop
      ac:	d0 c0       	rjmp	.+416    	; 0x24e <__bad_interrupt>
      ae:	00 00       	nop
      b0:	ce c0       	rjmp	.+412    	; 0x24e <__bad_interrupt>
      b2:	00 00       	nop
      b4:	cc c0       	rjmp	.+408    	; 0x24e <__bad_interrupt>
      b6:	00 00       	nop
      b8:	ca c0       	rjmp	.+404    	; 0x24e <__bad_interrupt>
      ba:	00 00       	nop
      bc:	de c3       	rjmp	.+1980   	; 0x87a <__vector_47>
      be:	00 00       	nop
      c0:	c6 c0       	rjmp	.+396    	; 0x24e <__bad_interrupt>
      c2:	00 00       	nop
      c4:	c4 c0       	rjmp	.+392    	; 0x24e <__bad_interrupt>
      c6:	00 00       	nop
      c8:	c2 c0       	rjmp	.+388    	; 0x24e <__bad_interrupt>
      ca:	00 00       	nop
      cc:	c0 c0       	rjmp	.+384    	; 0x24e <__bad_interrupt>
      ce:	00 00       	nop
      d0:	be c0       	rjmp	.+380    	; 0x24e <__bad_interrupt>
      d2:	00 00       	nop
      d4:	bc c0       	rjmp	.+376    	; 0x24e <__bad_interrupt>
      d6:	00 00       	nop
      d8:	ba c0       	rjmp	.+372    	; 0x24e <__bad_interrupt>
      da:	00 00       	nop
      dc:	b8 c0       	rjmp	.+368    	; 0x24e <__bad_interrupt>
      de:	00 00       	nop
      e0:	b6 c0       	rjmp	.+364    	; 0x24e <__bad_interrupt>
      e2:	00 00       	nop
      e4:	b4 c0       	rjmp	.+360    	; 0x24e <__bad_interrupt>
      e6:	00 00       	nop
      e8:	b2 c0       	rjmp	.+356    	; 0x24e <__bad_interrupt>
      ea:	00 00       	nop
      ec:	b0 c0       	rjmp	.+352    	; 0x24e <__bad_interrupt>
      ee:	00 00       	nop
      f0:	ae c0       	rjmp	.+348    	; 0x24e <__bad_interrupt>
      f2:	00 00       	nop
      f4:	ac c0       	rjmp	.+344    	; 0x24e <__bad_interrupt>
      f6:	00 00       	nop
      f8:	aa c0       	rjmp	.+340    	; 0x24e <__bad_interrupt>
      fa:	00 00       	nop
      fc:	a8 c0       	rjmp	.+336    	; 0x24e <__bad_interrupt>
      fe:	00 00       	nop
     100:	a6 c0       	rjmp	.+332    	; 0x24e <__bad_interrupt>
     102:	00 00       	nop
     104:	a4 c0       	rjmp	.+328    	; 0x24e <__bad_interrupt>
     106:	00 00       	nop
     108:	a2 c0       	rjmp	.+324    	; 0x24e <__bad_interrupt>
     10a:	00 00       	nop
     10c:	a0 c0       	rjmp	.+320    	; 0x24e <__bad_interrupt>
     10e:	00 00       	nop
     110:	9e c0       	rjmp	.+316    	; 0x24e <__bad_interrupt>
     112:	00 00       	nop
     114:	9c c0       	rjmp	.+312    	; 0x24e <__bad_interrupt>
     116:	00 00       	nop
     118:	9a c0       	rjmp	.+308    	; 0x24e <__bad_interrupt>
     11a:	00 00       	nop
     11c:	98 c0       	rjmp	.+304    	; 0x24e <__bad_interrupt>
     11e:	00 00       	nop
     120:	96 c0       	rjmp	.+300    	; 0x24e <__bad_interrupt>
     122:	00 00       	nop
     124:	94 c0       	rjmp	.+296    	; 0x24e <__bad_interrupt>
     126:	00 00       	nop
     128:	92 c0       	rjmp	.+292    	; 0x24e <__bad_interrupt>
     12a:	00 00       	nop
     12c:	90 c0       	rjmp	.+288    	; 0x24e <__bad_interrupt>
     12e:	00 00       	nop
     130:	8e c0       	rjmp	.+284    	; 0x24e <__bad_interrupt>
     132:	00 00       	nop
     134:	5a c3       	rjmp	.+1716   	; 0x7ea <__vector_77>
     136:	00 00       	nop
     138:	8a c0       	rjmp	.+276    	; 0x24e <__bad_interrupt>
     13a:	00 00       	nop
     13c:	88 c0       	rjmp	.+272    	; 0x24e <__bad_interrupt>
     13e:	00 00       	nop
     140:	86 c0       	rjmp	.+268    	; 0x24e <__bad_interrupt>
     142:	00 00       	nop
     144:	84 c0       	rjmp	.+264    	; 0x24e <__bad_interrupt>
     146:	00 00       	nop
     148:	82 c0       	rjmp	.+260    	; 0x24e <__bad_interrupt>
     14a:	00 00       	nop
     14c:	80 c0       	rjmp	.+256    	; 0x24e <__bad_interrupt>
     14e:	00 00       	nop
     150:	7e c0       	rjmp	.+252    	; 0x24e <__bad_interrupt>
     152:	00 00       	nop
     154:	7c c0       	rjmp	.+248    	; 0x24e <__bad_interrupt>
     156:	00 00       	nop
     158:	7a c0       	rjmp	.+244    	; 0x24e <__bad_interrupt>
     15a:	00 00       	nop
     15c:	78 c0       	rjmp	.+240    	; 0x24e <__bad_interrupt>
     15e:	00 00       	nop
     160:	35 c2       	rjmp	.+1130   	; 0x5cc <__vector_88>
     162:	00 00       	nop
     164:	74 c0       	rjmp	.+232    	; 0x24e <__bad_interrupt>
     166:	00 00       	nop
     168:	f1 c1       	rjmp	.+994    	; 0x54c <__vector_90>
     16a:	00 00       	nop
     16c:	70 c0       	rjmp	.+224    	; 0x24e <__bad_interrupt>
     16e:	00 00       	nop
     170:	6e c0       	rjmp	.+220    	; 0x24e <__bad_interrupt>
     172:	00 00       	nop
     174:	6c c0       	rjmp	.+216    	; 0x24e <__bad_interrupt>
     176:	00 00       	nop
     178:	6a c0       	rjmp	.+212    	; 0x24e <__bad_interrupt>
     17a:	00 00       	nop
     17c:	68 c0       	rjmp	.+208    	; 0x24e <__bad_interrupt>
     17e:	00 00       	nop
     180:	66 c0       	rjmp	.+204    	; 0x24e <__bad_interrupt>
     182:	00 00       	nop
     184:	64 c0       	rjmp	.+200    	; 0x24e <__bad_interrupt>
     186:	00 00       	nop
     188:	62 c0       	rjmp	.+196    	; 0x24e <__bad_interrupt>
     18a:	00 00       	nop
     18c:	60 c0       	rjmp	.+192    	; 0x24e <__bad_interrupt>
     18e:	00 00       	nop
     190:	5e c0       	rjmp	.+188    	; 0x24e <__bad_interrupt>
     192:	00 00       	nop
     194:	5c c0       	rjmp	.+184    	; 0x24e <__bad_interrupt>
     196:	00 00       	nop
     198:	5a c0       	rjmp	.+180    	; 0x24e <__bad_interrupt>
     19a:	00 00       	nop
     19c:	58 c0       	rjmp	.+176    	; 0x24e <__bad_interrupt>
     19e:	00 00       	nop
     1a0:	56 c0       	rjmp	.+172    	; 0x24e <__bad_interrupt>
     1a2:	00 00       	nop
     1a4:	54 c0       	rjmp	.+168    	; 0x24e <__bad_interrupt>
     1a6:	00 00       	nop
     1a8:	52 c0       	rjmp	.+164    	; 0x24e <__bad_interrupt>
     1aa:	00 00       	nop
     1ac:	50 c0       	rjmp	.+160    	; 0x24e <__bad_interrupt>
     1ae:	00 00       	nop
     1b0:	75 c3       	rjmp	.+1770   	; 0x89c <__vector_108>
     1b2:	00 00       	nop
     1b4:	4c c0       	rjmp	.+152    	; 0x24e <__bad_interrupt>
     1b6:	00 00       	nop
     1b8:	4a c0       	rjmp	.+148    	; 0x24e <__bad_interrupt>
     1ba:	00 00       	nop
     1bc:	48 c0       	rjmp	.+144    	; 0x24e <__bad_interrupt>
     1be:	00 00       	nop
     1c0:	46 c0       	rjmp	.+140    	; 0x24e <__bad_interrupt>
     1c2:	00 00       	nop
     1c4:	44 c0       	rjmp	.+136    	; 0x24e <__bad_interrupt>
     1c6:	00 00       	nop
     1c8:	42 c0       	rjmp	.+132    	; 0x24e <__bad_interrupt>
     1ca:	00 00       	nop
     1cc:	40 c0       	rjmp	.+128    	; 0x24e <__bad_interrupt>
     1ce:	00 00       	nop
     1d0:	3e c0       	rjmp	.+124    	; 0x24e <__bad_interrupt>
     1d2:	00 00       	nop
     1d4:	3c c0       	rjmp	.+120    	; 0x24e <__bad_interrupt>
     1d6:	00 00       	nop
     1d8:	3a c0       	rjmp	.+116    	; 0x24e <__bad_interrupt>
     1da:	00 00       	nop
     1dc:	38 c0       	rjmp	.+112    	; 0x24e <__bad_interrupt>
     1de:	00 00       	nop
     1e0:	36 c0       	rjmp	.+108    	; 0x24e <__bad_interrupt>
     1e2:	00 00       	nop
     1e4:	34 c0       	rjmp	.+104    	; 0x24e <__bad_interrupt>
     1e6:	00 00       	nop
     1e8:	32 c0       	rjmp	.+100    	; 0x24e <__bad_interrupt>
     1ea:	00 00       	nop
     1ec:	30 c0       	rjmp	.+96     	; 0x24e <__bad_interrupt>
     1ee:	00 00       	nop
     1f0:	2e c0       	rjmp	.+92     	; 0x24e <__bad_interrupt>
     1f2:	00 00       	nop
     1f4:	2c c0       	rjmp	.+88     	; 0x24e <__bad_interrupt>
     1f6:	00 00       	nop
     1f8:	2a c0       	rjmp	.+84     	; 0x24e <__bad_interrupt>
     1fa:	00 00       	nop
     1fc:	eb 04       	cpc	r14, r11
     1fe:	ee 04       	cpc	r14, r14
     200:	f2 04       	cpc	r15, r2
     202:	0d 05       	cpc	r16, r13
     204:	7d 05       	cpc	r23, r13
     206:	34 05       	cpc	r19, r4
     208:	4f 05       	cpc	r20, r15
     20a:	7d 05       	cpc	r23, r13
     20c:	75 05       	cpc	r23, r5

0000020e <__ctors_end>:
     20e:	11 24       	eor	r1, r1
     210:	1f be       	out	0x3f, r1	; 63
     212:	cf ef       	ldi	r28, 0xFF	; 255
     214:	cd bf       	out	0x3d, r28	; 61
     216:	df e5       	ldi	r29, 0x5F	; 95
     218:	de bf       	out	0x3e, r29	; 62
     21a:	00 e0       	ldi	r16, 0x00	; 0
     21c:	0c bf       	out	0x3c, r16	; 60

0000021e <__do_copy_data>:
     21e:	10 e2       	ldi	r17, 0x20	; 32
     220:	a0 e0       	ldi	r26, 0x00	; 0
     222:	b0 e2       	ldi	r27, 0x20	; 32
     224:	ec e9       	ldi	r30, 0x9C	; 156
     226:	fc e3       	ldi	r31, 0x3C	; 60
     228:	00 e0       	ldi	r16, 0x00	; 0
     22a:	0b bf       	out	0x3b, r16	; 59
     22c:	02 c0       	rjmp	.+4      	; 0x232 <__do_copy_data+0x14>
     22e:	07 90       	elpm	r0, Z+
     230:	0d 92       	st	X+, r0
     232:	a0 3d       	cpi	r26, 0xD0	; 208
     234:	b1 07       	cpc	r27, r17
     236:	d9 f7       	brne	.-10     	; 0x22e <__do_copy_data+0x10>

00000238 <__do_clear_bss>:
     238:	26 e2       	ldi	r18, 0x26	; 38
     23a:	a0 ed       	ldi	r26, 0xD0	; 208
     23c:	b0 e2       	ldi	r27, 0x20	; 32
     23e:	01 c0       	rjmp	.+2      	; 0x242 <.do_clear_bss_start>

00000240 <.do_clear_bss_loop>:
     240:	1d 92       	st	X+, r1

00000242 <.do_clear_bss_start>:
     242:	a5 38       	cpi	r26, 0x85	; 133
     244:	b2 07       	cpc	r27, r18
     246:	e1 f7       	brne	.-8      	; 0x240 <.do_clear_bss_loop>
     248:	dc d5       	rcall	.+3000   	; 0xe02 <main>
     24a:	0c 94 4c 1e 	jmp	0x3c98	; 0x3c98 <_exit>

0000024e <__bad_interrupt>:
     24e:	6f c1       	rjmp	.+734    	; 0x52e <__vector_default>

00000250 <AnalogUpdate>:
#include <math.h>
#include "struct.h"
#include "ADC.h"
#include "CanSat.h"

void AnalogUpdate(Analog_t * Analog){
     250:	2f 92       	push	r2
     252:	3f 92       	push	r3
     254:	4f 92       	push	r4
     256:	5f 92       	push	r5
     258:	6f 92       	push	r6
     25a:	7f 92       	push	r7
     25c:	8f 92       	push	r8
     25e:	9f 92       	push	r9
     260:	af 92       	push	r10
     262:	bf 92       	push	r11
     264:	cf 92       	push	r12
     266:	df 92       	push	r13
     268:	ef 92       	push	r14
     26a:	ff 92       	push	r15
     26c:	0f 93       	push	r16
     26e:	1f 93       	push	r17
     270:	cf 93       	push	r28
     272:	df 93       	push	r29
     274:	00 d0       	rcall	.+0      	; 0x276 <AnalogUpdate+0x26>
     276:	1f 92       	push	r1
     278:	cd b7       	in	r28, 0x3d	; 61
     27a:	de b7       	in	r29, 0x3e	; 62
     27c:	1c 01       	movw	r2, r24
	float Analog1, Analog2, Analog3, Vcc, Vbat, Vext, Vusb;
	
	ADCA.CH0.CTRL |= ADC_CH_INPUTMODE_SINGLEENDED_gc;	//singleended
     27e:	e0 e0       	ldi	r30, 0x00	; 0
     280:	f2 e0       	ldi	r31, 0x02	; 2
     282:	80 a1       	ldd	r24, Z+32	; 0x20
     284:	81 60       	ori	r24, 0x01	; 1
     286:	80 a3       	std	Z+32, r24	; 0x20
	//sensor 1
	//ADCA_CH0_CTRL = ADC_CH_INPUTMODE_DIFFWGAIN_gc | ADC_CH_GAIN_1X_gc;
	ADCA_CH0_MUXCTRL = ADC_CH_MUXPOS_PIN13_gc | ADC_CH_MUXNEG_GND_MODE4_gc;
     288:	8f e6       	ldi	r24, 0x6F	; 111
     28a:	80 93 21 02 	sts	0x0221, r24
	ADCA.CH0.CTRL |= ADC_CH_START_bm;				//rozpocznij pomiar CH0
     28e:	80 a1       	ldd	r24, Z+32	; 0x20
     290:	80 68       	ori	r24, 0x80	; 128
     292:	80 a3       	std	Z+32, r24	; 0x20
	while(!(ADCA.INTFLAGS & ADC_CH0IF_bm));
     294:	86 81       	ldd	r24, Z+6	; 0x06
     296:	80 ff       	sbrs	r24, 0
     298:	fd cf       	rjmp	.-6      	; 0x294 <AnalogUpdate+0x44>
	ADCA.CH0.INTFLAGS = ADC_CH0IF_bm;	
     29a:	00 e0       	ldi	r16, 0x00	; 0
     29c:	12 e0       	ldi	r17, 0x02	; 2
     29e:	81 e0       	ldi	r24, 0x01	; 1
     2a0:	f8 01       	movw	r30, r16
     2a2:	83 a3       	std	Z+35, r24	; 0x23
	Analog1 = ADCA.CH0RES/16.0;
     2a4:	60 89       	ldd	r22, Z+16	; 0x10
     2a6:	71 89       	ldd	r23, Z+17	; 0x11
     2a8:	80 e0       	ldi	r24, 0x00	; 0
     2aa:	90 e0       	ldi	r25, 0x00	; 0
     2ac:	0e 94 8c 1c 	call	0x3918	; 0x3918 <__floatunsisf>
     2b0:	20 e0       	ldi	r18, 0x00	; 0
     2b2:	30 e0       	ldi	r19, 0x00	; 0
     2b4:	40 e8       	ldi	r20, 0x80	; 128
     2b6:	5d e3       	ldi	r21, 0x3D	; 61
     2b8:	0e 94 42 1d 	call	0x3a84	; 0x3a84 <__mulsf3>
     2bc:	2b 01       	movw	r4, r22
     2be:	3c 01       	movw	r6, r24
	
	//sensor 2
	//ADCA_CH0_CTRL = ADC_CH_INPUTMODE_DIFFWGAIN_gc | ADC_CH_GAIN_1X_gc;
	ADCA_CH0_MUXCTRL = ADC_CH_MUXPOS_PIN14_gc | ADC_CH_MUXNEG_GND_MODE4_gc;
     2c0:	87 e7       	ldi	r24, 0x77	; 119
     2c2:	80 93 21 02 	sts	0x0221, r24
	ADCA.CH0.CTRL |= ADC_CH_START_bm;				//rozpocznij pomiar CH0
     2c6:	f8 01       	movw	r30, r16
     2c8:	80 a1       	ldd	r24, Z+32	; 0x20
     2ca:	80 68       	ori	r24, 0x80	; 128
     2cc:	80 a3       	std	Z+32, r24	; 0x20
	while(!(ADCA.INTFLAGS & ADC_CH0IF_bm));
     2ce:	86 81       	ldd	r24, Z+6	; 0x06
     2d0:	80 ff       	sbrs	r24, 0
     2d2:	fd cf       	rjmp	.-6      	; 0x2ce <AnalogUpdate+0x7e>
	ADCA.CH0.INTFLAGS = ADC_CH0IF_bm;
     2d4:	00 e0       	ldi	r16, 0x00	; 0
     2d6:	12 e0       	ldi	r17, 0x02	; 2
     2d8:	81 e0       	ldi	r24, 0x01	; 1
     2da:	f8 01       	movw	r30, r16
     2dc:	83 a3       	std	Z+35, r24	; 0x23
	Analog2 = ADCA.CH0RES/16.0;
     2de:	60 89       	ldd	r22, Z+16	; 0x10
     2e0:	71 89       	ldd	r23, Z+17	; 0x11
     2e2:	80 e0       	ldi	r24, 0x00	; 0
     2e4:	90 e0       	ldi	r25, 0x00	; 0
     2e6:	0e 94 8c 1c 	call	0x3918	; 0x3918 <__floatunsisf>
     2ea:	20 e0       	ldi	r18, 0x00	; 0
     2ec:	30 e0       	ldi	r19, 0x00	; 0
     2ee:	40 e8       	ldi	r20, 0x80	; 128
     2f0:	5d e3       	ldi	r21, 0x3D	; 61
     2f2:	0e 94 42 1d 	call	0x3a84	; 0x3a84 <__mulsf3>
     2f6:	4b 01       	movw	r8, r22
     2f8:	5c 01       	movw	r10, r24
	
	//sensor 3
	//ADCA_CH0_CTRL = ADC_CH_INPUTMODE_DIFFWGAIN_gc | ADC_CH_GAIN_1X_gc;
	ADCA_CH0_MUXCTRL = ADC_CH_MUXPOS_PIN15_gc | ADC_CH_MUXNEG_GND_MODE4_gc;
     2fa:	8f e7       	ldi	r24, 0x7F	; 127
     2fc:	80 93 21 02 	sts	0x0221, r24
	ADCA.CH0.CTRL |= ADC_CH_START_bm;				//rozpocznij pomiar CH0
     300:	f8 01       	movw	r30, r16
     302:	80 a1       	ldd	r24, Z+32	; 0x20
     304:	80 68       	ori	r24, 0x80	; 128
     306:	80 a3       	std	Z+32, r24	; 0x20
	while(!(ADCA.INTFLAGS & ADC_CH0IF_bm));
     308:	86 81       	ldd	r24, Z+6	; 0x06
     30a:	80 ff       	sbrs	r24, 0
     30c:	fd cf       	rjmp	.-6      	; 0x308 <AnalogUpdate+0xb8>
	ADCA.CH0.INTFLAGS = ADC_CH0IF_bm;
     30e:	00 e0       	ldi	r16, 0x00	; 0
     310:	12 e0       	ldi	r17, 0x02	; 2
     312:	81 e0       	ldi	r24, 0x01	; 1
     314:	f8 01       	movw	r30, r16
     316:	83 a3       	std	Z+35, r24	; 0x23
	Analog3 = ADCA.CH0RES/16.0;
     318:	60 89       	ldd	r22, Z+16	; 0x10
     31a:	71 89       	ldd	r23, Z+17	; 0x11
     31c:	80 e0       	ldi	r24, 0x00	; 0
     31e:	90 e0       	ldi	r25, 0x00	; 0
     320:	0e 94 8c 1c 	call	0x3918	; 0x3918 <__floatunsisf>
     324:	20 e0       	ldi	r18, 0x00	; 0
     326:	30 e0       	ldi	r19, 0x00	; 0
     328:	40 e8       	ldi	r20, 0x80	; 128
     32a:	5d e3       	ldi	r21, 0x3D	; 61
     32c:	0e 94 42 1d 	call	0x3a84	; 0x3a84 <__mulsf3>
     330:	6b 01       	movw	r12, r22
     332:	7c 01       	movw	r14, r24
	
	//Vbat
	ADCA_CH0_MUXCTRL = ADC_CH_MUXPOS_PIN7_gc;	    // 
     334:	88 e3       	ldi	r24, 0x38	; 56
     336:	80 93 21 02 	sts	0x0221, r24
	ADCA.CH0.CTRL |= ADC_CH_START_bm;				//rozpocznij pomiar CH0
     33a:	f8 01       	movw	r30, r16
     33c:	80 a1       	ldd	r24, Z+32	; 0x20
     33e:	80 68       	ori	r24, 0x80	; 128
     340:	80 a3       	std	Z+32, r24	; 0x20
	while(!(ADCA.INTFLAGS & ADC_CH0IF_bm));
     342:	86 81       	ldd	r24, Z+6	; 0x06
     344:	80 ff       	sbrs	r24, 0
     346:	fd cf       	rjmp	.-6      	; 0x342 <AnalogUpdate+0xf2>
	ADCA.CH0.INTFLAGS = ADC_CH0IF_bm;
     348:	00 e0       	ldi	r16, 0x00	; 0
     34a:	12 e0       	ldi	r17, 0x02	; 2
     34c:	81 e0       	ldi	r24, 0x01	; 1
     34e:	f8 01       	movw	r30, r16
     350:	83 a3       	std	Z+35, r24	; 0x23
	Vbat = (ADCA.CH0RES/4096.0-0.05)*10.3;
     352:	60 89       	ldd	r22, Z+16	; 0x10
     354:	71 89       	ldd	r23, Z+17	; 0x11
     356:	80 e0       	ldi	r24, 0x00	; 0
     358:	90 e0       	ldi	r25, 0x00	; 0
     35a:	0e 94 8c 1c 	call	0x3918	; 0x3918 <__floatunsisf>
     35e:	20 e0       	ldi	r18, 0x00	; 0
     360:	30 e0       	ldi	r19, 0x00	; 0
     362:	40 e8       	ldi	r20, 0x80	; 128
     364:	59 e3       	ldi	r21, 0x39	; 57
     366:	0e 94 42 1d 	call	0x3a84	; 0x3a84 <__mulsf3>
     36a:	2d ec       	ldi	r18, 0xCD	; 205
     36c:	3c ec       	ldi	r19, 0xCC	; 204
     36e:	4c e4       	ldi	r20, 0x4C	; 76
     370:	5d e3       	ldi	r21, 0x3D	; 61
     372:	0e 94 8e 1b 	call	0x371c	; 0x371c <__subsf3>
     376:	2d ec       	ldi	r18, 0xCD	; 205
     378:	3c ec       	ldi	r19, 0xCC	; 204
     37a:	44 e2       	ldi	r20, 0x24	; 36
     37c:	51 e4       	ldi	r21, 0x41	; 65
     37e:	0e 94 42 1d 	call	0x3a84	; 0x3a84 <__mulsf3>
     382:	69 83       	std	Y+1, r22	; 0x01
     384:	7a 83       	std	Y+2, r23	; 0x02
     386:	8b 83       	std	Y+3, r24	; 0x03
     388:	9c 83       	std	Y+4, r25	; 0x04
	
	//Vex
	//ADCA_CH0_CTRL = ADC_CH_INPUTMODE_DIFFWGAIN_gc | ADC_CH_GAIN_1X_gc;
	ADCA_CH0_MUXCTRL = ADC_CH_MUXPOS_PIN1_gc | ADC_CH_MUXNEG_GND_MODE4_gc;
     38a:	8f e0       	ldi	r24, 0x0F	; 15
     38c:	80 93 21 02 	sts	0x0221, r24
	ADCA.CH0.CTRL |= ADC_CH_START_bm;				//rozpocznij pomiar CH0
     390:	f8 01       	movw	r30, r16
     392:	80 a1       	ldd	r24, Z+32	; 0x20
     394:	80 68       	ori	r24, 0x80	; 128
     396:	80 a3       	std	Z+32, r24	; 0x20
	while(!(ADCA.INTFLAGS & ADC_CH0IF_bm));
     398:	86 81       	ldd	r24, Z+6	; 0x06
     39a:	80 ff       	sbrs	r24, 0
     39c:	fd cf       	rjmp	.-6      	; 0x398 <AnalogUpdate+0x148>
	ADCA.CH0.INTFLAGS = ADC_CH0IF_bm;
     39e:	e0 e0       	ldi	r30, 0x00	; 0
     3a0:	f2 e0       	ldi	r31, 0x02	; 2
     3a2:	81 e0       	ldi	r24, 0x01	; 1
     3a4:	83 a3       	std	Z+35, r24	; 0x23
	Vext = (ADCA.CH0RES/4096.0-0.05)*10.3;
     3a6:	80 89       	ldd	r24, Z+16	; 0x10
     3a8:	91 89       	ldd	r25, Z+17	; 0x11
	
	//Vusb
	//ADCA_CH0_CTRL = ADC_CH_INPUTMODE_DIFFWGAIN_gc | ADC_CH_GAIN_1X_gc;
	ADCA_CH0_MUXCTRL = ADC_CH_MUXPOS_PIN8_gc | ADC_CH_MUXNEG_GND_MODE4_gc;
     3aa:	87 e4       	ldi	r24, 0x47	; 71
     3ac:	80 93 21 02 	sts	0x0221, r24
	ADCA.CH0.CTRL |= ADC_CH_START_bm;				//rozpocznij pomiar CH0
     3b0:	80 a1       	ldd	r24, Z+32	; 0x20
     3b2:	80 68       	ori	r24, 0x80	; 128
     3b4:	80 a3       	std	Z+32, r24	; 0x20
	while(!(ADCA.INTFLAGS & ADC_CH0IF_bm));
     3b6:	86 81       	ldd	r24, Z+6	; 0x06
     3b8:	80 ff       	sbrs	r24, 0
     3ba:	fd cf       	rjmp	.-6      	; 0x3b6 <AnalogUpdate+0x166>
	ADCA.CH0.INTFLAGS = ADC_CH0IF_bm;
     3bc:	e0 e0       	ldi	r30, 0x00	; 0
     3be:	f2 e0       	ldi	r31, 0x02	; 2
     3c0:	81 e0       	ldi	r24, 0x01	; 1
     3c2:	83 a3       	std	Z+35, r24	; 0x23
	Vusb = (ADCA.CH0RES/4096.0-0.05)*10.3;
     3c4:	80 89       	ldd	r24, Z+16	; 0x10
     3c6:	91 89       	ldd	r25, Z+17	; 0x11
	
	//Vcc
	ADCA.CH0.CTRL = ADC_CH_INPUTMODE_INTERNAL_gc;	//internal
     3c8:	10 a2       	std	Z+32, r1	; 0x20
	ADCA.CH0.MUXCTRL = ADC_CH_MUXINT_SCALEDVCC_gc;
     3ca:	80 e1       	ldi	r24, 0x10	; 16
     3cc:	81 a3       	std	Z+33, r24	; 0x21
	ADCA.CH0.CTRL |= ADC_CH_START_bm;				//rozpocznij pomiar 1/10 VCC
     3ce:	80 a1       	ldd	r24, Z+32	; 0x20
     3d0:	80 68       	ori	r24, 0x80	; 128
     3d2:	80 a3       	std	Z+32, r24	; 0x20
	while(!(ADCA.INTFLAGS & ADC_CH0IF_bm));
     3d4:	86 81       	ldd	r24, Z+6	; 0x06
     3d6:	80 ff       	sbrs	r24, 0
     3d8:	fd cf       	rjmp	.-6      	; 0x3d4 <AnalogUpdate+0x184>
	ADCA.CH0.INTFLAGS = ADC_CH0IF_bm;
     3da:	e0 e0       	ldi	r30, 0x00	; 0
     3dc:	f2 e0       	ldi	r31, 0x02	; 2
     3de:	81 e0       	ldi	r24, 0x01	; 1
     3e0:	83 a3       	std	Z+35, r24	; 0x23
	Vcc = ((ADCA.CH0RES/4096.0)-0.05)*10.35;
     3e2:	00 89       	ldd	r16, Z+16	; 0x10
     3e4:	11 89       	ldd	r17, Z+17	; 0x11
	
	//-----Analog to percent-----------------------
	Analog->AnalogIn1 = ((Analog1 * 100) / 255);
     3e6:	20 e0       	ldi	r18, 0x00	; 0
     3e8:	30 e0       	ldi	r19, 0x00	; 0
     3ea:	48 ec       	ldi	r20, 0xC8	; 200
     3ec:	52 e4       	ldi	r21, 0x42	; 66
     3ee:	c3 01       	movw	r24, r6
     3f0:	b2 01       	movw	r22, r4
     3f2:	0e 94 42 1d 	call	0x3a84	; 0x3a84 <__mulsf3>
     3f6:	20 e0       	ldi	r18, 0x00	; 0
     3f8:	30 e0       	ldi	r19, 0x00	; 0
     3fa:	4f e7       	ldi	r20, 0x7F	; 127
     3fc:	53 e4       	ldi	r21, 0x43	; 67
     3fe:	0e 94 f3 1b 	call	0x37e6	; 0x37e6 <__divsf3>
     402:	f1 01       	movw	r30, r2
     404:	60 8b       	std	Z+16, r22	; 0x10
     406:	71 8b       	std	Z+17, r23	; 0x11
     408:	82 8b       	std	Z+18, r24	; 0x12
     40a:	93 8b       	std	Z+19, r25	; 0x13
	Analog->AnalogIn2 = ((Analog2 * 100) / 255);
     40c:	20 e0       	ldi	r18, 0x00	; 0
     40e:	30 e0       	ldi	r19, 0x00	; 0
     410:	48 ec       	ldi	r20, 0xC8	; 200
     412:	52 e4       	ldi	r21, 0x42	; 66
     414:	c5 01       	movw	r24, r10
     416:	b4 01       	movw	r22, r8
     418:	0e 94 42 1d 	call	0x3a84	; 0x3a84 <__mulsf3>
     41c:	20 e0       	ldi	r18, 0x00	; 0
     41e:	30 e0       	ldi	r19, 0x00	; 0
     420:	4f e7       	ldi	r20, 0x7F	; 127
     422:	53 e4       	ldi	r21, 0x43	; 67
     424:	0e 94 f3 1b 	call	0x37e6	; 0x37e6 <__divsf3>
     428:	f1 01       	movw	r30, r2
     42a:	64 8b       	std	Z+20, r22	; 0x14
     42c:	75 8b       	std	Z+21, r23	; 0x15
     42e:	86 8b       	std	Z+22, r24	; 0x16
     430:	97 8b       	std	Z+23, r25	; 0x17
	Analog->AnalogIn3 = ((Analog3 * 100) / 255);
     432:	20 e0       	ldi	r18, 0x00	; 0
     434:	30 e0       	ldi	r19, 0x00	; 0
     436:	48 ec       	ldi	r20, 0xC8	; 200
     438:	52 e4       	ldi	r21, 0x42	; 66
     43a:	c7 01       	movw	r24, r14
     43c:	b6 01       	movw	r22, r12
     43e:	0e 94 42 1d 	call	0x3a84	; 0x3a84 <__mulsf3>
     442:	20 e0       	ldi	r18, 0x00	; 0
     444:	30 e0       	ldi	r19, 0x00	; 0
     446:	4f e7       	ldi	r20, 0x7F	; 127
     448:	53 e4       	ldi	r21, 0x43	; 67
     44a:	0e 94 f3 1b 	call	0x37e6	; 0x37e6 <__divsf3>
     44e:	f1 01       	movw	r30, r2
     450:	60 8f       	std	Z+24, r22	; 0x18
     452:	71 8f       	std	Z+25, r23	; 0x19
     454:	82 8f       	std	Z+26, r24	; 0x1a
     456:	93 8f       	std	Z+27, r25	; 0x1b
	
	//-----Exponenetal filtering-------------------
	Analog->Vbat = Analog->Vbat*(1.0-BAT_voltage_alpha) + Vbat*BAT_voltage_alpha;
     458:	23 e3       	ldi	r18, 0x33	; 51
     45a:	33 e3       	ldi	r19, 0x33	; 51
     45c:	43 e7       	ldi	r20, 0x73	; 115
     45e:	5f e3       	ldi	r21, 0x3F	; 63
     460:	64 81       	ldd	r22, Z+4	; 0x04
     462:	75 81       	ldd	r23, Z+5	; 0x05
     464:	86 81       	ldd	r24, Z+6	; 0x06
     466:	97 81       	ldd	r25, Z+7	; 0x07
     468:	0e 94 42 1d 	call	0x3a84	; 0x3a84 <__mulsf3>
     46c:	6b 01       	movw	r12, r22
     46e:	7c 01       	movw	r14, r24
     470:	2d ec       	ldi	r18, 0xCD	; 205
     472:	3c ec       	ldi	r19, 0xCC	; 204
     474:	4c e4       	ldi	r20, 0x4C	; 76
     476:	5d e3       	ldi	r21, 0x3D	; 61
     478:	69 81       	ldd	r22, Y+1	; 0x01
     47a:	7a 81       	ldd	r23, Y+2	; 0x02
     47c:	8b 81       	ldd	r24, Y+3	; 0x03
     47e:	9c 81       	ldd	r25, Y+4	; 0x04
     480:	0e 94 42 1d 	call	0x3a84	; 0x3a84 <__mulsf3>
     484:	9b 01       	movw	r18, r22
     486:	ac 01       	movw	r20, r24
     488:	c7 01       	movw	r24, r14
     48a:	b6 01       	movw	r22, r12
     48c:	0e 94 8f 1b 	call	0x371e	; 0x371e <__addsf3>
     490:	f1 01       	movw	r30, r2
     492:	64 83       	std	Z+4, r22	; 0x04
     494:	75 83       	std	Z+5, r23	; 0x05
     496:	86 83       	std	Z+6, r24	; 0x06
     498:	97 83       	std	Z+7, r25	; 0x07
	Analog->Vcc = Analog->Vcc*(1.0-BAT_voltage_alpha) + Vcc*BAT_voltage_alpha;
     49a:	23 e3       	ldi	r18, 0x33	; 51
     49c:	33 e3       	ldi	r19, 0x33	; 51
     49e:	43 e7       	ldi	r20, 0x73	; 115
     4a0:	5f e3       	ldi	r21, 0x3F	; 63
     4a2:	64 8d       	ldd	r22, Z+28	; 0x1c
     4a4:	75 8d       	ldd	r23, Z+29	; 0x1d
     4a6:	86 8d       	ldd	r24, Z+30	; 0x1e
     4a8:	97 8d       	ldd	r25, Z+31	; 0x1f
     4aa:	0e 94 42 1d 	call	0x3a84	; 0x3a84 <__mulsf3>
     4ae:	6b 01       	movw	r12, r22
     4b0:	7c 01       	movw	r14, r24
	ADCA.CH0.CTRL = ADC_CH_INPUTMODE_INTERNAL_gc;	//internal
	ADCA.CH0.MUXCTRL = ADC_CH_MUXINT_SCALEDVCC_gc;
	ADCA.CH0.CTRL |= ADC_CH_START_bm;				//rozpocznij pomiar 1/10 VCC
	while(!(ADCA.INTFLAGS & ADC_CH0IF_bm));
	ADCA.CH0.INTFLAGS = ADC_CH0IF_bm;
	Vcc = ((ADCA.CH0RES/4096.0)-0.05)*10.35;
     4b2:	b8 01       	movw	r22, r16
     4b4:	80 e0       	ldi	r24, 0x00	; 0
     4b6:	90 e0       	ldi	r25, 0x00	; 0
     4b8:	0e 94 8c 1c 	call	0x3918	; 0x3918 <__floatunsisf>
     4bc:	20 e0       	ldi	r18, 0x00	; 0
     4be:	30 e0       	ldi	r19, 0x00	; 0
     4c0:	40 e8       	ldi	r20, 0x80	; 128
     4c2:	59 e3       	ldi	r21, 0x39	; 57
     4c4:	0e 94 42 1d 	call	0x3a84	; 0x3a84 <__mulsf3>
     4c8:	2d ec       	ldi	r18, 0xCD	; 205
     4ca:	3c ec       	ldi	r19, 0xCC	; 204
     4cc:	4c e4       	ldi	r20, 0x4C	; 76
     4ce:	5d e3       	ldi	r21, 0x3D	; 61
     4d0:	0e 94 8e 1b 	call	0x371c	; 0x371c <__subsf3>
     4d4:	2a e9       	ldi	r18, 0x9A	; 154
     4d6:	39 e9       	ldi	r19, 0x99	; 153
     4d8:	45 e2       	ldi	r20, 0x25	; 37
     4da:	51 e4       	ldi	r21, 0x41	; 65
     4dc:	0e 94 42 1d 	call	0x3a84	; 0x3a84 <__mulsf3>
	Analog->AnalogIn2 = ((Analog2 * 100) / 255);
	Analog->AnalogIn3 = ((Analog3 * 100) / 255);
	
	//-----Exponenetal filtering-------------------
	Analog->Vbat = Analog->Vbat*(1.0-BAT_voltage_alpha) + Vbat*BAT_voltage_alpha;
	Analog->Vcc = Analog->Vcc*(1.0-BAT_voltage_alpha) + Vcc*BAT_voltage_alpha;
     4e0:	2d ec       	ldi	r18, 0xCD	; 205
     4e2:	3c ec       	ldi	r19, 0xCC	; 204
     4e4:	4c e4       	ldi	r20, 0x4C	; 76
     4e6:	5d e3       	ldi	r21, 0x3D	; 61
     4e8:	0e 94 42 1d 	call	0x3a84	; 0x3a84 <__mulsf3>
     4ec:	9b 01       	movw	r18, r22
     4ee:	ac 01       	movw	r20, r24
     4f0:	c7 01       	movw	r24, r14
     4f2:	b6 01       	movw	r22, r12
     4f4:	0e 94 8f 1b 	call	0x371e	; 0x371e <__addsf3>
     4f8:	f1 01       	movw	r30, r2
     4fa:	64 8f       	std	Z+28, r22	; 0x1c
     4fc:	75 8f       	std	Z+29, r23	; 0x1d
     4fe:	86 8f       	std	Z+30, r24	; 0x1e
     500:	97 8f       	std	Z+31, r25	; 0x1f
}
     502:	24 96       	adiw	r28, 0x04	; 4
     504:	cd bf       	out	0x3d, r28	; 61
     506:	de bf       	out	0x3e, r29	; 62
     508:	df 91       	pop	r29
     50a:	cf 91       	pop	r28
     50c:	1f 91       	pop	r17
     50e:	0f 91       	pop	r16
     510:	ff 90       	pop	r15
     512:	ef 90       	pop	r14
     514:	df 90       	pop	r13
     516:	cf 90       	pop	r12
     518:	bf 90       	pop	r11
     51a:	af 90       	pop	r10
     51c:	9f 90       	pop	r9
     51e:	8f 90       	pop	r8
     520:	7f 90       	pop	r7
     522:	6f 90       	pop	r6
     524:	5f 90       	pop	r5
     526:	4f 90       	pop	r4
     528:	3f 90       	pop	r3
     52a:	2f 90       	pop	r2
     52c:	08 95       	ret

0000052e <__vector_default>:
        XBEE_UART.DATA = buf0[i++];
        _delay_ms(2);
    }
    buzzer_d.trigger = false;														//odblokowanie buzzera
    SPIaddress = 0;
}
     52e:	1f 92       	push	r1
     530:	0f 92       	push	r0
     532:	0f b6       	in	r0, 0x3f	; 63
     534:	0f 92       	push	r0
     536:	11 24       	eor	r1, r1
     538:	8f 93       	push	r24
     53a:	88 e0       	ldi	r24, 0x08	; 8
     53c:	80 93 07 06 	sts	0x0607, r24
     540:	8f 91       	pop	r24
     542:	0f 90       	pop	r0
     544:	0f be       	out	0x3f, r0	; 63
     546:	0f 90       	pop	r0
     548:	1f 90       	pop	r1
     54a:	18 95       	reti

0000054c <__vector_90>:
     54c:	1f 92       	push	r1
     54e:	0f 92       	push	r0
     550:	0f b6       	in	r0, 0x3f	; 63
     552:	0f 92       	push	r0
     554:	11 24       	eor	r1, r1
     556:	0b b6       	in	r0, 0x3b	; 59
     558:	0f 92       	push	r0
     55a:	8f 93       	push	r24
     55c:	9f 93       	push	r25
     55e:	ef 93       	push	r30
     560:	ff 93       	push	r31
     562:	e0 91 b9 25 	lds	r30, 0x25B9
     566:	f0 91 ba 25 	lds	r31, 0x25BA
     56a:	ef 59       	subi	r30, 0x9F	; 159
     56c:	fc 4d       	sbci	r31, 0xDC	; 220
     56e:	80 81       	ld	r24, Z
     570:	88 23       	and	r24, r24
     572:	f9 f0       	breq	.+62     	; 0x5b2 <__vector_90+0x66>
     574:	83 32       	cpi	r24, 0x23	; 35
     576:	e9 f0       	breq	.+58     	; 0x5b2 <__vector_90+0x66>
     578:	91 e0       	ldi	r25, 0x01	; 1
     57a:	90 93 bb 25 	sts	0x25BB, r25
     57e:	85 32       	cpi	r24, 0x25	; 37
     580:	21 f4       	brne	.+8      	; 0x58a <__vector_90+0x3e>
     582:	8a e0       	ldi	r24, 0x0A	; 10
     584:	80 93 a0 09 	sts	0x09A0, r24
     588:	02 c0       	rjmp	.+4      	; 0x58e <__vector_90+0x42>
     58a:	80 93 a0 09 	sts	0x09A0, r24
     58e:	80 91 b9 25 	lds	r24, 0x25B9
     592:	90 91 ba 25 	lds	r25, 0x25BA
     596:	87 39       	cpi	r24, 0x97	; 151
     598:	91 05       	cpc	r25, r1
     59a:	30 f4       	brcc	.+12     	; 0x5a8 <__vector_90+0x5c>
     59c:	01 96       	adiw	r24, 0x01	; 1
     59e:	80 93 b9 25 	sts	0x25B9, r24
     5a2:	90 93 ba 25 	sts	0x25BA, r25
     5a6:	07 c0       	rjmp	.+14     	; 0x5b6 <__vector_90+0x6a>
     5a8:	fc 01       	movw	r30, r24
     5aa:	ef 59       	subi	r30, 0x9F	; 159
     5ac:	fc 4d       	sbci	r31, 0xDC	; 220
     5ae:	10 82       	st	Z, r1
     5b0:	02 c0       	rjmp	.+4      	; 0x5b6 <__vector_90+0x6a>
     5b2:	10 92 bb 25 	sts	0x25BB, r1
     5b6:	ff 91       	pop	r31
     5b8:	ef 91       	pop	r30
     5ba:	9f 91       	pop	r25
     5bc:	8f 91       	pop	r24
     5be:	0f 90       	pop	r0
     5c0:	0b be       	out	0x3b, r0	; 59
     5c2:	0f 90       	pop	r0
     5c4:	0f be       	out	0x3f, r0	; 63
     5c6:	0f 90       	pop	r0
     5c8:	1f 90       	pop	r1
     5ca:	18 95       	reti

000005cc <__vector_88>:
     5cc:	1f 92       	push	r1
     5ce:	0f 92       	push	r0
     5d0:	0f b6       	in	r0, 0x3f	; 63
     5d2:	0f 92       	push	r0
     5d4:	11 24       	eor	r1, r1
     5d6:	0b b6       	in	r0, 0x3b	; 59
     5d8:	0f 92       	push	r0
     5da:	2f 93       	push	r18
     5dc:	3f 93       	push	r19
     5de:	4f 93       	push	r20
     5e0:	5f 93       	push	r21
     5e2:	6f 93       	push	r22
     5e4:	7f 93       	push	r23
     5e6:	8f 93       	push	r24
     5e8:	9f 93       	push	r25
     5ea:	af 93       	push	r26
     5ec:	bf 93       	push	r27
     5ee:	ef 93       	push	r30
     5f0:	ff 93       	push	r31
     5f2:	cf 93       	push	r28
     5f4:	df 93       	push	r29
     5f6:	1f 92       	push	r1
     5f8:	cd b7       	in	r28, 0x3d	; 61
     5fa:	de b7       	in	r29, 0x3e	; 62
     5fc:	80 e1       	ldi	r24, 0x10	; 16
     5fe:	80 93 05 06 	sts	0x0605, r24
     602:	80 91 a0 09 	lds	r24, 0x09A0
     606:	89 83       	std	Y+1, r24	; 0x01
     608:	89 81       	ldd	r24, Y+1	; 0x01
     60a:	84 32       	cpi	r24, 0x24	; 36
     60c:	21 f4       	brne	.+8      	; 0x616 <__vector_88+0x4a>
     60e:	81 e0       	ldi	r24, 0x01	; 1
     610:	80 93 e8 25 	sts	0x25E8, r24
     614:	a6 c0       	rjmp	.+332    	; 0x762 <__vector_88+0x196>
     616:	89 81       	ldd	r24, Y+1	; 0x01
     618:	82 35       	cpi	r24, 0x52	; 82
     61a:	81 f4       	brne	.+32     	; 0x63c <__vector_88+0x70>
     61c:	80 91 e8 25 	lds	r24, 0x25E8
     620:	88 23       	and	r24, r24
     622:	09 f4       	brne	.+2      	; 0x626 <__vector_88+0x5a>
     624:	7e c0       	rjmp	.+252    	; 0x722 <__vector_88+0x156>
     626:	8f b7       	in	r24, 0x3f	; 63
     628:	f8 94       	cli
     62a:	10 92 e8 25 	sts	0x25E8, r1
     62e:	98 ed       	ldi	r25, 0xD8	; 216
     630:	94 bf       	out	0x34, r25	; 52
     632:	91 e0       	ldi	r25, 0x01	; 1
     634:	90 93 79 00 	sts	0x0079, r25
     638:	8f bf       	out	0x3f, r24	; 63
     63a:	93 c0       	rjmp	.+294    	; 0x762 <__vector_88+0x196>
     63c:	89 81       	ldd	r24, Y+1	; 0x01
     63e:	80 35       	cpi	r24, 0x50	; 80
     640:	f9 f4       	brne	.+62     	; 0x680 <__vector_88+0xb4>
     642:	80 91 e8 25 	lds	r24, 0x25E8
     646:	88 23       	and	r24, r24
     648:	09 f4       	brne	.+2      	; 0x64c <__vector_88+0x80>
     64a:	71 c0       	rjmp	.+226    	; 0x72e <__vector_88+0x162>
     64c:	cd d4       	rcall	.+2458   	; 0xfe8 <SPI_ChipErase>
     64e:	10 92 d4 20 	sts	0x20D4, r1
     652:	10 92 d5 20 	sts	0x20D5, r1
     656:	10 92 d6 20 	sts	0x20D6, r1
     65a:	10 92 d7 20 	sts	0x20D7, r1
     65e:	10 92 e8 25 	sts	0x25E8, r1
     662:	e8 ed       	ldi	r30, 0xD8	; 216
     664:	f0 e2       	ldi	r31, 0x20	; 32
     666:	81 e0       	ldi	r24, 0x01	; 1
     668:	81 83       	std	Z+1, r24	; 0x01
     66a:	80 83       	st	Z, r24
     66c:	2f ef       	ldi	r18, 0xFF	; 255
     66e:	87 ea       	ldi	r24, 0xA7	; 167
     670:	91 e6       	ldi	r25, 0x61	; 97
     672:	21 50       	subi	r18, 0x01	; 1
     674:	80 40       	sbci	r24, 0x00	; 0
     676:	90 40       	sbci	r25, 0x00	; 0
     678:	e1 f7       	brne	.-8      	; 0x672 <__vector_88+0xa6>
     67a:	00 c0       	rjmp	.+0      	; 0x67c <__vector_88+0xb0>
     67c:	00 00       	nop
     67e:	71 c0       	rjmp	.+226    	; 0x762 <__vector_88+0x196>
     680:	89 81       	ldd	r24, Y+1	; 0x01
     682:	88 35       	cpi	r24, 0x58	; 88
     684:	59 f4       	brne	.+22     	; 0x69c <__vector_88+0xd0>
     686:	80 91 e8 25 	lds	r24, 0x25E8
     68a:	88 23       	and	r24, r24
     68c:	09 f4       	brne	.+2      	; 0x690 <__vector_88+0xc4>
     68e:	55 c0       	rjmp	.+170    	; 0x73a <__vector_88+0x16e>
     690:	e6 ee       	ldi	r30, 0xE6	; 230
     692:	f5 e2       	ldi	r31, 0x25	; 37
     694:	81 e0       	ldi	r24, 0x01	; 1
     696:	85 83       	std	Z+5, r24	; 0x05
     698:	12 82       	std	Z+2, r1	; 0x02
     69a:	63 c0       	rjmp	.+198    	; 0x762 <__vector_88+0x196>
     69c:	89 81       	ldd	r24, Y+1	; 0x01
     69e:	8b 34       	cpi	r24, 0x4B	; 75
     6a0:	51 f4       	brne	.+20     	; 0x6b6 <__vector_88+0xea>
     6a2:	80 91 e8 25 	lds	r24, 0x25E8
     6a6:	88 23       	and	r24, r24
     6a8:	09 f4       	brne	.+2      	; 0x6ac <__vector_88+0xe0>
     6aa:	4c c0       	rjmp	.+152    	; 0x744 <__vector_88+0x178>
     6ac:	e6 ee       	ldi	r30, 0xE6	; 230
     6ae:	f5 e2       	ldi	r31, 0x25	; 37
     6b0:	15 82       	std	Z+5, r1	; 0x05
     6b2:	12 82       	std	Z+2, r1	; 0x02
     6b4:	56 c0       	rjmp	.+172    	; 0x762 <__vector_88+0x196>
     6b6:	89 81       	ldd	r24, Y+1	; 0x01
     6b8:	83 35       	cpi	r24, 0x53	; 83
     6ba:	59 f4       	brne	.+22     	; 0x6d2 <__vector_88+0x106>
     6bc:	80 91 e8 25 	lds	r24, 0x25E8
     6c0:	88 23       	and	r24, r24
     6c2:	09 f4       	brne	.+2      	; 0x6c6 <__vector_88+0xfa>
     6c4:	44 c0       	rjmp	.+136    	; 0x74e <__vector_88+0x182>
     6c6:	e6 ee       	ldi	r30, 0xE6	; 230
     6c8:	f5 e2       	ldi	r31, 0x25	; 37
     6ca:	81 e0       	ldi	r24, 0x01	; 1
     6cc:	84 83       	std	Z+4, r24	; 0x04
     6ce:	12 82       	std	Z+2, r1	; 0x02
     6d0:	48 c0       	rjmp	.+144    	; 0x762 <__vector_88+0x196>
     6d2:	89 81       	ldd	r24, Y+1	; 0x01
     6d4:	86 34       	cpi	r24, 0x46	; 70
     6d6:	49 f4       	brne	.+18     	; 0x6ea <__vector_88+0x11e>
     6d8:	80 91 e8 25 	lds	r24, 0x25E8
     6dc:	88 23       	and	r24, r24
     6de:	e1 f1       	breq	.+120    	; 0x758 <__vector_88+0x18c>
     6e0:	e6 ee       	ldi	r30, 0xE6	; 230
     6e2:	f5 e2       	ldi	r31, 0x25	; 37
     6e4:	14 82       	std	Z+4, r1	; 0x04
     6e6:	12 82       	std	Z+2, r1	; 0x02
     6e8:	3c c0       	rjmp	.+120    	; 0x762 <__vector_88+0x196>
     6ea:	89 81       	ldd	r24, Y+1	; 0x01
     6ec:	81 34       	cpi	r24, 0x41	; 65
     6ee:	51 f4       	brne	.+20     	; 0x704 <__vector_88+0x138>
     6f0:	80 91 e8 25 	lds	r24, 0x25E8
     6f4:	88 23       	and	r24, r24
     6f6:	99 f1       	breq	.+102    	; 0x75e <__vector_88+0x192>
     6f8:	e6 ee       	ldi	r30, 0xE6	; 230
     6fa:	f5 e2       	ldi	r31, 0x25	; 37
     6fc:	81 e0       	ldi	r24, 0x01	; 1
     6fe:	86 83       	std	Z+6, r24	; 0x06
     700:	12 82       	std	Z+2, r1	; 0x02
     702:	2f c0       	rjmp	.+94     	; 0x762 <__vector_88+0x196>
     704:	89 81       	ldd	r24, Y+1	; 0x01
     706:	84 34       	cpi	r24, 0x44	; 68
     708:	49 f4       	brne	.+18     	; 0x71c <__vector_88+0x150>
     70a:	80 91 e8 25 	lds	r24, 0x25E8
     70e:	88 23       	and	r24, r24
     710:	29 f0       	breq	.+10     	; 0x71c <__vector_88+0x150>
     712:	e6 ee       	ldi	r30, 0xE6	; 230
     714:	f5 e2       	ldi	r31, 0x25	; 37
     716:	16 82       	std	Z+6, r1	; 0x06
     718:	12 82       	std	Z+2, r1	; 0x02
     71a:	23 c0       	rjmp	.+70     	; 0x762 <__vector_88+0x196>
     71c:	10 92 e8 25 	sts	0x25E8, r1
     720:	20 c0       	rjmp	.+64     	; 0x762 <__vector_88+0x196>
     722:	89 81       	ldd	r24, Y+1	; 0x01
     724:	89 81       	ldd	r24, Y+1	; 0x01
     726:	88 35       	cpi	r24, 0x58	; 88
     728:	09 f0       	breq	.+2      	; 0x72c <__vector_88+0x160>
     72a:	b8 cf       	rjmp	.-144    	; 0x69c <__vector_88+0xd0>
     72c:	06 c0       	rjmp	.+12     	; 0x73a <__vector_88+0x16e>
     72e:	89 81       	ldd	r24, Y+1	; 0x01
     730:	89 81       	ldd	r24, Y+1	; 0x01
     732:	8b 34       	cpi	r24, 0x4B	; 75
     734:	09 f0       	breq	.+2      	; 0x738 <__vector_88+0x16c>
     736:	bf cf       	rjmp	.-130    	; 0x6b6 <__vector_88+0xea>
     738:	05 c0       	rjmp	.+10     	; 0x744 <__vector_88+0x178>
     73a:	89 81       	ldd	r24, Y+1	; 0x01
     73c:	89 81       	ldd	r24, Y+1	; 0x01
     73e:	83 35       	cpi	r24, 0x53	; 83
     740:	41 f6       	brne	.-112    	; 0x6d2 <__vector_88+0x106>
     742:	05 c0       	rjmp	.+10     	; 0x74e <__vector_88+0x182>
     744:	89 81       	ldd	r24, Y+1	; 0x01
     746:	89 81       	ldd	r24, Y+1	; 0x01
     748:	86 34       	cpi	r24, 0x46	; 70
     74a:	79 f6       	brne	.-98     	; 0x6ea <__vector_88+0x11e>
     74c:	05 c0       	rjmp	.+10     	; 0x758 <__vector_88+0x18c>
     74e:	89 81       	ldd	r24, Y+1	; 0x01
     750:	89 81       	ldd	r24, Y+1	; 0x01
     752:	81 34       	cpi	r24, 0x41	; 65
     754:	b9 f6       	brne	.-82     	; 0x704 <__vector_88+0x138>
     756:	03 c0       	rjmp	.+6      	; 0x75e <__vector_88+0x192>
     758:	89 81       	ldd	r24, Y+1	; 0x01
     75a:	89 81       	ldd	r24, Y+1	; 0x01
     75c:	df cf       	rjmp	.-66     	; 0x71c <__vector_88+0x150>
     75e:	89 81       	ldd	r24, Y+1	; 0x01
     760:	dd cf       	rjmp	.-70     	; 0x71c <__vector_88+0x150>
     762:	0f 90       	pop	r0
     764:	df 91       	pop	r29
     766:	cf 91       	pop	r28
     768:	ff 91       	pop	r31
     76a:	ef 91       	pop	r30
     76c:	bf 91       	pop	r27
     76e:	af 91       	pop	r26
     770:	9f 91       	pop	r25
     772:	8f 91       	pop	r24
     774:	7f 91       	pop	r23
     776:	6f 91       	pop	r22
     778:	5f 91       	pop	r21
     77a:	4f 91       	pop	r20
     77c:	3f 91       	pop	r19
     77e:	2f 91       	pop	r18
     780:	0f 90       	pop	r0
     782:	0b be       	out	0x3b, r0	; 59
     784:	0f 90       	pop	r0
     786:	0f be       	out	0x3f, r0	; 63
     788:	0f 90       	pop	r0
     78a:	1f 90       	pop	r1
     78c:	18 95       	reti

0000078e <__vector_14>:
     78e:	1f 92       	push	r1
     790:	0f 92       	push	r0
     792:	0f b6       	in	r0, 0x3f	; 63
     794:	0f 92       	push	r0
     796:	11 24       	eor	r1, r1
     798:	0b b6       	in	r0, 0x3b	; 59
     79a:	0f 92       	push	r0
     79c:	8f 93       	push	r24
     79e:	9f 93       	push	r25
     7a0:	af 93       	push	r26
     7a2:	bf 93       	push	r27
     7a4:	ef 93       	push	r30
     7a6:	ff 93       	push	r31
     7a8:	eb ef       	ldi	r30, 0xFB	; 251
     7aa:	f5 e2       	ldi	r31, 0x25	; 37
     7ac:	a2 85       	ldd	r26, Z+10	; 0x0a
     7ae:	b3 85       	ldd	r27, Z+11	; 0x0b
     7b0:	81 e0       	ldi	r24, 0x01	; 1
     7b2:	8c 93       	st	X, r24
     7b4:	06 88       	ldd	r0, Z+22	; 0x16
     7b6:	f7 89       	ldd	r31, Z+23	; 0x17
     7b8:	e0 2d       	mov	r30, r0
     7ba:	80 81       	ld	r24, Z
     7bc:	91 81       	ldd	r25, Z+1	; 0x01
     7be:	a2 81       	ldd	r26, Z+2	; 0x02
     7c0:	b3 81       	ldd	r27, Z+3	; 0x03
     7c2:	01 96       	adiw	r24, 0x01	; 1
     7c4:	a1 1d       	adc	r26, r1
     7c6:	b1 1d       	adc	r27, r1
     7c8:	80 83       	st	Z, r24
     7ca:	91 83       	std	Z+1, r25	; 0x01
     7cc:	a2 83       	std	Z+2, r26	; 0x02
     7ce:	b3 83       	std	Z+3, r27	; 0x03
     7d0:	ff 91       	pop	r31
     7d2:	ef 91       	pop	r30
     7d4:	bf 91       	pop	r27
     7d6:	af 91       	pop	r26
     7d8:	9f 91       	pop	r25
     7da:	8f 91       	pop	r24
     7dc:	0f 90       	pop	r0
     7de:	0b be       	out	0x3b, r0	; 59
     7e0:	0f 90       	pop	r0
     7e2:	0f be       	out	0x3f, r0	; 63
     7e4:	0f 90       	pop	r0
     7e6:	1f 90       	pop	r1
     7e8:	18 95       	reti

000007ea <__vector_77>:
     7ea:	1f 92       	push	r1
     7ec:	0f 92       	push	r0
     7ee:	0f b6       	in	r0, 0x3f	; 63
     7f0:	0f 92       	push	r0
     7f2:	11 24       	eor	r1, r1
     7f4:	0b b6       	in	r0, 0x3b	; 59
     7f6:	0f 92       	push	r0
     7f8:	8f 93       	push	r24
     7fa:	9f 93       	push	r25
     7fc:	ef 93       	push	r30
     7fe:	ff 93       	push	r31
     800:	80 91 d8 20 	lds	r24, 0x20D8
     804:	88 23       	and	r24, r24
     806:	49 f1       	breq	.+82     	; 0x85a <__vector_77+0x70>
     808:	80 91 d9 20 	lds	r24, 0x20D9
     80c:	81 30       	cpi	r24, 0x01	; 1
     80e:	79 f0       	breq	.+30     	; 0x82e <__vector_77+0x44>
     810:	28 f0       	brcs	.+10     	; 0x81c <__vector_77+0x32>
     812:	82 30       	cpi	r24, 0x02	; 2
     814:	d1 f0       	breq	.+52     	; 0x84a <__vector_77+0x60>
     816:	83 30       	cpi	r24, 0x03	; 3
     818:	e1 f0       	breq	.+56     	; 0x852 <__vector_77+0x68>
     81a:	24 c0       	rjmp	.+72     	; 0x864 <__vector_77+0x7a>
     81c:	e8 ed       	ldi	r30, 0xD8	; 216
     81e:	f0 e2       	ldi	r31, 0x20	; 32
     820:	10 82       	st	Z, r1
     822:	13 82       	std	Z+3, r1	; 0x03
     824:	12 82       	std	Z+2, r1	; 0x02
     826:	80 e4       	ldi	r24, 0x40	; 64
     828:	80 93 a6 06 	sts	0x06A6, r24
     82c:	1b c0       	rjmp	.+54     	; 0x864 <__vector_77+0x7a>
     82e:	80 91 db 20 	lds	r24, 0x20DB
     832:	87 30       	cpi	r24, 0x07	; 7
     834:	18 f0       	brcs	.+6      	; 0x83c <__vector_77+0x52>
     836:	10 92 d9 20 	sts	0x20D9, r1
     83a:	14 c0       	rjmp	.+40     	; 0x864 <__vector_77+0x7a>
     83c:	90 e4       	ldi	r25, 0x40	; 64
     83e:	90 93 a7 06 	sts	0x06A7, r25
     842:	8f 5f       	subi	r24, 0xFF	; 255
     844:	80 93 db 20 	sts	0x20DB, r24
     848:	0d c0       	rjmp	.+26     	; 0x864 <__vector_77+0x7a>
     84a:	80 e4       	ldi	r24, 0x40	; 64
     84c:	80 93 a7 06 	sts	0x06A7, r24
     850:	09 c0       	rjmp	.+18     	; 0x864 <__vector_77+0x7a>
     852:	80 e4       	ldi	r24, 0x40	; 64
     854:	80 93 a5 06 	sts	0x06A5, r24
     858:	05 c0       	rjmp	.+10     	; 0x864 <__vector_77+0x7a>
     85a:	10 92 d9 20 	sts	0x20D9, r1
     85e:	80 e4       	ldi	r24, 0x40	; 64
     860:	80 93 a6 06 	sts	0x06A6, r24
     864:	ff 91       	pop	r31
     866:	ef 91       	pop	r30
     868:	9f 91       	pop	r25
     86a:	8f 91       	pop	r24
     86c:	0f 90       	pop	r0
     86e:	0b be       	out	0x3b, r0	; 59
     870:	0f 90       	pop	r0
     872:	0f be       	out	0x3f, r0	; 63
     874:	0f 90       	pop	r0
     876:	1f 90       	pop	r1
     878:	18 95       	reti

0000087a <__vector_47>:
     87a:	1f 92       	push	r1
     87c:	0f 92       	push	r0
     87e:	0f b6       	in	r0, 0x3f	; 63
     880:	0f 92       	push	r0
     882:	11 24       	eor	r1, r1
     884:	8f 93       	push	r24
     886:	80 e1       	ldi	r24, 0x10	; 16
     888:	80 93 06 06 	sts	0x0606, r24
     88c:	10 92 e8 25 	sts	0x25E8, r1
     890:	8f 91       	pop	r24
     892:	0f 90       	pop	r0
     894:	0f be       	out	0x3f, r0	; 63
     896:	0f 90       	pop	r0
     898:	1f 90       	pop	r1
     89a:	18 95       	reti

0000089c <__vector_108>:
     89c:	1f 92       	push	r1
     89e:	0f 92       	push	r0
     8a0:	0f b6       	in	r0, 0x3f	; 63
     8a2:	0f 92       	push	r0
     8a4:	11 24       	eor	r1, r1
     8a6:	0b b6       	in	r0, 0x3b	; 59
     8a8:	0f 92       	push	r0
     8aa:	2f 93       	push	r18
     8ac:	3f 93       	push	r19
     8ae:	4f 93       	push	r20
     8b0:	5f 93       	push	r21
     8b2:	6f 93       	push	r22
     8b4:	7f 93       	push	r23
     8b6:	8f 93       	push	r24
     8b8:	9f 93       	push	r25
     8ba:	af 93       	push	r26
     8bc:	bf 93       	push	r27
     8be:	ef 93       	push	r30
     8c0:	ff 93       	push	r31
     8c2:	80 e2       	ldi	r24, 0x20	; 32
     8c4:	80 93 07 06 	sts	0x0607, r24
     8c8:	10 92 bc 25 	sts	0x25BC, r1
     8cc:	80 91 ea 25 	lds	r24, 0x25EA
     8d0:	88 23       	and	r24, r24
     8d2:	41 f1       	breq	.+80     	; 0x924 <__vector_108+0x88>
     8d4:	80 91 f3 25 	lds	r24, 0x25F3
     8d8:	90 91 f4 25 	lds	r25, 0x25F4
     8dc:	a0 91 f5 25 	lds	r26, 0x25F5
     8e0:	b0 91 f6 25 	lds	r27, 0x25F6
     8e4:	8f 39       	cpi	r24, 0x9F	; 159
     8e6:	26 e8       	ldi	r18, 0x86	; 134
     8e8:	92 07       	cpc	r25, r18
     8ea:	21 e0       	ldi	r18, 0x01	; 1
     8ec:	a2 07       	cpc	r26, r18
     8ee:	b1 05       	cpc	r27, r1
     8f0:	60 f4       	brcc	.+24     	; 0x90a <__vector_108+0x6e>
     8f2:	01 96       	adiw	r24, 0x01	; 1
     8f4:	a1 1d       	adc	r26, r1
     8f6:	b1 1d       	adc	r27, r1
     8f8:	80 93 f3 25 	sts	0x25F3, r24
     8fc:	90 93 f4 25 	sts	0x25F4, r25
     900:	a0 93 f5 25 	sts	0x25F5, r26
     904:	b0 93 f6 25 	sts	0x25F6, r27
     908:	08 c0       	rjmp	.+16     	; 0x91a <__vector_108+0x7e>
     90a:	10 92 f3 25 	sts	0x25F3, r1
     90e:	10 92 f4 25 	sts	0x25F4, r1
     912:	10 92 f5 25 	sts	0x25F5, r1
     916:	10 92 f6 25 	sts	0x25F6, r1
     91a:	10 92 34 23 	sts	0x2334, r1
     91e:	10 92 35 23 	sts	0x2335, r1
     922:	14 de       	rcall	.-984    	; 0x54c <__vector_90>
     924:	ff 91       	pop	r31
     926:	ef 91       	pop	r30
     928:	bf 91       	pop	r27
     92a:	af 91       	pop	r26
     92c:	9f 91       	pop	r25
     92e:	8f 91       	pop	r24
     930:	7f 91       	pop	r23
     932:	6f 91       	pop	r22
     934:	5f 91       	pop	r21
     936:	4f 91       	pop	r20
     938:	3f 91       	pop	r19
     93a:	2f 91       	pop	r18
     93c:	0f 90       	pop	r0
     93e:	0b be       	out	0x3b, r0	; 59
     940:	0f 90       	pop	r0
     942:	0f be       	out	0x3f, r0	; 63
     944:	0f 90       	pop	r0
     946:	1f 90       	pop	r1
     948:	18 95       	reti

0000094a <structInit>:

void structInit(void) {
    frame_d.iUART = 0;
     94a:	10 92 b9 25 	sts	0x25B9, r1
     94e:	10 92 ba 25 	sts	0x25BA, r1
    stan_d.new_data = false;
     952:	a6 ee       	ldi	r26, 0xE6	; 230
     954:	b5 e2       	ldi	r27, 0x25	; 37
     956:	1c 92       	st	X, r1
    stan_d.new_frame = false;
     958:	11 96       	adiw	r26, 0x01	; 1
     95a:	1c 92       	st	X, r1
     95c:	11 97       	sbiw	r26, 0x01	; 1
	
	//----------------------Initialize allData_d--------------------
	allData_d.Analog = &ADC_d;
     95e:	eb ef       	ldi	r30, 0xFB	; 251
     960:	f5 e2       	ldi	r31, 0x25	; 37
     962:	85 e6       	ldi	r24, 0x65	; 101
     964:	96 e2       	ldi	r25, 0x26	; 38
     966:	80 87       	std	Z+8, r24	; 0x08
     968:	91 87       	std	Z+9, r25	; 0x09
	allData_d.stan = &stan_d;
     96a:	a2 87       	std	Z+10, r26	; 0x0a
     96c:	b3 87       	std	Z+11, r27	; 0x0b
	allData_d.SensorsData = &SensorData_d;
     96e:	83 e1       	ldi	r24, 0x13	; 19
     970:	96 e2       	ldi	r25, 0x26	; 38
     972:	86 87       	std	Z+14, r24	; 0x0e
     974:	97 87       	std	Z+15, r25	; 0x0f
	allData_d.frame = &frame_d;
     976:	81 e6       	ldi	r24, 0x61	; 97
     978:	93 e2       	ldi	r25, 0x23	; 35
     97a:	80 8b       	std	Z+16, r24	; 0x10
     97c:	91 8b       	std	Z+17, r25	; 0x11
	allData_d.frame_b = &frame_b;
     97e:	8c ed       	ldi	r24, 0xDC	; 220
     980:	90 e2       	ldi	r25, 0x20	; 32
     982:	82 8b       	std	Z+18, r24	; 0x12
     984:	93 8b       	std	Z+19, r25	; 0x13
	allData_d.RTC = &RTC_d;
     986:	8f ee       	ldi	r24, 0xEF	; 239
     988:	95 e2       	ldi	r25, 0x25	; 37
     98a:	86 8b       	std	Z+22, r24	; 0x16
     98c:	97 8b       	std	Z+23, r25	; 0x17
     98e:	08 95       	ret

00000990 <SensorUpdate>:
    //-----------------AD7195 (1)--------------
	
	//-----------------AD7195 (2)--------------
    
    //-----------------Read ADC-------------
    AnalogUpdate(allData->Analog);
     990:	fc 01       	movw	r30, r24
     992:	80 85       	ldd	r24, Z+8	; 0x08
     994:	91 85       	ldd	r25, Z+9	; 0x09
     996:	5c cc       	rjmp	.-1864   	; 0x250 <AnalogUpdate>
     998:	08 95       	ret

0000099a <StateUpdate>:
}

void StateUpdate(void) {
     99a:	cf 92       	push	r12
     99c:	df 92       	push	r13
     99e:	ef 92       	push	r14
     9a0:	ff 92       	push	r15
    if(!(stan_d.armed_trigger)) {
     9a2:	80 91 ec 25 	lds	r24, 0x25EC
     9a6:	81 11       	cpse	r24, r1
     9a8:	08 c0       	rjmp	.+16     	; 0x9ba <StateUpdate+0x20>
        stan_d.flightState = 0;
     9aa:	10 92 ed 25 	sts	0x25ED, r1
        buzzer_d.mode = 0;
     9ae:	10 92 d9 20 	sts	0x20D9, r1
		//stan_d.flash_trigger = false;
        PORTD_OUTCLR = PIN1_bm;
     9b2:	82 e0       	ldi	r24, 0x02	; 2
     9b4:	80 93 66 06 	sts	0x0666, r24
     9b8:	a0 c0       	rjmp	.+320    	; 0xafa <StateUpdate+0x160>
    } else {
        switch(stan_d.flightState) {
     9ba:	80 91 ed 25 	lds	r24, 0x25ED
     9be:	90 e0       	ldi	r25, 0x00	; 0
     9c0:	89 30       	cpi	r24, 0x09	; 9
     9c2:	91 05       	cpc	r25, r1
     9c4:	08 f0       	brcs	.+2      	; 0x9c8 <StateUpdate+0x2e>
     9c6:	99 c0       	rjmp	.+306    	; 0xafa <StateUpdate+0x160>
     9c8:	fc 01       	movw	r30, r24
     9ca:	88 27       	eor	r24, r24
     9cc:	e2 50       	subi	r30, 0x02	; 2
     9ce:	ff 4f       	sbci	r31, 0xFF	; 255
     9d0:	8f 4f       	sbci	r24, 0xFF	; 255
     9d2:	0c 94 21 1e 	jmp	0x3c42	; 0x3c42 <__tablejump2__>
        //--------case 0 preflight-----------------
        case 0:
            //if((SensorData_d.accel_x > 3) || (LPS25H_d.velocity > 10)) stan_d.flightState = 1;	//wykrycie startu
            buzzer_d.mode = 0;
     9d6:	10 92 d9 20 	sts	0x20D9, r1
			//LPS25H_d.max_altitude = LPS25H_d.altitude;
            break;
     9da:	8f c0       	rjmp	.+286    	; 0xafa <StateUpdate+0x160>
        //--------case 1 flight wait for apogee----
        case 1:
			stan_d.flash_trigger = true;
     9dc:	81 e0       	ldi	r24, 0x01	; 1
     9de:	80 93 eb 25 	sts	0x25EB, r24
            //if((LPS25H_d.max_altitude - LPS25H_d.altitude) > 10.0) stan_d.flightState = 2;	//wykrycie puapu
            break;
     9e2:	8b c0       	rjmp	.+278    	; 0xafa <StateUpdate+0x160>
        //-------case 2 delay + sound signal + deployment------------------
        case 2:
            buzzer_d.mode = 1;																//3 sygnay cige
     9e4:	e8 ed       	ldi	r30, 0xD8	; 216
     9e6:	f0 e2       	ldi	r31, 0x20	; 32
     9e8:	81 e0       	ldi	r24, 0x01	; 1
     9ea:	81 83       	std	Z+1, r24	; 0x01
            buzzer_d.trigger = true;														//odblokowanie buzzera
     9ec:	80 83       	st	Z, r24
            timer_buffer = RTC_d.time;														//buforowanie czasu
     9ee:	60 91 ef 25 	lds	r22, 0x25EF
     9f2:	70 91 f0 25 	lds	r23, 0x25F0
     9f6:	80 91 f1 25 	lds	r24, 0x25F1
     9fa:	90 91 f2 25 	lds	r25, 0x25F2
     9fe:	0e 94 8c 1c 	call	0x3918	; 0x3918 <__floatunsisf>
     a02:	60 93 d0 20 	sts	0x20D0, r22
     a06:	70 93 d1 20 	sts	0x20D1, r23
     a0a:	80 93 d2 20 	sts	0x20D2, r24
     a0e:	90 93 d3 20 	sts	0x20D3, r25
            stan_d.flightState = 3;
     a12:	83 e0       	ldi	r24, 0x03	; 3
     a14:	80 93 ed 25 	sts	0x25ED, r24
            break;
     a18:	70 c0       	rjmp	.+224    	; 0xafa <StateUpdate+0x160>
        //--------case 3 parachute delay--------------
        case 3:
            if(RTC_d.time > (timer_buffer + 5)) stan_d.flightState = 4;						//odczekanie po separacji
     a1a:	60 91 ef 25 	lds	r22, 0x25EF
     a1e:	70 91 f0 25 	lds	r23, 0x25F0
     a22:	80 91 f1 25 	lds	r24, 0x25F1
     a26:	90 91 f2 25 	lds	r25, 0x25F2
     a2a:	0e 94 8c 1c 	call	0x3918	; 0x3918 <__floatunsisf>
     a2e:	6b 01       	movw	r12, r22
     a30:	7c 01       	movw	r14, r24
     a32:	20 e0       	ldi	r18, 0x00	; 0
     a34:	30 e0       	ldi	r19, 0x00	; 0
     a36:	40 ea       	ldi	r20, 0xA0	; 160
     a38:	50 e4       	ldi	r21, 0x40	; 64
     a3a:	60 91 d0 20 	lds	r22, 0x20D0
     a3e:	70 91 d1 20 	lds	r23, 0x20D1
     a42:	80 91 d2 20 	lds	r24, 0x20D2
     a46:	90 91 d3 20 	lds	r25, 0x20D3
     a4a:	0e 94 8f 1b 	call	0x371e	; 0x371e <__addsf3>
     a4e:	9b 01       	movw	r18, r22
     a50:	ac 01       	movw	r20, r24
     a52:	c7 01       	movw	r24, r14
     a54:	b6 01       	movw	r22, r12
     a56:	0e 94 3e 1d 	call	0x3a7c	; 0x3a7c <__gesf2>
     a5a:	18 16       	cp	r1, r24
     a5c:	0c f0       	brlt	.+2      	; 0xa60 <StateUpdate+0xc6>
     a5e:	4d c0       	rjmp	.+154    	; 0xafa <StateUpdate+0x160>
     a60:	84 e0       	ldi	r24, 0x04	; 4
     a62:	80 93 ed 25 	sts	0x25ED, r24
     a66:	49 c0       	rjmp	.+146    	; 0xafa <StateUpdate+0x160>
        case 4:
            //if(((LPS25H_d.velocity) > 40) || (LPS25H_d.altitude < 250)) stan_d.flightState = 5;						//odczekanie do separacji
            break;
        //-------case 5 separation------------------
        case 5:
            buzzer_d.mode = 1;																//3 sygnay cige
     a68:	e8 ed       	ldi	r30, 0xD8	; 216
     a6a:	f0 e2       	ldi	r31, 0x20	; 32
     a6c:	81 e0       	ldi	r24, 0x01	; 1
     a6e:	81 83       	std	Z+1, r24	; 0x01
            buzzer_d.trigger = true;														//odblokowanie buzzera
     a70:	80 83       	st	Z, r24
            timer_buffer = RTC_d.time;														//buforowanie czasu
     a72:	60 91 ef 25 	lds	r22, 0x25EF
     a76:	70 91 f0 25 	lds	r23, 0x25F0
     a7a:	80 91 f1 25 	lds	r24, 0x25F1
     a7e:	90 91 f2 25 	lds	r25, 0x25F2
     a82:	0e 94 8c 1c 	call	0x3918	; 0x3918 <__floatunsisf>
     a86:	60 93 d0 20 	sts	0x20D0, r22
     a8a:	70 93 d1 20 	sts	0x20D1, r23
     a8e:	80 93 d2 20 	sts	0x20D2, r24
     a92:	90 93 d3 20 	sts	0x20D3, r25
            stan_d.flightState = 6;
     a96:	86 e0       	ldi	r24, 0x06	; 6
     a98:	80 93 ed 25 	sts	0x25ED, r24
            break;
     a9c:	2e c0       	rjmp	.+92     	; 0xafa <StateUpdate+0x160>
        //-------case 6 after separation delay------
        case 6:
            if(RTC_d.time > (timer_buffer + 10)) stan_d.flightState = 7;						//odczekanie po separacji
     a9e:	60 91 ef 25 	lds	r22, 0x25EF
     aa2:	70 91 f0 25 	lds	r23, 0x25F0
     aa6:	80 91 f1 25 	lds	r24, 0x25F1
     aaa:	90 91 f2 25 	lds	r25, 0x25F2
     aae:	0e 94 8c 1c 	call	0x3918	; 0x3918 <__floatunsisf>
     ab2:	6b 01       	movw	r12, r22
     ab4:	7c 01       	movw	r14, r24
     ab6:	20 e0       	ldi	r18, 0x00	; 0
     ab8:	30 e0       	ldi	r19, 0x00	; 0
     aba:	40 e2       	ldi	r20, 0x20	; 32
     abc:	51 e4       	ldi	r21, 0x41	; 65
     abe:	60 91 d0 20 	lds	r22, 0x20D0
     ac2:	70 91 d1 20 	lds	r23, 0x20D1
     ac6:	80 91 d2 20 	lds	r24, 0x20D2
     aca:	90 91 d3 20 	lds	r25, 0x20D3
     ace:	0e 94 8f 1b 	call	0x371e	; 0x371e <__addsf3>
     ad2:	9b 01       	movw	r18, r22
     ad4:	ac 01       	movw	r20, r24
     ad6:	c7 01       	movw	r24, r14
     ad8:	b6 01       	movw	r22, r12
     ada:	0e 94 3e 1d 	call	0x3a7c	; 0x3a7c <__gesf2>
     ade:	18 16       	cp	r1, r24
     ae0:	64 f4       	brge	.+24     	; 0xafa <StateUpdate+0x160>
     ae2:	87 e0       	ldi	r24, 0x07	; 7
     ae4:	80 93 ed 25 	sts	0x25ED, r24
     ae8:	08 c0       	rjmp	.+16     	; 0xafa <StateUpdate+0x160>
        case 7:
            //if((LPS25H_d.altitude < 100) && (LPS25H_d.velocity < 1) && (LPS25H_d.velocity > -1)) stan_d.flightState = 8;
            break;
        //---------case 8 END----------------
        case 8:
            buzzer_d.mode = 2;																//sygna 2Hz
     aea:	e8 ed       	ldi	r30, 0xD8	; 216
     aec:	f0 e2       	ldi	r31, 0x20	; 32
     aee:	82 e0       	ldi	r24, 0x02	; 2
     af0:	81 83       	std	Z+1, r24	; 0x01
            buzzer_d.trigger = true;														//odblokowanie buzzera
     af2:	81 e0       	ldi	r24, 0x01	; 1
     af4:	80 83       	st	Z, r24
			stan_d.flash_trigger = false;
     af6:	10 92 eb 25 	sts	0x25EB, r1
            break;
        }
    }
}
     afa:	ff 90       	pop	r15
     afc:	ef 90       	pop	r14
     afe:	df 90       	pop	r13
     b00:	cf 90       	pop	r12
     b02:	08 95       	ret

00000b04 <Initialization>:

void Initialization(void) {
	CPU_clk(CPU_clock);	//zegar CPU
     b04:	80 e2       	ldi	r24, 0x20	; 32
     b06:	66 d3       	rcall	.+1740   	; 0x11d4 <CPU_clk>
    OscRTC();			//zegar RTC
     b08:	68 d3       	rcall	.+1744   	; 0x11da <OscRTC>
    RTC_Init();			//konfiguracja i uruchomienie RTC
     b0a:	68 d3       	rcall	.+1744   	; 0x11dc <RTC_Init>
    ADC_Init();			//inicjalizacja ADC
     b0c:	87 d4       	rcall	.+2318   	; 0x141c <ADC_Init>
    USART_Init();		//inicjalizacja Xbee
     b0e:	f1 d3       	rcall	.+2018   	; 0x12f2 <USART_Init>
    IO_Init();
     b10:	06 d4       	rcall	.+2060   	; 0x131e <IO_Init>
    TimerCInit(sampling_time);	//sensor update
     b12:	88 e2       	ldi	r24, 0x28	; 40
     b14:	90 e0       	ldi	r25, 0x00	; 0
     b16:	63 d3       	rcall	.+1734   	; 0x11de <TimerCInit>
    TimerDInit(250);			//buzzer handling
     b18:	8a ef       	ldi	r24, 0xFA	; 250
     b1a:	90 e0       	ldi	r25, 0x00	; 0
     b1c:	81 d3       	rcall	.+1794   	; 0x1220 <TimerDInit>
    TimerEInit(50);				//obsuga IO
     b1e:	82 e3       	ldi	r24, 0x32	; 50
     b20:	90 e0       	ldi	r25, 0x00	; 0
     b22:	9f d3       	rcall	.+1854   	; 0x1262 <TimerEInit>
    TimerFInit(telemetry_time);	//frame send
     b24:	88 ee       	ldi	r24, 0xE8	; 232
     b26:	93 e0       	ldi	r25, 0x03	; 3
     b28:	bd d3       	rcall	.+1914   	; 0x12a4 <TimerFInit>
    structInit();
     b2a:	0f df       	rcall	.-482    	; 0x94a <structInit>
    I2C_Init();
     b2c:	50 d4       	rcall	.+2208   	; 0x13ce <I2C_Init>
    //--------AD7195 (1) Init-----------
	
	//--------AD7195 (2) Init-----------

    //-------SPI Flash Init--------
    SPI_Init();
     b2e:	5b d4       	rcall	.+2230   	; 0x13e6 <SPI_Init>
    SPI_WriteProtection(false);
     b30:	80 e0       	ldi	r24, 0x00	; 0
     b32:	16 d2       	rcall	.+1068   	; 0xf60 <SPI_WriteProtection>
    SPIaddress = SPI_FindEnd();		//szukaj wolnego miejsca w pamici------------------------------------------------
     b34:	70 d2       	rcall	.+1248   	; 0x1016 <SPI_FindEnd>
     b36:	60 93 d4 20 	sts	0x20D4, r22
     b3a:	70 93 d5 20 	sts	0x20D5, r23
     b3e:	80 93 d6 20 	sts	0x20D6, r24
     b42:	90 93 d7 20 	sts	0x20D7, r25
    //SPIaddress = 0;
    //-------wczenie przerwa----
    PMIC.CTRL = PMIC_LOLVLEN_bm | PMIC_MEDLVLEN_bm | PMIC_HILVLEN_bm;
     b46:	87 e0       	ldi	r24, 0x07	; 7
     b48:	80 93 a2 00 	sts	0x00A2, r24
     b4c:	08 95       	ret

00000b4e <InitMemoryErase>:
}

void InitMemoryErase() {
     b4e:	cf 93       	push	r28
     b50:	df 93       	push	r29
     b52:	cd b7       	in	r28, 0x3d	; 61
     b54:	de b7       	in	r29, 0x3e	; 62
     b56:	66 97       	sbiw	r28, 0x16	; 22
     b58:	cd bf       	out	0x3d, r28	; 61
     b5a:	de bf       	out	0x3e, r29	; 62
    uint32_t i = 0;
    const char buf0[] = "\n\rMemory erased!\n\r\n\r\0";
     b5c:	86 e1       	ldi	r24, 0x16	; 22
     b5e:	e0 e0       	ldi	r30, 0x00	; 0
     b60:	f0 e2       	ldi	r31, 0x20	; 32
     b62:	de 01       	movw	r26, r28
     b64:	11 96       	adiw	r26, 0x01	; 1
     b66:	01 90       	ld	r0, Z+
     b68:	0d 92       	st	X+, r0
     b6a:	8a 95       	dec	r24
     b6c:	e1 f7       	brne	.-8      	; 0xb66 <InitMemoryErase+0x18>
    while((!(PORTE.IN & PIN0_bm)) || (!(PORTE.IN & PIN1_bm))) {}
     b6e:	e0 e8       	ldi	r30, 0x80	; 128
     b70:	f6 e0       	ldi	r31, 0x06	; 6
     b72:	80 85       	ldd	r24, Z+8	; 0x08
     b74:	80 ff       	sbrs	r24, 0
     b76:	fd cf       	rjmp	.-6      	; 0xb72 <InitMemoryErase+0x24>
     b78:	80 85       	ldd	r24, Z+8	; 0x08
     b7a:	81 ff       	sbrs	r24, 1
     b7c:	fa cf       	rjmp	.-12     	; 0xb72 <InitMemoryErase+0x24>
    buzzer_d.mode = 3;																//sygna 2Hz
     b7e:	e8 ed       	ldi	r30, 0xD8	; 216
     b80:	f0 e2       	ldi	r31, 0x20	; 32
     b82:	83 e0       	ldi	r24, 0x03	; 3
     b84:	81 83       	std	Z+1, r24	; 0x01
    buzzer_d.trigger = true;														//odblokowanie buzzera
     b86:	81 e0       	ldi	r24, 0x01	; 1
     b88:	80 83       	st	Z, r24
    SPI_ChipErase();
     b8a:	2e d2       	rcall	.+1116   	; 0xfe8 <SPI_ChipErase>
	#else
		//round up by default
		__ticks_dc = (uint32_t)(ceil(fabs(__tmp)));
	#endif

	__builtin_avr_delay_cycles(__ticks_dc);
     b8c:	2f ef       	ldi	r18, 0xFF	; 255
     b8e:	87 ea       	ldi	r24, 0xA7	; 167
     b90:	91 e6       	ldi	r25, 0x61	; 97
     b92:	21 50       	subi	r18, 0x01	; 1
     b94:	80 40       	sbci	r24, 0x00	; 0
     b96:	90 40       	sbci	r25, 0x00	; 0
     b98:	e1 f7       	brne	.-8      	; 0xb92 <InitMemoryErase+0x44>
     b9a:	00 c0       	rjmp	.+0      	; 0xb9c <InitMemoryErase+0x4e>
     b9c:	00 00       	nop
    _delay_ms(1000);
    i = 0;
    while(buf0[i]) {
     b9e:	89 81       	ldd	r24, Y+1	; 0x01
     ba0:	88 23       	and	r24, r24
     ba2:	71 f0       	breq	.+28     	; 0xbc0 <InitMemoryErase+0x72>
     ba4:	fe 01       	movw	r30, r28
     ba6:	32 96       	adiw	r30, 0x02	; 2
        XBEE_UART.DATA = buf0[i++];
     ba8:	a0 ea       	ldi	r26, 0xA0	; 160
     baa:	b9 e0       	ldi	r27, 0x09	; 9
     bac:	8c 93       	st	X, r24
     bae:	8f e7       	ldi	r24, 0x7F	; 127
     bb0:	9e e3       	ldi	r25, 0x3E	; 62
     bb2:	01 97       	sbiw	r24, 0x01	; 1
     bb4:	f1 f7       	brne	.-4      	; 0xbb2 <InitMemoryErase+0x64>
     bb6:	00 c0       	rjmp	.+0      	; 0xbb8 <InitMemoryErase+0x6a>
     bb8:	00 00       	nop
    buzzer_d.mode = 3;																//sygna 2Hz
    buzzer_d.trigger = true;														//odblokowanie buzzera
    SPI_ChipErase();
    _delay_ms(1000);
    i = 0;
    while(buf0[i]) {
     bba:	81 91       	ld	r24, Z+
     bbc:	81 11       	cpse	r24, r1
     bbe:	f6 cf       	rjmp	.-20     	; 0xbac <InitMemoryErase+0x5e>
        XBEE_UART.DATA = buf0[i++];
        _delay_ms(2);
    }
    buzzer_d.trigger = false;														//odblokowanie buzzera
     bc0:	10 92 d8 20 	sts	0x20D8, r1
    SPIaddress = 0;
     bc4:	10 92 d4 20 	sts	0x20D4, r1
     bc8:	10 92 d5 20 	sts	0x20D5, r1
     bcc:	10 92 d6 20 	sts	0x20D6, r1
     bd0:	10 92 d7 20 	sts	0x20D7, r1
}
     bd4:	66 96       	adiw	r28, 0x16	; 22
     bd6:	cd bf       	out	0x3d, r28	; 61
     bd8:	de bf       	out	0x3e, r29	; 62
     bda:	df 91       	pop	r29
     bdc:	cf 91       	pop	r28
     bde:	08 95       	ret

00000be0 <InitMemoryRead>:

void InitMemoryRead() {
     be0:	4f 92       	push	r4
     be2:	5f 92       	push	r5
     be4:	6f 92       	push	r6
     be6:	7f 92       	push	r7
     be8:	9f 92       	push	r9
     bea:	af 92       	push	r10
     bec:	bf 92       	push	r11
     bee:	cf 92       	push	r12
     bf0:	df 92       	push	r13
     bf2:	ef 92       	push	r14
     bf4:	ff 92       	push	r15
     bf6:	0f 93       	push	r16
     bf8:	1f 93       	push	r17
     bfa:	cf 93       	push	r28
     bfc:	df 93       	push	r29
     bfe:	cd b7       	in	r28, 0x3d	; 61
     c00:	de b7       	in	r29, 0x3e	; 62
     c02:	ca 5b       	subi	r28, 0xBA	; 186
     c04:	d1 09       	sbc	r29, r1
     c06:	cd bf       	out	0x3d, r28	; 61
     c08:	de bf       	out	0x3e, r29	; 62
    uint32_t i = 0;
    stan_d.flash_trigger = false;
     c0a:	10 92 eb 25 	sts	0x25EB, r1
    buzzer_d.mode = 3;																//sygna 2Hz
     c0e:	e8 ed       	ldi	r30, 0xD8	; 216
     c10:	f0 e2       	ldi	r31, 0x20	; 32
     c12:	83 e0       	ldi	r24, 0x03	; 3
     c14:	81 83       	std	Z+1, r24	; 0x01
    buzzer_d.trigger = true;
     c16:	81 e0       	ldi	r24, 0x01	; 1
     c18:	80 83       	st	Z, r24
     c1a:	2f ef       	ldi	r18, 0xFF	; 255
     c1c:	87 e8       	ldi	r24, 0x87	; 135
     c1e:	93 e1       	ldi	r25, 0x13	; 19
     c20:	21 50       	subi	r18, 0x01	; 1
     c22:	80 40       	sbci	r24, 0x00	; 0
     c24:	90 40       	sbci	r25, 0x00	; 0
     c26:	e1 f7       	brne	.-8      	; 0xc20 <InitMemoryRead+0x40>
     c28:	00 c0       	rjmp	.+0      	; 0xc2a <InitMemoryRead+0x4a>
     c2a:	00 00       	nop
    _delay_ms(200);
    buzzer_d.trigger = false;
     c2c:	10 82       	st	Z, r1
    while(!(PORTE.IN & PIN1_bm)) {}
     c2e:	e0 e8       	ldi	r30, 0x80	; 128
     c30:	f6 e0       	ldi	r31, 0x06	; 6
     c32:	80 85       	ldd	r24, Z+8	; 0x08
     c34:	81 ff       	sbrs	r24, 1
     c36:	fd cf       	rjmp	.-6      	; 0xc32 <InitMemoryRead+0x52>
    const char buf1[] = "\n\rTeam,TeleCnt,FlightState,SoftState,Altitude,Velocity,Accel,Gyro,Lat,Long,AltiGPS,Fix,Check,,Cnt,VoltageBat,VoltageVCC,Temp,Press,AccY,AccY2,GyroX,GyroZ,GyroY,\n\r\n\r\0";
     c38:	86 ea       	ldi	r24, 0xA6	; 166
     c3a:	e6 e1       	ldi	r30, 0x16	; 22
     c3c:	f0 e2       	ldi	r31, 0x20	; 32
     c3e:	de 01       	movw	r26, r28
     c40:	11 96       	adiw	r26, 0x01	; 1
     c42:	01 90       	ld	r0, Z+
     c44:	0d 92       	st	X+, r0
     c46:	8a 95       	dec	r24
     c48:	e1 f7       	brne	.-8      	; 0xc42 <InitMemoryRead+0x62>
    const char buf2[] = "\n\rReading done\n\r\n\r\0";
     c4a:	84 e1       	ldi	r24, 0x14	; 20
     c4c:	ec eb       	ldi	r30, 0xBC	; 188
     c4e:	f0 e2       	ldi	r31, 0x20	; 32
     c50:	de 01       	movw	r26, r28
     c52:	a9 55       	subi	r26, 0x59	; 89
     c54:	bf 4f       	sbci	r27, 0xFF	; 255
     c56:	01 90       	ld	r0, Z+
     c58:	0d 92       	st	X+, r0
     c5a:	8a 95       	dec	r24
     c5c:	e1 f7       	brne	.-8      	; 0xc56 <InitMemoryRead+0x76>
    //------Hello message----------
    while(buf1[i]) {
     c5e:	89 81       	ldd	r24, Y+1	; 0x01
     c60:	88 23       	and	r24, r24
     c62:	89 f0       	breq	.+34     	; 0xc86 <InitMemoryRead+0xa6>
     c64:	fe 01       	movw	r30, r28
     c66:	32 96       	adiw	r30, 0x02	; 2
        XBEE_UART.DATA = buf1[i++];
     c68:	a0 ea       	ldi	r26, 0xA0	; 160
     c6a:	b9 e0       	ldi	r27, 0x09	; 9
     c6c:	8c 93       	st	X, r24
     c6e:	2f ef       	ldi	r18, 0xFF	; 255
     c70:	89 ef       	ldi	r24, 0xF9	; 249
     c72:	90 e0       	ldi	r25, 0x00	; 0
     c74:	21 50       	subi	r18, 0x01	; 1
     c76:	80 40       	sbci	r24, 0x00	; 0
     c78:	90 40       	sbci	r25, 0x00	; 0
     c7a:	e1 f7       	brne	.-8      	; 0xc74 <InitMemoryRead+0x94>
     c7c:	00 c0       	rjmp	.+0      	; 0xc7e <InitMemoryRead+0x9e>
     c7e:	00 00       	nop
    buzzer_d.trigger = false;
    while(!(PORTE.IN & PIN1_bm)) {}
    const char buf1[] = "\n\rTeam,TeleCnt,FlightState,SoftState,Altitude,Velocity,Accel,Gyro,Lat,Long,AltiGPS,Fix,Check,,Cnt,VoltageBat,VoltageVCC,Temp,Press,AccY,AccY2,GyroX,GyroZ,GyroY,\n\r\n\r\0";
    const char buf2[] = "\n\rReading done\n\r\n\r\0";
    //------Hello message----------
    while(buf1[i]) {
     c80:	81 91       	ld	r24, Z+
     c82:	81 11       	cpse	r24, r1
     c84:	f3 cf       	rjmp	.-26     	; 0xc6c <InitMemoryRead+0x8c>
     c86:	ef ef       	ldi	r30, 0xFF	; 255
     c88:	f7 ea       	ldi	r31, 0xA7	; 167
     c8a:	21 e6       	ldi	r18, 0x61	; 97
     c8c:	e1 50       	subi	r30, 0x01	; 1
     c8e:	f0 40       	sbci	r31, 0x00	; 0
     c90:	20 40       	sbci	r18, 0x00	; 0
     c92:	e1 f7       	brne	.-8      	; 0xc8c <InitMemoryRead+0xac>
     c94:	00 c0       	rjmp	.+0      	; 0xc96 <InitMemoryRead+0xb6>
     c96:	00 00       	nop
    }
    _delay_ms(1000);
    //-------start Flash read------S
    uint8_t ch = 0xFF;
    uint8_t FFcnt = 0;
    LED_PORT.OUTSET = LED1;
     c98:	84 e0       	ldi	r24, 0x04	; 4
     c9a:	80 93 05 06 	sts	0x0605, r24
    SPI_CS(true);
     c9e:	81 e0       	ldi	r24, 0x01	; 1
     ca0:	16 d1       	rcall	.+556    	; 0xece <SPI_CS>
    SPI_W_Byte(0x03);					//Read
     ca2:	83 e0       	ldi	r24, 0x03	; 3
     ca4:	f7 d0       	rcall	.+494    	; 0xe94 <SPI_W_Byte>
    SPI_W_Byte(0);	//address MSB
     ca6:	80 e0       	ldi	r24, 0x00	; 0
     ca8:	f5 d0       	rcall	.+490    	; 0xe94 <SPI_W_Byte>
    SPI_W_Byte(0);	//address cd.
     caa:	80 e0       	ldi	r24, 0x00	; 0
     cac:	f3 d0       	rcall	.+486    	; 0xe94 <SPI_W_Byte>
    SPI_W_Byte(0);	//address LSB
     cae:	80 e0       	ldi	r24, 0x00	; 0
     cb0:	f1 d0       	rcall	.+482    	; 0xe94 <SPI_W_Byte>
        _delay_ms(10);
    }
    _delay_ms(1000);
    //-------start Flash read------S
    uint8_t ch = 0xFF;
    uint8_t FFcnt = 0;
     cb2:	91 2c       	mov	r9, r1
    SPI_CS(true);
    SPI_W_Byte(0x03);					//Read
    SPI_W_Byte(0);	//address MSB
    SPI_W_Byte(0);	//address cd.
    SPI_W_Byte(0);	//address LSB
    i = 0;
     cb4:	c1 2c       	mov	r12, r1
     cb6:	d1 2c       	mov	r13, r1
     cb8:	76 01       	movw	r14, r12
    do {
        ch = SPI_R_Byte();
        if(ch != 0xFF) {
            XBEE_UART.DATA = ch;
     cba:	0f 2e       	mov	r0, r31
     cbc:	f0 ea       	ldi	r31, 0xA0	; 160
     cbe:	af 2e       	mov	r10, r31
     cc0:	f9 e0       	ldi	r31, 0x09	; 9
     cc2:	bf 2e       	mov	r11, r31
     cc4:	f0 2d       	mov	r31, r0
            FFcnt = 0;
        } else FFcnt++;
        i++;
        if((i % 100) == 0) _delay_ms(10);
     cc6:	0f 2e       	mov	r0, r31
     cc8:	f4 e6       	ldi	r31, 0x64	; 100
     cca:	4f 2e       	mov	r4, r31
     ccc:	51 2c       	mov	r5, r1
     cce:	61 2c       	mov	r6, r1
     cd0:	71 2c       	mov	r7, r1
     cd2:	f0 2d       	mov	r31, r0
        else _delay_us(100);
    } while((PORTE.IN & PIN0_bm) && (FFcnt < 100));
     cd4:	00 e8       	ldi	r16, 0x80	; 128
     cd6:	16 e0       	ldi	r17, 0x06	; 6
    SPI_W_Byte(0);	//address MSB
    SPI_W_Byte(0);	//address cd.
    SPI_W_Byte(0);	//address LSB
    i = 0;
    do {
        ch = SPI_R_Byte();
     cd8:	f0 d0       	rcall	.+480    	; 0xeba <SPI_R_Byte>
        if(ch != 0xFF) {
     cda:	8f 3f       	cpi	r24, 0xFF	; 255
     cdc:	21 f0       	breq	.+8      	; 0xce6 <InitMemoryRead+0x106>
            XBEE_UART.DATA = ch;
     cde:	f5 01       	movw	r30, r10
     ce0:	80 83       	st	Z, r24
            FFcnt = 0;
     ce2:	91 2c       	mov	r9, r1
     ce4:	01 c0       	rjmp	.+2      	; 0xce8 <InitMemoryRead+0x108>
        } else FFcnt++;
     ce6:	93 94       	inc	r9
        i++;
     ce8:	ff ef       	ldi	r31, 0xFF	; 255
     cea:	cf 1a       	sub	r12, r31
     cec:	df 0a       	sbc	r13, r31
     cee:	ef 0a       	sbc	r14, r31
     cf0:	ff 0a       	sbc	r15, r31
        if((i % 100) == 0) _delay_ms(10);
     cf2:	c7 01       	movw	r24, r14
     cf4:	b6 01       	movw	r22, r12
     cf6:	a3 01       	movw	r20, r6
     cf8:	92 01       	movw	r18, r4
     cfa:	0e 94 ff 1d 	call	0x3bfe	; 0x3bfe <__udivmodsi4>
     cfe:	67 2b       	or	r22, r23
     d00:	68 2b       	or	r22, r24
     d02:	69 2b       	or	r22, r25
     d04:	51 f4       	brne	.+20     	; 0xd1a <InitMemoryRead+0x13a>
     d06:	2f ef       	ldi	r18, 0xFF	; 255
     d08:	89 ef       	ldi	r24, 0xF9	; 249
     d0a:	90 e0       	ldi	r25, 0x00	; 0
     d0c:	21 50       	subi	r18, 0x01	; 1
     d0e:	80 40       	sbci	r24, 0x00	; 0
     d10:	90 40       	sbci	r25, 0x00	; 0
     d12:	e1 f7       	brne	.-8      	; 0xd0c <InitMemoryRead+0x12c>
     d14:	00 c0       	rjmp	.+0      	; 0xd16 <InitMemoryRead+0x136>
     d16:	00 00       	nop
     d18:	06 c0       	rjmp	.+12     	; 0xd26 <InitMemoryRead+0x146>
	#else
		//round up by default
		__ticks_dc = (uint32_t)(ceil(fabs(__tmp)));
	#endif

	__builtin_avr_delay_cycles(__ticks_dc);
     d1a:	ef e1       	ldi	r30, 0x1F	; 31
     d1c:	f3 e0       	ldi	r31, 0x03	; 3
     d1e:	31 97       	sbiw	r30, 0x01	; 1
     d20:	f1 f7       	brne	.-4      	; 0xd1e <InitMemoryRead+0x13e>
     d22:	00 c0       	rjmp	.+0      	; 0xd24 <InitMemoryRead+0x144>
     d24:	00 00       	nop
        else _delay_us(100);
    } while((PORTE.IN & PIN0_bm) && (FFcnt < 100));
     d26:	f8 01       	movw	r30, r16
     d28:	80 85       	ldd	r24, Z+8	; 0x08
     d2a:	80 ff       	sbrs	r24, 0
     d2c:	03 c0       	rjmp	.+6      	; 0xd34 <InitMemoryRead+0x154>
     d2e:	f3 e6       	ldi	r31, 0x63	; 99
     d30:	f9 15       	cp	r31, r9
     d32:	90 f6       	brcc	.-92     	; 0xcd8 <InitMemoryRead+0xf8>
    SPI_CS(false);
     d34:	80 e0       	ldi	r24, 0x00	; 0
     d36:	cb d0       	rcall	.+406    	; 0xece <SPI_CS>
    i = 0;
    while(buf2[i]) {
     d38:	c9 55       	subi	r28, 0x59	; 89
     d3a:	df 4f       	sbci	r29, 0xFF	; 255
     d3c:	88 81       	ld	r24, Y
     d3e:	c7 5a       	subi	r28, 0xA7	; 167
     d40:	d0 40       	sbci	r29, 0x00	; 0
     d42:	88 23       	and	r24, r24
     d44:	79 f0       	breq	.+30     	; 0xd64 <InitMemoryRead+0x184>
     d46:	fe 01       	movw	r30, r28
     d48:	e8 55       	subi	r30, 0x58	; 88
     d4a:	ff 4f       	sbci	r31, 0xFF	; 255
        XBEE_UART.DATA = buf2[i++];
     d4c:	a0 ea       	ldi	r26, 0xA0	; 160
     d4e:	b9 e0       	ldi	r27, 0x09	; 9
     d50:	8c 93       	st	X, r24
	#else
		//round up by default
		__ticks_dc = (uint32_t)(ceil(fabs(__tmp)));
	#endif

	__builtin_avr_delay_cycles(__ticks_dc);
     d52:	8f e3       	ldi	r24, 0x3F	; 63
     d54:	9f e1       	ldi	r25, 0x1F	; 31
     d56:	01 97       	sbiw	r24, 0x01	; 1
     d58:	f1 f7       	brne	.-4      	; 0xd56 <InitMemoryRead+0x176>
     d5a:	00 c0       	rjmp	.+0      	; 0xd5c <InitMemoryRead+0x17c>
     d5c:	00 00       	nop
        if((i % 100) == 0) _delay_ms(10);
        else _delay_us(100);
    } while((PORTE.IN & PIN0_bm) && (FFcnt < 100));
    SPI_CS(false);
    i = 0;
    while(buf2[i]) {
     d5e:	81 91       	ld	r24, Z+
     d60:	81 11       	cpse	r24, r1
     d62:	f6 cf       	rjmp	.-20     	; 0xd50 <InitMemoryRead+0x170>
        XBEE_UART.DATA = buf2[i++];
        _delay_ms(1);
    }
}
     d64:	c6 54       	subi	r28, 0x46	; 70
     d66:	df 4f       	sbci	r29, 0xFF	; 255
     d68:	cd bf       	out	0x3d, r28	; 61
     d6a:	de bf       	out	0x3e, r29	; 62
     d6c:	df 91       	pop	r29
     d6e:	cf 91       	pop	r28
     d70:	1f 91       	pop	r17
     d72:	0f 91       	pop	r16
     d74:	ff 90       	pop	r15
     d76:	ef 90       	pop	r14
     d78:	df 90       	pop	r13
     d7a:	cf 90       	pop	r12
     d7c:	bf 90       	pop	r11
     d7e:	af 90       	pop	r10
     d80:	9f 90       	pop	r9
     d82:	7f 90       	pop	r7
     d84:	6f 90       	pop	r6
     d86:	5f 90       	pop	r5
     d88:	4f 90       	pop	r4
     d8a:	08 95       	ret

00000d8c <WarmUp>:

void WarmUp() {
    //------Hello blink
    LED_PORT.OUTSET = LED2;
     d8c:	e0 e0       	ldi	r30, 0x00	; 0
     d8e:	f6 e0       	ldi	r31, 0x06	; 6
     d90:	88 e0       	ldi	r24, 0x08	; 8
     d92:	85 83       	std	Z+5, r24	; 0x05
     d94:	2f ef       	ldi	r18, 0xFF	; 255
     d96:	37 e8       	ldi	r19, 0x87	; 135
     d98:	93 e1       	ldi	r25, 0x13	; 19
     d9a:	21 50       	subi	r18, 0x01	; 1
     d9c:	30 40       	sbci	r19, 0x00	; 0
     d9e:	90 40       	sbci	r25, 0x00	; 0
     da0:	e1 f7       	brne	.-8      	; 0xd9a <WarmUp+0xe>
     da2:	00 c0       	rjmp	.+0      	; 0xda4 <WarmUp+0x18>
     da4:	00 00       	nop
    _delay_ms(200);
    LED_PORT.OUTCLR = LED2;
     da6:	86 83       	std	Z+6, r24	; 0x06
     da8:	2f ef       	ldi	r18, 0xFF	; 255
     daa:	33 ec       	ldi	r19, 0xC3	; 195
     dac:	99 e0       	ldi	r25, 0x09	; 9
     dae:	21 50       	subi	r18, 0x01	; 1
     db0:	30 40       	sbci	r19, 0x00	; 0
     db2:	90 40       	sbci	r25, 0x00	; 0
     db4:	e1 f7       	brne	.-8      	; 0xdae <WarmUp+0x22>
     db6:	00 c0       	rjmp	.+0      	; 0xdb8 <WarmUp+0x2c>
     db8:	00 00       	nop
    _delay_ms(100);
    LED_PORT.OUTSET = LED2;
     dba:	85 83       	std	Z+5, r24	; 0x05
     dbc:	2f ef       	ldi	r18, 0xFF	; 255
     dbe:	37 e8       	ldi	r19, 0x87	; 135
     dc0:	93 e1       	ldi	r25, 0x13	; 19
     dc2:	21 50       	subi	r18, 0x01	; 1
     dc4:	30 40       	sbci	r19, 0x00	; 0
     dc6:	90 40       	sbci	r25, 0x00	; 0
     dc8:	e1 f7       	brne	.-8      	; 0xdc2 <WarmUp+0x36>
     dca:	00 c0       	rjmp	.+0      	; 0xdcc <WarmUp+0x40>
     dcc:	00 00       	nop
    _delay_ms(200);
    LED_PORT.OUTCLR = LED2;
     dce:	86 83       	std	Z+6, r24	; 0x06
     dd0:	2f ef       	ldi	r18, 0xFF	; 255
     dd2:	33 ec       	ldi	r19, 0xC3	; 195
     dd4:	89 e0       	ldi	r24, 0x09	; 9
     dd6:	21 50       	subi	r18, 0x01	; 1
     dd8:	30 40       	sbci	r19, 0x00	; 0
     dda:	80 40       	sbci	r24, 0x00	; 0
     ddc:	e1 f7       	brne	.-8      	; 0xdd6 <WarmUp+0x4a>
     dde:	00 c0       	rjmp	.+0      	; 0xde0 <WarmUp+0x54>
     de0:	00 00       	nop
     de2:	08 95       	ret

00000de4 <WarmUpMemoryOperations>:
    _delay_ms(100);
}

void WarmUpMemoryOperations() {
    //----------------Kasowanie pamici Flash------------------------
    if((!(PORTE.IN & PIN0_bm)) && (!(PORTE.IN & PIN1_bm))) InitMemoryErase();
     de4:	80 91 88 06 	lds	r24, 0x0688
     de8:	80 fd       	sbrc	r24, 0
     dea:	06 c0       	rjmp	.+12     	; 0xdf8 <WarmUpMemoryOperations+0x14>
     dec:	80 91 88 06 	lds	r24, 0x0688
     df0:	81 fd       	sbrc	r24, 1
     df2:	02 c0       	rjmp	.+4      	; 0xdf8 <WarmUpMemoryOperations+0x14>
     df4:	ac ce       	rjmp	.-680    	; 0xb4e <InitMemoryErase>
     df6:	08 95       	ret
    //-----------------Odczyt z pamici i wysanie po Xbee-----------
    else if(!(PORTE.IN & PIN1_bm)) InitMemoryRead();
     df8:	80 91 88 06 	lds	r24, 0x0688
     dfc:	81 ff       	sbrs	r24, 1
     dfe:	f0 ce       	rjmp	.-544    	; 0xbe0 <InitMemoryRead>
     e00:	08 95       	ret

00000e02 <main>:
}

int main(void) {
    stan_d.flash_trigger = STARTUP_flash;
     e02:	e6 ee       	ldi	r30, 0xE6	; 230
     e04:	f5 e2       	ldi	r31, 0x25	; 37
     e06:	15 82       	std	Z+5, r1	; 0x05
    stan_d.telemetry_trigger = STARTUP_tele;
     e08:	81 e0       	ldi	r24, 0x01	; 1
     e0a:	84 83       	std	Z+4, r24	; 0x04
    frame_d.terminate = false;
     e0c:	10 92 bc 25 	sts	0x25BC, r1
    Initialization();
     e10:	79 de       	rcall	.-782    	; 0xb04 <Initialization>
    sei();
     e12:	78 94       	sei
    WarmUp();					//inicjalizacja BT i odmiganie startu
     e14:	bb df       	rcall	.-138    	; 0xd8c <WarmUp>
    WarmUpMemoryOperations();	//odczyt lub kasowanie pamici
     e16:	e6 df       	rcall	.-52     	; 0xde4 <WarmUpMemoryOperations>
	
    while(1) {
        _delay_us(1);
        if(stan_d.new_data == true) {
     e18:	c6 ee       	ldi	r28, 0xE6	; 230
     e1a:	d5 e2       	ldi	r29, 0x25	; 37
			//============================================================================
            //                        Prepare frame & store
			//============================================================================
            prepareFrame(&allData_d);
            if(stan_d.flash_trigger) SPI_StoreFrame(&SPIaddress, 400, &frame_b,&RTC_d);
            if(!(frame_d.mutex)) frame_d = frame_b;	//jeli frame_d nie zablokowane -> przepisz z bufora
     e1c:	0f 2e       	mov	r0, r31
     e1e:	fb eb       	ldi	r31, 0xBB	; 187
     e20:	ef 2e       	mov	r14, r31
     e22:	f5 e2       	ldi	r31, 0x25	; 37
     e24:	ff 2e       	mov	r15, r31
     e26:	f0 2d       	mov	r31, r0
     e28:	0f 2e       	mov	r0, r31
     e2a:	f5 e8       	ldi	r31, 0x85	; 133
     e2c:	cf 2e       	mov	r12, r31
     e2e:	f2 e0       	ldi	r31, 0x02	; 2
     e30:	df 2e       	mov	r13, r31
     e32:	f0 2d       	mov	r31, r0
            LED_PORT.OUTTGL = LED1;
     e34:	00 e0       	ldi	r16, 0x00	; 0
     e36:	16 e0       	ldi	r17, 0x06	; 6
     e38:	68 94       	set
     e3a:	bb 24       	eor	r11, r11
     e3c:	b2 f8       	bld	r11, 2
	#else
		//round up by default
		__ticks_dc = (uint32_t)(ceil(fabs(__tmp)));
	#endif

	__builtin_avr_delay_cycles(__ticks_dc);
     e3e:	8a e0       	ldi	r24, 0x0A	; 10
     e40:	8a 95       	dec	r24
     e42:	f1 f7       	brne	.-4      	; 0xe40 <main+0x3e>
     e44:	00 c0       	rjmp	.+0      	; 0xe46 <main+0x44>
    WarmUp();					//inicjalizacja BT i odmiganie startu
    WarmUpMemoryOperations();	//odczyt lub kasowanie pamici
	
    while(1) {
        _delay_us(1);
        if(stan_d.new_data == true) {
     e46:	88 81       	ld	r24, Y
     e48:	88 23       	and	r24, r24
     e4a:	c9 f3       	breq	.-14     	; 0xe3e <main+0x3c>
            //============================================================================
            //								Sensors update
            //============================================================================
            stan_d.new_data = false;	//DRY flag clear
     e4c:	18 82       	st	Y, r1
            SensorUpdate(&allData_d);
     e4e:	8b ef       	ldi	r24, 0xFB	; 251
     e50:	95 e2       	ldi	r25, 0x25	; 37
     e52:	9e dd       	rcall	.-1220   	; 0x990 <SensorUpdate>
			//============================================================================
			//						       State update
			//============================================================================
            StateUpdate();
     e54:	a2 dd       	rcall	.-1212   	; 0x99a <StateUpdate>
			//============================================================================
            //                        Prepare frame & store
			//============================================================================
            prepareFrame(&allData_d);
     e56:	8b ef       	ldi	r24, 0xFB	; 251
     e58:	95 e2       	ldi	r25, 0x25	; 37
     e5a:	f8 d2       	rcall	.+1520   	; 0x144c <prepareFrame>
            if(stan_d.flash_trigger) SPI_StoreFrame(&SPIaddress, 400, &frame_b,&RTC_d);
     e5c:	8d 81       	ldd	r24, Y+5	; 0x05
     e5e:	88 23       	and	r24, r24
     e60:	49 f0       	breq	.+18     	; 0xe74 <main+0x72>
     e62:	2f ee       	ldi	r18, 0xEF	; 239
     e64:	35 e2       	ldi	r19, 0x25	; 37
     e66:	4c ed       	ldi	r20, 0xDC	; 220
     e68:	50 e2       	ldi	r21, 0x20	; 32
     e6a:	60 e9       	ldi	r22, 0x90	; 144
     e6c:	71 e0       	ldi	r23, 0x01	; 1
     e6e:	84 ed       	ldi	r24, 0xD4	; 212
     e70:	90 e2       	ldi	r25, 0x20	; 32
     e72:	5a d1       	rcall	.+692    	; 0x1128 <SPI_StoreFrame>
            if(!(frame_d.mutex)) frame_d = frame_b;	//jeli frame_d nie zablokowane -> przepisz z bufora
     e74:	f7 01       	movw	r30, r14
     e76:	80 81       	ld	r24, Z
     e78:	81 11       	cpse	r24, r1
     e7a:	09 c0       	rjmp	.+18     	; 0xe8e <main+0x8c>
     e7c:	ec ed       	ldi	r30, 0xDC	; 220
     e7e:	f0 e2       	ldi	r31, 0x20	; 32
     e80:	a1 e6       	ldi	r26, 0x61	; 97
     e82:	b3 e2       	ldi	r27, 0x23	; 35
     e84:	c6 01       	movw	r24, r12
     e86:	01 90       	ld	r0, Z+
     e88:	0d 92       	st	X+, r0
     e8a:	01 97       	sbiw	r24, 0x01	; 1
     e8c:	e1 f7       	brne	.-8      	; 0xe86 <main+0x84>
            LED_PORT.OUTTGL = LED1;
     e8e:	f8 01       	movw	r30, r16
     e90:	b7 82       	std	Z+7, r11	; 0x07
     e92:	d5 cf       	rjmp	.-86     	; 0xe3e <main+0x3c>

00000e94 <SPI_W_Byte>:
     e94:	cf 93       	push	r28
     e96:	df 93       	push	r29
     e98:	1f 92       	push	r1
     e9a:	cd b7       	in	r28, 0x3d	; 61
     e9c:	de b7       	in	r29, 0x3e	; 62
     e9e:	80 93 c3 08 	sts	0x08C3, r24
     ea2:	e0 ec       	ldi	r30, 0xC0	; 192
     ea4:	f8 e0       	ldi	r31, 0x08	; 8
     ea6:	82 81       	ldd	r24, Z+2	; 0x02
     ea8:	88 23       	and	r24, r24
     eaa:	ec f7       	brge	.-6      	; 0xea6 <SPI_W_Byte+0x12>
     eac:	80 91 c3 08 	lds	r24, 0x08C3
     eb0:	89 83       	std	Y+1, r24	; 0x01
     eb2:	0f 90       	pop	r0
     eb4:	df 91       	pop	r29
     eb6:	cf 91       	pop	r28
     eb8:	08 95       	ret

00000eba <SPI_R_Byte>:
     eba:	10 92 c3 08 	sts	0x08C3, r1
     ebe:	e0 ec       	ldi	r30, 0xC0	; 192
     ec0:	f8 e0       	ldi	r31, 0x08	; 8
     ec2:	82 81       	ldd	r24, Z+2	; 0x02
     ec4:	88 23       	and	r24, r24
     ec6:	ec f7       	brge	.-6      	; 0xec2 <SPI_R_Byte+0x8>
     ec8:	80 91 c3 08 	lds	r24, 0x08C3
     ecc:	08 95       	ret

00000ece <SPI_CS>:
     ece:	88 23       	and	r24, r24
     ed0:	21 f0       	breq	.+8      	; 0xeda <SPI_CS+0xc>
     ed2:	81 e0       	ldi	r24, 0x01	; 1
     ed4:	80 93 66 06 	sts	0x0666, r24
     ed8:	08 95       	ret
     eda:	81 e0       	ldi	r24, 0x01	; 1
     edc:	80 93 65 06 	sts	0x0665, r24
     ee0:	08 95       	ret

00000ee2 <SPI_WriteEnable>:
     ee2:	1f 93       	push	r17
     ee4:	cf 93       	push	r28
     ee6:	df 93       	push	r29
     ee8:	c0 e6       	ldi	r28, 0x60	; 96
     eea:	d6 e0       	ldi	r29, 0x06	; 6
     eec:	11 e0       	ldi	r17, 0x01	; 1
     eee:	1e 83       	std	Y+6, r17	; 0x06
     ef0:	86 e0       	ldi	r24, 0x06	; 6
     ef2:	d0 df       	rcall	.-96     	; 0xe94 <SPI_W_Byte>
     ef4:	1d 83       	std	Y+5, r17	; 0x05
     ef6:	df 91       	pop	r29
     ef8:	cf 91       	pop	r28
     efa:	1f 91       	pop	r17
     efc:	08 95       	ret

00000efe <SPI_WriteDisable>:
     efe:	1f 93       	push	r17
     f00:	cf 93       	push	r28
     f02:	df 93       	push	r29
     f04:	c0 e6       	ldi	r28, 0x60	; 96
     f06:	d6 e0       	ldi	r29, 0x06	; 6
     f08:	11 e0       	ldi	r17, 0x01	; 1
     f0a:	1e 83       	std	Y+6, r17	; 0x06
     f0c:	84 e0       	ldi	r24, 0x04	; 4
     f0e:	c2 df       	rcall	.-124    	; 0xe94 <SPI_W_Byte>
     f10:	1d 83       	std	Y+5, r17	; 0x05
     f12:	df 91       	pop	r29
     f14:	cf 91       	pop	r28
     f16:	1f 91       	pop	r17
     f18:	08 95       	ret

00000f1a <SPI_WriteByte>:
     f1a:	df 92       	push	r13
     f1c:	ef 92       	push	r14
     f1e:	ff 92       	push	r15
     f20:	0f 93       	push	r16
     f22:	1f 93       	push	r17
     f24:	cf 93       	push	r28
     f26:	df 93       	push	r29
     f28:	f6 2e       	mov	r15, r22
     f2a:	e7 2e       	mov	r14, r23
     f2c:	d8 2e       	mov	r13, r24
     f2e:	04 2f       	mov	r16, r20
     f30:	d8 df       	rcall	.-80     	; 0xee2 <SPI_WriteEnable>
     f32:	c0 e6       	ldi	r28, 0x60	; 96
     f34:	d6 e0       	ldi	r29, 0x06	; 6
     f36:	11 e0       	ldi	r17, 0x01	; 1
     f38:	1e 83       	std	Y+6, r17	; 0x06
     f3a:	82 e0       	ldi	r24, 0x02	; 2
     f3c:	ab df       	rcall	.-170    	; 0xe94 <SPI_W_Byte>
     f3e:	8d 2d       	mov	r24, r13
     f40:	a9 df       	rcall	.-174    	; 0xe94 <SPI_W_Byte>
     f42:	8e 2d       	mov	r24, r14
     f44:	a7 df       	rcall	.-178    	; 0xe94 <SPI_W_Byte>
     f46:	8f 2d       	mov	r24, r15
     f48:	a5 df       	rcall	.-182    	; 0xe94 <SPI_W_Byte>
     f4a:	80 2f       	mov	r24, r16
     f4c:	a3 df       	rcall	.-186    	; 0xe94 <SPI_W_Byte>
     f4e:	1d 83       	std	Y+5, r17	; 0x05
     f50:	df 91       	pop	r29
     f52:	cf 91       	pop	r28
     f54:	1f 91       	pop	r17
     f56:	0f 91       	pop	r16
     f58:	ff 90       	pop	r15
     f5a:	ef 90       	pop	r14
     f5c:	df 90       	pop	r13
     f5e:	08 95       	ret

00000f60 <SPI_WriteProtection>:
     f60:	1f 93       	push	r17
     f62:	cf 93       	push	r28
     f64:	df 93       	push	r29
     f66:	88 23       	and	r24, r24
     f68:	91 f0       	breq	.+36     	; 0xf8e <SPI_WriteProtection+0x2e>
     f6a:	c0 e6       	ldi	r28, 0x60	; 96
     f6c:	d6 e0       	ldi	r29, 0x06	; 6
     f6e:	11 e0       	ldi	r17, 0x01	; 1
     f70:	1e 83       	std	Y+6, r17	; 0x06
     f72:	80 e5       	ldi	r24, 0x50	; 80
     f74:	8f df       	rcall	.-226    	; 0xe94 <SPI_W_Byte>
     f76:	1d 83       	std	Y+5, r17	; 0x05
     f78:	8a e0       	ldi	r24, 0x0A	; 10
     f7a:	8a 95       	dec	r24
     f7c:	f1 f7       	brne	.-4      	; 0xf7a <SPI_WriteProtection+0x1a>
     f7e:	00 c0       	rjmp	.+0      	; 0xf80 <SPI_WriteProtection+0x20>
     f80:	1e 83       	std	Y+6, r17	; 0x06
     f82:	81 e0       	ldi	r24, 0x01	; 1
     f84:	87 df       	rcall	.-242    	; 0xe94 <SPI_W_Byte>
     f86:	8c e1       	ldi	r24, 0x1C	; 28
     f88:	85 df       	rcall	.-246    	; 0xe94 <SPI_W_Byte>
     f8a:	1d 83       	std	Y+5, r17	; 0x05
     f8c:	11 c0       	rjmp	.+34     	; 0xfb0 <SPI_WriteProtection+0x50>
     f8e:	c0 e6       	ldi	r28, 0x60	; 96
     f90:	d6 e0       	ldi	r29, 0x06	; 6
     f92:	11 e0       	ldi	r17, 0x01	; 1
     f94:	1e 83       	std	Y+6, r17	; 0x06
     f96:	80 e5       	ldi	r24, 0x50	; 80
     f98:	7d df       	rcall	.-262    	; 0xe94 <SPI_W_Byte>
     f9a:	1d 83       	std	Y+5, r17	; 0x05
     f9c:	8a e0       	ldi	r24, 0x0A	; 10
     f9e:	8a 95       	dec	r24
     fa0:	f1 f7       	brne	.-4      	; 0xf9e <SPI_WriteProtection+0x3e>
     fa2:	00 c0       	rjmp	.+0      	; 0xfa4 <SPI_WriteProtection+0x44>
     fa4:	1e 83       	std	Y+6, r17	; 0x06
     fa6:	81 e0       	ldi	r24, 0x01	; 1
     fa8:	75 df       	rcall	.-278    	; 0xe94 <SPI_W_Byte>
     faa:	80 e0       	ldi	r24, 0x00	; 0
     fac:	73 df       	rcall	.-282    	; 0xe94 <SPI_W_Byte>
     fae:	1d 83       	std	Y+5, r17	; 0x05
     fb0:	df 91       	pop	r29
     fb2:	cf 91       	pop	r28
     fb4:	1f 91       	pop	r17
     fb6:	08 95       	ret

00000fb8 <SPI_WriteFin>:
	SPI_CS(false);						//zakoczenie transmisji
	_delay_us(1);
	SPI_AAI_Mode_Stop();				//exit AAI mode
}*/

void SPI_WriteFin(void){
     fb8:	cf 93       	push	r28
     fba:	df 93       	push	r29
     fbc:	1f 92       	push	r1
     fbe:	cd b7       	in	r28, 0x3d	; 61
     fc0:	de b7       	in	r29, 0x3e	; 62
	while(!(FLASH_SPI.STATUS & SPI_IF_bm)){}
	return FLASH_SPI.DATA;
}

void SPI_CS(bool enable){
	if(enable) FLASH_CS_PORT.OUTCLR = FLASH_CS_PIN;
     fc2:	81 e0       	ldi	r24, 0x01	; 1
     fc4:	80 93 66 06 	sts	0x0666, r24
	SPI_AAI_Mode_Stop();				//exit AAI mode
}*/

void SPI_WriteFin(void){
	SPI_CS(true);
	SPI_W_Byte(0x05);	//status register
     fc8:	85 e0       	ldi	r24, 0x05	; 5
     fca:	64 df       	rcall	.-312    	; 0xe94 <SPI_W_Byte>
	volatile char ch = SPI_R_Byte();
     fcc:	76 df       	rcall	.-276    	; 0xeba <SPI_R_Byte>
     fce:	89 83       	std	Y+1, r24	; 0x01
	do{
		ch = SPI_R_Byte();
     fd0:	74 df       	rcall	.-280    	; 0xeba <SPI_R_Byte>
     fd2:	89 83       	std	Y+1, r24	; 0x01
	}
	while(ch & 0x01);
     fd4:	89 81       	ldd	r24, Y+1	; 0x01
     fd6:	80 fd       	sbrc	r24, 0
     fd8:	fb cf       	rjmp	.-10     	; 0xfd0 <SPI_WriteFin+0x18>
	return FLASH_SPI.DATA;
}

void SPI_CS(bool enable){
	if(enable) FLASH_CS_PORT.OUTCLR = FLASH_CS_PIN;
	else FLASH_CS_PORT.OUTSET = FLASH_CS_PIN;
     fda:	81 e0       	ldi	r24, 0x01	; 1
     fdc:	80 93 65 06 	sts	0x0665, r24
	do{
		ch = SPI_R_Byte();
	}
	while(ch & 0x01);
	SPI_CS(false);
}
     fe0:	0f 90       	pop	r0
     fe2:	df 91       	pop	r29
     fe4:	cf 91       	pop	r28
     fe6:	08 95       	ret

00000fe8 <SPI_ChipErase>:
	uint8_t tmp = SPI_R_Byte();
	SPI_CS(false);
	return tmp;
}

void SPI_ChipErase(void){
     fe8:	1f 93       	push	r17
     fea:	cf 93       	push	r28
     fec:	df 93       	push	r29
	SPI_WriteEnable();
     fee:	79 df       	rcall	.-270    	; 0xee2 <SPI_WriteEnable>
	while(!(FLASH_SPI.STATUS & SPI_IF_bm)){}
	return FLASH_SPI.DATA;
}

void SPI_CS(bool enable){
	if(enable) FLASH_CS_PORT.OUTCLR = FLASH_CS_PIN;
     ff0:	c0 e6       	ldi	r28, 0x60	; 96
     ff2:	d6 e0       	ldi	r29, 0x06	; 6
     ff4:	11 e0       	ldi	r17, 0x01	; 1
     ff6:	1e 83       	std	Y+6, r17	; 0x06
}

void SPI_ChipErase(void){
	SPI_WriteEnable();
	SPI_CS(true);
	SPI_W_Byte(0x60);	//Chip erase
     ff8:	80 e6       	ldi	r24, 0x60	; 96
     ffa:	4c df       	rcall	.-360    	; 0xe94 <SPI_W_Byte>
	return FLASH_SPI.DATA;
}

void SPI_CS(bool enable){
	if(enable) FLASH_CS_PORT.OUTCLR = FLASH_CS_PIN;
	else FLASH_CS_PORT.OUTSET = FLASH_CS_PIN;
     ffc:	1d 83       	std	Y+5, r17	; 0x05
     ffe:	8f e1       	ldi	r24, 0x1F	; 31
    1000:	93 e0       	ldi	r25, 0x03	; 3
    1002:	01 97       	sbiw	r24, 0x01	; 1
    1004:	f1 f7       	brne	.-4      	; 0x1002 <SPI_ChipErase+0x1a>
    1006:	00 c0       	rjmp	.+0      	; 0x1008 <SPI_ChipErase+0x20>
    1008:	00 00       	nop
	SPI_CS(true);
	SPI_W_Byte(0x60);	//Chip erase
	SPI_CS(false);
	_delay_us(100);
	
	SPI_WriteFin();
    100a:	d6 df       	rcall	.-84     	; 0xfb8 <SPI_WriteFin>
	SPI_WriteDisable();
    100c:	78 df       	rcall	.-272    	; 0xefe <SPI_WriteDisable>
}
    100e:	df 91       	pop	r29
    1010:	cf 91       	pop	r28
    1012:	1f 91       	pop	r17
    1014:	08 95       	ret

00001016 <SPI_FindEnd>:
		PORTA_OUTTGL = PIN2_bm;
	}
}
*/

uint32_t SPI_FindEnd(void){
    1016:	cf 92       	push	r12
    1018:	df 92       	push	r13
    101a:	ef 92       	push	r14
    101c:	ff 92       	push	r15
	while(!(FLASH_SPI.STATUS & SPI_IF_bm)){}
	return FLASH_SPI.DATA;
}

void SPI_CS(bool enable){
	if(enable) FLASH_CS_PORT.OUTCLR = FLASH_CS_PIN;
    101e:	81 e0       	ldi	r24, 0x01	; 1
    1020:	80 93 66 06 	sts	0x0666, r24
}
*/

uint32_t SPI_FindEnd(void){
	SPI_CS(true);
	SPI_W_Byte(0x03);			//Read
    1024:	83 e0       	ldi	r24, 0x03	; 3
    1026:	36 df       	rcall	.-404    	; 0xe94 <SPI_W_Byte>
	SPI_W_Byte(0);				//address MSB
    1028:	80 e0       	ldi	r24, 0x00	; 0
    102a:	34 df       	rcall	.-408    	; 0xe94 <SPI_W_Byte>
	SPI_W_Byte(0);				//address cd.
    102c:	80 e0       	ldi	r24, 0x00	; 0
    102e:	32 df       	rcall	.-412    	; 0xe94 <SPI_W_Byte>
	SPI_W_Byte(0);				//address LSB
    1030:	80 e0       	ldi	r24, 0x00	; 0
    1032:	30 df       	rcall	.-416    	; 0xe94 <SPI_W_Byte>
	uint32_t n=0;
    1034:	c1 2c       	mov	r12, r1
    1036:	d1 2c       	mov	r13, r1
    1038:	76 01       	movw	r14, r12
    103a:	0d c0       	rjmp	.+26     	; 0x1056 <SPI_FindEnd+0x40>
	while((n < 4100000) && (SPI_R_Byte() != 0xFF)) n++;	//szukaj pocztku wolnej pamici (0xFF)
    103c:	8f ef       	ldi	r24, 0xFF	; 255
    103e:	c8 1a       	sub	r12, r24
    1040:	d8 0a       	sbc	r13, r24
    1042:	e8 0a       	sbc	r14, r24
    1044:	f8 0a       	sbc	r15, r24
    1046:	80 ea       	ldi	r24, 0xA0	; 160
    1048:	c8 16       	cp	r12, r24
    104a:	8f e8       	ldi	r24, 0x8F	; 143
    104c:	d8 06       	cpc	r13, r24
    104e:	8e e3       	ldi	r24, 0x3E	; 62
    1050:	e8 06       	cpc	r14, r24
    1052:	f1 04       	cpc	r15, r1
    1054:	19 f0       	breq	.+6      	; 0x105c <SPI_FindEnd+0x46>
    1056:	31 df       	rcall	.-414    	; 0xeba <SPI_R_Byte>
    1058:	8f 3f       	cpi	r24, 0xFF	; 255
    105a:	81 f7       	brne	.-32     	; 0x103c <SPI_FindEnd+0x26>
	return FLASH_SPI.DATA;
}

void SPI_CS(bool enable){
	if(enable) FLASH_CS_PORT.OUTCLR = FLASH_CS_PIN;
	else FLASH_CS_PORT.OUTSET = FLASH_CS_PIN;
    105c:	81 e0       	ldi	r24, 0x01	; 1
    105e:	80 93 65 06 	sts	0x0665, r24
	SPI_W_Byte(0);				//address LSB
	uint32_t n=0;
	while((n < 4100000) && (SPI_R_Byte() != 0xFF)) n++;	//szukaj pocztku wolnej pamici (0xFF)
	SPI_CS(false);
	return n;
}
    1062:	c7 01       	movw	r24, r14
    1064:	b6 01       	movw	r22, r12
    1066:	ff 90       	pop	r15
    1068:	ef 90       	pop	r14
    106a:	df 90       	pop	r13
    106c:	cf 90       	pop	r12
    106e:	08 95       	ret

00001070 <SPI_WriteFrame>:

void SPI_WriteFrame(uint32_t * adres, uint16_t frame_length, frame_t * frame){
    1070:	8f 92       	push	r8
    1072:	9f 92       	push	r9
    1074:	af 92       	push	r10
    1076:	bf 92       	push	r11
    1078:	cf 92       	push	r12
    107a:	df 92       	push	r13
    107c:	ef 92       	push	r14
    107e:	ff 92       	push	r15
    1080:	0f 93       	push	r16
    1082:	1f 93       	push	r17
    1084:	cf 93       	push	r28
    1086:	df 93       	push	r29
    1088:	4b 01       	movw	r8, r22
    108a:	fa 01       	movw	r30, r20
	uint32_t i = 0;
	if((*adres) < 4194000){
    108c:	dc 01       	movw	r26, r24
    108e:	4d 91       	ld	r20, X+
    1090:	5d 91       	ld	r21, X+
    1092:	6d 91       	ld	r22, X+
    1094:	7c 91       	ld	r23, X
    1096:	40 3d       	cpi	r20, 0xD0	; 208
    1098:	5e 4f       	sbci	r21, 0xFE	; 254
    109a:	6f 43       	sbci	r22, 0x3F	; 63
    109c:	71 05       	cpc	r23, r1
    109e:	b8 f5       	brcc	.+110    	; 0x110e <SPI_WriteFrame+0x9e>
		PORTA_OUTSET = PIN2_bm;
    10a0:	24 e0       	ldi	r18, 0x04	; 4
    10a2:	20 93 05 06 	sts	0x0605, r18
		while((frame->frameASCII[i]) && (i<frame_length)){
    10a6:	40 81       	ld	r20, Z
    10a8:	44 23       	and	r20, r20
    10aa:	71 f1       	breq	.+92     	; 0x1108 <SPI_WriteFrame+0x98>
    10ac:	a1 2c       	mov	r10, r1
    10ae:	b1 2c       	mov	r11, r1
    10b0:	81 14       	cp	r8, r1
    10b2:	91 04       	cpc	r9, r1
    10b4:	a1 04       	cpc	r10, r1
    10b6:	b1 04       	cpc	r11, r1
    10b8:	39 f1       	breq	.+78     	; 0x1108 <SPI_WriteFrame+0x98>
    10ba:	8f 01       	movw	r16, r30
    10bc:	ec 01       	movw	r28, r24
    10be:	0f 5f       	subi	r16, 0xFF	; 255
    10c0:	1f 4f       	sbci	r17, 0xFF	; 255
    10c2:	c1 2c       	mov	r12, r1
    10c4:	d1 2c       	mov	r13, r1
    10c6:	76 01       	movw	r14, r12
			SPI_WriteByte((*adres),frame->frameASCII[i++]);
    10c8:	ef ef       	ldi	r30, 0xFF	; 255
    10ca:	ce 1a       	sub	r12, r30
    10cc:	de 0a       	sbc	r13, r30
    10ce:	ee 0a       	sbc	r14, r30
    10d0:	fe 0a       	sbc	r15, r30
    10d2:	68 81       	ld	r22, Y
    10d4:	79 81       	ldd	r23, Y+1	; 0x01
    10d6:	8a 81       	ldd	r24, Y+2	; 0x02
    10d8:	9b 81       	ldd	r25, Y+3	; 0x03
    10da:	1f df       	rcall	.-450    	; 0xf1a <SPI_WriteByte>
			SPI_WriteFin();
    10dc:	6d df       	rcall	.-294    	; 0xfb8 <SPI_WriteFin>
			(*adres)++;			//address increment
    10de:	88 81       	ld	r24, Y
    10e0:	99 81       	ldd	r25, Y+1	; 0x01
    10e2:	aa 81       	ldd	r26, Y+2	; 0x02
    10e4:	bb 81       	ldd	r27, Y+3	; 0x03
    10e6:	01 96       	adiw	r24, 0x01	; 1
    10e8:	a1 1d       	adc	r26, r1
    10ea:	b1 1d       	adc	r27, r1
    10ec:	88 83       	st	Y, r24
    10ee:	99 83       	std	Y+1, r25	; 0x01
    10f0:	aa 83       	std	Y+2, r26	; 0x02
    10f2:	bb 83       	std	Y+3, r27	; 0x03

void SPI_WriteFrame(uint32_t * adres, uint16_t frame_length, frame_t * frame){
	uint32_t i = 0;
	if((*adres) < 4194000){
		PORTA_OUTSET = PIN2_bm;
		while((frame->frameASCII[i]) && (i<frame_length)){
    10f4:	d8 01       	movw	r26, r16
    10f6:	4d 91       	ld	r20, X+
    10f8:	8d 01       	movw	r16, r26
    10fa:	44 23       	and	r20, r20
    10fc:	29 f0       	breq	.+10     	; 0x1108 <SPI_WriteFrame+0x98>
    10fe:	c8 14       	cp	r12, r8
    1100:	d9 04       	cpc	r13, r9
    1102:	ea 04       	cpc	r14, r10
    1104:	fb 04       	cpc	r15, r11
    1106:	01 f7       	brne	.-64     	; 0x10c8 <SPI_WriteFrame+0x58>
			SPI_WriteByte((*adres),frame->frameASCII[i++]);
			SPI_WriteFin();
			(*adres)++;			//address increment
		}
		PORTA_OUTCLR = PIN2_bm;
    1108:	84 e0       	ldi	r24, 0x04	; 4
    110a:	80 93 06 06 	sts	0x0606, r24
	}
}
    110e:	df 91       	pop	r29
    1110:	cf 91       	pop	r28
    1112:	1f 91       	pop	r17
    1114:	0f 91       	pop	r16
    1116:	ff 90       	pop	r15
    1118:	ef 90       	pop	r14
    111a:	df 90       	pop	r13
    111c:	cf 90       	pop	r12
    111e:	bf 90       	pop	r11
    1120:	af 90       	pop	r10
    1122:	9f 90       	pop	r9
    1124:	8f 90       	pop	r8
    1126:	08 95       	ret

00001128 <SPI_StoreFrame>:

void SPI_StoreFrame(uint32_t * adres, uint16_t frame_length, frame_t * frame, RTC_t * RTC){
    1128:	cf 93       	push	r28
    112a:	df 93       	push	r29
    112c:	e9 01       	movw	r28, r18
	SPI_WriteFrame(adres, frame_length, frame);
    112e:	a0 df       	rcall	.-192    	; 0x1070 <SPI_WriteFrame>
	if(RTC->frameFlashCount < 999999UL) RTC->frameFlashCount++;
    1130:	88 85       	ldd	r24, Y+8	; 0x08
    1132:	99 85       	ldd	r25, Y+9	; 0x09
    1134:	aa 85       	ldd	r26, Y+10	; 0x0a
    1136:	bb 85       	ldd	r27, Y+11	; 0x0b
    1138:	8f 33       	cpi	r24, 0x3F	; 63
    113a:	22 e4       	ldi	r18, 0x42	; 66
    113c:	92 07       	cpc	r25, r18
    113e:	2f e0       	ldi	r18, 0x0F	; 15
    1140:	a2 07       	cpc	r26, r18
    1142:	b1 05       	cpc	r27, r1
    1144:	40 f4       	brcc	.+16     	; 0x1156 <SPI_StoreFrame+0x2e>
    1146:	01 96       	adiw	r24, 0x01	; 1
    1148:	a1 1d       	adc	r26, r1
    114a:	b1 1d       	adc	r27, r1
    114c:	88 87       	std	Y+8, r24	; 0x08
    114e:	99 87       	std	Y+9, r25	; 0x09
    1150:	aa 87       	std	Y+10, r26	; 0x0a
    1152:	bb 87       	std	Y+11, r27	; 0x0b
    1154:	04 c0       	rjmp	.+8      	; 0x115e <SPI_StoreFrame+0x36>
	else RTC->frameFlashCount = 0;
    1156:	18 86       	std	Y+8, r1	; 0x08
    1158:	19 86       	std	Y+9, r1	; 0x09
    115a:	1a 86       	std	Y+10, r1	; 0x0a
    115c:	1b 86       	std	Y+11, r1	; 0x0b
    115e:	df 91       	pop	r29
    1160:	cf 91       	pop	r28
    1162:	08 95       	ret

00001164 <Osc2MHz>:
	GPS_UART.BAUDCTRLB = (uint8_t)(((BSEL >> 8) & 0x000F) | BSCALE) ;
	GPS_UART.CTRLA |= USART_RXCINTLVL_LO_gc;								//odblokowanie przerwa odbiornika, niski priorytet
	GPS_UART.CTRLB |= USART_TXEN_bm | USART_RXEN_bm;						//wczenie nadajnika i odbiornika USART
}

void GPS_Conf(void){
    1164:	e0 e5       	ldi	r30, 0x50	; 80
    1166:	f0 e0       	ldi	r31, 0x00	; 0
    1168:	90 81       	ld	r25, Z
    116a:	91 60       	ori	r25, 0x01	; 1
    116c:	90 83       	st	Z, r25
    116e:	a8 e6       	ldi	r26, 0x68	; 104
    1170:	b0 e0       	ldi	r27, 0x00	; 0
    1172:	90 e4       	ldi	r25, 0x40	; 64
    1174:	12 96       	adiw	r26, 0x02	; 2
    1176:	9c 93       	st	X, r25
    1178:	12 97       	sbiw	r26, 0x02	; 2
    117a:	9d e0       	ldi	r25, 0x0D	; 13
    117c:	13 96       	adiw	r26, 0x03	; 3
    117e:	9c 93       	st	X, r25
    1180:	90 81       	ld	r25, Z
    1182:	94 60       	ori	r25, 0x04	; 4
    1184:	90 83       	st	Z, r25
    1186:	91 81       	ldd	r25, Z+1	; 0x01
    1188:	92 ff       	sbrs	r25, 2
    118a:	fd cf       	rjmp	.-6      	; 0x1186 <Osc2MHz+0x22>
    118c:	e0 e5       	ldi	r30, 0x50	; 80
    118e:	f0 e0       	ldi	r31, 0x00	; 0
    1190:	96 81       	ldd	r25, Z+6	; 0x06
    1192:	98 7f       	andi	r25, 0xF8	; 248
    1194:	96 83       	std	Z+6, r25	; 0x06
    1196:	e8 e6       	ldi	r30, 0x68	; 104
    1198:	f0 e0       	ldi	r31, 0x00	; 0
    119a:	90 81       	ld	r25, Z
    119c:	91 60       	ori	r25, 0x01	; 1
    119e:	90 83       	st	Z, r25
    11a0:	e0 e5       	ldi	r30, 0x50	; 80
    11a2:	f0 e0       	ldi	r31, 0x00	; 0
    11a4:	91 81       	ldd	r25, Z+1	; 0x01
    11a6:	90 ff       	sbrs	r25, 0
    11a8:	fd cf       	rjmp	.-6      	; 0x11a4 <Osc2MHz+0x40>
    11aa:	98 ed       	ldi	r25, 0xD8	; 216
    11ac:	94 bf       	out	0x34, r25	; 52
    11ae:	10 92 40 00 	sts	0x0040, r1
    11b2:	e0 e5       	ldi	r30, 0x50	; 80
    11b4:	f0 e0       	ldi	r31, 0x00	; 0
    11b6:	90 81       	ld	r25, Z
    11b8:	9f 7e       	andi	r25, 0xEF	; 239
    11ba:	90 83       	st	Z, r25
    11bc:	85 83       	std	Z+5, r24	; 0x05
    11be:	80 e1       	ldi	r24, 0x10	; 16
    11c0:	80 83       	st	Z, r24
    11c2:	81 81       	ldd	r24, Z+1	; 0x01
    11c4:	84 ff       	sbrs	r24, 4
    11c6:	fd cf       	rjmp	.-6      	; 0x11c2 <Osc2MHz+0x5e>
    11c8:	88 ed       	ldi	r24, 0xD8	; 216
    11ca:	84 bf       	out	0x34, r24	; 52
    11cc:	84 e0       	ldi	r24, 0x04	; 4
    11ce:	80 93 40 00 	sts	0x0040, r24
    11d2:	08 95       	ret

000011d4 <CPU_clk>:
    11d4:	86 95       	lsr	r24
    11d6:	c6 cf       	rjmp	.-116    	; 0x1164 <Osc2MHz>
    11d8:	08 95       	ret

000011da <OscRTC>:
    11da:	08 95       	ret

000011dc <RTC_Init>:
    11dc:	08 95       	ret

000011de <TimerCInit>:
    11de:	27 e0       	ldi	r18, 0x07	; 7
    11e0:	20 93 00 08 	sts	0x0800, r18
    11e4:	10 92 01 08 	sts	0x0801, r1
    11e8:	10 92 20 08 	sts	0x0820, r1
    11ec:	10 92 21 08 	sts	0x0821, r1
    11f0:	9c 01       	movw	r18, r24
    11f2:	a0 e0       	ldi	r26, 0x00	; 0
    11f4:	bd e7       	ldi	r27, 0x7D	; 125
    11f6:	0e 94 29 1e 	call	0x3c52	; 0x3c52 <__umulhisi3>
    11fa:	dc 01       	movw	r26, r24
    11fc:	cb 01       	movw	r24, r22
    11fe:	07 2e       	mov	r0, r23
    1200:	7a e0       	ldi	r23, 0x0A	; 10
    1202:	b6 95       	lsr	r27
    1204:	a7 95       	ror	r26
    1206:	97 95       	ror	r25
    1208:	87 95       	ror	r24
    120a:	7a 95       	dec	r23
    120c:	d1 f7       	brne	.-12     	; 0x1202 <TimerCInit+0x24>
    120e:	70 2d       	mov	r23, r0
    1210:	80 93 26 08 	sts	0x0826, r24
    1214:	90 93 27 08 	sts	0x0827, r25
    1218:	82 e0       	ldi	r24, 0x02	; 2
    121a:	80 93 06 08 	sts	0x0806, r24
    121e:	08 95       	ret

00001220 <TimerDInit>:
    1220:	27 e0       	ldi	r18, 0x07	; 7
    1222:	20 93 00 09 	sts	0x0900, r18
    1226:	10 92 01 09 	sts	0x0901, r1
    122a:	10 92 20 09 	sts	0x0920, r1
    122e:	10 92 21 09 	sts	0x0921, r1
    1232:	9c 01       	movw	r18, r24
    1234:	a0 e0       	ldi	r26, 0x00	; 0
    1236:	bd e7       	ldi	r27, 0x7D	; 125
    1238:	0e 94 29 1e 	call	0x3c52	; 0x3c52 <__umulhisi3>
    123c:	dc 01       	movw	r26, r24
    123e:	cb 01       	movw	r24, r22
    1240:	07 2e       	mov	r0, r23
    1242:	7a e0       	ldi	r23, 0x0A	; 10
    1244:	b6 95       	lsr	r27
    1246:	a7 95       	ror	r26
    1248:	97 95       	ror	r25
    124a:	87 95       	ror	r24
    124c:	7a 95       	dec	r23
    124e:	d1 f7       	brne	.-12     	; 0x1244 <TimerDInit+0x24>
    1250:	70 2d       	mov	r23, r0
    1252:	80 93 26 09 	sts	0x0926, r24
    1256:	90 93 27 09 	sts	0x0927, r25
    125a:	81 e0       	ldi	r24, 0x01	; 1
    125c:	80 93 06 09 	sts	0x0906, r24
    1260:	08 95       	ret

00001262 <TimerEInit>:
    1262:	27 e0       	ldi	r18, 0x07	; 7
    1264:	20 93 00 0a 	sts	0x0A00, r18
    1268:	10 92 01 0a 	sts	0x0A01, r1
    126c:	10 92 20 0a 	sts	0x0A20, r1
    1270:	10 92 21 0a 	sts	0x0A21, r1
    1274:	9c 01       	movw	r18, r24
    1276:	a0 e0       	ldi	r26, 0x00	; 0
    1278:	bd e7       	ldi	r27, 0x7D	; 125
    127a:	0e 94 29 1e 	call	0x3c52	; 0x3c52 <__umulhisi3>
    127e:	dc 01       	movw	r26, r24
    1280:	cb 01       	movw	r24, r22
    1282:	07 2e       	mov	r0, r23
    1284:	7a e0       	ldi	r23, 0x0A	; 10
    1286:	b6 95       	lsr	r27
    1288:	a7 95       	ror	r26
    128a:	97 95       	ror	r25
    128c:	87 95       	ror	r24
    128e:	7a 95       	dec	r23
    1290:	d1 f7       	brne	.-12     	; 0x1286 <TimerEInit+0x24>
    1292:	70 2d       	mov	r23, r0
    1294:	80 93 26 0a 	sts	0x0A26, r24
    1298:	90 93 27 0a 	sts	0x0A27, r25
    129c:	82 e0       	ldi	r24, 0x02	; 2
    129e:	80 93 06 0a 	sts	0x0A06, r24
    12a2:	08 95       	ret

000012a4 <TimerFInit>:
    12a4:	27 e0       	ldi	r18, 0x07	; 7
    12a6:	20 93 00 0b 	sts	0x0B00, r18
    12aa:	10 92 01 0b 	sts	0x0B01, r1
    12ae:	10 92 20 0b 	sts	0x0B20, r1
    12b2:	10 92 21 0b 	sts	0x0B21, r1
    12b6:	81 3d       	cpi	r24, 0xD1	; 209
    12b8:	27 e0       	ldi	r18, 0x07	; 7
    12ba:	92 07       	cpc	r25, r18
    12bc:	10 f0       	brcs	.+4      	; 0x12c2 <TimerFInit+0x1e>
    12be:	80 ed       	ldi	r24, 0xD0	; 208
    12c0:	97 e0       	ldi	r25, 0x07	; 7
    12c2:	9c 01       	movw	r18, r24
    12c4:	a0 e0       	ldi	r26, 0x00	; 0
    12c6:	bd e7       	ldi	r27, 0x7D	; 125
    12c8:	0e 94 29 1e 	call	0x3c52	; 0x3c52 <__umulhisi3>
    12cc:	dc 01       	movw	r26, r24
    12ce:	cb 01       	movw	r24, r22
    12d0:	07 2e       	mov	r0, r23
    12d2:	7a e0       	ldi	r23, 0x0A	; 10
    12d4:	b6 95       	lsr	r27
    12d6:	a7 95       	ror	r26
    12d8:	97 95       	ror	r25
    12da:	87 95       	ror	r24
    12dc:	7a 95       	dec	r23
    12de:	d1 f7       	brne	.-12     	; 0x12d4 <TimerFInit+0x30>
    12e0:	70 2d       	mov	r23, r0
    12e2:	80 93 26 0b 	sts	0x0B26, r24
    12e6:	90 93 27 0b 	sts	0x0B27, r25
    12ea:	82 e0       	ldi	r24, 0x02	; 2
    12ec:	80 93 06 0b 	sts	0x0B06, r24
    12f0:	08 95       	ret

000012f2 <USART_Init>:
	}
	*/
}

void USART_Init(void){
	XBEE_UART_PORT.OUTCLR = PIN2_bm;					//konfiguracja pinw Rx i Tx
    12f2:	e0 e6       	ldi	r30, 0x60	; 96
    12f4:	f6 e0       	ldi	r31, 0x06	; 6
    12f6:	84 e0       	ldi	r24, 0x04	; 4
    12f8:	86 83       	std	Z+6, r24	; 0x06
	XBEE_UART_PORT.OUTSET = PIN3_bm;
    12fa:	88 e0       	ldi	r24, 0x08	; 8
    12fc:	85 83       	std	Z+5, r24	; 0x05
	XBEE_UART_PORT.DIRSET = PIN3_bm;
    12fe:	81 83       	std	Z+1, r24	; 0x01
	
	XBEE_UART.CTRLC = USART_CHSIZE_8BIT_gc;	//ramka: 8bitw, 1 bit stopu, brak bitu parzystoci
    1300:	e0 ea       	ldi	r30, 0xA0	; 160
    1302:	f9 e0       	ldi	r31, 0x09	; 9
    1304:	83 e0       	ldi	r24, 0x03	; 3
    1306:	85 83       	std	Z+5, r24	; 0x05
	int16_t BSEL = 1047;					//konfiguracja prdkoci transmisji 115200
	int8_t BSCALE = 0b10100000;				//-6
	XBEE_UART.BAUDCTRLA = (uint8_t)(BSEL&0x00FF);
    1308:	87 e1       	ldi	r24, 0x17	; 23
    130a:	86 83       	std	Z+6, r24	; 0x06
	XBEE_UART.BAUDCTRLB = (uint8_t)(((BSEL >> 8) & 0x000F) | BSCALE) ;
    130c:	84 ea       	ldi	r24, 0xA4	; 164
    130e:	87 83       	std	Z+7, r24	; 0x07
	XBEE_UART.CTRLA |= USART_RXCINTLVL_LO_gc | USART_TXCINTLVL_HI_gc;		//odblokowanie przerwa nadajnika i odbiornika, niski priorytet
    1310:	83 81       	ldd	r24, Z+3	; 0x03
    1312:	8c 61       	ori	r24, 0x1C	; 28
    1314:	83 83       	std	Z+3, r24	; 0x03
	XBEE_UART.CTRLB |= USART_TXEN_bm | USART_RXEN_bm;						//wczenie nadajnika i odbiornika USART
    1316:	84 81       	ldd	r24, Z+4	; 0x04
    1318:	88 61       	ori	r24, 0x18	; 24
    131a:	84 83       	std	Z+4, r24	; 0x04
    131c:	08 95       	ret

0000131e <IO_Init>:
}

void IO_Init(void){
    131e:	cf 93       	push	r28
    1320:	df 93       	push	r29
	//konfiguracja przyciskw
	PORTE_PIN0CTRL = PORT_OPC_PULLUP_gc;		//wczenie Pull-up przycisku 1
    1322:	88 e1       	ldi	r24, 0x18	; 24
    1324:	80 93 90 06 	sts	0x0690, r24
	PORTE_PIN1CTRL = PORT_OPC_PULLUP_gc;		//wczenie Pull-up przycisku 2
    1328:	80 93 91 06 	sts	0x0691, r24
	//konfiguracja pinw kontroli GPS
	PORTA_DIR |= PIN0_bm;
    132c:	a0 e0       	ldi	r26, 0x00	; 0
    132e:	b6 e0       	ldi	r27, 0x06	; 6
    1330:	8c 91       	ld	r24, X
    1332:	81 60       	ori	r24, 0x01	; 1
    1334:	8c 93       	st	X, r24
	PORTA_OUTCLR = PIN0_bm;
    1336:	e6 e0       	ldi	r30, 0x06	; 6
    1338:	f6 e0       	ldi	r31, 0x06	; 6
    133a:	21 e0       	ldi	r18, 0x01	; 1
    133c:	20 83       	st	Z, r18
	//konfiguracja LED
	PORTA_DIR |= PIN2_bm | PIN3_bm | PIN4_bm | PIN5_bm | PIN6_bm;	//konfiguracja kierunku pinw LED
    133e:	8c 91       	ld	r24, X
    1340:	8c 67       	ori	r24, 0x7C	; 124
    1342:	8c 93       	st	X, r24
	PORTA_OUTCLR = PIN2_bm | PIN3_bm | PIN4_bm | PIN5_bm | PIN6_bm;	//konfiguracja stanu pinw LED
    1344:	8c e7       	ldi	r24, 0x7C	; 124
    1346:	80 83       	st	Z, r24
	//konfiguracja buzzera
	PORTF_DIR |= PIN6_bm;						//konfiguracja kierunku pinu buzzera
    1348:	a0 ea       	ldi	r26, 0xA0	; 160
    134a:	b6 e0       	ldi	r27, 0x06	; 6
    134c:	8c 91       	ld	r24, X
    134e:	80 64       	ori	r24, 0x40	; 64
    1350:	8c 93       	st	X, r24
	PORTF_OUTCLR = PIN6_bm;						//konfiguracja stanu pinu buzzer
    1352:	66 ea       	ldi	r22, 0xA6	; 166
    1354:	76 e0       	ldi	r23, 0x06	; 6
    1356:	50 e4       	ldi	r21, 0x40	; 64
    1358:	db 01       	movw	r26, r22
    135a:	5c 93       	st	X, r21
	//konfiguracja wyj POWER
	PORTC_DIRSET = PIN2_bm;			//konfiguracja kierunku pinw POWER
    135c:	34 e0       	ldi	r19, 0x04	; 4
    135e:	30 93 41 06 	sts	0x0641, r19
	PORTC_OUTCLR = PIN2_bm;			//konfiguracja stanu pinw POWER
    1362:	30 93 46 06 	sts	0x0646, r19
	PORTD_DIRSET = PIN1_bm;			//konfiguracja kierunku pinw POWER
    1366:	c1 e6       	ldi	r28, 0x61	; 97
    1368:	d6 e0       	ldi	r29, 0x06	; 6
    136a:	82 e0       	ldi	r24, 0x02	; 2
    136c:	88 83       	st	Y, r24
	PORTD_OUTCLR = PIN1_bm;			//konfiguracja stanu pinw POWER
    136e:	a6 e6       	ldi	r26, 0x66	; 102
    1370:	b6 e0       	ldi	r27, 0x06	; 6
    1372:	8c 93       	st	X, r24
	//konfiguracja interfejsu XBEE
	PORTD_OUTCLR = PIN2_bm;		//RX
    1374:	3c 93       	st	X, r19
	PORTD_DIRSET = PIN3_bm;		//TX
    1376:	48 e0       	ldi	r20, 0x08	; 8
    1378:	48 83       	st	Y, r20
	PORTD_DIRSET = PIN5_bm;		//sleep pin
    137a:	90 e2       	ldi	r25, 0x20	; 32
    137c:	98 83       	st	Y, r25
	PORTD_OUTCLR = PIN5_bm;
    137e:	9c 93       	st	X, r25
	//konfiguracja interfejsu GPS
	PORTF_OUTCLR = PIN2_bm;
    1380:	db 01       	movw	r26, r22
    1382:	3c 93       	st	X, r19
	PORTF_OUTSET = PIN3_bm;
    1384:	40 93 a5 06 	sts	0x06A5, r20
	PORTF_DIRSET = PIN3_bm;
    1388:	40 93 a1 06 	sts	0x06A1, r20
	//konfiguracja pinw I2C
	PORTC_DIR = PIN0_bm | PIN1_bm;
    138c:	33 e0       	ldi	r19, 0x03	; 3
    138e:	30 93 40 06 	sts	0x0640, r19
	PORTC_OUT = PIN0_bm | PIN1_bm;
    1392:	30 93 44 06 	sts	0x0644, r19
	//konfiguracja wej data ready
	PORTR_DIRCLR = PIN0_bm;		//LPS
    1396:	a2 ee       	ldi	r26, 0xE2	; 226
    1398:	b7 e0       	ldi	r27, 0x07	; 7
    139a:	2c 93       	st	X, r18
	PORTR_DIRCLR = PIN1_bm;		//LIS
    139c:	8c 93       	st	X, r24
	PORTE_DIRCLR = PIN4_bm;		//MPU
    139e:	a2 e8       	ldi	r26, 0x82	; 130
    13a0:	b6 e0       	ldi	r27, 0x06	; 6
    13a2:	30 e1       	ldi	r19, 0x10	; 16
    13a4:	3c 93       	st	X, r19
	PORTE_DIRCLR = PIN5_bm;		//LSM
    13a6:	9c 93       	st	X, r25
	PORTF_DIRCLR = PIN0_bm;		//LSM
    13a8:	a2 ea       	ldi	r26, 0xA2	; 162
    13aa:	b6 e0       	ldi	r27, 0x06	; 6
    13ac:	2c 93       	st	X, r18
	PORTF_DIRCLR = PIN1_bm;		//HMC
    13ae:	8c 93       	st	X, r24
	PORTF_DIRCLR = PIN4_bm;		//LIS2
    13b0:	3c 93       	st	X, r19
	PORTD_DIRCLR = PIN4_bm;		//HP
    13b2:	30 93 62 06 	sts	0x0662, r19
	//konfiguracja wej ADC
	PORTA_OUTCLR = PIN1_bm;		//Vsense2
    13b6:	80 83       	st	Z, r24
	PORTA_OUTCLR = PIN7_bm;		//Vsense
    13b8:	80 e8       	ldi	r24, 0x80	; 128
    13ba:	80 83       	st	Z, r24
	PORTB_OUTCLR = PIN0_bm;		//Vusb
    13bc:	e6 e2       	ldi	r30, 0x26	; 38
    13be:	f6 e0       	ldi	r31, 0x06	; 6
    13c0:	20 83       	st	Z, r18
	PORTB_OUTCLR = PIN5_bm;		//light1
    13c2:	90 83       	st	Z, r25
	PORTB_OUTCLR = PIN6_bm;		//light2
    13c4:	50 83       	st	Z, r21
	PORTB_OUTCLR = PIN7_bm;		//light3
    13c6:	80 83       	st	Z, r24
}
    13c8:	df 91       	pop	r29
    13ca:	cf 91       	pop	r28
    13cc:	08 95       	ret

000013ce <I2C_Init>:

void I2C_Init(void){
	SENSORS_I2C.MASTER.CTRLA = TWI_MASTER_RIEN_bm | TWI_MASTER_WIEN_bm;		//ustawienie priorytetu przerwania na Low i w?aczenie przerwania od odbioru
    13ce:	e0 e8       	ldi	r30, 0x80	; 128
    13d0:	f4 e0       	ldi	r31, 0x04	; 4
    13d2:	80 e3       	ldi	r24, 0x30	; 48
    13d4:	81 83       	std	Z+1, r24	; 0x01
	SENSORS_I2C.MASTER.CTRLB = TWI_MASTER_SMEN_bm;                             //uruchomienie Smart Mode
    13d6:	91 e0       	ldi	r25, 0x01	; 1
    13d8:	92 83       	std	Z+2, r25	; 0x02
	SENSORS_I2C.MASTER.BAUD = 48;                                             //BAUD = 48 -> f=300kHz    BAUD = 21 -> f=600kHz
    13da:	85 83       	std	Z+5, r24	; 0x05
	SENSORS_I2C.MASTER.CTRLA |= TWI_MASTER_ENABLE_bm;                          //wczenie TWI
    13dc:	81 81       	ldd	r24, Z+1	; 0x01
    13de:	88 60       	ori	r24, 0x08	; 8
    13e0:	81 83       	std	Z+1, r24	; 0x01
	SENSORS_I2C.MASTER.STATUS = TWI_MASTER_BUSSTATE_IDLE_gc;                   //I2C wolne
    13e2:	94 83       	std	Z+4, r25	; 0x04
    13e4:	08 95       	ret

000013e6 <SPI_Init>:
}

void SPI_Init(void){
	SPI_PORT.DIRSET = PIN4_bm;						//podcignicie CS
    13e6:	e0 e4       	ldi	r30, 0x40	; 64
    13e8:	f6 e0       	ldi	r31, 0x06	; 6
    13ea:	80 e1       	ldi	r24, 0x10	; 16
    13ec:	81 83       	std	Z+1, r24	; 0x01
	SPI_PORT.DIRSET = PIN5_bm | PIN7_bm;
    13ee:	80 ea       	ldi	r24, 0xA0	; 160
    13f0:	81 83       	std	Z+1, r24	; 0x01
	SPI_PORT.DIRCLR = PIN6_bm;
    13f2:	80 e4       	ldi	r24, 0x40	; 64
    13f4:	82 83       	std	Z+2, r24	; 0x02
	SPI_PORT.OUTSET = PIN5_bm | PIN6_bm | PIN7_bm;	//moe doda PIN6_bm
    13f6:	80 ee       	ldi	r24, 0xE0	; 224
    13f8:	85 83       	std	Z+5, r24	; 0x05
	//----CS---
	FLASH_CS_PORT.DIRSET = FLASH_CS_PIN;
    13fa:	e0 e6       	ldi	r30, 0x60	; 96
    13fc:	f6 e0       	ldi	r31, 0x06	; 6
    13fe:	81 e0       	ldi	r24, 0x01	; 1
    1400:	81 83       	std	Z+1, r24	; 0x01
	FLASH_CS_PORT.OUTSET = FLASH_CS_PIN;
    1402:	85 83       	std	Z+5, r24	; 0x05
	
	//-----------Clk=250kHz-------------------------
	FLASH_SPI.CTRL = SPI_ENABLE_bm | SPI_MODE_0_gc | SPI_PRESCALER_DIV16_gc | SPI_MASTER_bm;
    1404:	81 e5       	ldi	r24, 0x51	; 81
    1406:	80 93 c0 08 	sts	0x08C0, r24
    140a:	08 95       	ret

0000140c <ReadSignatureByte>:
	//FLASH_SPI.INTCTRL = SPI_INTLVL_LO_gc;
}

uint8_t ReadSignatureByte(uint16_t Address)
{
	NVM_CMD = NVM_CMD_READ_CALIB_ROW_gc;
    140c:	aa ec       	ldi	r26, 0xCA	; 202
    140e:	b1 e0       	ldi	r27, 0x01	; 1
    1410:	22 e0       	ldi	r18, 0x02	; 2
    1412:	2c 93       	st	X, r18
	uint8_t Result;
	__asm__ ("lpm %0, Z\n" : "=r" (Result) : "z" (Address));
    1414:	fc 01       	movw	r30, r24
    1416:	84 91       	lpm	r24, Z
	NVM_CMD = NVM_CMD_NO_OPERATION_gc;
    1418:	1c 92       	st	X, r1
	return Result;
    141a:	08 95       	ret

0000141c <ADC_Init>:
	if(period_ms > 2000) period_ms = 2000;			//ograniczenie ze wzgldu na przepenienie
	TCF0_PER = (period_ms*32000UL)/1024;			//przeliczenie okresu na 1ms*period
	TCF0_INTCTRLA = TC_OVFINTLVL_MED_gc;			//redni poziom przerwania od przepenienia
}

void ADC_Init(void){
    141c:	1f 93       	push	r17
    141e:	cf 93       	push	r28
    1420:	df 93       	push	r29
	ADCA.CTRLA = ADC_ENABLE_bm;
    1422:	c0 e0       	ldi	r28, 0x00	; 0
    1424:	d2 e0       	ldi	r29, 0x02	; 2
    1426:	11 e0       	ldi	r17, 0x01	; 1
    1428:	18 83       	st	Y, r17
	ADCA.CALL = ReadSignatureByte(0x20) ; //ADC Calibration Byte 0
    142a:	80 e2       	ldi	r24, 0x20	; 32
    142c:	90 e0       	ldi	r25, 0x00	; 0
    142e:	ee df       	rcall	.-36     	; 0x140c <ReadSignatureByte>
    1430:	8c 87       	std	Y+12, r24	; 0x0c
	ADCA.CALH = ReadSignatureByte(0x21) ; //ADC Calibration Byte 1
    1432:	81 e2       	ldi	r24, 0x21	; 33
    1434:	90 e0       	ldi	r25, 0x00	; 0
    1436:	ea df       	rcall	.-44     	; 0x140c <ReadSignatureByte>
    1438:	8d 87       	std	Y+13, r24	; 0x0d
	ADCA.CTRLB = ADC_RESOLUTION_12BIT_gc;	//rozdzielczo 12bit, CONVMODE=0
    143a:	19 82       	std	Y+1, r1	; 0x01
	ADCA.REFCTRL = ADC_REFSEL_INT1V_gc;
    143c:	1a 82       	std	Y+2, r1	; 0x02
	ADCA.PRESCALER = ADC_PRESCALER_DIV32_gc;
    143e:	83 e0       	ldi	r24, 0x03	; 3
    1440:	8c 83       	std	Y+4, r24	; 0x04
	ADCA.CH0.CTRL = ADC_CH_INPUTMODE_SINGLEENDED_gc;
    1442:	18 a3       	std	Y+32, r17	; 0x20
}
    1444:	df 91       	pop	r29
    1446:	cf 91       	pop	r28
    1448:	1f 91       	pop	r17
    144a:	08 95       	ret

0000144c <prepareFrame>:
	*(tablica+4) = ((tmp%100)/10) + 48;
	*(tablica+5) = '.';
	*(tablica+6) = ((tmp%10)) + 48;
}

void prepareFrame(allData_t * allData){
    144c:	2f 92       	push	r2
    144e:	3f 92       	push	r3
    1450:	4f 92       	push	r4
    1452:	5f 92       	push	r5
    1454:	6f 92       	push	r6
    1456:	7f 92       	push	r7
    1458:	8f 92       	push	r8
    145a:	9f 92       	push	r9
    145c:	af 92       	push	r10
    145e:	bf 92       	push	r11
    1460:	cf 92       	push	r12
    1462:	df 92       	push	r13
    1464:	ef 92       	push	r14
    1466:	ff 92       	push	r15
    1468:	0f 93       	push	r16
    146a:	1f 93       	push	r17
    146c:	cf 93       	push	r28
    146e:	df 93       	push	r29
    1470:	cd b7       	in	r28, 0x3d	; 61
    1472:	de b7       	in	r29, 0x3e	; 62
    1474:	2a 97       	sbiw	r28, 0x0a	; 10
    1476:	cd bf       	out	0x3d, r28	; 61
    1478:	de bf       	out	0x3e, r29	; 62
    147a:	8c 01       	movw	r16, r24
	volatile int16_t i,tmp,tmpf;
	volatile uint32_t tmp_long;
	i=0;
    147c:	19 82       	std	Y+1, r1	; 0x01
    147e:	1a 82       	std	Y+2, r1	; 0x02
	//-----------------header----------------------------
	allData->frame_b->frameASCII[i++] = '3';
    1480:	dc 01       	movw	r26, r24
    1482:	52 96       	adiw	r26, 0x12	; 18
    1484:	2d 91       	ld	r18, X+
    1486:	3c 91       	ld	r19, X
    1488:	53 97       	sbiw	r26, 0x13	; 19
    148a:	89 81       	ldd	r24, Y+1	; 0x01
    148c:	9a 81       	ldd	r25, Y+2	; 0x02
    148e:	ac 01       	movw	r20, r24
    1490:	4f 5f       	subi	r20, 0xFF	; 255
    1492:	5f 4f       	sbci	r21, 0xFF	; 255
    1494:	49 83       	std	Y+1, r20	; 0x01
    1496:	5a 83       	std	Y+2, r21	; 0x02
    1498:	f9 01       	movw	r30, r18
    149a:	e8 0f       	add	r30, r24
    149c:	f9 1f       	adc	r31, r25
    149e:	23 e3       	ldi	r18, 0x33	; 51
    14a0:	20 83       	st	Z, r18
	allData->frame_b->frameASCII[i++] = '2';
    14a2:	52 96       	adiw	r26, 0x12	; 18
    14a4:	2d 91       	ld	r18, X+
    14a6:	3c 91       	ld	r19, X
    14a8:	53 97       	sbiw	r26, 0x13	; 19
    14aa:	89 81       	ldd	r24, Y+1	; 0x01
    14ac:	9a 81       	ldd	r25, Y+2	; 0x02
    14ae:	ac 01       	movw	r20, r24
    14b0:	4f 5f       	subi	r20, 0xFF	; 255
    14b2:	5f 4f       	sbci	r21, 0xFF	; 255
    14b4:	49 83       	std	Y+1, r20	; 0x01
    14b6:	5a 83       	std	Y+2, r21	; 0x02
    14b8:	f9 01       	movw	r30, r18
    14ba:	e8 0f       	add	r30, r24
    14bc:	f9 1f       	adc	r31, r25
    14be:	22 e3       	ldi	r18, 0x32	; 50
    14c0:	20 83       	st	Z, r18
	allData->frame_b->frameASCII[i++] = '9';
    14c2:	52 96       	adiw	r26, 0x12	; 18
    14c4:	2d 91       	ld	r18, X+
    14c6:	3c 91       	ld	r19, X
    14c8:	53 97       	sbiw	r26, 0x13	; 19
    14ca:	89 81       	ldd	r24, Y+1	; 0x01
    14cc:	9a 81       	ldd	r25, Y+2	; 0x02
    14ce:	ac 01       	movw	r20, r24
    14d0:	4f 5f       	subi	r20, 0xFF	; 255
    14d2:	5f 4f       	sbci	r21, 0xFF	; 255
    14d4:	49 83       	std	Y+1, r20	; 0x01
    14d6:	5a 83       	std	Y+2, r21	; 0x02
    14d8:	f9 01       	movw	r30, r18
    14da:	e8 0f       	add	r30, r24
    14dc:	f9 1f       	adc	r31, r25
    14de:	29 e3       	ldi	r18, 0x39	; 57
    14e0:	20 83       	st	Z, r18
	allData->frame_b->frameASCII[i++] = '6';
    14e2:	52 96       	adiw	r26, 0x12	; 18
    14e4:	2d 91       	ld	r18, X+
    14e6:	3c 91       	ld	r19, X
    14e8:	53 97       	sbiw	r26, 0x13	; 19
    14ea:	89 81       	ldd	r24, Y+1	; 0x01
    14ec:	9a 81       	ldd	r25, Y+2	; 0x02
    14ee:	ac 01       	movw	r20, r24
    14f0:	4f 5f       	subi	r20, 0xFF	; 255
    14f2:	5f 4f       	sbci	r21, 0xFF	; 255
    14f4:	49 83       	std	Y+1, r20	; 0x01
    14f6:	5a 83       	std	Y+2, r21	; 0x02
    14f8:	f9 01       	movw	r30, r18
    14fa:	e8 0f       	add	r30, r24
    14fc:	f9 1f       	adc	r31, r25
    14fe:	26 e3       	ldi	r18, 0x36	; 54
    1500:	20 83       	st	Z, r18
	allData->frame_b->frameASCII[i++] = ',';
    1502:	52 96       	adiw	r26, 0x12	; 18
    1504:	2d 91       	ld	r18, X+
    1506:	3c 91       	ld	r19, X
    1508:	53 97       	sbiw	r26, 0x13	; 19
    150a:	89 81       	ldd	r24, Y+1	; 0x01
    150c:	9a 81       	ldd	r25, Y+2	; 0x02
    150e:	ac 01       	movw	r20, r24
    1510:	4f 5f       	subi	r20, 0xFF	; 255
    1512:	5f 4f       	sbci	r21, 0xFF	; 255
    1514:	49 83       	std	Y+1, r20	; 0x01
    1516:	5a 83       	std	Y+2, r21	; 0x02
    1518:	f9 01       	movw	r30, r18
    151a:	e8 0f       	add	r30, r24
    151c:	f9 1f       	adc	r31, r25
    151e:	0f 2e       	mov	r0, r31
    1520:	fc e2       	ldi	r31, 0x2C	; 44
    1522:	df 2e       	mov	r13, r31
    1524:	f0 2d       	mov	r31, r0
    1526:	d0 82       	st	Z, r13
	//----------------packet count-----------------------
	tmp = allData->RTC->frameTeleCount;
    1528:	56 96       	adiw	r26, 0x16	; 22
    152a:	ed 91       	ld	r30, X+
    152c:	fc 91       	ld	r31, X
    152e:	57 97       	sbiw	r26, 0x17	; 23
    1530:	84 81       	ldd	r24, Z+4	; 0x04
    1532:	95 81       	ldd	r25, Z+5	; 0x05
    1534:	8b 83       	std	Y+3, r24	; 0x03
    1536:	9c 83       	std	Y+4, r25	; 0x04
	allData->frame_b->frameASCII[i++] = (tmp/10000)%10 + 48;
    1538:	52 96       	adiw	r26, 0x12	; 18
    153a:	4d 91       	ld	r20, X+
    153c:	5c 91       	ld	r21, X
    153e:	53 97       	sbiw	r26, 0x13	; 19
    1540:	29 81       	ldd	r18, Y+1	; 0x01
    1542:	3a 81       	ldd	r19, Y+2	; 0x02
    1544:	c9 01       	movw	r24, r18
    1546:	01 96       	adiw	r24, 0x01	; 1
    1548:	89 83       	std	Y+1, r24	; 0x01
    154a:	9a 83       	std	Y+2, r25	; 0x02
    154c:	8b 81       	ldd	r24, Y+3	; 0x03
    154e:	9c 81       	ldd	r25, Y+4	; 0x04
    1550:	fa 01       	movw	r30, r20
    1552:	e2 0f       	add	r30, r18
    1554:	f3 1f       	adc	r31, r19
    1556:	60 e1       	ldi	r22, 0x10	; 16
    1558:	77 e2       	ldi	r23, 0x27	; 39
    155a:	0e 94 ec 1d 	call	0x3bd8	; 0x3bd8 <__divmodhi4>
    155e:	cb 01       	movw	r24, r22
    1560:	0f 2e       	mov	r0, r31
    1562:	fa e0       	ldi	r31, 0x0A	; 10
    1564:	ef 2e       	mov	r14, r31
    1566:	f1 2c       	mov	r15, r1
    1568:	f0 2d       	mov	r31, r0
    156a:	b7 01       	movw	r22, r14
    156c:	0e 94 ec 1d 	call	0x3bd8	; 0x3bd8 <__divmodhi4>
    1570:	80 5d       	subi	r24, 0xD0	; 208
    1572:	80 83       	st	Z, r24
	allData->frame_b->frameASCII[i++] = (tmp/1000)%10 + 48;
    1574:	f8 01       	movw	r30, r16
    1576:	42 89       	ldd	r20, Z+18	; 0x12
    1578:	53 89       	ldd	r21, Z+19	; 0x13
    157a:	29 81       	ldd	r18, Y+1	; 0x01
    157c:	3a 81       	ldd	r19, Y+2	; 0x02
    157e:	c9 01       	movw	r24, r18
    1580:	01 96       	adiw	r24, 0x01	; 1
    1582:	89 83       	std	Y+1, r24	; 0x01
    1584:	9a 83       	std	Y+2, r25	; 0x02
    1586:	8b 81       	ldd	r24, Y+3	; 0x03
    1588:	9c 81       	ldd	r25, Y+4	; 0x04
    158a:	fa 01       	movw	r30, r20
    158c:	e2 0f       	add	r30, r18
    158e:	f3 1f       	adc	r31, r19
    1590:	0f 2e       	mov	r0, r31
    1592:	f8 ee       	ldi	r31, 0xE8	; 232
    1594:	8f 2e       	mov	r8, r31
    1596:	f3 e0       	ldi	r31, 0x03	; 3
    1598:	9f 2e       	mov	r9, r31
    159a:	f0 2d       	mov	r31, r0
    159c:	b4 01       	movw	r22, r8
    159e:	0e 94 ec 1d 	call	0x3bd8	; 0x3bd8 <__divmodhi4>
    15a2:	cb 01       	movw	r24, r22
    15a4:	b7 01       	movw	r22, r14
    15a6:	0e 94 ec 1d 	call	0x3bd8	; 0x3bd8 <__divmodhi4>
    15aa:	80 5d       	subi	r24, 0xD0	; 208
    15ac:	80 83       	st	Z, r24
	allData->frame_b->frameASCII[i++] = (tmp/100)%10 + 48;
    15ae:	d8 01       	movw	r26, r16
    15b0:	52 96       	adiw	r26, 0x12	; 18
    15b2:	4d 91       	ld	r20, X+
    15b4:	5c 91       	ld	r21, X
    15b6:	53 97       	sbiw	r26, 0x13	; 19
    15b8:	29 81       	ldd	r18, Y+1	; 0x01
    15ba:	3a 81       	ldd	r19, Y+2	; 0x02
    15bc:	c9 01       	movw	r24, r18
    15be:	01 96       	adiw	r24, 0x01	; 1
    15c0:	89 83       	std	Y+1, r24	; 0x01
    15c2:	9a 83       	std	Y+2, r25	; 0x02
    15c4:	8b 81       	ldd	r24, Y+3	; 0x03
    15c6:	9c 81       	ldd	r25, Y+4	; 0x04
    15c8:	fa 01       	movw	r30, r20
    15ca:	e2 0f       	add	r30, r18
    15cc:	f3 1f       	adc	r31, r19
    15ce:	0f 2e       	mov	r0, r31
    15d0:	f4 e6       	ldi	r31, 0x64	; 100
    15d2:	af 2e       	mov	r10, r31
    15d4:	b1 2c       	mov	r11, r1
    15d6:	f0 2d       	mov	r31, r0
    15d8:	b5 01       	movw	r22, r10
    15da:	0e 94 ec 1d 	call	0x3bd8	; 0x3bd8 <__divmodhi4>
    15de:	cb 01       	movw	r24, r22
    15e0:	b7 01       	movw	r22, r14
    15e2:	0e 94 ec 1d 	call	0x3bd8	; 0x3bd8 <__divmodhi4>
    15e6:	80 5d       	subi	r24, 0xD0	; 208
    15e8:	80 83       	st	Z, r24
	allData->frame_b->frameASCII[i++] = (tmp/10)%10 + 48;
    15ea:	f8 01       	movw	r30, r16
    15ec:	42 89       	ldd	r20, Z+18	; 0x12
    15ee:	53 89       	ldd	r21, Z+19	; 0x13
    15f0:	29 81       	ldd	r18, Y+1	; 0x01
    15f2:	3a 81       	ldd	r19, Y+2	; 0x02
    15f4:	c9 01       	movw	r24, r18
    15f6:	01 96       	adiw	r24, 0x01	; 1
    15f8:	89 83       	std	Y+1, r24	; 0x01
    15fa:	9a 83       	std	Y+2, r25	; 0x02
    15fc:	8b 81       	ldd	r24, Y+3	; 0x03
    15fe:	9c 81       	ldd	r25, Y+4	; 0x04
    1600:	fa 01       	movw	r30, r20
    1602:	e2 0f       	add	r30, r18
    1604:	f3 1f       	adc	r31, r19
    1606:	b7 01       	movw	r22, r14
    1608:	0e 94 ec 1d 	call	0x3bd8	; 0x3bd8 <__divmodhi4>
    160c:	cb 01       	movw	r24, r22
    160e:	b7 01       	movw	r22, r14
    1610:	0e 94 ec 1d 	call	0x3bd8	; 0x3bd8 <__divmodhi4>
    1614:	80 5d       	subi	r24, 0xD0	; 208
    1616:	80 83       	st	Z, r24
	allData->frame_b->frameASCII[i++] = (tmp)%10 + 48;
    1618:	d8 01       	movw	r26, r16
    161a:	52 96       	adiw	r26, 0x12	; 18
    161c:	4d 91       	ld	r20, X+
    161e:	5c 91       	ld	r21, X
    1620:	53 97       	sbiw	r26, 0x13	; 19
    1622:	29 81       	ldd	r18, Y+1	; 0x01
    1624:	3a 81       	ldd	r19, Y+2	; 0x02
    1626:	c9 01       	movw	r24, r18
    1628:	01 96       	adiw	r24, 0x01	; 1
    162a:	89 83       	std	Y+1, r24	; 0x01
    162c:	9a 83       	std	Y+2, r25	; 0x02
    162e:	8b 81       	ldd	r24, Y+3	; 0x03
    1630:	9c 81       	ldd	r25, Y+4	; 0x04
    1632:	fa 01       	movw	r30, r20
    1634:	e2 0f       	add	r30, r18
    1636:	f3 1f       	adc	r31, r19
    1638:	b7 01       	movw	r22, r14
    163a:	0e 94 ec 1d 	call	0x3bd8	; 0x3bd8 <__divmodhi4>
    163e:	80 5d       	subi	r24, 0xD0	; 208
    1640:	80 83       	st	Z, r24
	allData->frame_b->frameASCII[i++] = ',';
    1642:	f8 01       	movw	r30, r16
    1644:	22 89       	ldd	r18, Z+18	; 0x12
    1646:	33 89       	ldd	r19, Z+19	; 0x13
    1648:	89 81       	ldd	r24, Y+1	; 0x01
    164a:	9a 81       	ldd	r25, Y+2	; 0x02
    164c:	ac 01       	movw	r20, r24
    164e:	4f 5f       	subi	r20, 0xFF	; 255
    1650:	5f 4f       	sbci	r21, 0xFF	; 255
    1652:	49 83       	std	Y+1, r20	; 0x01
    1654:	5a 83       	std	Y+2, r21	; 0x02
    1656:	f9 01       	movw	r30, r18
    1658:	e8 0f       	add	r30, r24
    165a:	f9 1f       	adc	r31, r25
    165c:	d0 82       	st	Z, r13
	//-------------Bat voltage----------------------
	tmp = (int16_t)(allData->Analog->Vbat*1000);
    165e:	d8 01       	movw	r26, r16
    1660:	18 96       	adiw	r26, 0x08	; 8
    1662:	ed 91       	ld	r30, X+
    1664:	fc 91       	ld	r31, X
    1666:	19 97       	sbiw	r26, 0x09	; 9
    1668:	20 e0       	ldi	r18, 0x00	; 0
    166a:	30 e0       	ldi	r19, 0x00	; 0
    166c:	4a e7       	ldi	r20, 0x7A	; 122
    166e:	54 e4       	ldi	r21, 0x44	; 68
    1670:	64 81       	ldd	r22, Z+4	; 0x04
    1672:	75 81       	ldd	r23, Z+5	; 0x05
    1674:	86 81       	ldd	r24, Z+6	; 0x06
    1676:	97 81       	ldd	r25, Z+7	; 0x07
    1678:	0e 94 42 1d 	call	0x3a84	; 0x3a84 <__mulsf3>
    167c:	0e 94 5b 1c 	call	0x38b6	; 0x38b6 <__fixsfsi>
    1680:	6b 83       	std	Y+3, r22	; 0x03
    1682:	7c 83       	std	Y+4, r23	; 0x04
	allData->frame_b->frameASCII[i++] = (tmp/1000)%10 + 48;
    1684:	f8 01       	movw	r30, r16
    1686:	42 89       	ldd	r20, Z+18	; 0x12
    1688:	53 89       	ldd	r21, Z+19	; 0x13
    168a:	29 81       	ldd	r18, Y+1	; 0x01
    168c:	3a 81       	ldd	r19, Y+2	; 0x02
    168e:	c9 01       	movw	r24, r18
    1690:	01 96       	adiw	r24, 0x01	; 1
    1692:	89 83       	std	Y+1, r24	; 0x01
    1694:	9a 83       	std	Y+2, r25	; 0x02
    1696:	8b 81       	ldd	r24, Y+3	; 0x03
    1698:	9c 81       	ldd	r25, Y+4	; 0x04
    169a:	fa 01       	movw	r30, r20
    169c:	e2 0f       	add	r30, r18
    169e:	f3 1f       	adc	r31, r19
    16a0:	b4 01       	movw	r22, r8
    16a2:	0e 94 ec 1d 	call	0x3bd8	; 0x3bd8 <__divmodhi4>
    16a6:	cb 01       	movw	r24, r22
    16a8:	b7 01       	movw	r22, r14
    16aa:	0e 94 ec 1d 	call	0x3bd8	; 0x3bd8 <__divmodhi4>
    16ae:	80 5d       	subi	r24, 0xD0	; 208
    16b0:	80 83       	st	Z, r24
	allData->frame_b->frameASCII[i++] = '.';
    16b2:	d8 01       	movw	r26, r16
    16b4:	52 96       	adiw	r26, 0x12	; 18
    16b6:	2d 91       	ld	r18, X+
    16b8:	3c 91       	ld	r19, X
    16ba:	53 97       	sbiw	r26, 0x13	; 19
    16bc:	89 81       	ldd	r24, Y+1	; 0x01
    16be:	9a 81       	ldd	r25, Y+2	; 0x02
    16c0:	ac 01       	movw	r20, r24
    16c2:	4f 5f       	subi	r20, 0xFF	; 255
    16c4:	5f 4f       	sbci	r21, 0xFF	; 255
    16c6:	49 83       	std	Y+1, r20	; 0x01
    16c8:	5a 83       	std	Y+2, r21	; 0x02
    16ca:	f9 01       	movw	r30, r18
    16cc:	e8 0f       	add	r30, r24
    16ce:	f9 1f       	adc	r31, r25
    16d0:	2e e2       	ldi	r18, 0x2E	; 46
    16d2:	20 83       	st	Z, r18
	allData->frame_b->frameASCII[i++] = (tmp/100)%10 + 48;
    16d4:	52 96       	adiw	r26, 0x12	; 18
    16d6:	4d 91       	ld	r20, X+
    16d8:	5c 91       	ld	r21, X
    16da:	53 97       	sbiw	r26, 0x13	; 19
    16dc:	29 81       	ldd	r18, Y+1	; 0x01
    16de:	3a 81       	ldd	r19, Y+2	; 0x02
    16e0:	c9 01       	movw	r24, r18
    16e2:	01 96       	adiw	r24, 0x01	; 1
    16e4:	89 83       	std	Y+1, r24	; 0x01
    16e6:	9a 83       	std	Y+2, r25	; 0x02
    16e8:	8b 81       	ldd	r24, Y+3	; 0x03
    16ea:	9c 81       	ldd	r25, Y+4	; 0x04
    16ec:	fa 01       	movw	r30, r20
    16ee:	e2 0f       	add	r30, r18
    16f0:	f3 1f       	adc	r31, r19
    16f2:	b5 01       	movw	r22, r10
    16f4:	0e 94 ec 1d 	call	0x3bd8	; 0x3bd8 <__divmodhi4>
    16f8:	cb 01       	movw	r24, r22
    16fa:	b7 01       	movw	r22, r14
    16fc:	0e 94 ec 1d 	call	0x3bd8	; 0x3bd8 <__divmodhi4>
    1700:	80 5d       	subi	r24, 0xD0	; 208
    1702:	80 83       	st	Z, r24
	allData->frame_b->frameASCII[i++] = (tmp/10)%10 + 48;
    1704:	f8 01       	movw	r30, r16
    1706:	42 89       	ldd	r20, Z+18	; 0x12
    1708:	53 89       	ldd	r21, Z+19	; 0x13
    170a:	29 81       	ldd	r18, Y+1	; 0x01
    170c:	3a 81       	ldd	r19, Y+2	; 0x02
    170e:	c9 01       	movw	r24, r18
    1710:	01 96       	adiw	r24, 0x01	; 1
    1712:	89 83       	std	Y+1, r24	; 0x01
    1714:	9a 83       	std	Y+2, r25	; 0x02
    1716:	8b 81       	ldd	r24, Y+3	; 0x03
    1718:	9c 81       	ldd	r25, Y+4	; 0x04
    171a:	fa 01       	movw	r30, r20
    171c:	e2 0f       	add	r30, r18
    171e:	f3 1f       	adc	r31, r19
    1720:	b7 01       	movw	r22, r14
    1722:	0e 94 ec 1d 	call	0x3bd8	; 0x3bd8 <__divmodhi4>
    1726:	cb 01       	movw	r24, r22
    1728:	b7 01       	movw	r22, r14
    172a:	0e 94 ec 1d 	call	0x3bd8	; 0x3bd8 <__divmodhi4>
    172e:	80 5d       	subi	r24, 0xD0	; 208
    1730:	80 83       	st	Z, r24
	allData->frame_b->frameASCII[i++] = (tmp)%10 + 48;
    1732:	d8 01       	movw	r26, r16
    1734:	52 96       	adiw	r26, 0x12	; 18
    1736:	4d 91       	ld	r20, X+
    1738:	5c 91       	ld	r21, X
    173a:	53 97       	sbiw	r26, 0x13	; 19
    173c:	29 81       	ldd	r18, Y+1	; 0x01
    173e:	3a 81       	ldd	r19, Y+2	; 0x02
    1740:	c9 01       	movw	r24, r18
    1742:	01 96       	adiw	r24, 0x01	; 1
    1744:	89 83       	std	Y+1, r24	; 0x01
    1746:	9a 83       	std	Y+2, r25	; 0x02
    1748:	8b 81       	ldd	r24, Y+3	; 0x03
    174a:	9c 81       	ldd	r25, Y+4	; 0x04
    174c:	fa 01       	movw	r30, r20
    174e:	e2 0f       	add	r30, r18
    1750:	f3 1f       	adc	r31, r19
    1752:	b7 01       	movw	r22, r14
    1754:	0e 94 ec 1d 	call	0x3bd8	; 0x3bd8 <__divmodhi4>
    1758:	80 5d       	subi	r24, 0xD0	; 208
    175a:	80 83       	st	Z, r24
	allData->frame_b->frameASCII[i++] = ',';
    175c:	f8 01       	movw	r30, r16
    175e:	22 89       	ldd	r18, Z+18	; 0x12
    1760:	33 89       	ldd	r19, Z+19	; 0x13
    1762:	89 81       	ldd	r24, Y+1	; 0x01
    1764:	9a 81       	ldd	r25, Y+2	; 0x02
    1766:	ac 01       	movw	r20, r24
    1768:	4f 5f       	subi	r20, 0xFF	; 255
    176a:	5f 4f       	sbci	r21, 0xFF	; 255
    176c:	49 83       	std	Y+1, r20	; 0x01
    176e:	5a 83       	std	Y+2, r21	; 0x02
    1770:	f9 01       	movw	r30, r18
    1772:	e8 0f       	add	r30, r24
    1774:	f9 1f       	adc	r31, r25
    1776:	d0 82       	st	Z, r13
	//------------Flight state------------------------
	tmp = allData->stan->flightState;
    1778:	d8 01       	movw	r26, r16
    177a:	1a 96       	adiw	r26, 0x0a	; 10
    177c:	ed 91       	ld	r30, X+
    177e:	fc 91       	ld	r31, X
    1780:	1b 97       	sbiw	r26, 0x0b	; 11
    1782:	87 81       	ldd	r24, Z+7	; 0x07
    1784:	90 e0       	ldi	r25, 0x00	; 0
    1786:	8b 83       	std	Y+3, r24	; 0x03
    1788:	9c 83       	std	Y+4, r25	; 0x04
	allData->frame_b->frameASCII[i++] =  tmp+ 48;
    178a:	52 96       	adiw	r26, 0x12	; 18
    178c:	4d 91       	ld	r20, X+
    178e:	5c 91       	ld	r21, X
    1790:	53 97       	sbiw	r26, 0x13	; 19
    1792:	89 81       	ldd	r24, Y+1	; 0x01
    1794:	9a 81       	ldd	r25, Y+2	; 0x02
    1796:	9c 01       	movw	r18, r24
    1798:	2f 5f       	subi	r18, 0xFF	; 255
    179a:	3f 4f       	sbci	r19, 0xFF	; 255
    179c:	29 83       	std	Y+1, r18	; 0x01
    179e:	3a 83       	std	Y+2, r19	; 0x02
    17a0:	2b 81       	ldd	r18, Y+3	; 0x03
    17a2:	3c 81       	ldd	r19, Y+4	; 0x04
    17a4:	fa 01       	movw	r30, r20
    17a6:	e8 0f       	add	r30, r24
    17a8:	f9 1f       	adc	r31, r25
    17aa:	20 5d       	subi	r18, 0xD0	; 208
    17ac:	20 83       	st	Z, r18
	allData->frame_b->frameASCII[i++] =  ',';
    17ae:	52 96       	adiw	r26, 0x12	; 18
    17b0:	2d 91       	ld	r18, X+
    17b2:	3c 91       	ld	r19, X
    17b4:	53 97       	sbiw	r26, 0x13	; 19
    17b6:	89 81       	ldd	r24, Y+1	; 0x01
    17b8:	9a 81       	ldd	r25, Y+2	; 0x02
    17ba:	ac 01       	movw	r20, r24
    17bc:	4f 5f       	subi	r20, 0xFF	; 255
    17be:	5f 4f       	sbci	r21, 0xFF	; 255
    17c0:	49 83       	std	Y+1, r20	; 0x01
    17c2:	5a 83       	std	Y+2, r21	; 0x02
    17c4:	f9 01       	movw	r30, r18
    17c6:	e8 0f       	add	r30, r24
    17c8:	f9 1f       	adc	r31, r25
    17ca:	d0 82       	st	Z, r13
	//------------FSW state-------------------------
	allData->frame_b->frameASCII[i++] = 'S';
    17cc:	52 96       	adiw	r26, 0x12	; 18
    17ce:	2d 91       	ld	r18, X+
    17d0:	3c 91       	ld	r19, X
    17d2:	53 97       	sbiw	r26, 0x13	; 19
    17d4:	89 81       	ldd	r24, Y+1	; 0x01
    17d6:	9a 81       	ldd	r25, Y+2	; 0x02
    17d8:	ac 01       	movw	r20, r24
    17da:	4f 5f       	subi	r20, 0xFF	; 255
    17dc:	5f 4f       	sbci	r21, 0xFF	; 255
    17de:	49 83       	std	Y+1, r20	; 0x01
    17e0:	5a 83       	std	Y+2, r21	; 0x02
    17e2:	f9 01       	movw	r30, r18
    17e4:	e8 0f       	add	r30, r24
    17e6:	f9 1f       	adc	r31, r25
    17e8:	23 e5       	ldi	r18, 0x53	; 83
    17ea:	20 83       	st	Z, r18
	allData->frame_b->frameASCII[i++] = allData->stan->armed_trigger+48;
    17ec:	52 96       	adiw	r26, 0x12	; 18
    17ee:	2d 91       	ld	r18, X+
    17f0:	3c 91       	ld	r19, X
    17f2:	53 97       	sbiw	r26, 0x13	; 19
    17f4:	89 81       	ldd	r24, Y+1	; 0x01
    17f6:	9a 81       	ldd	r25, Y+2	; 0x02
    17f8:	ac 01       	movw	r20, r24
    17fa:	4f 5f       	subi	r20, 0xFF	; 255
    17fc:	5f 4f       	sbci	r21, 0xFF	; 255
    17fe:	49 83       	std	Y+1, r20	; 0x01
    1800:	5a 83       	std	Y+2, r21	; 0x02
    1802:	d9 01       	movw	r26, r18
    1804:	a8 0f       	add	r26, r24
    1806:	b9 1f       	adc	r27, r25
    1808:	f8 01       	movw	r30, r16
    180a:	82 85       	ldd	r24, Z+10	; 0x0a
    180c:	93 85       	ldd	r25, Z+11	; 0x0b
    180e:	fc 01       	movw	r30, r24
    1810:	26 81       	ldd	r18, Z+6	; 0x06
    1812:	20 5d       	subi	r18, 0xD0	; 208
    1814:	2c 93       	st	X, r18
	allData->frame_b->frameASCII[i++] = allData->stan->telemetry_trigger+48;
    1816:	d8 01       	movw	r26, r16
    1818:	52 96       	adiw	r26, 0x12	; 18
    181a:	2d 91       	ld	r18, X+
    181c:	3c 91       	ld	r19, X
    181e:	53 97       	sbiw	r26, 0x13	; 19
    1820:	89 81       	ldd	r24, Y+1	; 0x01
    1822:	9a 81       	ldd	r25, Y+2	; 0x02
    1824:	ac 01       	movw	r20, r24
    1826:	4f 5f       	subi	r20, 0xFF	; 255
    1828:	5f 4f       	sbci	r21, 0xFF	; 255
    182a:	49 83       	std	Y+1, r20	; 0x01
    182c:	5a 83       	std	Y+2, r21	; 0x02
    182e:	d9 01       	movw	r26, r18
    1830:	a8 0f       	add	r26, r24
    1832:	b9 1f       	adc	r27, r25
    1834:	f8 01       	movw	r30, r16
    1836:	82 85       	ldd	r24, Z+10	; 0x0a
    1838:	93 85       	ldd	r25, Z+11	; 0x0b
    183a:	fc 01       	movw	r30, r24
    183c:	24 81       	ldd	r18, Z+4	; 0x04
    183e:	20 5d       	subi	r18, 0xD0	; 208
    1840:	2c 93       	st	X, r18
	allData->frame_b->frameASCII[i++] = allData->stan->flash_trigger+48;
    1842:	d8 01       	movw	r26, r16
    1844:	52 96       	adiw	r26, 0x12	; 18
    1846:	2d 91       	ld	r18, X+
    1848:	3c 91       	ld	r19, X
    184a:	53 97       	sbiw	r26, 0x13	; 19
    184c:	89 81       	ldd	r24, Y+1	; 0x01
    184e:	9a 81       	ldd	r25, Y+2	; 0x02
    1850:	ac 01       	movw	r20, r24
    1852:	4f 5f       	subi	r20, 0xFF	; 255
    1854:	5f 4f       	sbci	r21, 0xFF	; 255
    1856:	49 83       	std	Y+1, r20	; 0x01
    1858:	5a 83       	std	Y+2, r21	; 0x02
    185a:	d9 01       	movw	r26, r18
    185c:	a8 0f       	add	r26, r24
    185e:	b9 1f       	adc	r27, r25
    1860:	f8 01       	movw	r30, r16
    1862:	82 85       	ldd	r24, Z+10	; 0x0a
    1864:	93 85       	ldd	r25, Z+11	; 0x0b
    1866:	fc 01       	movw	r30, r24
    1868:	25 81       	ldd	r18, Z+5	; 0x05
    186a:	20 5d       	subi	r18, 0xD0	; 208
    186c:	2c 93       	st	X, r18
	allData->frame_b->frameASCII[i++] = allData->stan->callibration+48;
    186e:	d8 01       	movw	r26, r16
    1870:	52 96       	adiw	r26, 0x12	; 18
    1872:	2d 91       	ld	r18, X+
    1874:	3c 91       	ld	r19, X
    1876:	53 97       	sbiw	r26, 0x13	; 19
    1878:	89 81       	ldd	r24, Y+1	; 0x01
    187a:	9a 81       	ldd	r25, Y+2	; 0x02
    187c:	ac 01       	movw	r20, r24
    187e:	4f 5f       	subi	r20, 0xFF	; 255
    1880:	5f 4f       	sbci	r21, 0xFF	; 255
    1882:	49 83       	std	Y+1, r20	; 0x01
    1884:	5a 83       	std	Y+2, r21	; 0x02
    1886:	d9 01       	movw	r26, r18
    1888:	a8 0f       	add	r26, r24
    188a:	b9 1f       	adc	r27, r25
    188c:	f8 01       	movw	r30, r16
    188e:	82 85       	ldd	r24, Z+10	; 0x0a
    1890:	93 85       	ldd	r25, Z+11	; 0x0b
    1892:	fc 01       	movw	r30, r24
    1894:	23 81       	ldd	r18, Z+3	; 0x03
    1896:	20 5d       	subi	r18, 0xD0	; 208
    1898:	2c 93       	st	X, r18
	allData->frame_b->frameASCII[i++] = ',';
    189a:	d8 01       	movw	r26, r16
    189c:	52 96       	adiw	r26, 0x12	; 18
    189e:	2d 91       	ld	r18, X+
    18a0:	3c 91       	ld	r19, X
    18a2:	53 97       	sbiw	r26, 0x13	; 19
    18a4:	89 81       	ldd	r24, Y+1	; 0x01
    18a6:	9a 81       	ldd	r25, Y+2	; 0x02
    18a8:	ac 01       	movw	r20, r24
    18aa:	4f 5f       	subi	r20, 0xFF	; 255
    18ac:	5f 4f       	sbci	r21, 0xFF	; 255
    18ae:	49 83       	std	Y+1, r20	; 0x01
    18b0:	5a 83       	std	Y+2, r21	; 0x02
    18b2:	f9 01       	movw	r30, r18
    18b4:	e8 0f       	add	r30, r24
    18b6:	f9 1f       	adc	r31, r25
    18b8:	d0 82       	st	Z, r13
	
	//===============Pressure & altitude===================
	//--------------LPS25H Altitude----------------------------
	tmp = allData->SensorsData->altitude;
    18ba:	1e 96       	adiw	r26, 0x0e	; 14
    18bc:	ed 91       	ld	r30, X+
    18be:	fc 91       	ld	r31, X
    18c0:	1f 97       	sbiw	r26, 0x0f	; 15
    18c2:	c4 88       	ldd	r12, Z+20	; 0x14
    18c4:	d5 88       	ldd	r13, Z+21	; 0x15
    18c6:	e6 88       	ldd	r14, Z+22	; 0x16
    18c8:	f7 88       	ldd	r15, Z+23	; 0x17
    18ca:	c7 01       	movw	r24, r14
    18cc:	b6 01       	movw	r22, r12
    18ce:	0e 94 5b 1c 	call	0x38b6	; 0x38b6 <__fixsfsi>
    18d2:	6b 83       	std	Y+3, r22	; 0x03
    18d4:	7c 83       	std	Y+4, r23	; 0x04
	tmpf = (allData->SensorsData->altitude - truncf(allData->SensorsData->altitude))*100;
    18d6:	c7 01       	movw	r24, r14
    18d8:	b6 01       	movw	r22, r12
    18da:	0e 94 a5 1d 	call	0x3b4a	; 0x3b4a <trunc>
    18de:	9b 01       	movw	r18, r22
    18e0:	ac 01       	movw	r20, r24
    18e2:	c7 01       	movw	r24, r14
    18e4:	b6 01       	movw	r22, r12
    18e6:	0e 94 8e 1b 	call	0x371c	; 0x371c <__subsf3>
    18ea:	20 e0       	ldi	r18, 0x00	; 0
    18ec:	30 e0       	ldi	r19, 0x00	; 0
    18ee:	48 ec       	ldi	r20, 0xC8	; 200
    18f0:	52 e4       	ldi	r21, 0x42	; 66
    18f2:	0e 94 42 1d 	call	0x3a84	; 0x3a84 <__mulsf3>
    18f6:	0e 94 5b 1c 	call	0x38b6	; 0x38b6 <__fixsfsi>
    18fa:	6d 83       	std	Y+5, r22	; 0x05
    18fc:	7e 83       	std	Y+6, r23	; 0x06
	if((tmp < 0) || (tmpf <0)){
    18fe:	8b 81       	ldd	r24, Y+3	; 0x03
    1900:	9c 81       	ldd	r25, Y+4	; 0x04
    1902:	99 23       	and	r25, r25
    1904:	24 f0       	brlt	.+8      	; 0x190e <prepareFrame+0x4c2>
    1906:	8d 81       	ldd	r24, Y+5	; 0x05
    1908:	9e 81       	ldd	r25, Y+6	; 0x06
    190a:	99 23       	and	r25, r25
    190c:	f4 f4       	brge	.+60     	; 0x194a <prepareFrame+0x4fe>
		tmp = -tmp;
    190e:	8b 81       	ldd	r24, Y+3	; 0x03
    1910:	9c 81       	ldd	r25, Y+4	; 0x04
    1912:	91 95       	neg	r25
    1914:	81 95       	neg	r24
    1916:	91 09       	sbc	r25, r1
    1918:	8b 83       	std	Y+3, r24	; 0x03
    191a:	9c 83       	std	Y+4, r25	; 0x04
		tmpf = -tmpf;
    191c:	8d 81       	ldd	r24, Y+5	; 0x05
    191e:	9e 81       	ldd	r25, Y+6	; 0x06
    1920:	91 95       	neg	r25
    1922:	81 95       	neg	r24
    1924:	91 09       	sbc	r25, r1
    1926:	8d 83       	std	Y+5, r24	; 0x05
    1928:	9e 83       	std	Y+6, r25	; 0x06
		allData->frame_b->frameASCII[i++] = '-';
    192a:	f8 01       	movw	r30, r16
    192c:	22 89       	ldd	r18, Z+18	; 0x12
    192e:	33 89       	ldd	r19, Z+19	; 0x13
    1930:	89 81       	ldd	r24, Y+1	; 0x01
    1932:	9a 81       	ldd	r25, Y+2	; 0x02
    1934:	ac 01       	movw	r20, r24
    1936:	4f 5f       	subi	r20, 0xFF	; 255
    1938:	5f 4f       	sbci	r21, 0xFF	; 255
    193a:	49 83       	std	Y+1, r20	; 0x01
    193c:	5a 83       	std	Y+2, r21	; 0x02
    193e:	f9 01       	movw	r30, r18
    1940:	e8 0f       	add	r30, r24
    1942:	f9 1f       	adc	r31, r25
    1944:	2d e2       	ldi	r18, 0x2D	; 45
    1946:	20 83       	st	Z, r18
    1948:	11 c0       	rjmp	.+34     	; 0x196c <prepareFrame+0x520>
	}
	else allData->frame_b->frameASCII[i++] = '+';
    194a:	d8 01       	movw	r26, r16
    194c:	52 96       	adiw	r26, 0x12	; 18
    194e:	2d 91       	ld	r18, X+
    1950:	3c 91       	ld	r19, X
    1952:	53 97       	sbiw	r26, 0x13	; 19
    1954:	89 81       	ldd	r24, Y+1	; 0x01
    1956:	9a 81       	ldd	r25, Y+2	; 0x02
    1958:	ac 01       	movw	r20, r24
    195a:	4f 5f       	subi	r20, 0xFF	; 255
    195c:	5f 4f       	sbci	r21, 0xFF	; 255
    195e:	49 83       	std	Y+1, r20	; 0x01
    1960:	5a 83       	std	Y+2, r21	; 0x02
    1962:	f9 01       	movw	r30, r18
    1964:	e8 0f       	add	r30, r24
    1966:	f9 1f       	adc	r31, r25
    1968:	2b e2       	ldi	r18, 0x2B	; 43
    196a:	20 83       	st	Z, r18
	allData->frame_b->frameASCII[i++] = (tmp/10000)%10 + 48;
    196c:	d8 01       	movw	r26, r16
    196e:	52 96       	adiw	r26, 0x12	; 18
    1970:	ed 91       	ld	r30, X+
    1972:	fc 91       	ld	r31, X
    1974:	53 97       	sbiw	r26, 0x13	; 19
    1976:	29 81       	ldd	r18, Y+1	; 0x01
    1978:	3a 81       	ldd	r19, Y+2	; 0x02
    197a:	c9 01       	movw	r24, r18
    197c:	01 96       	adiw	r24, 0x01	; 1
    197e:	89 83       	std	Y+1, r24	; 0x01
    1980:	9a 83       	std	Y+2, r25	; 0x02
    1982:	8b 81       	ldd	r24, Y+3	; 0x03
    1984:	9c 81       	ldd	r25, Y+4	; 0x04
    1986:	e2 0f       	add	r30, r18
    1988:	f3 1f       	adc	r31, r19
    198a:	60 e1       	ldi	r22, 0x10	; 16
    198c:	77 e2       	ldi	r23, 0x27	; 39
    198e:	0e 94 ec 1d 	call	0x3bd8	; 0x3bd8 <__divmodhi4>
    1992:	cb 01       	movw	r24, r22
    1994:	2a e0       	ldi	r18, 0x0A	; 10
    1996:	30 e0       	ldi	r19, 0x00	; 0
    1998:	b9 01       	movw	r22, r18
    199a:	0e 94 ec 1d 	call	0x3bd8	; 0x3bd8 <__divmodhi4>
    199e:	80 5d       	subi	r24, 0xD0	; 208
    19a0:	80 83       	st	Z, r24
	allData->frame_b->frameASCII[i++] = (tmp/1000)%10 + 48;
    19a2:	d8 01       	movw	r26, r16
    19a4:	52 96       	adiw	r26, 0x12	; 18
    19a6:	ed 91       	ld	r30, X+
    19a8:	fc 91       	ld	r31, X
    19aa:	53 97       	sbiw	r26, 0x13	; 19
    19ac:	49 81       	ldd	r20, Y+1	; 0x01
    19ae:	5a 81       	ldd	r21, Y+2	; 0x02
    19b0:	ca 01       	movw	r24, r20
    19b2:	01 96       	adiw	r24, 0x01	; 1
    19b4:	89 83       	std	Y+1, r24	; 0x01
    19b6:	9a 83       	std	Y+2, r25	; 0x02
    19b8:	8b 81       	ldd	r24, Y+3	; 0x03
    19ba:	9c 81       	ldd	r25, Y+4	; 0x04
    19bc:	e4 0f       	add	r30, r20
    19be:	f5 1f       	adc	r31, r21
    19c0:	68 ee       	ldi	r22, 0xE8	; 232
    19c2:	73 e0       	ldi	r23, 0x03	; 3
    19c4:	0e 94 ec 1d 	call	0x3bd8	; 0x3bd8 <__divmodhi4>
    19c8:	cb 01       	movw	r24, r22
    19ca:	b9 01       	movw	r22, r18
    19cc:	0e 94 ec 1d 	call	0x3bd8	; 0x3bd8 <__divmodhi4>
    19d0:	80 5d       	subi	r24, 0xD0	; 208
    19d2:	80 83       	st	Z, r24
	allData->frame_b->frameASCII[i++] = (tmp/100)%10 + 48;
    19d4:	d8 01       	movw	r26, r16
    19d6:	52 96       	adiw	r26, 0x12	; 18
    19d8:	ed 91       	ld	r30, X+
    19da:	fc 91       	ld	r31, X
    19dc:	53 97       	sbiw	r26, 0x13	; 19
    19de:	49 81       	ldd	r20, Y+1	; 0x01
    19e0:	5a 81       	ldd	r21, Y+2	; 0x02
    19e2:	ca 01       	movw	r24, r20
    19e4:	01 96       	adiw	r24, 0x01	; 1
    19e6:	89 83       	std	Y+1, r24	; 0x01
    19e8:	9a 83       	std	Y+2, r25	; 0x02
    19ea:	8b 81       	ldd	r24, Y+3	; 0x03
    19ec:	9c 81       	ldd	r25, Y+4	; 0x04
    19ee:	e4 0f       	add	r30, r20
    19f0:	f5 1f       	adc	r31, r21
    19f2:	64 e6       	ldi	r22, 0x64	; 100
    19f4:	70 e0       	ldi	r23, 0x00	; 0
    19f6:	0e 94 ec 1d 	call	0x3bd8	; 0x3bd8 <__divmodhi4>
    19fa:	cb 01       	movw	r24, r22
    19fc:	b9 01       	movw	r22, r18
    19fe:	0e 94 ec 1d 	call	0x3bd8	; 0x3bd8 <__divmodhi4>
    1a02:	80 5d       	subi	r24, 0xD0	; 208
    1a04:	80 83       	st	Z, r24
	allData->frame_b->frameASCII[i++] = (tmp/10)%10 + 48;
    1a06:	d8 01       	movw	r26, r16
    1a08:	52 96       	adiw	r26, 0x12	; 18
    1a0a:	ed 91       	ld	r30, X+
    1a0c:	fc 91       	ld	r31, X
    1a0e:	53 97       	sbiw	r26, 0x13	; 19
    1a10:	49 81       	ldd	r20, Y+1	; 0x01
    1a12:	5a 81       	ldd	r21, Y+2	; 0x02
    1a14:	ca 01       	movw	r24, r20
    1a16:	01 96       	adiw	r24, 0x01	; 1
    1a18:	89 83       	std	Y+1, r24	; 0x01
    1a1a:	9a 83       	std	Y+2, r25	; 0x02
    1a1c:	8b 81       	ldd	r24, Y+3	; 0x03
    1a1e:	9c 81       	ldd	r25, Y+4	; 0x04
    1a20:	e4 0f       	add	r30, r20
    1a22:	f5 1f       	adc	r31, r21
    1a24:	b9 01       	movw	r22, r18
    1a26:	0e 94 ec 1d 	call	0x3bd8	; 0x3bd8 <__divmodhi4>
    1a2a:	cb 01       	movw	r24, r22
    1a2c:	b9 01       	movw	r22, r18
    1a2e:	0e 94 ec 1d 	call	0x3bd8	; 0x3bd8 <__divmodhi4>
    1a32:	80 5d       	subi	r24, 0xD0	; 208
    1a34:	80 83       	st	Z, r24
	allData->frame_b->frameASCII[i++] = (tmp)%10 + 48;
    1a36:	d8 01       	movw	r26, r16
    1a38:	52 96       	adiw	r26, 0x12	; 18
    1a3a:	ed 91       	ld	r30, X+
    1a3c:	fc 91       	ld	r31, X
    1a3e:	53 97       	sbiw	r26, 0x13	; 19
    1a40:	49 81       	ldd	r20, Y+1	; 0x01
    1a42:	5a 81       	ldd	r21, Y+2	; 0x02
    1a44:	ca 01       	movw	r24, r20
    1a46:	01 96       	adiw	r24, 0x01	; 1
    1a48:	89 83       	std	Y+1, r24	; 0x01
    1a4a:	9a 83       	std	Y+2, r25	; 0x02
    1a4c:	8b 81       	ldd	r24, Y+3	; 0x03
    1a4e:	9c 81       	ldd	r25, Y+4	; 0x04
    1a50:	e4 0f       	add	r30, r20
    1a52:	f5 1f       	adc	r31, r21
    1a54:	b9 01       	movw	r22, r18
    1a56:	0e 94 ec 1d 	call	0x3bd8	; 0x3bd8 <__divmodhi4>
    1a5a:	80 5d       	subi	r24, 0xD0	; 208
    1a5c:	80 83       	st	Z, r24
	allData->frame_b->frameASCII[i++] = '.';
    1a5e:	f8 01       	movw	r30, r16
    1a60:	42 89       	ldd	r20, Z+18	; 0x12
    1a62:	53 89       	ldd	r21, Z+19	; 0x13
    1a64:	89 81       	ldd	r24, Y+1	; 0x01
    1a66:	9a 81       	ldd	r25, Y+2	; 0x02
    1a68:	bc 01       	movw	r22, r24
    1a6a:	6f 5f       	subi	r22, 0xFF	; 255
    1a6c:	7f 4f       	sbci	r23, 0xFF	; 255
    1a6e:	69 83       	std	Y+1, r22	; 0x01
    1a70:	7a 83       	std	Y+2, r23	; 0x02
    1a72:	fa 01       	movw	r30, r20
    1a74:	e8 0f       	add	r30, r24
    1a76:	f9 1f       	adc	r31, r25
    1a78:	4e e2       	ldi	r20, 0x2E	; 46
    1a7a:	40 83       	st	Z, r20
	allData->frame_b->frameASCII[i++] = (tmpf/10)%10 + 48;
    1a7c:	d8 01       	movw	r26, r16
    1a7e:	52 96       	adiw	r26, 0x12	; 18
    1a80:	ed 91       	ld	r30, X+
    1a82:	fc 91       	ld	r31, X
    1a84:	53 97       	sbiw	r26, 0x13	; 19
    1a86:	49 81       	ldd	r20, Y+1	; 0x01
    1a88:	5a 81       	ldd	r21, Y+2	; 0x02
    1a8a:	ca 01       	movw	r24, r20
    1a8c:	01 96       	adiw	r24, 0x01	; 1
    1a8e:	89 83       	std	Y+1, r24	; 0x01
    1a90:	9a 83       	std	Y+2, r25	; 0x02
    1a92:	8d 81       	ldd	r24, Y+5	; 0x05
    1a94:	9e 81       	ldd	r25, Y+6	; 0x06
    1a96:	e4 0f       	add	r30, r20
    1a98:	f5 1f       	adc	r31, r21
    1a9a:	b9 01       	movw	r22, r18
    1a9c:	0e 94 ec 1d 	call	0x3bd8	; 0x3bd8 <__divmodhi4>
    1aa0:	cb 01       	movw	r24, r22
    1aa2:	b9 01       	movw	r22, r18
    1aa4:	0e 94 ec 1d 	call	0x3bd8	; 0x3bd8 <__divmodhi4>
    1aa8:	80 5d       	subi	r24, 0xD0	; 208
    1aaa:	80 83       	st	Z, r24
	allData->frame_b->frameASCII[i++] = (tmpf/1)%10 + 48;
    1aac:	d8 01       	movw	r26, r16
    1aae:	52 96       	adiw	r26, 0x12	; 18
    1ab0:	ed 91       	ld	r30, X+
    1ab2:	fc 91       	ld	r31, X
    1ab4:	53 97       	sbiw	r26, 0x13	; 19
    1ab6:	49 81       	ldd	r20, Y+1	; 0x01
    1ab8:	5a 81       	ldd	r21, Y+2	; 0x02
    1aba:	ca 01       	movw	r24, r20
    1abc:	01 96       	adiw	r24, 0x01	; 1
    1abe:	89 83       	std	Y+1, r24	; 0x01
    1ac0:	9a 83       	std	Y+2, r25	; 0x02
    1ac2:	8d 81       	ldd	r24, Y+5	; 0x05
    1ac4:	9e 81       	ldd	r25, Y+6	; 0x06
    1ac6:	e4 0f       	add	r30, r20
    1ac8:	f5 1f       	adc	r31, r21
    1aca:	b9 01       	movw	r22, r18
    1acc:	0e 94 ec 1d 	call	0x3bd8	; 0x3bd8 <__divmodhi4>
    1ad0:	80 5d       	subi	r24, 0xD0	; 208
    1ad2:	80 83       	st	Z, r24
	allData->frame_b->frameASCII[i++] = ',';
    1ad4:	f8 01       	movw	r30, r16
    1ad6:	22 89       	ldd	r18, Z+18	; 0x12
    1ad8:	33 89       	ldd	r19, Z+19	; 0x13
    1ada:	89 81       	ldd	r24, Y+1	; 0x01
    1adc:	9a 81       	ldd	r25, Y+2	; 0x02
    1ade:	ac 01       	movw	r20, r24
    1ae0:	4f 5f       	subi	r20, 0xFF	; 255
    1ae2:	5f 4f       	sbci	r21, 0xFF	; 255
    1ae4:	49 83       	std	Y+1, r20	; 0x01
    1ae6:	5a 83       	std	Y+2, r21	; 0x02
    1ae8:	f9 01       	movw	r30, r18
    1aea:	e8 0f       	add	r30, r24
    1aec:	f9 1f       	adc	r31, r25
    1aee:	2c e2       	ldi	r18, 0x2C	; 44
    1af0:	20 83       	st	Z, r18
	
//------------------Ascent Velocity------------------------------
	tmp = allData->SensorsData->ascentVelo*10;	
    1af2:	d8 01       	movw	r26, r16
    1af4:	1e 96       	adiw	r26, 0x0e	; 14
    1af6:	ed 91       	ld	r30, X+
    1af8:	fc 91       	ld	r31, X
    1afa:	1f 97       	sbiw	r26, 0x0f	; 15
    1afc:	20 e0       	ldi	r18, 0x00	; 0
    1afe:	30 e0       	ldi	r19, 0x00	; 0
    1b00:	40 e2       	ldi	r20, 0x20	; 32
    1b02:	51 e4       	ldi	r21, 0x41	; 65
    1b04:	60 89       	ldd	r22, Z+16	; 0x10
    1b06:	71 89       	ldd	r23, Z+17	; 0x11
    1b08:	82 89       	ldd	r24, Z+18	; 0x12
    1b0a:	93 89       	ldd	r25, Z+19	; 0x13
    1b0c:	0e 94 42 1d 	call	0x3a84	; 0x3a84 <__mulsf3>
    1b10:	0e 94 5b 1c 	call	0x38b6	; 0x38b6 <__fixsfsi>
    1b14:	6b 83       	std	Y+3, r22	; 0x03
    1b16:	7c 83       	std	Y+4, r23	; 0x04
	if(tmp < 0){
    1b18:	8b 81       	ldd	r24, Y+3	; 0x03
    1b1a:	9c 81       	ldd	r25, Y+4	; 0x04
    1b1c:	99 23       	and	r25, r25
    1b1e:	bc f4       	brge	.+46     	; 0x1b4e <prepareFrame+0x702>
		tmp = -tmp;
    1b20:	8b 81       	ldd	r24, Y+3	; 0x03
    1b22:	9c 81       	ldd	r25, Y+4	; 0x04
    1b24:	91 95       	neg	r25
    1b26:	81 95       	neg	r24
    1b28:	91 09       	sbc	r25, r1
    1b2a:	8b 83       	std	Y+3, r24	; 0x03
    1b2c:	9c 83       	std	Y+4, r25	; 0x04
		allData->frame_b->frameASCII[i++] = '-';
    1b2e:	f8 01       	movw	r30, r16
    1b30:	22 89       	ldd	r18, Z+18	; 0x12
    1b32:	33 89       	ldd	r19, Z+19	; 0x13
    1b34:	89 81       	ldd	r24, Y+1	; 0x01
    1b36:	9a 81       	ldd	r25, Y+2	; 0x02
    1b38:	ac 01       	movw	r20, r24
    1b3a:	4f 5f       	subi	r20, 0xFF	; 255
    1b3c:	5f 4f       	sbci	r21, 0xFF	; 255
    1b3e:	49 83       	std	Y+1, r20	; 0x01
    1b40:	5a 83       	std	Y+2, r21	; 0x02
    1b42:	f9 01       	movw	r30, r18
    1b44:	e8 0f       	add	r30, r24
    1b46:	f9 1f       	adc	r31, r25
    1b48:	2d e2       	ldi	r18, 0x2D	; 45
    1b4a:	20 83       	st	Z, r18
    1b4c:	11 c0       	rjmp	.+34     	; 0x1b70 <prepareFrame+0x724>
	}
	else allData->frame_b->frameASCII[i++] = '+';
    1b4e:	d8 01       	movw	r26, r16
    1b50:	52 96       	adiw	r26, 0x12	; 18
    1b52:	2d 91       	ld	r18, X+
    1b54:	3c 91       	ld	r19, X
    1b56:	53 97       	sbiw	r26, 0x13	; 19
    1b58:	89 81       	ldd	r24, Y+1	; 0x01
    1b5a:	9a 81       	ldd	r25, Y+2	; 0x02
    1b5c:	ac 01       	movw	r20, r24
    1b5e:	4f 5f       	subi	r20, 0xFF	; 255
    1b60:	5f 4f       	sbci	r21, 0xFF	; 255
    1b62:	49 83       	std	Y+1, r20	; 0x01
    1b64:	5a 83       	std	Y+2, r21	; 0x02
    1b66:	f9 01       	movw	r30, r18
    1b68:	e8 0f       	add	r30, r24
    1b6a:	f9 1f       	adc	r31, r25
    1b6c:	2b e2       	ldi	r18, 0x2B	; 43
    1b6e:	20 83       	st	Z, r18
	allData->frame_b->frameASCII[i++] = (tmp/10000)%10 + 48;
    1b70:	d8 01       	movw	r26, r16
    1b72:	52 96       	adiw	r26, 0x12	; 18
    1b74:	ed 91       	ld	r30, X+
    1b76:	fc 91       	ld	r31, X
    1b78:	53 97       	sbiw	r26, 0x13	; 19
    1b7a:	29 81       	ldd	r18, Y+1	; 0x01
    1b7c:	3a 81       	ldd	r19, Y+2	; 0x02
    1b7e:	c9 01       	movw	r24, r18
    1b80:	01 96       	adiw	r24, 0x01	; 1
    1b82:	89 83       	std	Y+1, r24	; 0x01
    1b84:	9a 83       	std	Y+2, r25	; 0x02
    1b86:	8b 81       	ldd	r24, Y+3	; 0x03
    1b88:	9c 81       	ldd	r25, Y+4	; 0x04
    1b8a:	e2 0f       	add	r30, r18
    1b8c:	f3 1f       	adc	r31, r19
    1b8e:	60 e1       	ldi	r22, 0x10	; 16
    1b90:	77 e2       	ldi	r23, 0x27	; 39
    1b92:	0e 94 ec 1d 	call	0x3bd8	; 0x3bd8 <__divmodhi4>
    1b96:	cb 01       	movw	r24, r22
    1b98:	2a e0       	ldi	r18, 0x0A	; 10
    1b9a:	30 e0       	ldi	r19, 0x00	; 0
    1b9c:	b9 01       	movw	r22, r18
    1b9e:	0e 94 ec 1d 	call	0x3bd8	; 0x3bd8 <__divmodhi4>
    1ba2:	80 5d       	subi	r24, 0xD0	; 208
    1ba4:	80 83       	st	Z, r24
	allData->frame_b->frameASCII[i++] = (tmp/1000)%10 + 48;
    1ba6:	d8 01       	movw	r26, r16
    1ba8:	52 96       	adiw	r26, 0x12	; 18
    1baa:	ed 91       	ld	r30, X+
    1bac:	fc 91       	ld	r31, X
    1bae:	53 97       	sbiw	r26, 0x13	; 19
    1bb0:	49 81       	ldd	r20, Y+1	; 0x01
    1bb2:	5a 81       	ldd	r21, Y+2	; 0x02
    1bb4:	ca 01       	movw	r24, r20
    1bb6:	01 96       	adiw	r24, 0x01	; 1
    1bb8:	89 83       	std	Y+1, r24	; 0x01
    1bba:	9a 83       	std	Y+2, r25	; 0x02
    1bbc:	8b 81       	ldd	r24, Y+3	; 0x03
    1bbe:	9c 81       	ldd	r25, Y+4	; 0x04
    1bc0:	e4 0f       	add	r30, r20
    1bc2:	f5 1f       	adc	r31, r21
    1bc4:	68 ee       	ldi	r22, 0xE8	; 232
    1bc6:	73 e0       	ldi	r23, 0x03	; 3
    1bc8:	0e 94 ec 1d 	call	0x3bd8	; 0x3bd8 <__divmodhi4>
    1bcc:	cb 01       	movw	r24, r22
    1bce:	b9 01       	movw	r22, r18
    1bd0:	0e 94 ec 1d 	call	0x3bd8	; 0x3bd8 <__divmodhi4>
    1bd4:	80 5d       	subi	r24, 0xD0	; 208
    1bd6:	80 83       	st	Z, r24
	allData->frame_b->frameASCII[i++] = (tmp/100)%10 + 48;
    1bd8:	d8 01       	movw	r26, r16
    1bda:	52 96       	adiw	r26, 0x12	; 18
    1bdc:	ed 91       	ld	r30, X+
    1bde:	fc 91       	ld	r31, X
    1be0:	53 97       	sbiw	r26, 0x13	; 19
    1be2:	49 81       	ldd	r20, Y+1	; 0x01
    1be4:	5a 81       	ldd	r21, Y+2	; 0x02
    1be6:	ca 01       	movw	r24, r20
    1be8:	01 96       	adiw	r24, 0x01	; 1
    1bea:	89 83       	std	Y+1, r24	; 0x01
    1bec:	9a 83       	std	Y+2, r25	; 0x02
    1bee:	8b 81       	ldd	r24, Y+3	; 0x03
    1bf0:	9c 81       	ldd	r25, Y+4	; 0x04
    1bf2:	e4 0f       	add	r30, r20
    1bf4:	f5 1f       	adc	r31, r21
    1bf6:	64 e6       	ldi	r22, 0x64	; 100
    1bf8:	70 e0       	ldi	r23, 0x00	; 0
    1bfa:	0e 94 ec 1d 	call	0x3bd8	; 0x3bd8 <__divmodhi4>
    1bfe:	cb 01       	movw	r24, r22
    1c00:	b9 01       	movw	r22, r18
    1c02:	0e 94 ec 1d 	call	0x3bd8	; 0x3bd8 <__divmodhi4>
    1c06:	80 5d       	subi	r24, 0xD0	; 208
    1c08:	80 83       	st	Z, r24
	allData->frame_b->frameASCII[i++] = (tmp/10)%10 + 48;
    1c0a:	d8 01       	movw	r26, r16
    1c0c:	52 96       	adiw	r26, 0x12	; 18
    1c0e:	ed 91       	ld	r30, X+
    1c10:	fc 91       	ld	r31, X
    1c12:	53 97       	sbiw	r26, 0x13	; 19
    1c14:	49 81       	ldd	r20, Y+1	; 0x01
    1c16:	5a 81       	ldd	r21, Y+2	; 0x02
    1c18:	ca 01       	movw	r24, r20
    1c1a:	01 96       	adiw	r24, 0x01	; 1
    1c1c:	89 83       	std	Y+1, r24	; 0x01
    1c1e:	9a 83       	std	Y+2, r25	; 0x02
    1c20:	8b 81       	ldd	r24, Y+3	; 0x03
    1c22:	9c 81       	ldd	r25, Y+4	; 0x04
    1c24:	e4 0f       	add	r30, r20
    1c26:	f5 1f       	adc	r31, r21
    1c28:	b9 01       	movw	r22, r18
    1c2a:	0e 94 ec 1d 	call	0x3bd8	; 0x3bd8 <__divmodhi4>
    1c2e:	cb 01       	movw	r24, r22
    1c30:	b9 01       	movw	r22, r18
    1c32:	0e 94 ec 1d 	call	0x3bd8	; 0x3bd8 <__divmodhi4>
    1c36:	80 5d       	subi	r24, 0xD0	; 208
    1c38:	80 83       	st	Z, r24
	allData->frame_b->frameASCII[i++] = '.';
    1c3a:	f8 01       	movw	r30, r16
    1c3c:	42 89       	ldd	r20, Z+18	; 0x12
    1c3e:	53 89       	ldd	r21, Z+19	; 0x13
    1c40:	89 81       	ldd	r24, Y+1	; 0x01
    1c42:	9a 81       	ldd	r25, Y+2	; 0x02
    1c44:	bc 01       	movw	r22, r24
    1c46:	6f 5f       	subi	r22, 0xFF	; 255
    1c48:	7f 4f       	sbci	r23, 0xFF	; 255
    1c4a:	69 83       	std	Y+1, r22	; 0x01
    1c4c:	7a 83       	std	Y+2, r23	; 0x02
    1c4e:	fa 01       	movw	r30, r20
    1c50:	e8 0f       	add	r30, r24
    1c52:	f9 1f       	adc	r31, r25
    1c54:	4e e2       	ldi	r20, 0x2E	; 46
    1c56:	40 83       	st	Z, r20
	allData->frame_b->frameASCII[i++] = (tmp)%10 + 48;
    1c58:	d8 01       	movw	r26, r16
    1c5a:	52 96       	adiw	r26, 0x12	; 18
    1c5c:	ed 91       	ld	r30, X+
    1c5e:	fc 91       	ld	r31, X
    1c60:	53 97       	sbiw	r26, 0x13	; 19
    1c62:	49 81       	ldd	r20, Y+1	; 0x01
    1c64:	5a 81       	ldd	r21, Y+2	; 0x02
    1c66:	ca 01       	movw	r24, r20
    1c68:	01 96       	adiw	r24, 0x01	; 1
    1c6a:	89 83       	std	Y+1, r24	; 0x01
    1c6c:	9a 83       	std	Y+2, r25	; 0x02
    1c6e:	8b 81       	ldd	r24, Y+3	; 0x03
    1c70:	9c 81       	ldd	r25, Y+4	; 0x04
    1c72:	e4 0f       	add	r30, r20
    1c74:	f5 1f       	adc	r31, r21
    1c76:	b9 01       	movw	r22, r18
    1c78:	0e 94 ec 1d 	call	0x3bd8	; 0x3bd8 <__divmodhi4>
    1c7c:	80 5d       	subi	r24, 0xD0	; 208
    1c7e:	80 83       	st	Z, r24
	allData->frame_b->frameASCII[i++] = ',';
    1c80:	f8 01       	movw	r30, r16
    1c82:	22 89       	ldd	r18, Z+18	; 0x12
    1c84:	33 89       	ldd	r19, Z+19	; 0x13
    1c86:	89 81       	ldd	r24, Y+1	; 0x01
    1c88:	9a 81       	ldd	r25, Y+2	; 0x02
    1c8a:	ac 01       	movw	r20, r24
    1c8c:	4f 5f       	subi	r20, 0xFF	; 255
    1c8e:	5f 4f       	sbci	r21, 0xFF	; 255
    1c90:	49 83       	std	Y+1, r20	; 0x01
    1c92:	5a 83       	std	Y+2, r21	; 0x02
    1c94:	f9 01       	movw	r30, r18
    1c96:	e8 0f       	add	r30, r24
    1c98:	f9 1f       	adc	r31, r25
    1c9a:	2c e2       	ldi	r18, 0x2C	; 44
    1c9c:	20 83       	st	Z, r18
	
	//===============Accel=========================
	//-------------- Accel x----------------------
	tmp = allData->SensorsData->accel_x*1000;
    1c9e:	d8 01       	movw	r26, r16
    1ca0:	1e 96       	adiw	r26, 0x0e	; 14
    1ca2:	ed 91       	ld	r30, X+
    1ca4:	fc 91       	ld	r31, X
    1ca6:	1f 97       	sbiw	r26, 0x0f	; 15
    1ca8:	20 e0       	ldi	r18, 0x00	; 0
    1caa:	30 e0       	ldi	r19, 0x00	; 0
    1cac:	4a e7       	ldi	r20, 0x7A	; 122
    1cae:	54 e4       	ldi	r21, 0x44	; 68
    1cb0:	60 81       	ld	r22, Z
    1cb2:	71 81       	ldd	r23, Z+1	; 0x01
    1cb4:	82 81       	ldd	r24, Z+2	; 0x02
    1cb6:	93 81       	ldd	r25, Z+3	; 0x03
    1cb8:	0e 94 42 1d 	call	0x3a84	; 0x3a84 <__mulsf3>
    1cbc:	0e 94 5b 1c 	call	0x38b6	; 0x38b6 <__fixsfsi>
    1cc0:	6b 83       	std	Y+3, r22	; 0x03
    1cc2:	7c 83       	std	Y+4, r23	; 0x04
	if(tmp < 0){
    1cc4:	8b 81       	ldd	r24, Y+3	; 0x03
    1cc6:	9c 81       	ldd	r25, Y+4	; 0x04
    1cc8:	99 23       	and	r25, r25
    1cca:	bc f4       	brge	.+46     	; 0x1cfa <prepareFrame+0x8ae>
		tmp = -tmp;
    1ccc:	8b 81       	ldd	r24, Y+3	; 0x03
    1cce:	9c 81       	ldd	r25, Y+4	; 0x04
    1cd0:	91 95       	neg	r25
    1cd2:	81 95       	neg	r24
    1cd4:	91 09       	sbc	r25, r1
    1cd6:	8b 83       	std	Y+3, r24	; 0x03
    1cd8:	9c 83       	std	Y+4, r25	; 0x04
		allData->frame_b->frameASCII[i++] = '-';
    1cda:	f8 01       	movw	r30, r16
    1cdc:	22 89       	ldd	r18, Z+18	; 0x12
    1cde:	33 89       	ldd	r19, Z+19	; 0x13
    1ce0:	89 81       	ldd	r24, Y+1	; 0x01
    1ce2:	9a 81       	ldd	r25, Y+2	; 0x02
    1ce4:	ac 01       	movw	r20, r24
    1ce6:	4f 5f       	subi	r20, 0xFF	; 255
    1ce8:	5f 4f       	sbci	r21, 0xFF	; 255
    1cea:	49 83       	std	Y+1, r20	; 0x01
    1cec:	5a 83       	std	Y+2, r21	; 0x02
    1cee:	f9 01       	movw	r30, r18
    1cf0:	e8 0f       	add	r30, r24
    1cf2:	f9 1f       	adc	r31, r25
    1cf4:	2d e2       	ldi	r18, 0x2D	; 45
    1cf6:	20 83       	st	Z, r18
    1cf8:	11 c0       	rjmp	.+34     	; 0x1d1c <prepareFrame+0x8d0>
	}
	else allData->frame_b->frameASCII[i++] = '+';
    1cfa:	d8 01       	movw	r26, r16
    1cfc:	52 96       	adiw	r26, 0x12	; 18
    1cfe:	2d 91       	ld	r18, X+
    1d00:	3c 91       	ld	r19, X
    1d02:	53 97       	sbiw	r26, 0x13	; 19
    1d04:	89 81       	ldd	r24, Y+1	; 0x01
    1d06:	9a 81       	ldd	r25, Y+2	; 0x02
    1d08:	ac 01       	movw	r20, r24
    1d0a:	4f 5f       	subi	r20, 0xFF	; 255
    1d0c:	5f 4f       	sbci	r21, 0xFF	; 255
    1d0e:	49 83       	std	Y+1, r20	; 0x01
    1d10:	5a 83       	std	Y+2, r21	; 0x02
    1d12:	f9 01       	movw	r30, r18
    1d14:	e8 0f       	add	r30, r24
    1d16:	f9 1f       	adc	r31, r25
    1d18:	2b e2       	ldi	r18, 0x2B	; 43
    1d1a:	20 83       	st	Z, r18
	allData->frame_b->frameASCII[i++] = (tmp/10000)%10 + 48;
    1d1c:	d8 01       	movw	r26, r16
    1d1e:	52 96       	adiw	r26, 0x12	; 18
    1d20:	ed 91       	ld	r30, X+
    1d22:	fc 91       	ld	r31, X
    1d24:	53 97       	sbiw	r26, 0x13	; 19
    1d26:	29 81       	ldd	r18, Y+1	; 0x01
    1d28:	3a 81       	ldd	r19, Y+2	; 0x02
    1d2a:	c9 01       	movw	r24, r18
    1d2c:	01 96       	adiw	r24, 0x01	; 1
    1d2e:	89 83       	std	Y+1, r24	; 0x01
    1d30:	9a 83       	std	Y+2, r25	; 0x02
    1d32:	8b 81       	ldd	r24, Y+3	; 0x03
    1d34:	9c 81       	ldd	r25, Y+4	; 0x04
    1d36:	e2 0f       	add	r30, r18
    1d38:	f3 1f       	adc	r31, r19
    1d3a:	60 e1       	ldi	r22, 0x10	; 16
    1d3c:	77 e2       	ldi	r23, 0x27	; 39
    1d3e:	0e 94 ec 1d 	call	0x3bd8	; 0x3bd8 <__divmodhi4>
    1d42:	cb 01       	movw	r24, r22
    1d44:	2a e0       	ldi	r18, 0x0A	; 10
    1d46:	30 e0       	ldi	r19, 0x00	; 0
    1d48:	b9 01       	movw	r22, r18
    1d4a:	0e 94 ec 1d 	call	0x3bd8	; 0x3bd8 <__divmodhi4>
    1d4e:	80 5d       	subi	r24, 0xD0	; 208
    1d50:	80 83       	st	Z, r24
	allData->frame_b->frameASCII[i++] = (tmp/1000)%10 + 48;
    1d52:	d8 01       	movw	r26, r16
    1d54:	52 96       	adiw	r26, 0x12	; 18
    1d56:	ed 91       	ld	r30, X+
    1d58:	fc 91       	ld	r31, X
    1d5a:	53 97       	sbiw	r26, 0x13	; 19
    1d5c:	49 81       	ldd	r20, Y+1	; 0x01
    1d5e:	5a 81       	ldd	r21, Y+2	; 0x02
    1d60:	ca 01       	movw	r24, r20
    1d62:	01 96       	adiw	r24, 0x01	; 1
    1d64:	89 83       	std	Y+1, r24	; 0x01
    1d66:	9a 83       	std	Y+2, r25	; 0x02
    1d68:	8b 81       	ldd	r24, Y+3	; 0x03
    1d6a:	9c 81       	ldd	r25, Y+4	; 0x04
    1d6c:	e4 0f       	add	r30, r20
    1d6e:	f5 1f       	adc	r31, r21
    1d70:	68 ee       	ldi	r22, 0xE8	; 232
    1d72:	73 e0       	ldi	r23, 0x03	; 3
    1d74:	0e 94 ec 1d 	call	0x3bd8	; 0x3bd8 <__divmodhi4>
    1d78:	cb 01       	movw	r24, r22
    1d7a:	b9 01       	movw	r22, r18
    1d7c:	0e 94 ec 1d 	call	0x3bd8	; 0x3bd8 <__divmodhi4>
    1d80:	80 5d       	subi	r24, 0xD0	; 208
    1d82:	80 83       	st	Z, r24
	allData->frame_b->frameASCII[i++] = '.';
    1d84:	f8 01       	movw	r30, r16
    1d86:	42 89       	ldd	r20, Z+18	; 0x12
    1d88:	53 89       	ldd	r21, Z+19	; 0x13
    1d8a:	89 81       	ldd	r24, Y+1	; 0x01
    1d8c:	9a 81       	ldd	r25, Y+2	; 0x02
    1d8e:	bc 01       	movw	r22, r24
    1d90:	6f 5f       	subi	r22, 0xFF	; 255
    1d92:	7f 4f       	sbci	r23, 0xFF	; 255
    1d94:	69 83       	std	Y+1, r22	; 0x01
    1d96:	7a 83       	std	Y+2, r23	; 0x02
    1d98:	fa 01       	movw	r30, r20
    1d9a:	e8 0f       	add	r30, r24
    1d9c:	f9 1f       	adc	r31, r25
    1d9e:	4e e2       	ldi	r20, 0x2E	; 46
    1da0:	40 83       	st	Z, r20
	allData->frame_b->frameASCII[i++] = (tmp/100)%10 + 48;
    1da2:	d8 01       	movw	r26, r16
    1da4:	52 96       	adiw	r26, 0x12	; 18
    1da6:	ed 91       	ld	r30, X+
    1da8:	fc 91       	ld	r31, X
    1daa:	53 97       	sbiw	r26, 0x13	; 19
    1dac:	49 81       	ldd	r20, Y+1	; 0x01
    1dae:	5a 81       	ldd	r21, Y+2	; 0x02
    1db0:	ca 01       	movw	r24, r20
    1db2:	01 96       	adiw	r24, 0x01	; 1
    1db4:	89 83       	std	Y+1, r24	; 0x01
    1db6:	9a 83       	std	Y+2, r25	; 0x02
    1db8:	8b 81       	ldd	r24, Y+3	; 0x03
    1dba:	9c 81       	ldd	r25, Y+4	; 0x04
    1dbc:	e4 0f       	add	r30, r20
    1dbe:	f5 1f       	adc	r31, r21
    1dc0:	64 e6       	ldi	r22, 0x64	; 100
    1dc2:	70 e0       	ldi	r23, 0x00	; 0
    1dc4:	0e 94 ec 1d 	call	0x3bd8	; 0x3bd8 <__divmodhi4>
    1dc8:	cb 01       	movw	r24, r22
    1dca:	b9 01       	movw	r22, r18
    1dcc:	0e 94 ec 1d 	call	0x3bd8	; 0x3bd8 <__divmodhi4>
    1dd0:	80 5d       	subi	r24, 0xD0	; 208
    1dd2:	80 83       	st	Z, r24
	allData->frame_b->frameASCII[i++] = (tmp/10)%10 + 48;
    1dd4:	d8 01       	movw	r26, r16
    1dd6:	52 96       	adiw	r26, 0x12	; 18
    1dd8:	ed 91       	ld	r30, X+
    1dda:	fc 91       	ld	r31, X
    1ddc:	53 97       	sbiw	r26, 0x13	; 19
    1dde:	49 81       	ldd	r20, Y+1	; 0x01
    1de0:	5a 81       	ldd	r21, Y+2	; 0x02
    1de2:	ca 01       	movw	r24, r20
    1de4:	01 96       	adiw	r24, 0x01	; 1
    1de6:	89 83       	std	Y+1, r24	; 0x01
    1de8:	9a 83       	std	Y+2, r25	; 0x02
    1dea:	8b 81       	ldd	r24, Y+3	; 0x03
    1dec:	9c 81       	ldd	r25, Y+4	; 0x04
    1dee:	e4 0f       	add	r30, r20
    1df0:	f5 1f       	adc	r31, r21
    1df2:	b9 01       	movw	r22, r18
    1df4:	0e 94 ec 1d 	call	0x3bd8	; 0x3bd8 <__divmodhi4>
    1df8:	cb 01       	movw	r24, r22
    1dfa:	b9 01       	movw	r22, r18
    1dfc:	0e 94 ec 1d 	call	0x3bd8	; 0x3bd8 <__divmodhi4>
    1e00:	80 5d       	subi	r24, 0xD0	; 208
    1e02:	80 83       	st	Z, r24
	allData->frame_b->frameASCII[i++] = (tmp)%10 + 48;
    1e04:	d8 01       	movw	r26, r16
    1e06:	52 96       	adiw	r26, 0x12	; 18
    1e08:	ed 91       	ld	r30, X+
    1e0a:	fc 91       	ld	r31, X
    1e0c:	53 97       	sbiw	r26, 0x13	; 19
    1e0e:	49 81       	ldd	r20, Y+1	; 0x01
    1e10:	5a 81       	ldd	r21, Y+2	; 0x02
    1e12:	ca 01       	movw	r24, r20
    1e14:	01 96       	adiw	r24, 0x01	; 1
    1e16:	89 83       	std	Y+1, r24	; 0x01
    1e18:	9a 83       	std	Y+2, r25	; 0x02
    1e1a:	8b 81       	ldd	r24, Y+3	; 0x03
    1e1c:	9c 81       	ldd	r25, Y+4	; 0x04
    1e1e:	e4 0f       	add	r30, r20
    1e20:	f5 1f       	adc	r31, r21
    1e22:	b9 01       	movw	r22, r18
    1e24:	0e 94 ec 1d 	call	0x3bd8	; 0x3bd8 <__divmodhi4>
    1e28:	80 5d       	subi	r24, 0xD0	; 208
    1e2a:	80 83       	st	Z, r24
	allData->frame_b->frameASCII[i++] = ',';
    1e2c:	f8 01       	movw	r30, r16
    1e2e:	22 89       	ldd	r18, Z+18	; 0x12
    1e30:	33 89       	ldd	r19, Z+19	; 0x13
    1e32:	89 81       	ldd	r24, Y+1	; 0x01
    1e34:	9a 81       	ldd	r25, Y+2	; 0x02
    1e36:	ac 01       	movw	r20, r24
    1e38:	4f 5f       	subi	r20, 0xFF	; 255
    1e3a:	5f 4f       	sbci	r21, 0xFF	; 255
    1e3c:	49 83       	std	Y+1, r20	; 0x01
    1e3e:	5a 83       	std	Y+2, r21	; 0x02
    1e40:	f9 01       	movw	r30, r18
    1e42:	e8 0f       	add	r30, r24
    1e44:	f9 1f       	adc	r31, r25
    1e46:	2c e2       	ldi	r18, 0x2C	; 44
    1e48:	20 83       	st	Z, r18
	
	//===============Gyro==========================
	
	//--------------Gyro x---------------------
	tmp = allData->SensorsData->gyro_x*10;
    1e4a:	d8 01       	movw	r26, r16
    1e4c:	1e 96       	adiw	r26, 0x0e	; 14
    1e4e:	ed 91       	ld	r30, X+
    1e50:	fc 91       	ld	r31, X
    1e52:	1f 97       	sbiw	r26, 0x0f	; 15
    1e54:	20 e0       	ldi	r18, 0x00	; 0
    1e56:	30 e0       	ldi	r19, 0x00	; 0
    1e58:	40 e2       	ldi	r20, 0x20	; 32
    1e5a:	51 e4       	ldi	r21, 0x41	; 65
    1e5c:	60 8d       	ldd	r22, Z+24	; 0x18
    1e5e:	71 8d       	ldd	r23, Z+25	; 0x19
    1e60:	82 8d       	ldd	r24, Z+26	; 0x1a
    1e62:	93 8d       	ldd	r25, Z+27	; 0x1b
    1e64:	0e 94 42 1d 	call	0x3a84	; 0x3a84 <__mulsf3>
    1e68:	0e 94 5b 1c 	call	0x38b6	; 0x38b6 <__fixsfsi>
    1e6c:	6b 83       	std	Y+3, r22	; 0x03
    1e6e:	7c 83       	std	Y+4, r23	; 0x04
	if(tmp < 0){
    1e70:	8b 81       	ldd	r24, Y+3	; 0x03
    1e72:	9c 81       	ldd	r25, Y+4	; 0x04
    1e74:	99 23       	and	r25, r25
    1e76:	bc f4       	brge	.+46     	; 0x1ea6 <prepareFrame+0xa5a>
		tmp = -tmp;
    1e78:	8b 81       	ldd	r24, Y+3	; 0x03
    1e7a:	9c 81       	ldd	r25, Y+4	; 0x04
    1e7c:	91 95       	neg	r25
    1e7e:	81 95       	neg	r24
    1e80:	91 09       	sbc	r25, r1
    1e82:	8b 83       	std	Y+3, r24	; 0x03
    1e84:	9c 83       	std	Y+4, r25	; 0x04
		allData->frame_b->frameASCII[i++] = '-';
    1e86:	f8 01       	movw	r30, r16
    1e88:	22 89       	ldd	r18, Z+18	; 0x12
    1e8a:	33 89       	ldd	r19, Z+19	; 0x13
    1e8c:	89 81       	ldd	r24, Y+1	; 0x01
    1e8e:	9a 81       	ldd	r25, Y+2	; 0x02
    1e90:	ac 01       	movw	r20, r24
    1e92:	4f 5f       	subi	r20, 0xFF	; 255
    1e94:	5f 4f       	sbci	r21, 0xFF	; 255
    1e96:	49 83       	std	Y+1, r20	; 0x01
    1e98:	5a 83       	std	Y+2, r21	; 0x02
    1e9a:	f9 01       	movw	r30, r18
    1e9c:	e8 0f       	add	r30, r24
    1e9e:	f9 1f       	adc	r31, r25
    1ea0:	2d e2       	ldi	r18, 0x2D	; 45
    1ea2:	20 83       	st	Z, r18
    1ea4:	11 c0       	rjmp	.+34     	; 0x1ec8 <prepareFrame+0xa7c>
	}
	else allData->frame_b->frameASCII[i++] = '+';
    1ea6:	d8 01       	movw	r26, r16
    1ea8:	52 96       	adiw	r26, 0x12	; 18
    1eaa:	2d 91       	ld	r18, X+
    1eac:	3c 91       	ld	r19, X
    1eae:	53 97       	sbiw	r26, 0x13	; 19
    1eb0:	89 81       	ldd	r24, Y+1	; 0x01
    1eb2:	9a 81       	ldd	r25, Y+2	; 0x02
    1eb4:	ac 01       	movw	r20, r24
    1eb6:	4f 5f       	subi	r20, 0xFF	; 255
    1eb8:	5f 4f       	sbci	r21, 0xFF	; 255
    1eba:	49 83       	std	Y+1, r20	; 0x01
    1ebc:	5a 83       	std	Y+2, r21	; 0x02
    1ebe:	f9 01       	movw	r30, r18
    1ec0:	e8 0f       	add	r30, r24
    1ec2:	f9 1f       	adc	r31, r25
    1ec4:	2b e2       	ldi	r18, 0x2B	; 43
    1ec6:	20 83       	st	Z, r18
	allData->frame_b->frameASCII[i++] = (tmp/10000)%10 + 48;
    1ec8:	f8 01       	movw	r30, r16
    1eca:	42 89       	ldd	r20, Z+18	; 0x12
    1ecc:	53 89       	ldd	r21, Z+19	; 0x13
    1ece:	29 81       	ldd	r18, Y+1	; 0x01
    1ed0:	3a 81       	ldd	r19, Y+2	; 0x02
    1ed2:	c9 01       	movw	r24, r18
    1ed4:	01 96       	adiw	r24, 0x01	; 1
    1ed6:	89 83       	std	Y+1, r24	; 0x01
    1ed8:	9a 83       	std	Y+2, r25	; 0x02
    1eda:	8b 81       	ldd	r24, Y+3	; 0x03
    1edc:	9c 81       	ldd	r25, Y+4	; 0x04
    1ede:	fa 01       	movw	r30, r20
    1ee0:	e2 0f       	add	r30, r18
    1ee2:	f3 1f       	adc	r31, r19
    1ee4:	60 e1       	ldi	r22, 0x10	; 16
    1ee6:	77 e2       	ldi	r23, 0x27	; 39
    1ee8:	0e 94 ec 1d 	call	0x3bd8	; 0x3bd8 <__divmodhi4>
    1eec:	cb 01       	movw	r24, r22
    1eee:	0f 2e       	mov	r0, r31
    1ef0:	fa e0       	ldi	r31, 0x0A	; 10
    1ef2:	2f 2e       	mov	r2, r31
    1ef4:	31 2c       	mov	r3, r1
    1ef6:	f0 2d       	mov	r31, r0
    1ef8:	b1 01       	movw	r22, r2
    1efa:	0e 94 ec 1d 	call	0x3bd8	; 0x3bd8 <__divmodhi4>
    1efe:	80 5d       	subi	r24, 0xD0	; 208
    1f00:	80 83       	st	Z, r24
	allData->frame_b->frameASCII[i++] = (tmp/1000)%10 + 48;
    1f02:	d8 01       	movw	r26, r16
    1f04:	52 96       	adiw	r26, 0x12	; 18
    1f06:	4d 91       	ld	r20, X+
    1f08:	5c 91       	ld	r21, X
    1f0a:	53 97       	sbiw	r26, 0x13	; 19
    1f0c:	29 81       	ldd	r18, Y+1	; 0x01
    1f0e:	3a 81       	ldd	r19, Y+2	; 0x02
    1f10:	c9 01       	movw	r24, r18
    1f12:	01 96       	adiw	r24, 0x01	; 1
    1f14:	89 83       	std	Y+1, r24	; 0x01
    1f16:	9a 83       	std	Y+2, r25	; 0x02
    1f18:	8b 81       	ldd	r24, Y+3	; 0x03
    1f1a:	9c 81       	ldd	r25, Y+4	; 0x04
    1f1c:	fa 01       	movw	r30, r20
    1f1e:	e2 0f       	add	r30, r18
    1f20:	f3 1f       	adc	r31, r19
    1f22:	68 ee       	ldi	r22, 0xE8	; 232
    1f24:	73 e0       	ldi	r23, 0x03	; 3
    1f26:	0e 94 ec 1d 	call	0x3bd8	; 0x3bd8 <__divmodhi4>
    1f2a:	cb 01       	movw	r24, r22
    1f2c:	b1 01       	movw	r22, r2
    1f2e:	0e 94 ec 1d 	call	0x3bd8	; 0x3bd8 <__divmodhi4>
    1f32:	80 5d       	subi	r24, 0xD0	; 208
    1f34:	80 83       	st	Z, r24
	allData->frame_b->frameASCII[i++] = (tmp/100)%10 + 48;
    1f36:	f8 01       	movw	r30, r16
    1f38:	42 89       	ldd	r20, Z+18	; 0x12
    1f3a:	53 89       	ldd	r21, Z+19	; 0x13
    1f3c:	29 81       	ldd	r18, Y+1	; 0x01
    1f3e:	3a 81       	ldd	r19, Y+2	; 0x02
    1f40:	c9 01       	movw	r24, r18
    1f42:	01 96       	adiw	r24, 0x01	; 1
    1f44:	89 83       	std	Y+1, r24	; 0x01
    1f46:	9a 83       	std	Y+2, r25	; 0x02
    1f48:	8b 81       	ldd	r24, Y+3	; 0x03
    1f4a:	9c 81       	ldd	r25, Y+4	; 0x04
    1f4c:	fa 01       	movw	r30, r20
    1f4e:	e2 0f       	add	r30, r18
    1f50:	f3 1f       	adc	r31, r19
    1f52:	64 e6       	ldi	r22, 0x64	; 100
    1f54:	70 e0       	ldi	r23, 0x00	; 0
    1f56:	0e 94 ec 1d 	call	0x3bd8	; 0x3bd8 <__divmodhi4>
    1f5a:	cb 01       	movw	r24, r22
    1f5c:	b1 01       	movw	r22, r2
    1f5e:	0e 94 ec 1d 	call	0x3bd8	; 0x3bd8 <__divmodhi4>
    1f62:	80 5d       	subi	r24, 0xD0	; 208
    1f64:	80 83       	st	Z, r24
	allData->frame_b->frameASCII[i++] = (tmp/10)%10 + 48;
    1f66:	d8 01       	movw	r26, r16
    1f68:	52 96       	adiw	r26, 0x12	; 18
    1f6a:	4d 91       	ld	r20, X+
    1f6c:	5c 91       	ld	r21, X
    1f6e:	53 97       	sbiw	r26, 0x13	; 19
    1f70:	29 81       	ldd	r18, Y+1	; 0x01
    1f72:	3a 81       	ldd	r19, Y+2	; 0x02
    1f74:	c9 01       	movw	r24, r18
    1f76:	01 96       	adiw	r24, 0x01	; 1
    1f78:	89 83       	std	Y+1, r24	; 0x01
    1f7a:	9a 83       	std	Y+2, r25	; 0x02
    1f7c:	8b 81       	ldd	r24, Y+3	; 0x03
    1f7e:	9c 81       	ldd	r25, Y+4	; 0x04
    1f80:	fa 01       	movw	r30, r20
    1f82:	e2 0f       	add	r30, r18
    1f84:	f3 1f       	adc	r31, r19
    1f86:	b1 01       	movw	r22, r2
    1f88:	0e 94 ec 1d 	call	0x3bd8	; 0x3bd8 <__divmodhi4>
    1f8c:	cb 01       	movw	r24, r22
    1f8e:	b1 01       	movw	r22, r2
    1f90:	0e 94 ec 1d 	call	0x3bd8	; 0x3bd8 <__divmodhi4>
    1f94:	80 5d       	subi	r24, 0xD0	; 208
    1f96:	80 83       	st	Z, r24
	allData->frame_b->frameASCII[i++] = '.';
    1f98:	f8 01       	movw	r30, r16
    1f9a:	22 89       	ldd	r18, Z+18	; 0x12
    1f9c:	33 89       	ldd	r19, Z+19	; 0x13
    1f9e:	89 81       	ldd	r24, Y+1	; 0x01
    1fa0:	9a 81       	ldd	r25, Y+2	; 0x02
    1fa2:	ac 01       	movw	r20, r24
    1fa4:	4f 5f       	subi	r20, 0xFF	; 255
    1fa6:	5f 4f       	sbci	r21, 0xFF	; 255
    1fa8:	49 83       	std	Y+1, r20	; 0x01
    1faa:	5a 83       	std	Y+2, r21	; 0x02
    1fac:	f9 01       	movw	r30, r18
    1fae:	e8 0f       	add	r30, r24
    1fb0:	f9 1f       	adc	r31, r25
    1fb2:	0f 2e       	mov	r0, r31
    1fb4:	fe e2       	ldi	r31, 0x2E	; 46
    1fb6:	8f 2e       	mov	r8, r31
    1fb8:	f0 2d       	mov	r31, r0
    1fba:	80 82       	st	Z, r8
	allData->frame_b->frameASCII[i++] = (tmp)%10 + 48;
    1fbc:	d8 01       	movw	r26, r16
    1fbe:	52 96       	adiw	r26, 0x12	; 18
    1fc0:	4d 91       	ld	r20, X+
    1fc2:	5c 91       	ld	r21, X
    1fc4:	53 97       	sbiw	r26, 0x13	; 19
    1fc6:	29 81       	ldd	r18, Y+1	; 0x01
    1fc8:	3a 81       	ldd	r19, Y+2	; 0x02
    1fca:	c9 01       	movw	r24, r18
    1fcc:	01 96       	adiw	r24, 0x01	; 1
    1fce:	89 83       	std	Y+1, r24	; 0x01
    1fd0:	9a 83       	std	Y+2, r25	; 0x02
    1fd2:	8b 81       	ldd	r24, Y+3	; 0x03
    1fd4:	9c 81       	ldd	r25, Y+4	; 0x04
    1fd6:	fa 01       	movw	r30, r20
    1fd8:	e2 0f       	add	r30, r18
    1fda:	f3 1f       	adc	r31, r19
    1fdc:	b1 01       	movw	r22, r2
    1fde:	0e 94 ec 1d 	call	0x3bd8	; 0x3bd8 <__divmodhi4>
    1fe2:	80 5d       	subi	r24, 0xD0	; 208
    1fe4:	80 83       	st	Z, r24
	allData->frame_b->frameASCII[i++] = ',';
    1fe6:	f8 01       	movw	r30, r16
    1fe8:	22 89       	ldd	r18, Z+18	; 0x12
    1fea:	33 89       	ldd	r19, Z+19	; 0x13
    1fec:	89 81       	ldd	r24, Y+1	; 0x01
    1fee:	9a 81       	ldd	r25, Y+2	; 0x02
    1ff0:	ac 01       	movw	r20, r24
    1ff2:	4f 5f       	subi	r20, 0xFF	; 255
    1ff4:	5f 4f       	sbci	r21, 0xFF	; 255
    1ff6:	49 83       	std	Y+1, r20	; 0x01
    1ff8:	5a 83       	std	Y+2, r21	; 0x02
    1ffa:	f9 01       	movw	r30, r18
    1ffc:	e8 0f       	add	r30, r24
    1ffe:	f9 1f       	adc	r31, r25
    2000:	0f 2e       	mov	r0, r31
    2002:	fc e2       	ldi	r31, 0x2C	; 44
    2004:	9f 2e       	mov	r9, r31
    2006:	f0 2d       	mov	r31, r0
    2008:	90 82       	st	Z, r9

	//==============GPS============================
	//--------------GPS lat------------------------------
	allData->frame_b->frameASCII[i++] = allData->GPS->latitude[0];
    200a:	d8 01       	movw	r26, r16
    200c:	52 96       	adiw	r26, 0x12	; 18
    200e:	4d 91       	ld	r20, X+
    2010:	5c 91       	ld	r21, X
    2012:	53 97       	sbiw	r26, 0x13	; 19
    2014:	89 81       	ldd	r24, Y+1	; 0x01
    2016:	9a 81       	ldd	r25, Y+2	; 0x02
    2018:	9c 01       	movw	r18, r24
    201a:	2f 5f       	subi	r18, 0xFF	; 255
    201c:	3f 4f       	sbci	r19, 0xFF	; 255
    201e:	29 83       	std	Y+1, r18	; 0x01
    2020:	3a 83       	std	Y+2, r19	; 0x02
    2022:	16 96       	adiw	r26, 0x06	; 6
    2024:	ed 91       	ld	r30, X+
    2026:	fc 91       	ld	r31, X
    2028:	17 97       	sbiw	r26, 0x07	; 7
    202a:	24 81       	ldd	r18, Z+4	; 0x04
    202c:	fa 01       	movw	r30, r20
    202e:	e8 0f       	add	r30, r24
    2030:	f9 1f       	adc	r31, r25
    2032:	20 83       	st	Z, r18
	allData->frame_b->frameASCII[i++] = allData->GPS->latitude[1];
    2034:	52 96       	adiw	r26, 0x12	; 18
    2036:	4d 91       	ld	r20, X+
    2038:	5c 91       	ld	r21, X
    203a:	53 97       	sbiw	r26, 0x13	; 19
    203c:	89 81       	ldd	r24, Y+1	; 0x01
    203e:	9a 81       	ldd	r25, Y+2	; 0x02
    2040:	9c 01       	movw	r18, r24
    2042:	2f 5f       	subi	r18, 0xFF	; 255
    2044:	3f 4f       	sbci	r19, 0xFF	; 255
    2046:	29 83       	std	Y+1, r18	; 0x01
    2048:	3a 83       	std	Y+2, r19	; 0x02
    204a:	16 96       	adiw	r26, 0x06	; 6
    204c:	ed 91       	ld	r30, X+
    204e:	fc 91       	ld	r31, X
    2050:	17 97       	sbiw	r26, 0x07	; 7
    2052:	25 81       	ldd	r18, Z+5	; 0x05
    2054:	fa 01       	movw	r30, r20
    2056:	e8 0f       	add	r30, r24
    2058:	f9 1f       	adc	r31, r25
    205a:	20 83       	st	Z, r18
	allData->frame_b->frameASCII[i++] = allData->GPS->latitude[2];
    205c:	52 96       	adiw	r26, 0x12	; 18
    205e:	4d 91       	ld	r20, X+
    2060:	5c 91       	ld	r21, X
    2062:	53 97       	sbiw	r26, 0x13	; 19
    2064:	89 81       	ldd	r24, Y+1	; 0x01
    2066:	9a 81       	ldd	r25, Y+2	; 0x02
    2068:	9c 01       	movw	r18, r24
    206a:	2f 5f       	subi	r18, 0xFF	; 255
    206c:	3f 4f       	sbci	r19, 0xFF	; 255
    206e:	29 83       	std	Y+1, r18	; 0x01
    2070:	3a 83       	std	Y+2, r19	; 0x02
    2072:	16 96       	adiw	r26, 0x06	; 6
    2074:	ed 91       	ld	r30, X+
    2076:	fc 91       	ld	r31, X
    2078:	17 97       	sbiw	r26, 0x07	; 7
    207a:	26 81       	ldd	r18, Z+6	; 0x06
    207c:	fa 01       	movw	r30, r20
    207e:	e8 0f       	add	r30, r24
    2080:	f9 1f       	adc	r31, r25
    2082:	20 83       	st	Z, r18
	allData->frame_b->frameASCII[i++] = allData->GPS->latitude[3];
    2084:	52 96       	adiw	r26, 0x12	; 18
    2086:	4d 91       	ld	r20, X+
    2088:	5c 91       	ld	r21, X
    208a:	53 97       	sbiw	r26, 0x13	; 19
    208c:	89 81       	ldd	r24, Y+1	; 0x01
    208e:	9a 81       	ldd	r25, Y+2	; 0x02
    2090:	9c 01       	movw	r18, r24
    2092:	2f 5f       	subi	r18, 0xFF	; 255
    2094:	3f 4f       	sbci	r19, 0xFF	; 255
    2096:	29 83       	std	Y+1, r18	; 0x01
    2098:	3a 83       	std	Y+2, r19	; 0x02
    209a:	16 96       	adiw	r26, 0x06	; 6
    209c:	ed 91       	ld	r30, X+
    209e:	fc 91       	ld	r31, X
    20a0:	17 97       	sbiw	r26, 0x07	; 7
    20a2:	27 81       	ldd	r18, Z+7	; 0x07
    20a4:	fa 01       	movw	r30, r20
    20a6:	e8 0f       	add	r30, r24
    20a8:	f9 1f       	adc	r31, r25
    20aa:	20 83       	st	Z, r18
	allData->frame_b->frameASCII[i++] = allData->GPS->latitude[4];
    20ac:	52 96       	adiw	r26, 0x12	; 18
    20ae:	4d 91       	ld	r20, X+
    20b0:	5c 91       	ld	r21, X
    20b2:	53 97       	sbiw	r26, 0x13	; 19
    20b4:	89 81       	ldd	r24, Y+1	; 0x01
    20b6:	9a 81       	ldd	r25, Y+2	; 0x02
    20b8:	9c 01       	movw	r18, r24
    20ba:	2f 5f       	subi	r18, 0xFF	; 255
    20bc:	3f 4f       	sbci	r19, 0xFF	; 255
    20be:	29 83       	std	Y+1, r18	; 0x01
    20c0:	3a 83       	std	Y+2, r19	; 0x02
    20c2:	16 96       	adiw	r26, 0x06	; 6
    20c4:	ed 91       	ld	r30, X+
    20c6:	fc 91       	ld	r31, X
    20c8:	17 97       	sbiw	r26, 0x07	; 7
    20ca:	20 85       	ldd	r18, Z+8	; 0x08
    20cc:	fa 01       	movw	r30, r20
    20ce:	e8 0f       	add	r30, r24
    20d0:	f9 1f       	adc	r31, r25
    20d2:	20 83       	st	Z, r18
	allData->frame_b->frameASCII[i++] = allData->GPS->latitude[5];
    20d4:	52 96       	adiw	r26, 0x12	; 18
    20d6:	4d 91       	ld	r20, X+
    20d8:	5c 91       	ld	r21, X
    20da:	53 97       	sbiw	r26, 0x13	; 19
    20dc:	89 81       	ldd	r24, Y+1	; 0x01
    20de:	9a 81       	ldd	r25, Y+2	; 0x02
    20e0:	9c 01       	movw	r18, r24
    20e2:	2f 5f       	subi	r18, 0xFF	; 255
    20e4:	3f 4f       	sbci	r19, 0xFF	; 255
    20e6:	29 83       	std	Y+1, r18	; 0x01
    20e8:	3a 83       	std	Y+2, r19	; 0x02
    20ea:	16 96       	adiw	r26, 0x06	; 6
    20ec:	ed 91       	ld	r30, X+
    20ee:	fc 91       	ld	r31, X
    20f0:	17 97       	sbiw	r26, 0x07	; 7
    20f2:	21 85       	ldd	r18, Z+9	; 0x09
    20f4:	fa 01       	movw	r30, r20
    20f6:	e8 0f       	add	r30, r24
    20f8:	f9 1f       	adc	r31, r25
    20fa:	20 83       	st	Z, r18
	allData->frame_b->frameASCII[i++] = allData->GPS->latitude[6];
    20fc:	52 96       	adiw	r26, 0x12	; 18
    20fe:	4d 91       	ld	r20, X+
    2100:	5c 91       	ld	r21, X
    2102:	53 97       	sbiw	r26, 0x13	; 19
    2104:	89 81       	ldd	r24, Y+1	; 0x01
    2106:	9a 81       	ldd	r25, Y+2	; 0x02
    2108:	9c 01       	movw	r18, r24
    210a:	2f 5f       	subi	r18, 0xFF	; 255
    210c:	3f 4f       	sbci	r19, 0xFF	; 255
    210e:	29 83       	std	Y+1, r18	; 0x01
    2110:	3a 83       	std	Y+2, r19	; 0x02
    2112:	16 96       	adiw	r26, 0x06	; 6
    2114:	ed 91       	ld	r30, X+
    2116:	fc 91       	ld	r31, X
    2118:	17 97       	sbiw	r26, 0x07	; 7
    211a:	22 85       	ldd	r18, Z+10	; 0x0a
    211c:	fa 01       	movw	r30, r20
    211e:	e8 0f       	add	r30, r24
    2120:	f9 1f       	adc	r31, r25
    2122:	20 83       	st	Z, r18
	allData->frame_b->frameASCII[i++] = allData->GPS->latitude[7];
    2124:	52 96       	adiw	r26, 0x12	; 18
    2126:	4d 91       	ld	r20, X+
    2128:	5c 91       	ld	r21, X
    212a:	53 97       	sbiw	r26, 0x13	; 19
    212c:	89 81       	ldd	r24, Y+1	; 0x01
    212e:	9a 81       	ldd	r25, Y+2	; 0x02
    2130:	9c 01       	movw	r18, r24
    2132:	2f 5f       	subi	r18, 0xFF	; 255
    2134:	3f 4f       	sbci	r19, 0xFF	; 255
    2136:	29 83       	std	Y+1, r18	; 0x01
    2138:	3a 83       	std	Y+2, r19	; 0x02
    213a:	16 96       	adiw	r26, 0x06	; 6
    213c:	ed 91       	ld	r30, X+
    213e:	fc 91       	ld	r31, X
    2140:	17 97       	sbiw	r26, 0x07	; 7
    2142:	23 85       	ldd	r18, Z+11	; 0x0b
    2144:	fa 01       	movw	r30, r20
    2146:	e8 0f       	add	r30, r24
    2148:	f9 1f       	adc	r31, r25
    214a:	20 83       	st	Z, r18
	allData->frame_b->frameASCII[i++] = allData->GPS->latitude[8];
    214c:	52 96       	adiw	r26, 0x12	; 18
    214e:	4d 91       	ld	r20, X+
    2150:	5c 91       	ld	r21, X
    2152:	53 97       	sbiw	r26, 0x13	; 19
    2154:	89 81       	ldd	r24, Y+1	; 0x01
    2156:	9a 81       	ldd	r25, Y+2	; 0x02
    2158:	9c 01       	movw	r18, r24
    215a:	2f 5f       	subi	r18, 0xFF	; 255
    215c:	3f 4f       	sbci	r19, 0xFF	; 255
    215e:	29 83       	std	Y+1, r18	; 0x01
    2160:	3a 83       	std	Y+2, r19	; 0x02
    2162:	16 96       	adiw	r26, 0x06	; 6
    2164:	ed 91       	ld	r30, X+
    2166:	fc 91       	ld	r31, X
    2168:	17 97       	sbiw	r26, 0x07	; 7
    216a:	24 85       	ldd	r18, Z+12	; 0x0c
    216c:	fa 01       	movw	r30, r20
    216e:	e8 0f       	add	r30, r24
    2170:	f9 1f       	adc	r31, r25
    2172:	20 83       	st	Z, r18
	allData->frame_b->frameASCII[i++] = allData->GPS->latitude[9];
    2174:	52 96       	adiw	r26, 0x12	; 18
    2176:	4d 91       	ld	r20, X+
    2178:	5c 91       	ld	r21, X
    217a:	53 97       	sbiw	r26, 0x13	; 19
    217c:	89 81       	ldd	r24, Y+1	; 0x01
    217e:	9a 81       	ldd	r25, Y+2	; 0x02
    2180:	9c 01       	movw	r18, r24
    2182:	2f 5f       	subi	r18, 0xFF	; 255
    2184:	3f 4f       	sbci	r19, 0xFF	; 255
    2186:	29 83       	std	Y+1, r18	; 0x01
    2188:	3a 83       	std	Y+2, r19	; 0x02
    218a:	16 96       	adiw	r26, 0x06	; 6
    218c:	ed 91       	ld	r30, X+
    218e:	fc 91       	ld	r31, X
    2190:	17 97       	sbiw	r26, 0x07	; 7
    2192:	25 85       	ldd	r18, Z+13	; 0x0d
    2194:	fa 01       	movw	r30, r20
    2196:	e8 0f       	add	r30, r24
    2198:	f9 1f       	adc	r31, r25
    219a:	20 83       	st	Z, r18
	allData->frame_b->frameASCII[i++] = allData->GPS->latitude[10];
    219c:	f8 01       	movw	r30, r16
    219e:	42 89       	ldd	r20, Z+18	; 0x12
    21a0:	53 89       	ldd	r21, Z+19	; 0x13
    21a2:	89 81       	ldd	r24, Y+1	; 0x01
    21a4:	9a 81       	ldd	r25, Y+2	; 0x02
    21a6:	9c 01       	movw	r18, r24
    21a8:	2f 5f       	subi	r18, 0xFF	; 255
    21aa:	3f 4f       	sbci	r19, 0xFF	; 255
    21ac:	29 83       	std	Y+1, r18	; 0x01
    21ae:	3a 83       	std	Y+2, r19	; 0x02
    21b0:	06 80       	ldd	r0, Z+6	; 0x06
    21b2:	f7 81       	ldd	r31, Z+7	; 0x07
    21b4:	e0 2d       	mov	r30, r0
    21b6:	26 85       	ldd	r18, Z+14	; 0x0e
    21b8:	fa 01       	movw	r30, r20
    21ba:	e8 0f       	add	r30, r24
    21bc:	f9 1f       	adc	r31, r25
    21be:	20 83       	st	Z, r18
	allData->frame_b->frameASCII[i++] = ',';
    21c0:	52 96       	adiw	r26, 0x12	; 18
    21c2:	2d 91       	ld	r18, X+
    21c4:	3c 91       	ld	r19, X
    21c6:	53 97       	sbiw	r26, 0x13	; 19
    21c8:	89 81       	ldd	r24, Y+1	; 0x01
    21ca:	9a 81       	ldd	r25, Y+2	; 0x02
    21cc:	ac 01       	movw	r20, r24
    21ce:	4f 5f       	subi	r20, 0xFF	; 255
    21d0:	5f 4f       	sbci	r21, 0xFF	; 255
    21d2:	49 83       	std	Y+1, r20	; 0x01
    21d4:	5a 83       	std	Y+2, r21	; 0x02
    21d6:	f9 01       	movw	r30, r18
    21d8:	e8 0f       	add	r30, r24
    21da:	f9 1f       	adc	r31, r25
    21dc:	90 82       	st	Z, r9
	//--------------GPS long------------------------------
	allData->frame_b->frameASCII[i++] = allData->GPS->longitude[0];
    21de:	52 96       	adiw	r26, 0x12	; 18
    21e0:	4d 91       	ld	r20, X+
    21e2:	5c 91       	ld	r21, X
    21e4:	53 97       	sbiw	r26, 0x13	; 19
    21e6:	89 81       	ldd	r24, Y+1	; 0x01
    21e8:	9a 81       	ldd	r25, Y+2	; 0x02
    21ea:	9c 01       	movw	r18, r24
    21ec:	2f 5f       	subi	r18, 0xFF	; 255
    21ee:	3f 4f       	sbci	r19, 0xFF	; 255
    21f0:	29 83       	std	Y+1, r18	; 0x01
    21f2:	3a 83       	std	Y+2, r19	; 0x02
    21f4:	16 96       	adiw	r26, 0x06	; 6
    21f6:	ed 91       	ld	r30, X+
    21f8:	fc 91       	ld	r31, X
    21fa:	17 97       	sbiw	r26, 0x07	; 7
    21fc:	22 89       	ldd	r18, Z+18	; 0x12
    21fe:	fa 01       	movw	r30, r20
    2200:	e8 0f       	add	r30, r24
    2202:	f9 1f       	adc	r31, r25
    2204:	20 83       	st	Z, r18
	allData->frame_b->frameASCII[i++] = allData->GPS->longitude[1];
    2206:	52 96       	adiw	r26, 0x12	; 18
    2208:	4d 91       	ld	r20, X+
    220a:	5c 91       	ld	r21, X
    220c:	53 97       	sbiw	r26, 0x13	; 19
    220e:	89 81       	ldd	r24, Y+1	; 0x01
    2210:	9a 81       	ldd	r25, Y+2	; 0x02
    2212:	9c 01       	movw	r18, r24
    2214:	2f 5f       	subi	r18, 0xFF	; 255
    2216:	3f 4f       	sbci	r19, 0xFF	; 255
    2218:	29 83       	std	Y+1, r18	; 0x01
    221a:	3a 83       	std	Y+2, r19	; 0x02
    221c:	16 96       	adiw	r26, 0x06	; 6
    221e:	ed 91       	ld	r30, X+
    2220:	fc 91       	ld	r31, X
    2222:	17 97       	sbiw	r26, 0x07	; 7
    2224:	23 89       	ldd	r18, Z+19	; 0x13
    2226:	fa 01       	movw	r30, r20
    2228:	e8 0f       	add	r30, r24
    222a:	f9 1f       	adc	r31, r25
    222c:	20 83       	st	Z, r18
	allData->frame_b->frameASCII[i++] = allData->GPS->longitude[2];
    222e:	52 96       	adiw	r26, 0x12	; 18
    2230:	4d 91       	ld	r20, X+
    2232:	5c 91       	ld	r21, X
    2234:	53 97       	sbiw	r26, 0x13	; 19
    2236:	89 81       	ldd	r24, Y+1	; 0x01
    2238:	9a 81       	ldd	r25, Y+2	; 0x02
    223a:	9c 01       	movw	r18, r24
    223c:	2f 5f       	subi	r18, 0xFF	; 255
    223e:	3f 4f       	sbci	r19, 0xFF	; 255
    2240:	29 83       	std	Y+1, r18	; 0x01
    2242:	3a 83       	std	Y+2, r19	; 0x02
    2244:	16 96       	adiw	r26, 0x06	; 6
    2246:	ed 91       	ld	r30, X+
    2248:	fc 91       	ld	r31, X
    224a:	17 97       	sbiw	r26, 0x07	; 7
    224c:	24 89       	ldd	r18, Z+20	; 0x14
    224e:	fa 01       	movw	r30, r20
    2250:	e8 0f       	add	r30, r24
    2252:	f9 1f       	adc	r31, r25
    2254:	20 83       	st	Z, r18
	allData->frame_b->frameASCII[i++] = allData->GPS->longitude[3];
    2256:	52 96       	adiw	r26, 0x12	; 18
    2258:	4d 91       	ld	r20, X+
    225a:	5c 91       	ld	r21, X
    225c:	53 97       	sbiw	r26, 0x13	; 19
    225e:	89 81       	ldd	r24, Y+1	; 0x01
    2260:	9a 81       	ldd	r25, Y+2	; 0x02
    2262:	9c 01       	movw	r18, r24
    2264:	2f 5f       	subi	r18, 0xFF	; 255
    2266:	3f 4f       	sbci	r19, 0xFF	; 255
    2268:	29 83       	std	Y+1, r18	; 0x01
    226a:	3a 83       	std	Y+2, r19	; 0x02
    226c:	16 96       	adiw	r26, 0x06	; 6
    226e:	ed 91       	ld	r30, X+
    2270:	fc 91       	ld	r31, X
    2272:	17 97       	sbiw	r26, 0x07	; 7
    2274:	25 89       	ldd	r18, Z+21	; 0x15
    2276:	fa 01       	movw	r30, r20
    2278:	e8 0f       	add	r30, r24
    227a:	f9 1f       	adc	r31, r25
    227c:	20 83       	st	Z, r18
	allData->frame_b->frameASCII[i++] = allData->GPS->longitude[4];
    227e:	52 96       	adiw	r26, 0x12	; 18
    2280:	4d 91       	ld	r20, X+
    2282:	5c 91       	ld	r21, X
    2284:	53 97       	sbiw	r26, 0x13	; 19
    2286:	89 81       	ldd	r24, Y+1	; 0x01
    2288:	9a 81       	ldd	r25, Y+2	; 0x02
    228a:	9c 01       	movw	r18, r24
    228c:	2f 5f       	subi	r18, 0xFF	; 255
    228e:	3f 4f       	sbci	r19, 0xFF	; 255
    2290:	29 83       	std	Y+1, r18	; 0x01
    2292:	3a 83       	std	Y+2, r19	; 0x02
    2294:	16 96       	adiw	r26, 0x06	; 6
    2296:	ed 91       	ld	r30, X+
    2298:	fc 91       	ld	r31, X
    229a:	17 97       	sbiw	r26, 0x07	; 7
    229c:	26 89       	ldd	r18, Z+22	; 0x16
    229e:	fa 01       	movw	r30, r20
    22a0:	e8 0f       	add	r30, r24
    22a2:	f9 1f       	adc	r31, r25
    22a4:	20 83       	st	Z, r18
	allData->frame_b->frameASCII[i++] = allData->GPS->longitude[5];
    22a6:	52 96       	adiw	r26, 0x12	; 18
    22a8:	4d 91       	ld	r20, X+
    22aa:	5c 91       	ld	r21, X
    22ac:	53 97       	sbiw	r26, 0x13	; 19
    22ae:	89 81       	ldd	r24, Y+1	; 0x01
    22b0:	9a 81       	ldd	r25, Y+2	; 0x02
    22b2:	9c 01       	movw	r18, r24
    22b4:	2f 5f       	subi	r18, 0xFF	; 255
    22b6:	3f 4f       	sbci	r19, 0xFF	; 255
    22b8:	29 83       	std	Y+1, r18	; 0x01
    22ba:	3a 83       	std	Y+2, r19	; 0x02
    22bc:	16 96       	adiw	r26, 0x06	; 6
    22be:	ed 91       	ld	r30, X+
    22c0:	fc 91       	ld	r31, X
    22c2:	17 97       	sbiw	r26, 0x07	; 7
    22c4:	27 89       	ldd	r18, Z+23	; 0x17
    22c6:	fa 01       	movw	r30, r20
    22c8:	e8 0f       	add	r30, r24
    22ca:	f9 1f       	adc	r31, r25
    22cc:	20 83       	st	Z, r18
	allData->frame_b->frameASCII[i++] = allData->GPS->longitude[6];
    22ce:	52 96       	adiw	r26, 0x12	; 18
    22d0:	4d 91       	ld	r20, X+
    22d2:	5c 91       	ld	r21, X
    22d4:	53 97       	sbiw	r26, 0x13	; 19
    22d6:	89 81       	ldd	r24, Y+1	; 0x01
    22d8:	9a 81       	ldd	r25, Y+2	; 0x02
    22da:	9c 01       	movw	r18, r24
    22dc:	2f 5f       	subi	r18, 0xFF	; 255
    22de:	3f 4f       	sbci	r19, 0xFF	; 255
    22e0:	29 83       	std	Y+1, r18	; 0x01
    22e2:	3a 83       	std	Y+2, r19	; 0x02
    22e4:	16 96       	adiw	r26, 0x06	; 6
    22e6:	ed 91       	ld	r30, X+
    22e8:	fc 91       	ld	r31, X
    22ea:	17 97       	sbiw	r26, 0x07	; 7
    22ec:	20 8d       	ldd	r18, Z+24	; 0x18
    22ee:	fa 01       	movw	r30, r20
    22f0:	e8 0f       	add	r30, r24
    22f2:	f9 1f       	adc	r31, r25
    22f4:	20 83       	st	Z, r18
	allData->frame_b->frameASCII[i++] = allData->GPS->longitude[7];
    22f6:	52 96       	adiw	r26, 0x12	; 18
    22f8:	4d 91       	ld	r20, X+
    22fa:	5c 91       	ld	r21, X
    22fc:	53 97       	sbiw	r26, 0x13	; 19
    22fe:	89 81       	ldd	r24, Y+1	; 0x01
    2300:	9a 81       	ldd	r25, Y+2	; 0x02
    2302:	9c 01       	movw	r18, r24
    2304:	2f 5f       	subi	r18, 0xFF	; 255
    2306:	3f 4f       	sbci	r19, 0xFF	; 255
    2308:	29 83       	std	Y+1, r18	; 0x01
    230a:	3a 83       	std	Y+2, r19	; 0x02
    230c:	16 96       	adiw	r26, 0x06	; 6
    230e:	ed 91       	ld	r30, X+
    2310:	fc 91       	ld	r31, X
    2312:	17 97       	sbiw	r26, 0x07	; 7
    2314:	21 8d       	ldd	r18, Z+25	; 0x19
    2316:	fa 01       	movw	r30, r20
    2318:	e8 0f       	add	r30, r24
    231a:	f9 1f       	adc	r31, r25
    231c:	20 83       	st	Z, r18
	allData->frame_b->frameASCII[i++] = allData->GPS->longitude[8];
    231e:	52 96       	adiw	r26, 0x12	; 18
    2320:	4d 91       	ld	r20, X+
    2322:	5c 91       	ld	r21, X
    2324:	53 97       	sbiw	r26, 0x13	; 19
    2326:	89 81       	ldd	r24, Y+1	; 0x01
    2328:	9a 81       	ldd	r25, Y+2	; 0x02
    232a:	9c 01       	movw	r18, r24
    232c:	2f 5f       	subi	r18, 0xFF	; 255
    232e:	3f 4f       	sbci	r19, 0xFF	; 255
    2330:	29 83       	std	Y+1, r18	; 0x01
    2332:	3a 83       	std	Y+2, r19	; 0x02
    2334:	16 96       	adiw	r26, 0x06	; 6
    2336:	ed 91       	ld	r30, X+
    2338:	fc 91       	ld	r31, X
    233a:	17 97       	sbiw	r26, 0x07	; 7
    233c:	22 8d       	ldd	r18, Z+26	; 0x1a
    233e:	fa 01       	movw	r30, r20
    2340:	e8 0f       	add	r30, r24
    2342:	f9 1f       	adc	r31, r25
    2344:	20 83       	st	Z, r18
	allData->frame_b->frameASCII[i++] = allData->GPS->longitude[9];
    2346:	52 96       	adiw	r26, 0x12	; 18
    2348:	4d 91       	ld	r20, X+
    234a:	5c 91       	ld	r21, X
    234c:	53 97       	sbiw	r26, 0x13	; 19
    234e:	89 81       	ldd	r24, Y+1	; 0x01
    2350:	9a 81       	ldd	r25, Y+2	; 0x02
    2352:	9c 01       	movw	r18, r24
    2354:	2f 5f       	subi	r18, 0xFF	; 255
    2356:	3f 4f       	sbci	r19, 0xFF	; 255
    2358:	29 83       	std	Y+1, r18	; 0x01
    235a:	3a 83       	std	Y+2, r19	; 0x02
    235c:	16 96       	adiw	r26, 0x06	; 6
    235e:	ed 91       	ld	r30, X+
    2360:	fc 91       	ld	r31, X
    2362:	17 97       	sbiw	r26, 0x07	; 7
    2364:	23 8d       	ldd	r18, Z+27	; 0x1b
    2366:	fa 01       	movw	r30, r20
    2368:	e8 0f       	add	r30, r24
    236a:	f9 1f       	adc	r31, r25
    236c:	20 83       	st	Z, r18
	allData->frame_b->frameASCII[i++] = allData->GPS->longitude[10];
    236e:	52 96       	adiw	r26, 0x12	; 18
    2370:	4d 91       	ld	r20, X+
    2372:	5c 91       	ld	r21, X
    2374:	53 97       	sbiw	r26, 0x13	; 19
    2376:	89 81       	ldd	r24, Y+1	; 0x01
    2378:	9a 81       	ldd	r25, Y+2	; 0x02
    237a:	9c 01       	movw	r18, r24
    237c:	2f 5f       	subi	r18, 0xFF	; 255
    237e:	3f 4f       	sbci	r19, 0xFF	; 255
    2380:	29 83       	std	Y+1, r18	; 0x01
    2382:	3a 83       	std	Y+2, r19	; 0x02
    2384:	16 96       	adiw	r26, 0x06	; 6
    2386:	ed 91       	ld	r30, X+
    2388:	fc 91       	ld	r31, X
    238a:	17 97       	sbiw	r26, 0x07	; 7
    238c:	24 8d       	ldd	r18, Z+28	; 0x1c
    238e:	fa 01       	movw	r30, r20
    2390:	e8 0f       	add	r30, r24
    2392:	f9 1f       	adc	r31, r25
    2394:	20 83       	st	Z, r18
	allData->frame_b->frameASCII[i++] = ',';
    2396:	52 96       	adiw	r26, 0x12	; 18
    2398:	2d 91       	ld	r18, X+
    239a:	3c 91       	ld	r19, X
    239c:	53 97       	sbiw	r26, 0x13	; 19
    239e:	89 81       	ldd	r24, Y+1	; 0x01
    23a0:	9a 81       	ldd	r25, Y+2	; 0x02
    23a2:	ac 01       	movw	r20, r24
    23a4:	4f 5f       	subi	r20, 0xFF	; 255
    23a6:	5f 4f       	sbci	r21, 0xFF	; 255
    23a8:	49 83       	std	Y+1, r20	; 0x01
    23aa:	5a 83       	std	Y+2, r21	; 0x02
    23ac:	f9 01       	movw	r30, r18
    23ae:	e8 0f       	add	r30, r24
    23b0:	f9 1f       	adc	r31, r25
    23b2:	90 82       	st	Z, r9
	//--------------GPS altitude------------------------------
	allData->frame_b->frameASCII[i++] = allData->GPS->altitude[0];
    23b4:	52 96       	adiw	r26, 0x12	; 18
    23b6:	4d 91       	ld	r20, X+
    23b8:	5c 91       	ld	r21, X
    23ba:	53 97       	sbiw	r26, 0x13	; 19
    23bc:	89 81       	ldd	r24, Y+1	; 0x01
    23be:	9a 81       	ldd	r25, Y+2	; 0x02
    23c0:	9c 01       	movw	r18, r24
    23c2:	2f 5f       	subi	r18, 0xFF	; 255
    23c4:	3f 4f       	sbci	r19, 0xFF	; 255
    23c6:	29 83       	std	Y+1, r18	; 0x01
    23c8:	3a 83       	std	Y+2, r19	; 0x02
    23ca:	16 96       	adiw	r26, 0x06	; 6
    23cc:	ed 91       	ld	r30, X+
    23ce:	fc 91       	ld	r31, X
    23d0:	17 97       	sbiw	r26, 0x07	; 7
    23d2:	20 a1       	ldd	r18, Z+32	; 0x20
    23d4:	fa 01       	movw	r30, r20
    23d6:	e8 0f       	add	r30, r24
    23d8:	f9 1f       	adc	r31, r25
    23da:	20 83       	st	Z, r18
	allData->frame_b->frameASCII[i++] = allData->GPS->altitude[1];
    23dc:	52 96       	adiw	r26, 0x12	; 18
    23de:	4d 91       	ld	r20, X+
    23e0:	5c 91       	ld	r21, X
    23e2:	53 97       	sbiw	r26, 0x13	; 19
    23e4:	89 81       	ldd	r24, Y+1	; 0x01
    23e6:	9a 81       	ldd	r25, Y+2	; 0x02
    23e8:	9c 01       	movw	r18, r24
    23ea:	2f 5f       	subi	r18, 0xFF	; 255
    23ec:	3f 4f       	sbci	r19, 0xFF	; 255
    23ee:	29 83       	std	Y+1, r18	; 0x01
    23f0:	3a 83       	std	Y+2, r19	; 0x02
    23f2:	16 96       	adiw	r26, 0x06	; 6
    23f4:	ed 91       	ld	r30, X+
    23f6:	fc 91       	ld	r31, X
    23f8:	17 97       	sbiw	r26, 0x07	; 7
    23fa:	21 a1       	ldd	r18, Z+33	; 0x21
    23fc:	fa 01       	movw	r30, r20
    23fe:	e8 0f       	add	r30, r24
    2400:	f9 1f       	adc	r31, r25
    2402:	20 83       	st	Z, r18
	allData->frame_b->frameASCII[i++] = allData->GPS->altitude[2];
    2404:	52 96       	adiw	r26, 0x12	; 18
    2406:	4d 91       	ld	r20, X+
    2408:	5c 91       	ld	r21, X
    240a:	53 97       	sbiw	r26, 0x13	; 19
    240c:	89 81       	ldd	r24, Y+1	; 0x01
    240e:	9a 81       	ldd	r25, Y+2	; 0x02
    2410:	9c 01       	movw	r18, r24
    2412:	2f 5f       	subi	r18, 0xFF	; 255
    2414:	3f 4f       	sbci	r19, 0xFF	; 255
    2416:	29 83       	std	Y+1, r18	; 0x01
    2418:	3a 83       	std	Y+2, r19	; 0x02
    241a:	16 96       	adiw	r26, 0x06	; 6
    241c:	ed 91       	ld	r30, X+
    241e:	fc 91       	ld	r31, X
    2420:	17 97       	sbiw	r26, 0x07	; 7
    2422:	22 a1       	ldd	r18, Z+34	; 0x22
    2424:	fa 01       	movw	r30, r20
    2426:	e8 0f       	add	r30, r24
    2428:	f9 1f       	adc	r31, r25
    242a:	20 83       	st	Z, r18
	allData->frame_b->frameASCII[i++] = allData->GPS->altitude[3];
    242c:	52 96       	adiw	r26, 0x12	; 18
    242e:	4d 91       	ld	r20, X+
    2430:	5c 91       	ld	r21, X
    2432:	53 97       	sbiw	r26, 0x13	; 19
    2434:	89 81       	ldd	r24, Y+1	; 0x01
    2436:	9a 81       	ldd	r25, Y+2	; 0x02
    2438:	9c 01       	movw	r18, r24
    243a:	2f 5f       	subi	r18, 0xFF	; 255
    243c:	3f 4f       	sbci	r19, 0xFF	; 255
    243e:	29 83       	std	Y+1, r18	; 0x01
    2440:	3a 83       	std	Y+2, r19	; 0x02
    2442:	16 96       	adiw	r26, 0x06	; 6
    2444:	ed 91       	ld	r30, X+
    2446:	fc 91       	ld	r31, X
    2448:	17 97       	sbiw	r26, 0x07	; 7
    244a:	23 a1       	ldd	r18, Z+35	; 0x23
    244c:	fa 01       	movw	r30, r20
    244e:	e8 0f       	add	r30, r24
    2450:	f9 1f       	adc	r31, r25
    2452:	20 83       	st	Z, r18
	allData->frame_b->frameASCII[i++] = allData->GPS->altitude[4];
    2454:	52 96       	adiw	r26, 0x12	; 18
    2456:	4d 91       	ld	r20, X+
    2458:	5c 91       	ld	r21, X
    245a:	53 97       	sbiw	r26, 0x13	; 19
    245c:	89 81       	ldd	r24, Y+1	; 0x01
    245e:	9a 81       	ldd	r25, Y+2	; 0x02
    2460:	9c 01       	movw	r18, r24
    2462:	2f 5f       	subi	r18, 0xFF	; 255
    2464:	3f 4f       	sbci	r19, 0xFF	; 255
    2466:	29 83       	std	Y+1, r18	; 0x01
    2468:	3a 83       	std	Y+2, r19	; 0x02
    246a:	16 96       	adiw	r26, 0x06	; 6
    246c:	ed 91       	ld	r30, X+
    246e:	fc 91       	ld	r31, X
    2470:	17 97       	sbiw	r26, 0x07	; 7
    2472:	24 a1       	ldd	r18, Z+36	; 0x24
    2474:	fa 01       	movw	r30, r20
    2476:	e8 0f       	add	r30, r24
    2478:	f9 1f       	adc	r31, r25
    247a:	20 83       	st	Z, r18
	allData->frame_b->frameASCII[i++] = allData->GPS->altitude[5];
    247c:	52 96       	adiw	r26, 0x12	; 18
    247e:	4d 91       	ld	r20, X+
    2480:	5c 91       	ld	r21, X
    2482:	53 97       	sbiw	r26, 0x13	; 19
    2484:	89 81       	ldd	r24, Y+1	; 0x01
    2486:	9a 81       	ldd	r25, Y+2	; 0x02
    2488:	9c 01       	movw	r18, r24
    248a:	2f 5f       	subi	r18, 0xFF	; 255
    248c:	3f 4f       	sbci	r19, 0xFF	; 255
    248e:	29 83       	std	Y+1, r18	; 0x01
    2490:	3a 83       	std	Y+2, r19	; 0x02
    2492:	16 96       	adiw	r26, 0x06	; 6
    2494:	ed 91       	ld	r30, X+
    2496:	fc 91       	ld	r31, X
    2498:	17 97       	sbiw	r26, 0x07	; 7
    249a:	25 a1       	ldd	r18, Z+37	; 0x25
    249c:	fa 01       	movw	r30, r20
    249e:	e8 0f       	add	r30, r24
    24a0:	f9 1f       	adc	r31, r25
    24a2:	20 83       	st	Z, r18
	allData->frame_b->frameASCII[i++] = allData->GPS->altitude[6];
    24a4:	52 96       	adiw	r26, 0x12	; 18
    24a6:	4d 91       	ld	r20, X+
    24a8:	5c 91       	ld	r21, X
    24aa:	53 97       	sbiw	r26, 0x13	; 19
    24ac:	89 81       	ldd	r24, Y+1	; 0x01
    24ae:	9a 81       	ldd	r25, Y+2	; 0x02
    24b0:	9c 01       	movw	r18, r24
    24b2:	2f 5f       	subi	r18, 0xFF	; 255
    24b4:	3f 4f       	sbci	r19, 0xFF	; 255
    24b6:	29 83       	std	Y+1, r18	; 0x01
    24b8:	3a 83       	std	Y+2, r19	; 0x02
    24ba:	16 96       	adiw	r26, 0x06	; 6
    24bc:	ed 91       	ld	r30, X+
    24be:	fc 91       	ld	r31, X
    24c0:	17 97       	sbiw	r26, 0x07	; 7
    24c2:	26 a1       	ldd	r18, Z+38	; 0x26
    24c4:	fa 01       	movw	r30, r20
    24c6:	e8 0f       	add	r30, r24
    24c8:	f9 1f       	adc	r31, r25
    24ca:	20 83       	st	Z, r18
	allData->frame_b->frameASCII[i++] = allData->GPS->altitude[7];
    24cc:	52 96       	adiw	r26, 0x12	; 18
    24ce:	4d 91       	ld	r20, X+
    24d0:	5c 91       	ld	r21, X
    24d2:	53 97       	sbiw	r26, 0x13	; 19
    24d4:	89 81       	ldd	r24, Y+1	; 0x01
    24d6:	9a 81       	ldd	r25, Y+2	; 0x02
    24d8:	9c 01       	movw	r18, r24
    24da:	2f 5f       	subi	r18, 0xFF	; 255
    24dc:	3f 4f       	sbci	r19, 0xFF	; 255
    24de:	29 83       	std	Y+1, r18	; 0x01
    24e0:	3a 83       	std	Y+2, r19	; 0x02
    24e2:	16 96       	adiw	r26, 0x06	; 6
    24e4:	ed 91       	ld	r30, X+
    24e6:	fc 91       	ld	r31, X
    24e8:	17 97       	sbiw	r26, 0x07	; 7
    24ea:	27 a1       	ldd	r18, Z+39	; 0x27
    24ec:	fa 01       	movw	r30, r20
    24ee:	e8 0f       	add	r30, r24
    24f0:	f9 1f       	adc	r31, r25
    24f2:	20 83       	st	Z, r18
	allData->frame_b->frameASCII[i++] = allData->GPS->altitude[8];
    24f4:	f8 01       	movw	r30, r16
    24f6:	42 89       	ldd	r20, Z+18	; 0x12
    24f8:	53 89       	ldd	r21, Z+19	; 0x13
    24fa:	89 81       	ldd	r24, Y+1	; 0x01
    24fc:	9a 81       	ldd	r25, Y+2	; 0x02
    24fe:	9c 01       	movw	r18, r24
    2500:	2f 5f       	subi	r18, 0xFF	; 255
    2502:	3f 4f       	sbci	r19, 0xFF	; 255
    2504:	29 83       	std	Y+1, r18	; 0x01
    2506:	3a 83       	std	Y+2, r19	; 0x02
    2508:	06 80       	ldd	r0, Z+6	; 0x06
    250a:	f7 81       	ldd	r31, Z+7	; 0x07
    250c:	e0 2d       	mov	r30, r0
    250e:	20 a5       	ldd	r18, Z+40	; 0x28
    2510:	fa 01       	movw	r30, r20
    2512:	e8 0f       	add	r30, r24
    2514:	f9 1f       	adc	r31, r25
    2516:	20 83       	st	Z, r18
	allData->frame_b->frameASCII[i++] = ',';
    2518:	52 96       	adiw	r26, 0x12	; 18
    251a:	2d 91       	ld	r18, X+
    251c:	3c 91       	ld	r19, X
    251e:	53 97       	sbiw	r26, 0x13	; 19
    2520:	89 81       	ldd	r24, Y+1	; 0x01
    2522:	9a 81       	ldd	r25, Y+2	; 0x02
    2524:	ac 01       	movw	r20, r24
    2526:	4f 5f       	subi	r20, 0xFF	; 255
    2528:	5f 4f       	sbci	r21, 0xFF	; 255
    252a:	49 83       	std	Y+1, r20	; 0x01
    252c:	5a 83       	std	Y+2, r21	; 0x02
    252e:	f9 01       	movw	r30, r18
    2530:	e8 0f       	add	r30, r24
    2532:	f9 1f       	adc	r31, r25
    2534:	90 82       	st	Z, r9
	//--------------GPS fix------------------------------
	//allData->frame_b->frameASCII[i++] = 'F';
	allData->frame_b->frameASCII[i++] = allData->GPS->fix+48;
    2536:	52 96       	adiw	r26, 0x12	; 18
    2538:	2d 91       	ld	r18, X+
    253a:	3c 91       	ld	r19, X
    253c:	53 97       	sbiw	r26, 0x13	; 19
    253e:	89 81       	ldd	r24, Y+1	; 0x01
    2540:	9a 81       	ldd	r25, Y+2	; 0x02
    2542:	ac 01       	movw	r20, r24
    2544:	4f 5f       	subi	r20, 0xFF	; 255
    2546:	5f 4f       	sbci	r21, 0xFF	; 255
    2548:	49 83       	std	Y+1, r20	; 0x01
    254a:	5a 83       	std	Y+2, r21	; 0x02
    254c:	d9 01       	movw	r26, r18
    254e:	a8 0f       	add	r26, r24
    2550:	b9 1f       	adc	r27, r25
    2552:	f8 01       	movw	r30, r16
    2554:	86 81       	ldd	r24, Z+6	; 0x06
    2556:	97 81       	ldd	r25, Z+7	; 0x07
    2558:	fc 01       	movw	r30, r24
    255a:	24 a5       	ldd	r18, Z+44	; 0x2c
    255c:	20 5d       	subi	r18, 0xD0	; 208
    255e:	2c 93       	st	X, r18
	allData->frame_b->frameASCII[i++] = ',';
    2560:	d8 01       	movw	r26, r16
    2562:	52 96       	adiw	r26, 0x12	; 18
    2564:	2d 91       	ld	r18, X+
    2566:	3c 91       	ld	r19, X
    2568:	53 97       	sbiw	r26, 0x13	; 19
    256a:	89 81       	ldd	r24, Y+1	; 0x01
    256c:	9a 81       	ldd	r25, Y+2	; 0x02
    256e:	ac 01       	movw	r20, r24
    2570:	4f 5f       	subi	r20, 0xFF	; 255
    2572:	5f 4f       	sbci	r21, 0xFF	; 255
    2574:	49 83       	std	Y+1, r20	; 0x01
    2576:	5a 83       	std	Y+2, r21	; 0x02
    2578:	f9 01       	movw	r30, r18
    257a:	e8 0f       	add	r30, r24
    257c:	f9 1f       	adc	r31, r25
    257e:	90 82       	st	Z, r9
	
	//--------------Checksum----------------------------
	allData->frame_b->frameASCII[i++] = '1';
    2580:	52 96       	adiw	r26, 0x12	; 18
    2582:	2d 91       	ld	r18, X+
    2584:	3c 91       	ld	r19, X
    2586:	53 97       	sbiw	r26, 0x13	; 19
    2588:	89 81       	ldd	r24, Y+1	; 0x01
    258a:	9a 81       	ldd	r25, Y+2	; 0x02
    258c:	ac 01       	movw	r20, r24
    258e:	4f 5f       	subi	r20, 0xFF	; 255
    2590:	5f 4f       	sbci	r21, 0xFF	; 255
    2592:	49 83       	std	Y+1, r20	; 0x01
    2594:	5a 83       	std	Y+2, r21	; 0x02
    2596:	f9 01       	movw	r30, r18
    2598:	e8 0f       	add	r30, r24
    259a:	f9 1f       	adc	r31, r25
    259c:	21 e3       	ldi	r18, 0x31	; 49
    259e:	20 83       	st	Z, r18
	allData->frame_b->frameASCII[i++] = '3';
    25a0:	52 96       	adiw	r26, 0x12	; 18
    25a2:	2d 91       	ld	r18, X+
    25a4:	3c 91       	ld	r19, X
    25a6:	53 97       	sbiw	r26, 0x13	; 19
    25a8:	89 81       	ldd	r24, Y+1	; 0x01
    25aa:	9a 81       	ldd	r25, Y+2	; 0x02
    25ac:	ac 01       	movw	r20, r24
    25ae:	4f 5f       	subi	r20, 0xFF	; 255
    25b0:	5f 4f       	sbci	r21, 0xFF	; 255
    25b2:	49 83       	std	Y+1, r20	; 0x01
    25b4:	5a 83       	std	Y+2, r21	; 0x02
    25b6:	f9 01       	movw	r30, r18
    25b8:	e8 0f       	add	r30, r24
    25ba:	f9 1f       	adc	r31, r25
    25bc:	23 e3       	ldi	r18, 0x33	; 51
    25be:	20 83       	st	Z, r18
	
	//--------------Remote end------------------------------
	allData->frame_b->frameASCII[i++] = ',';
    25c0:	52 96       	adiw	r26, 0x12	; 18
    25c2:	2d 91       	ld	r18, X+
    25c4:	3c 91       	ld	r19, X
    25c6:	53 97       	sbiw	r26, 0x13	; 19
    25c8:	89 81       	ldd	r24, Y+1	; 0x01
    25ca:	9a 81       	ldd	r25, Y+2	; 0x02
    25cc:	ac 01       	movw	r20, r24
    25ce:	4f 5f       	subi	r20, 0xFF	; 255
    25d0:	5f 4f       	sbci	r21, 0xFF	; 255
    25d2:	49 83       	std	Y+1, r20	; 0x01
    25d4:	5a 83       	std	Y+2, r21	; 0x02
    25d6:	f9 01       	movw	r30, r18
    25d8:	e8 0f       	add	r30, r24
    25da:	f9 1f       	adc	r31, r25
    25dc:	90 82       	st	Z, r9
	allData->frame_b->frameASCII[i++] = '%';
    25de:	52 96       	adiw	r26, 0x12	; 18
    25e0:	2d 91       	ld	r18, X+
    25e2:	3c 91       	ld	r19, X
    25e4:	53 97       	sbiw	r26, 0x13	; 19
    25e6:	89 81       	ldd	r24, Y+1	; 0x01
    25e8:	9a 81       	ldd	r25, Y+2	; 0x02
    25ea:	ac 01       	movw	r20, r24
    25ec:	4f 5f       	subi	r20, 0xFF	; 255
    25ee:	5f 4f       	sbci	r21, 0xFF	; 255
    25f0:	49 83       	std	Y+1, r20	; 0x01
    25f2:	5a 83       	std	Y+2, r21	; 0x02
    25f4:	f9 01       	movw	r30, r18
    25f6:	e8 0f       	add	r30, r24
    25f8:	f9 1f       	adc	r31, r25
    25fa:	25 e2       	ldi	r18, 0x25	; 37
    25fc:	20 83       	st	Z, r18
	allData->frame_b->frameASCII[i++] = '#';
    25fe:	52 96       	adiw	r26, 0x12	; 18
    2600:	2d 91       	ld	r18, X+
    2602:	3c 91       	ld	r19, X
    2604:	53 97       	sbiw	r26, 0x13	; 19
    2606:	89 81       	ldd	r24, Y+1	; 0x01
    2608:	9a 81       	ldd	r25, Y+2	; 0x02
    260a:	ac 01       	movw	r20, r24
    260c:	4f 5f       	subi	r20, 0xFF	; 255
    260e:	5f 4f       	sbci	r21, 0xFF	; 255
    2610:	49 83       	std	Y+1, r20	; 0x01
    2612:	5a 83       	std	Y+2, r21	; 0x02
    2614:	f9 01       	movw	r30, r18
    2616:	e8 0f       	add	r30, r24
    2618:	f9 1f       	adc	r31, r25
    261a:	23 e2       	ldi	r18, 0x23	; 35
    261c:	20 83       	st	Z, r18
	allData->frame_b->frameASCII[i++] = ',';
    261e:	52 96       	adiw	r26, 0x12	; 18
    2620:	2d 91       	ld	r18, X+
    2622:	3c 91       	ld	r19, X
    2624:	53 97       	sbiw	r26, 0x13	; 19
    2626:	89 81       	ldd	r24, Y+1	; 0x01
    2628:	9a 81       	ldd	r25, Y+2	; 0x02
    262a:	ac 01       	movw	r20, r24
    262c:	4f 5f       	subi	r20, 0xFF	; 255
    262e:	5f 4f       	sbci	r21, 0xFF	; 255
    2630:	49 83       	std	Y+1, r20	; 0x01
    2632:	5a 83       	std	Y+2, r21	; 0x02
    2634:	f9 01       	movw	r30, r18
    2636:	e8 0f       	add	r30, r24
    2638:	f9 1f       	adc	r31, r25
    263a:	90 82       	st	Z, r9
	
	//Local start
	//---------------Time [s]----------------------------
	tmp_long = allData->RTC->time;
    263c:	56 96       	adiw	r26, 0x16	; 22
    263e:	ed 91       	ld	r30, X+
    2640:	fc 91       	ld	r31, X
    2642:	57 97       	sbiw	r26, 0x17	; 23
    2644:	80 81       	ld	r24, Z
    2646:	91 81       	ldd	r25, Z+1	; 0x01
    2648:	a2 81       	ldd	r26, Z+2	; 0x02
    264a:	b3 81       	ldd	r27, Z+3	; 0x03
    264c:	8f 83       	std	Y+7, r24	; 0x07
    264e:	98 87       	std	Y+8, r25	; 0x08
    2650:	a9 87       	std	Y+9, r26	; 0x09
    2652:	ba 87       	std	Y+10, r27	; 0x0a
	allData->frame_b->frameASCII[i++] = (tmp_long/1000000)%10 + 48;
    2654:	f8 01       	movw	r30, r16
    2656:	a2 88       	ldd	r10, Z+18	; 0x12
    2658:	b3 88       	ldd	r11, Z+19	; 0x13
    265a:	49 81       	ldd	r20, Y+1	; 0x01
    265c:	5a 81       	ldd	r21, Y+2	; 0x02
    265e:	9a 01       	movw	r18, r20
    2660:	2f 5f       	subi	r18, 0xFF	; 255
    2662:	3f 4f       	sbci	r19, 0xFF	; 255
    2664:	29 83       	std	Y+1, r18	; 0x01
    2666:	3a 83       	std	Y+2, r19	; 0x02
    2668:	6f 81       	ldd	r22, Y+7	; 0x07
    266a:	78 85       	ldd	r23, Y+8	; 0x08
    266c:	89 85       	ldd	r24, Y+9	; 0x09
    266e:	9a 85       	ldd	r25, Y+10	; 0x0a
    2670:	a4 0e       	add	r10, r20
    2672:	b5 1e       	adc	r11, r21
    2674:	20 e4       	ldi	r18, 0x40	; 64
    2676:	32 e4       	ldi	r19, 0x42	; 66
    2678:	4f e0       	ldi	r20, 0x0F	; 15
    267a:	50 e0       	ldi	r21, 0x00	; 0
    267c:	0e 94 ff 1d 	call	0x3bfe	; 0x3bfe <__udivmodsi4>
    2680:	0f 2e       	mov	r0, r31
    2682:	fa e0       	ldi	r31, 0x0A	; 10
    2684:	cf 2e       	mov	r12, r31
    2686:	d1 2c       	mov	r13, r1
    2688:	e1 2c       	mov	r14, r1
    268a:	f1 2c       	mov	r15, r1
    268c:	f0 2d       	mov	r31, r0
    268e:	ca 01       	movw	r24, r20
    2690:	b9 01       	movw	r22, r18
    2692:	a7 01       	movw	r20, r14
    2694:	96 01       	movw	r18, r12
    2696:	0e 94 ff 1d 	call	0x3bfe	; 0x3bfe <__udivmodsi4>
    269a:	60 5d       	subi	r22, 0xD0	; 208
    269c:	d5 01       	movw	r26, r10
    269e:	6c 93       	st	X, r22
	allData->frame_b->frameASCII[i++] = (tmp_long/100000)%10 + 48;
    26a0:	f8 01       	movw	r30, r16
    26a2:	a2 88       	ldd	r10, Z+18	; 0x12
    26a4:	b3 88       	ldd	r11, Z+19	; 0x13
    26a6:	49 81       	ldd	r20, Y+1	; 0x01
    26a8:	5a 81       	ldd	r21, Y+2	; 0x02
    26aa:	9a 01       	movw	r18, r20
    26ac:	2f 5f       	subi	r18, 0xFF	; 255
    26ae:	3f 4f       	sbci	r19, 0xFF	; 255
    26b0:	29 83       	std	Y+1, r18	; 0x01
    26b2:	3a 83       	std	Y+2, r19	; 0x02
    26b4:	6f 81       	ldd	r22, Y+7	; 0x07
    26b6:	78 85       	ldd	r23, Y+8	; 0x08
    26b8:	89 85       	ldd	r24, Y+9	; 0x09
    26ba:	9a 85       	ldd	r25, Y+10	; 0x0a
    26bc:	a4 0e       	add	r10, r20
    26be:	b5 1e       	adc	r11, r21
    26c0:	20 ea       	ldi	r18, 0xA0	; 160
    26c2:	36 e8       	ldi	r19, 0x86	; 134
    26c4:	41 e0       	ldi	r20, 0x01	; 1
    26c6:	50 e0       	ldi	r21, 0x00	; 0
    26c8:	0e 94 ff 1d 	call	0x3bfe	; 0x3bfe <__udivmodsi4>
    26cc:	ca 01       	movw	r24, r20
    26ce:	b9 01       	movw	r22, r18
    26d0:	a7 01       	movw	r20, r14
    26d2:	96 01       	movw	r18, r12
    26d4:	0e 94 ff 1d 	call	0x3bfe	; 0x3bfe <__udivmodsi4>
    26d8:	60 5d       	subi	r22, 0xD0	; 208
    26da:	d5 01       	movw	r26, r10
    26dc:	6c 93       	st	X, r22
	allData->frame_b->frameASCII[i++] = (tmp_long/10000)%10 + 48;
    26de:	f8 01       	movw	r30, r16
    26e0:	a2 88       	ldd	r10, Z+18	; 0x12
    26e2:	b3 88       	ldd	r11, Z+19	; 0x13
    26e4:	49 81       	ldd	r20, Y+1	; 0x01
    26e6:	5a 81       	ldd	r21, Y+2	; 0x02
    26e8:	9a 01       	movw	r18, r20
    26ea:	2f 5f       	subi	r18, 0xFF	; 255
    26ec:	3f 4f       	sbci	r19, 0xFF	; 255
    26ee:	29 83       	std	Y+1, r18	; 0x01
    26f0:	3a 83       	std	Y+2, r19	; 0x02
    26f2:	6f 81       	ldd	r22, Y+7	; 0x07
    26f4:	78 85       	ldd	r23, Y+8	; 0x08
    26f6:	89 85       	ldd	r24, Y+9	; 0x09
    26f8:	9a 85       	ldd	r25, Y+10	; 0x0a
    26fa:	a4 0e       	add	r10, r20
    26fc:	b5 1e       	adc	r11, r21
    26fe:	20 e1       	ldi	r18, 0x10	; 16
    2700:	37 e2       	ldi	r19, 0x27	; 39
    2702:	40 e0       	ldi	r20, 0x00	; 0
    2704:	50 e0       	ldi	r21, 0x00	; 0
    2706:	0e 94 ff 1d 	call	0x3bfe	; 0x3bfe <__udivmodsi4>
    270a:	ca 01       	movw	r24, r20
    270c:	b9 01       	movw	r22, r18
    270e:	a7 01       	movw	r20, r14
    2710:	96 01       	movw	r18, r12
    2712:	0e 94 ff 1d 	call	0x3bfe	; 0x3bfe <__udivmodsi4>
    2716:	60 5d       	subi	r22, 0xD0	; 208
    2718:	d5 01       	movw	r26, r10
    271a:	6c 93       	st	X, r22
	allData->frame_b->frameASCII[i++] = (tmp_long/1000)%10 + 48;
    271c:	f8 01       	movw	r30, r16
    271e:	a2 88       	ldd	r10, Z+18	; 0x12
    2720:	b3 88       	ldd	r11, Z+19	; 0x13
    2722:	49 81       	ldd	r20, Y+1	; 0x01
    2724:	5a 81       	ldd	r21, Y+2	; 0x02
    2726:	9a 01       	movw	r18, r20
    2728:	2f 5f       	subi	r18, 0xFF	; 255
    272a:	3f 4f       	sbci	r19, 0xFF	; 255
    272c:	29 83       	std	Y+1, r18	; 0x01
    272e:	3a 83       	std	Y+2, r19	; 0x02
    2730:	6f 81       	ldd	r22, Y+7	; 0x07
    2732:	78 85       	ldd	r23, Y+8	; 0x08
    2734:	89 85       	ldd	r24, Y+9	; 0x09
    2736:	9a 85       	ldd	r25, Y+10	; 0x0a
    2738:	a4 0e       	add	r10, r20
    273a:	b5 1e       	adc	r11, r21
    273c:	28 ee       	ldi	r18, 0xE8	; 232
    273e:	33 e0       	ldi	r19, 0x03	; 3
    2740:	40 e0       	ldi	r20, 0x00	; 0
    2742:	50 e0       	ldi	r21, 0x00	; 0
    2744:	0e 94 ff 1d 	call	0x3bfe	; 0x3bfe <__udivmodsi4>
    2748:	ca 01       	movw	r24, r20
    274a:	b9 01       	movw	r22, r18
    274c:	a7 01       	movw	r20, r14
    274e:	96 01       	movw	r18, r12
    2750:	0e 94 ff 1d 	call	0x3bfe	; 0x3bfe <__udivmodsi4>
    2754:	60 5d       	subi	r22, 0xD0	; 208
    2756:	d5 01       	movw	r26, r10
    2758:	6c 93       	st	X, r22
	allData->frame_b->frameASCII[i++] = (tmp_long/100)%10 + 48;
    275a:	f8 01       	movw	r30, r16
    275c:	a2 88       	ldd	r10, Z+18	; 0x12
    275e:	b3 88       	ldd	r11, Z+19	; 0x13
    2760:	49 81       	ldd	r20, Y+1	; 0x01
    2762:	5a 81       	ldd	r21, Y+2	; 0x02
    2764:	9a 01       	movw	r18, r20
    2766:	2f 5f       	subi	r18, 0xFF	; 255
    2768:	3f 4f       	sbci	r19, 0xFF	; 255
    276a:	29 83       	std	Y+1, r18	; 0x01
    276c:	3a 83       	std	Y+2, r19	; 0x02
    276e:	6f 81       	ldd	r22, Y+7	; 0x07
    2770:	78 85       	ldd	r23, Y+8	; 0x08
    2772:	89 85       	ldd	r24, Y+9	; 0x09
    2774:	9a 85       	ldd	r25, Y+10	; 0x0a
    2776:	a4 0e       	add	r10, r20
    2778:	b5 1e       	adc	r11, r21
    277a:	0f 2e       	mov	r0, r31
    277c:	f4 e6       	ldi	r31, 0x64	; 100
    277e:	4f 2e       	mov	r4, r31
    2780:	51 2c       	mov	r5, r1
    2782:	61 2c       	mov	r6, r1
    2784:	71 2c       	mov	r7, r1
    2786:	f0 2d       	mov	r31, r0
    2788:	a3 01       	movw	r20, r6
    278a:	92 01       	movw	r18, r4
    278c:	0e 94 ff 1d 	call	0x3bfe	; 0x3bfe <__udivmodsi4>
    2790:	ca 01       	movw	r24, r20
    2792:	b9 01       	movw	r22, r18
    2794:	a7 01       	movw	r20, r14
    2796:	96 01       	movw	r18, r12
    2798:	0e 94 ff 1d 	call	0x3bfe	; 0x3bfe <__udivmodsi4>
    279c:	60 5d       	subi	r22, 0xD0	; 208
    279e:	d5 01       	movw	r26, r10
    27a0:	6c 93       	st	X, r22
	allData->frame_b->frameASCII[i++] = (tmp_long/10)%10 + 48;
    27a2:	f8 01       	movw	r30, r16
    27a4:	a2 88       	ldd	r10, Z+18	; 0x12
    27a6:	b3 88       	ldd	r11, Z+19	; 0x13
    27a8:	49 81       	ldd	r20, Y+1	; 0x01
    27aa:	5a 81       	ldd	r21, Y+2	; 0x02
    27ac:	9a 01       	movw	r18, r20
    27ae:	2f 5f       	subi	r18, 0xFF	; 255
    27b0:	3f 4f       	sbci	r19, 0xFF	; 255
    27b2:	29 83       	std	Y+1, r18	; 0x01
    27b4:	3a 83       	std	Y+2, r19	; 0x02
    27b6:	6f 81       	ldd	r22, Y+7	; 0x07
    27b8:	78 85       	ldd	r23, Y+8	; 0x08
    27ba:	89 85       	ldd	r24, Y+9	; 0x09
    27bc:	9a 85       	ldd	r25, Y+10	; 0x0a
    27be:	a4 0e       	add	r10, r20
    27c0:	b5 1e       	adc	r11, r21
    27c2:	a7 01       	movw	r20, r14
    27c4:	96 01       	movw	r18, r12
    27c6:	0e 94 ff 1d 	call	0x3bfe	; 0x3bfe <__udivmodsi4>
    27ca:	ca 01       	movw	r24, r20
    27cc:	b9 01       	movw	r22, r18
    27ce:	a7 01       	movw	r20, r14
    27d0:	96 01       	movw	r18, r12
    27d2:	0e 94 ff 1d 	call	0x3bfe	; 0x3bfe <__udivmodsi4>
    27d6:	60 5d       	subi	r22, 0xD0	; 208
    27d8:	d5 01       	movw	r26, r10
    27da:	6c 93       	st	X, r22
	allData->frame_b->frameASCII[i++] = (tmp_long)%10 + 48;
    27dc:	f8 01       	movw	r30, r16
    27de:	a2 88       	ldd	r10, Z+18	; 0x12
    27e0:	b3 88       	ldd	r11, Z+19	; 0x13
    27e2:	49 81       	ldd	r20, Y+1	; 0x01
    27e4:	5a 81       	ldd	r21, Y+2	; 0x02
    27e6:	9a 01       	movw	r18, r20
    27e8:	2f 5f       	subi	r18, 0xFF	; 255
    27ea:	3f 4f       	sbci	r19, 0xFF	; 255
    27ec:	29 83       	std	Y+1, r18	; 0x01
    27ee:	3a 83       	std	Y+2, r19	; 0x02
    27f0:	6f 81       	ldd	r22, Y+7	; 0x07
    27f2:	78 85       	ldd	r23, Y+8	; 0x08
    27f4:	89 85       	ldd	r24, Y+9	; 0x09
    27f6:	9a 85       	ldd	r25, Y+10	; 0x0a
    27f8:	a4 0e       	add	r10, r20
    27fa:	b5 1e       	adc	r11, r21
    27fc:	a7 01       	movw	r20, r14
    27fe:	96 01       	movw	r18, r12
    2800:	0e 94 ff 1d 	call	0x3bfe	; 0x3bfe <__udivmodsi4>
    2804:	60 5d       	subi	r22, 0xD0	; 208
    2806:	d5 01       	movw	r26, r10
    2808:	6c 93       	st	X, r22
	allData->frame_b->frameASCII[i++] = ',';
    280a:	f8 01       	movw	r30, r16
    280c:	22 89       	ldd	r18, Z+18	; 0x12
    280e:	33 89       	ldd	r19, Z+19	; 0x13
    2810:	89 81       	ldd	r24, Y+1	; 0x01
    2812:	9a 81       	ldd	r25, Y+2	; 0x02
    2814:	ac 01       	movw	r20, r24
    2816:	4f 5f       	subi	r20, 0xFF	; 255
    2818:	5f 4f       	sbci	r21, 0xFF	; 255
    281a:	49 83       	std	Y+1, r20	; 0x01
    281c:	5a 83       	std	Y+2, r21	; 0x02
    281e:	f9 01       	movw	r30, r18
    2820:	e8 0f       	add	r30, r24
    2822:	f9 1f       	adc	r31, r25
    2824:	90 82       	st	Z, r9
	//---------------FLASH packet count---------------------------
	tmp_long = allData->RTC->frameFlashCount;
    2826:	d8 01       	movw	r26, r16
    2828:	56 96       	adiw	r26, 0x16	; 22
    282a:	ed 91       	ld	r30, X+
    282c:	fc 91       	ld	r31, X
    282e:	57 97       	sbiw	r26, 0x17	; 23
    2830:	80 85       	ldd	r24, Z+8	; 0x08
    2832:	91 85       	ldd	r25, Z+9	; 0x09
    2834:	a2 85       	ldd	r26, Z+10	; 0x0a
    2836:	b3 85       	ldd	r27, Z+11	; 0x0b
    2838:	8f 83       	std	Y+7, r24	; 0x07
    283a:	98 87       	std	Y+8, r25	; 0x08
    283c:	a9 87       	std	Y+9, r26	; 0x09
    283e:	ba 87       	std	Y+10, r27	; 0x0a
	allData->frame_b->frameASCII[i++] = (tmp_long/1000000)%10 + 48;
    2840:	f8 01       	movw	r30, r16
    2842:	a2 88       	ldd	r10, Z+18	; 0x12
    2844:	b3 88       	ldd	r11, Z+19	; 0x13
    2846:	49 81       	ldd	r20, Y+1	; 0x01
    2848:	5a 81       	ldd	r21, Y+2	; 0x02
    284a:	9a 01       	movw	r18, r20
    284c:	2f 5f       	subi	r18, 0xFF	; 255
    284e:	3f 4f       	sbci	r19, 0xFF	; 255
    2850:	29 83       	std	Y+1, r18	; 0x01
    2852:	3a 83       	std	Y+2, r19	; 0x02
    2854:	6f 81       	ldd	r22, Y+7	; 0x07
    2856:	78 85       	ldd	r23, Y+8	; 0x08
    2858:	89 85       	ldd	r24, Y+9	; 0x09
    285a:	9a 85       	ldd	r25, Y+10	; 0x0a
    285c:	a4 0e       	add	r10, r20
    285e:	b5 1e       	adc	r11, r21
    2860:	20 e4       	ldi	r18, 0x40	; 64
    2862:	32 e4       	ldi	r19, 0x42	; 66
    2864:	4f e0       	ldi	r20, 0x0F	; 15
    2866:	50 e0       	ldi	r21, 0x00	; 0
    2868:	0e 94 ff 1d 	call	0x3bfe	; 0x3bfe <__udivmodsi4>
    286c:	ca 01       	movw	r24, r20
    286e:	b9 01       	movw	r22, r18
    2870:	a7 01       	movw	r20, r14
    2872:	96 01       	movw	r18, r12
    2874:	0e 94 ff 1d 	call	0x3bfe	; 0x3bfe <__udivmodsi4>
    2878:	60 5d       	subi	r22, 0xD0	; 208
    287a:	d5 01       	movw	r26, r10
    287c:	6c 93       	st	X, r22
	allData->frame_b->frameASCII[i++] = (tmp_long/100000)%10 + 48;
    287e:	f8 01       	movw	r30, r16
    2880:	a2 88       	ldd	r10, Z+18	; 0x12
    2882:	b3 88       	ldd	r11, Z+19	; 0x13
    2884:	49 81       	ldd	r20, Y+1	; 0x01
    2886:	5a 81       	ldd	r21, Y+2	; 0x02
    2888:	9a 01       	movw	r18, r20
    288a:	2f 5f       	subi	r18, 0xFF	; 255
    288c:	3f 4f       	sbci	r19, 0xFF	; 255
    288e:	29 83       	std	Y+1, r18	; 0x01
    2890:	3a 83       	std	Y+2, r19	; 0x02
    2892:	6f 81       	ldd	r22, Y+7	; 0x07
    2894:	78 85       	ldd	r23, Y+8	; 0x08
    2896:	89 85       	ldd	r24, Y+9	; 0x09
    2898:	9a 85       	ldd	r25, Y+10	; 0x0a
    289a:	a4 0e       	add	r10, r20
    289c:	b5 1e       	adc	r11, r21
    289e:	20 ea       	ldi	r18, 0xA0	; 160
    28a0:	36 e8       	ldi	r19, 0x86	; 134
    28a2:	41 e0       	ldi	r20, 0x01	; 1
    28a4:	50 e0       	ldi	r21, 0x00	; 0
    28a6:	0e 94 ff 1d 	call	0x3bfe	; 0x3bfe <__udivmodsi4>
    28aa:	ca 01       	movw	r24, r20
    28ac:	b9 01       	movw	r22, r18
    28ae:	a7 01       	movw	r20, r14
    28b0:	96 01       	movw	r18, r12
    28b2:	0e 94 ff 1d 	call	0x3bfe	; 0x3bfe <__udivmodsi4>
    28b6:	60 5d       	subi	r22, 0xD0	; 208
    28b8:	d5 01       	movw	r26, r10
    28ba:	6c 93       	st	X, r22
	allData->frame_b->frameASCII[i++] = (tmp_long/10000)%10 + 48;
    28bc:	f8 01       	movw	r30, r16
    28be:	a2 88       	ldd	r10, Z+18	; 0x12
    28c0:	b3 88       	ldd	r11, Z+19	; 0x13
    28c2:	49 81       	ldd	r20, Y+1	; 0x01
    28c4:	5a 81       	ldd	r21, Y+2	; 0x02
    28c6:	9a 01       	movw	r18, r20
    28c8:	2f 5f       	subi	r18, 0xFF	; 255
    28ca:	3f 4f       	sbci	r19, 0xFF	; 255
    28cc:	29 83       	std	Y+1, r18	; 0x01
    28ce:	3a 83       	std	Y+2, r19	; 0x02
    28d0:	6f 81       	ldd	r22, Y+7	; 0x07
    28d2:	78 85       	ldd	r23, Y+8	; 0x08
    28d4:	89 85       	ldd	r24, Y+9	; 0x09
    28d6:	9a 85       	ldd	r25, Y+10	; 0x0a
    28d8:	a4 0e       	add	r10, r20
    28da:	b5 1e       	adc	r11, r21
    28dc:	20 e1       	ldi	r18, 0x10	; 16
    28de:	37 e2       	ldi	r19, 0x27	; 39
    28e0:	40 e0       	ldi	r20, 0x00	; 0
    28e2:	50 e0       	ldi	r21, 0x00	; 0
    28e4:	0e 94 ff 1d 	call	0x3bfe	; 0x3bfe <__udivmodsi4>
    28e8:	ca 01       	movw	r24, r20
    28ea:	b9 01       	movw	r22, r18
    28ec:	a7 01       	movw	r20, r14
    28ee:	96 01       	movw	r18, r12
    28f0:	0e 94 ff 1d 	call	0x3bfe	; 0x3bfe <__udivmodsi4>
    28f4:	60 5d       	subi	r22, 0xD0	; 208
    28f6:	d5 01       	movw	r26, r10
    28f8:	6c 93       	st	X, r22
	allData->frame_b->frameASCII[i++] = (tmp_long/1000)%10 + 48;
    28fa:	f8 01       	movw	r30, r16
    28fc:	a2 88       	ldd	r10, Z+18	; 0x12
    28fe:	b3 88       	ldd	r11, Z+19	; 0x13
    2900:	49 81       	ldd	r20, Y+1	; 0x01
    2902:	5a 81       	ldd	r21, Y+2	; 0x02
    2904:	9a 01       	movw	r18, r20
    2906:	2f 5f       	subi	r18, 0xFF	; 255
    2908:	3f 4f       	sbci	r19, 0xFF	; 255
    290a:	29 83       	std	Y+1, r18	; 0x01
    290c:	3a 83       	std	Y+2, r19	; 0x02
    290e:	6f 81       	ldd	r22, Y+7	; 0x07
    2910:	78 85       	ldd	r23, Y+8	; 0x08
    2912:	89 85       	ldd	r24, Y+9	; 0x09
    2914:	9a 85       	ldd	r25, Y+10	; 0x0a
    2916:	a4 0e       	add	r10, r20
    2918:	b5 1e       	adc	r11, r21
    291a:	28 ee       	ldi	r18, 0xE8	; 232
    291c:	33 e0       	ldi	r19, 0x03	; 3
    291e:	40 e0       	ldi	r20, 0x00	; 0
    2920:	50 e0       	ldi	r21, 0x00	; 0
    2922:	0e 94 ff 1d 	call	0x3bfe	; 0x3bfe <__udivmodsi4>
    2926:	ca 01       	movw	r24, r20
    2928:	b9 01       	movw	r22, r18
    292a:	a7 01       	movw	r20, r14
    292c:	96 01       	movw	r18, r12
    292e:	0e 94 ff 1d 	call	0x3bfe	; 0x3bfe <__udivmodsi4>
    2932:	60 5d       	subi	r22, 0xD0	; 208
    2934:	d5 01       	movw	r26, r10
    2936:	6c 93       	st	X, r22
	allData->frame_b->frameASCII[i++] = (tmp_long/100)%10 + 48;
    2938:	f8 01       	movw	r30, r16
    293a:	a2 88       	ldd	r10, Z+18	; 0x12
    293c:	b3 88       	ldd	r11, Z+19	; 0x13
    293e:	49 81       	ldd	r20, Y+1	; 0x01
    2940:	5a 81       	ldd	r21, Y+2	; 0x02
    2942:	9a 01       	movw	r18, r20
    2944:	2f 5f       	subi	r18, 0xFF	; 255
    2946:	3f 4f       	sbci	r19, 0xFF	; 255
    2948:	29 83       	std	Y+1, r18	; 0x01
    294a:	3a 83       	std	Y+2, r19	; 0x02
    294c:	6f 81       	ldd	r22, Y+7	; 0x07
    294e:	78 85       	ldd	r23, Y+8	; 0x08
    2950:	89 85       	ldd	r24, Y+9	; 0x09
    2952:	9a 85       	ldd	r25, Y+10	; 0x0a
    2954:	a4 0e       	add	r10, r20
    2956:	b5 1e       	adc	r11, r21
    2958:	a3 01       	movw	r20, r6
    295a:	92 01       	movw	r18, r4
    295c:	0e 94 ff 1d 	call	0x3bfe	; 0x3bfe <__udivmodsi4>
    2960:	ca 01       	movw	r24, r20
    2962:	b9 01       	movw	r22, r18
    2964:	a7 01       	movw	r20, r14
    2966:	96 01       	movw	r18, r12
    2968:	0e 94 ff 1d 	call	0x3bfe	; 0x3bfe <__udivmodsi4>
    296c:	60 5d       	subi	r22, 0xD0	; 208
    296e:	d5 01       	movw	r26, r10
    2970:	6c 93       	st	X, r22
	allData->frame_b->frameASCII[i++] = (tmp_long/10)%10 + 48;
    2972:	f8 01       	movw	r30, r16
    2974:	a2 88       	ldd	r10, Z+18	; 0x12
    2976:	b3 88       	ldd	r11, Z+19	; 0x13
    2978:	49 81       	ldd	r20, Y+1	; 0x01
    297a:	5a 81       	ldd	r21, Y+2	; 0x02
    297c:	9a 01       	movw	r18, r20
    297e:	2f 5f       	subi	r18, 0xFF	; 255
    2980:	3f 4f       	sbci	r19, 0xFF	; 255
    2982:	29 83       	std	Y+1, r18	; 0x01
    2984:	3a 83       	std	Y+2, r19	; 0x02
    2986:	6f 81       	ldd	r22, Y+7	; 0x07
    2988:	78 85       	ldd	r23, Y+8	; 0x08
    298a:	89 85       	ldd	r24, Y+9	; 0x09
    298c:	9a 85       	ldd	r25, Y+10	; 0x0a
    298e:	a4 0e       	add	r10, r20
    2990:	b5 1e       	adc	r11, r21
    2992:	a7 01       	movw	r20, r14
    2994:	96 01       	movw	r18, r12
    2996:	0e 94 ff 1d 	call	0x3bfe	; 0x3bfe <__udivmodsi4>
    299a:	ca 01       	movw	r24, r20
    299c:	b9 01       	movw	r22, r18
    299e:	a7 01       	movw	r20, r14
    29a0:	96 01       	movw	r18, r12
    29a2:	0e 94 ff 1d 	call	0x3bfe	; 0x3bfe <__udivmodsi4>
    29a6:	60 5d       	subi	r22, 0xD0	; 208
    29a8:	d5 01       	movw	r26, r10
    29aa:	6c 93       	st	X, r22
	allData->frame_b->frameASCII[i++] = (tmp_long)%10 + 48;
    29ac:	f8 01       	movw	r30, r16
    29ae:	a2 88       	ldd	r10, Z+18	; 0x12
    29b0:	b3 88       	ldd	r11, Z+19	; 0x13
    29b2:	49 81       	ldd	r20, Y+1	; 0x01
    29b4:	5a 81       	ldd	r21, Y+2	; 0x02
    29b6:	9a 01       	movw	r18, r20
    29b8:	2f 5f       	subi	r18, 0xFF	; 255
    29ba:	3f 4f       	sbci	r19, 0xFF	; 255
    29bc:	29 83       	std	Y+1, r18	; 0x01
    29be:	3a 83       	std	Y+2, r19	; 0x02
    29c0:	6f 81       	ldd	r22, Y+7	; 0x07
    29c2:	78 85       	ldd	r23, Y+8	; 0x08
    29c4:	89 85       	ldd	r24, Y+9	; 0x09
    29c6:	9a 85       	ldd	r25, Y+10	; 0x0a
    29c8:	a4 0e       	add	r10, r20
    29ca:	b5 1e       	adc	r11, r21
    29cc:	a7 01       	movw	r20, r14
    29ce:	96 01       	movw	r18, r12
    29d0:	0e 94 ff 1d 	call	0x3bfe	; 0x3bfe <__udivmodsi4>
    29d4:	60 5d       	subi	r22, 0xD0	; 208
    29d6:	d5 01       	movw	r26, r10
    29d8:	6c 93       	st	X, r22
	allData->frame_b->frameASCII[i++] = ',';
    29da:	f8 01       	movw	r30, r16
    29dc:	22 89       	ldd	r18, Z+18	; 0x12
    29de:	33 89       	ldd	r19, Z+19	; 0x13
    29e0:	89 81       	ldd	r24, Y+1	; 0x01
    29e2:	9a 81       	ldd	r25, Y+2	; 0x02
    29e4:	ac 01       	movw	r20, r24
    29e6:	4f 5f       	subi	r20, 0xFF	; 255
    29e8:	5f 4f       	sbci	r21, 0xFF	; 255
    29ea:	49 83       	std	Y+1, r20	; 0x01
    29ec:	5a 83       	std	Y+2, r21	; 0x02
    29ee:	f9 01       	movw	r30, r18
    29f0:	e8 0f       	add	r30, r24
    29f2:	f9 1f       	adc	r31, r25
    29f4:	90 82       	st	Z, r9
	//-------------VCC voltage----------------------
	tmp = (int16_t)(allData->Analog->Vcc*1000);
    29f6:	d8 01       	movw	r26, r16
    29f8:	18 96       	adiw	r26, 0x08	; 8
    29fa:	ed 91       	ld	r30, X+
    29fc:	fc 91       	ld	r31, X
    29fe:	19 97       	sbiw	r26, 0x09	; 9
    2a00:	20 e0       	ldi	r18, 0x00	; 0
    2a02:	30 e0       	ldi	r19, 0x00	; 0
    2a04:	4a e7       	ldi	r20, 0x7A	; 122
    2a06:	54 e4       	ldi	r21, 0x44	; 68
    2a08:	64 8d       	ldd	r22, Z+28	; 0x1c
    2a0a:	75 8d       	ldd	r23, Z+29	; 0x1d
    2a0c:	86 8d       	ldd	r24, Z+30	; 0x1e
    2a0e:	97 8d       	ldd	r25, Z+31	; 0x1f
    2a10:	0e 94 42 1d 	call	0x3a84	; 0x3a84 <__mulsf3>
    2a14:	50 d7       	rcall	.+3744   	; 0x38b6 <__fixsfsi>
    2a16:	6b 83       	std	Y+3, r22	; 0x03
    2a18:	7c 83       	std	Y+4, r23	; 0x04
	allData->frame_b->frameASCII[i++] = (tmp/1000)%10 + 48;
    2a1a:	d8 01       	movw	r26, r16
    2a1c:	52 96       	adiw	r26, 0x12	; 18
    2a1e:	ed 91       	ld	r30, X+
    2a20:	fc 91       	ld	r31, X
    2a22:	53 97       	sbiw	r26, 0x13	; 19
    2a24:	29 81       	ldd	r18, Y+1	; 0x01
    2a26:	3a 81       	ldd	r19, Y+2	; 0x02
    2a28:	c9 01       	movw	r24, r18
    2a2a:	01 96       	adiw	r24, 0x01	; 1
    2a2c:	89 83       	std	Y+1, r24	; 0x01
    2a2e:	9a 83       	std	Y+2, r25	; 0x02
    2a30:	8b 81       	ldd	r24, Y+3	; 0x03
    2a32:	9c 81       	ldd	r25, Y+4	; 0x04
    2a34:	e2 0f       	add	r30, r18
    2a36:	f3 1f       	adc	r31, r19
    2a38:	68 ee       	ldi	r22, 0xE8	; 232
    2a3a:	73 e0       	ldi	r23, 0x03	; 3
    2a3c:	0e 94 ec 1d 	call	0x3bd8	; 0x3bd8 <__divmodhi4>
    2a40:	cb 01       	movw	r24, r22
    2a42:	b1 01       	movw	r22, r2
    2a44:	0e 94 ec 1d 	call	0x3bd8	; 0x3bd8 <__divmodhi4>
    2a48:	80 5d       	subi	r24, 0xD0	; 208
    2a4a:	80 83       	st	Z, r24
	allData->frame_b->frameASCII[i++] = '.';
    2a4c:	f8 01       	movw	r30, r16
    2a4e:	22 89       	ldd	r18, Z+18	; 0x12
    2a50:	33 89       	ldd	r19, Z+19	; 0x13
    2a52:	89 81       	ldd	r24, Y+1	; 0x01
    2a54:	9a 81       	ldd	r25, Y+2	; 0x02
    2a56:	ac 01       	movw	r20, r24
    2a58:	4f 5f       	subi	r20, 0xFF	; 255
    2a5a:	5f 4f       	sbci	r21, 0xFF	; 255
    2a5c:	49 83       	std	Y+1, r20	; 0x01
    2a5e:	5a 83       	std	Y+2, r21	; 0x02
    2a60:	f9 01       	movw	r30, r18
    2a62:	e8 0f       	add	r30, r24
    2a64:	f9 1f       	adc	r31, r25
    2a66:	80 82       	st	Z, r8
	allData->frame_b->frameASCII[i++] = (tmp/100)%10 + 48;
    2a68:	d8 01       	movw	r26, r16
    2a6a:	52 96       	adiw	r26, 0x12	; 18
    2a6c:	4d 91       	ld	r20, X+
    2a6e:	5c 91       	ld	r21, X
    2a70:	53 97       	sbiw	r26, 0x13	; 19
    2a72:	29 81       	ldd	r18, Y+1	; 0x01
    2a74:	3a 81       	ldd	r19, Y+2	; 0x02
    2a76:	c9 01       	movw	r24, r18
    2a78:	01 96       	adiw	r24, 0x01	; 1
    2a7a:	89 83       	std	Y+1, r24	; 0x01
    2a7c:	9a 83       	std	Y+2, r25	; 0x02
    2a7e:	8b 81       	ldd	r24, Y+3	; 0x03
    2a80:	9c 81       	ldd	r25, Y+4	; 0x04
    2a82:	fa 01       	movw	r30, r20
    2a84:	e2 0f       	add	r30, r18
    2a86:	f3 1f       	adc	r31, r19
    2a88:	64 e6       	ldi	r22, 0x64	; 100
    2a8a:	70 e0       	ldi	r23, 0x00	; 0
    2a8c:	0e 94 ec 1d 	call	0x3bd8	; 0x3bd8 <__divmodhi4>
    2a90:	cb 01       	movw	r24, r22
    2a92:	b1 01       	movw	r22, r2
    2a94:	0e 94 ec 1d 	call	0x3bd8	; 0x3bd8 <__divmodhi4>
    2a98:	80 5d       	subi	r24, 0xD0	; 208
    2a9a:	80 83       	st	Z, r24
	allData->frame_b->frameASCII[i++] = (tmp/10)%10 + 48;
    2a9c:	f8 01       	movw	r30, r16
    2a9e:	42 89       	ldd	r20, Z+18	; 0x12
    2aa0:	53 89       	ldd	r21, Z+19	; 0x13
    2aa2:	29 81       	ldd	r18, Y+1	; 0x01
    2aa4:	3a 81       	ldd	r19, Y+2	; 0x02
    2aa6:	c9 01       	movw	r24, r18
    2aa8:	01 96       	adiw	r24, 0x01	; 1
    2aaa:	89 83       	std	Y+1, r24	; 0x01
    2aac:	9a 83       	std	Y+2, r25	; 0x02
    2aae:	8b 81       	ldd	r24, Y+3	; 0x03
    2ab0:	9c 81       	ldd	r25, Y+4	; 0x04
    2ab2:	fa 01       	movw	r30, r20
    2ab4:	e2 0f       	add	r30, r18
    2ab6:	f3 1f       	adc	r31, r19
    2ab8:	b1 01       	movw	r22, r2
    2aba:	0e 94 ec 1d 	call	0x3bd8	; 0x3bd8 <__divmodhi4>
    2abe:	cb 01       	movw	r24, r22
    2ac0:	b1 01       	movw	r22, r2
    2ac2:	0e 94 ec 1d 	call	0x3bd8	; 0x3bd8 <__divmodhi4>
    2ac6:	80 5d       	subi	r24, 0xD0	; 208
    2ac8:	80 83       	st	Z, r24
	allData->frame_b->frameASCII[i++] = (tmp)%10 + 48;
    2aca:	d8 01       	movw	r26, r16
    2acc:	52 96       	adiw	r26, 0x12	; 18
    2ace:	4d 91       	ld	r20, X+
    2ad0:	5c 91       	ld	r21, X
    2ad2:	53 97       	sbiw	r26, 0x13	; 19
    2ad4:	29 81       	ldd	r18, Y+1	; 0x01
    2ad6:	3a 81       	ldd	r19, Y+2	; 0x02
    2ad8:	c9 01       	movw	r24, r18
    2ada:	01 96       	adiw	r24, 0x01	; 1
    2adc:	89 83       	std	Y+1, r24	; 0x01
    2ade:	9a 83       	std	Y+2, r25	; 0x02
    2ae0:	8b 81       	ldd	r24, Y+3	; 0x03
    2ae2:	9c 81       	ldd	r25, Y+4	; 0x04
    2ae4:	fa 01       	movw	r30, r20
    2ae6:	e2 0f       	add	r30, r18
    2ae8:	f3 1f       	adc	r31, r19
    2aea:	b1 01       	movw	r22, r2
    2aec:	0e 94 ec 1d 	call	0x3bd8	; 0x3bd8 <__divmodhi4>
    2af0:	80 5d       	subi	r24, 0xD0	; 208
    2af2:	80 83       	st	Z, r24
	allData->frame_b->frameASCII[i++] = ',';
    2af4:	f8 01       	movw	r30, r16
    2af6:	22 89       	ldd	r18, Z+18	; 0x12
    2af8:	33 89       	ldd	r19, Z+19	; 0x13
    2afa:	89 81       	ldd	r24, Y+1	; 0x01
    2afc:	9a 81       	ldd	r25, Y+2	; 0x02
    2afe:	ac 01       	movw	r20, r24
    2b00:	4f 5f       	subi	r20, 0xFF	; 255
    2b02:	5f 4f       	sbci	r21, 0xFF	; 255
    2b04:	49 83       	std	Y+1, r20	; 0x01
    2b06:	5a 83       	std	Y+2, r21	; 0x02
    2b08:	f9 01       	movw	r30, r18
    2b0a:	e8 0f       	add	r30, r24
    2b0c:	f9 1f       	adc	r31, r25
    2b0e:	90 82       	st	Z, r9
	
	//===============Temperature=====================
	//--------------MPU9150 temp-----------------------
	tmp = allData->MPU9150->temp*100;
    2b10:	d8 01       	movw	r26, r16
    2b12:	ed 91       	ld	r30, X+
    2b14:	fc 91       	ld	r31, X
    2b16:	11 97       	sbiw	r26, 0x01	; 1
    2b18:	20 a9       	ldd	r18, Z+48	; 0x30
    2b1a:	31 a9       	ldd	r19, Z+49	; 0x31
    2b1c:	44 e6       	ldi	r20, 0x64	; 100
    2b1e:	42 9f       	mul	r20, r18
    2b20:	c0 01       	movw	r24, r0
    2b22:	43 9f       	mul	r20, r19
    2b24:	90 0d       	add	r25, r0
    2b26:	11 24       	eor	r1, r1
    2b28:	8b 83       	std	Y+3, r24	; 0x03
    2b2a:	9c 83       	std	Y+4, r25	; 0x04
	if(tmp < 0){
    2b2c:	8b 81       	ldd	r24, Y+3	; 0x03
    2b2e:	9c 81       	ldd	r25, Y+4	; 0x04
    2b30:	99 23       	and	r25, r25
    2b32:	c4 f4       	brge	.+48     	; 0x2b64 <prepareFrame+0x1718>
		tmp = -tmp;
    2b34:	8b 81       	ldd	r24, Y+3	; 0x03
    2b36:	9c 81       	ldd	r25, Y+4	; 0x04
    2b38:	91 95       	neg	r25
    2b3a:	81 95       	neg	r24
    2b3c:	91 09       	sbc	r25, r1
    2b3e:	8b 83       	std	Y+3, r24	; 0x03
    2b40:	9c 83       	std	Y+4, r25	; 0x04
		allData->frame_b->frameASCII[i++] = '-';
    2b42:	52 96       	adiw	r26, 0x12	; 18
    2b44:	2d 91       	ld	r18, X+
    2b46:	3c 91       	ld	r19, X
    2b48:	53 97       	sbiw	r26, 0x13	; 19
    2b4a:	89 81       	ldd	r24, Y+1	; 0x01
    2b4c:	9a 81       	ldd	r25, Y+2	; 0x02
    2b4e:	ac 01       	movw	r20, r24
    2b50:	4f 5f       	subi	r20, 0xFF	; 255
    2b52:	5f 4f       	sbci	r21, 0xFF	; 255
    2b54:	49 83       	std	Y+1, r20	; 0x01
    2b56:	5a 83       	std	Y+2, r21	; 0x02
    2b58:	f9 01       	movw	r30, r18
    2b5a:	e8 0f       	add	r30, r24
    2b5c:	f9 1f       	adc	r31, r25
    2b5e:	2d e2       	ldi	r18, 0x2D	; 45
    2b60:	20 83       	st	Z, r18
    2b62:	0f c0       	rjmp	.+30     	; 0x2b82 <prepareFrame+0x1736>
	}
	else allData->frame_b->frameASCII[i++] = '+';
    2b64:	f8 01       	movw	r30, r16
    2b66:	22 89       	ldd	r18, Z+18	; 0x12
    2b68:	33 89       	ldd	r19, Z+19	; 0x13
    2b6a:	89 81       	ldd	r24, Y+1	; 0x01
    2b6c:	9a 81       	ldd	r25, Y+2	; 0x02
    2b6e:	ac 01       	movw	r20, r24
    2b70:	4f 5f       	subi	r20, 0xFF	; 255
    2b72:	5f 4f       	sbci	r21, 0xFF	; 255
    2b74:	49 83       	std	Y+1, r20	; 0x01
    2b76:	5a 83       	std	Y+2, r21	; 0x02
    2b78:	f9 01       	movw	r30, r18
    2b7a:	e8 0f       	add	r30, r24
    2b7c:	f9 1f       	adc	r31, r25
    2b7e:	2b e2       	ldi	r18, 0x2B	; 43
    2b80:	20 83       	st	Z, r18
	allData->frame_b->frameASCII[i++] = (tmp/1000)%10 + 48;
    2b82:	d8 01       	movw	r26, r16
    2b84:	52 96       	adiw	r26, 0x12	; 18
    2b86:	ed 91       	ld	r30, X+
    2b88:	fc 91       	ld	r31, X
    2b8a:	53 97       	sbiw	r26, 0x13	; 19
    2b8c:	29 81       	ldd	r18, Y+1	; 0x01
    2b8e:	3a 81       	ldd	r19, Y+2	; 0x02
    2b90:	c9 01       	movw	r24, r18
    2b92:	01 96       	adiw	r24, 0x01	; 1
    2b94:	89 83       	std	Y+1, r24	; 0x01
    2b96:	9a 83       	std	Y+2, r25	; 0x02
    2b98:	8b 81       	ldd	r24, Y+3	; 0x03
    2b9a:	9c 81       	ldd	r25, Y+4	; 0x04
    2b9c:	e2 0f       	add	r30, r18
    2b9e:	f3 1f       	adc	r31, r19
    2ba0:	68 ee       	ldi	r22, 0xE8	; 232
    2ba2:	73 e0       	ldi	r23, 0x03	; 3
    2ba4:	0e 94 ec 1d 	call	0x3bd8	; 0x3bd8 <__divmodhi4>
    2ba8:	cb 01       	movw	r24, r22
    2baa:	2a e0       	ldi	r18, 0x0A	; 10
    2bac:	30 e0       	ldi	r19, 0x00	; 0
    2bae:	b9 01       	movw	r22, r18
    2bb0:	0e 94 ec 1d 	call	0x3bd8	; 0x3bd8 <__divmodhi4>
    2bb4:	80 5d       	subi	r24, 0xD0	; 208
    2bb6:	80 83       	st	Z, r24
	allData->frame_b->frameASCII[i++] = (tmp/100)%10 + 48;
    2bb8:	d8 01       	movw	r26, r16
    2bba:	52 96       	adiw	r26, 0x12	; 18
    2bbc:	ed 91       	ld	r30, X+
    2bbe:	fc 91       	ld	r31, X
    2bc0:	53 97       	sbiw	r26, 0x13	; 19
    2bc2:	49 81       	ldd	r20, Y+1	; 0x01
    2bc4:	5a 81       	ldd	r21, Y+2	; 0x02
    2bc6:	ca 01       	movw	r24, r20
    2bc8:	01 96       	adiw	r24, 0x01	; 1
    2bca:	89 83       	std	Y+1, r24	; 0x01
    2bcc:	9a 83       	std	Y+2, r25	; 0x02
    2bce:	8b 81       	ldd	r24, Y+3	; 0x03
    2bd0:	9c 81       	ldd	r25, Y+4	; 0x04
    2bd2:	e4 0f       	add	r30, r20
    2bd4:	f5 1f       	adc	r31, r21
    2bd6:	64 e6       	ldi	r22, 0x64	; 100
    2bd8:	70 e0       	ldi	r23, 0x00	; 0
    2bda:	fe d7       	rcall	.+4092   	; 0x3bd8 <__divmodhi4>
    2bdc:	cb 01       	movw	r24, r22
    2bde:	b9 01       	movw	r22, r18
    2be0:	fb d7       	rcall	.+4086   	; 0x3bd8 <__divmodhi4>
    2be2:	80 5d       	subi	r24, 0xD0	; 208
    2be4:	80 83       	st	Z, r24
	allData->frame_b->frameASCII[i++] = '.';
    2be6:	f8 01       	movw	r30, r16
    2be8:	42 89       	ldd	r20, Z+18	; 0x12
    2bea:	53 89       	ldd	r21, Z+19	; 0x13
    2bec:	89 81       	ldd	r24, Y+1	; 0x01
    2bee:	9a 81       	ldd	r25, Y+2	; 0x02
    2bf0:	bc 01       	movw	r22, r24
    2bf2:	6f 5f       	subi	r22, 0xFF	; 255
    2bf4:	7f 4f       	sbci	r23, 0xFF	; 255
    2bf6:	69 83       	std	Y+1, r22	; 0x01
    2bf8:	7a 83       	std	Y+2, r23	; 0x02
    2bfa:	fa 01       	movw	r30, r20
    2bfc:	e8 0f       	add	r30, r24
    2bfe:	f9 1f       	adc	r31, r25
    2c00:	4e e2       	ldi	r20, 0x2E	; 46
    2c02:	40 83       	st	Z, r20
	allData->frame_b->frameASCII[i++] = (tmp/10)%10 + 48;
    2c04:	d8 01       	movw	r26, r16
    2c06:	52 96       	adiw	r26, 0x12	; 18
    2c08:	ed 91       	ld	r30, X+
    2c0a:	fc 91       	ld	r31, X
    2c0c:	53 97       	sbiw	r26, 0x13	; 19
    2c0e:	49 81       	ldd	r20, Y+1	; 0x01
    2c10:	5a 81       	ldd	r21, Y+2	; 0x02
    2c12:	ca 01       	movw	r24, r20
    2c14:	01 96       	adiw	r24, 0x01	; 1
    2c16:	89 83       	std	Y+1, r24	; 0x01
    2c18:	9a 83       	std	Y+2, r25	; 0x02
    2c1a:	8b 81       	ldd	r24, Y+3	; 0x03
    2c1c:	9c 81       	ldd	r25, Y+4	; 0x04
    2c1e:	e4 0f       	add	r30, r20
    2c20:	f5 1f       	adc	r31, r21
    2c22:	b9 01       	movw	r22, r18
    2c24:	d9 d7       	rcall	.+4018   	; 0x3bd8 <__divmodhi4>
    2c26:	cb 01       	movw	r24, r22
    2c28:	b9 01       	movw	r22, r18
    2c2a:	d6 d7       	rcall	.+4012   	; 0x3bd8 <__divmodhi4>
    2c2c:	80 5d       	subi	r24, 0xD0	; 208
    2c2e:	80 83       	st	Z, r24
	allData->frame_b->frameASCII[i++] = tmp%10 + 48;
    2c30:	d8 01       	movw	r26, r16
    2c32:	52 96       	adiw	r26, 0x12	; 18
    2c34:	ed 91       	ld	r30, X+
    2c36:	fc 91       	ld	r31, X
    2c38:	53 97       	sbiw	r26, 0x13	; 19
    2c3a:	49 81       	ldd	r20, Y+1	; 0x01
    2c3c:	5a 81       	ldd	r21, Y+2	; 0x02
    2c3e:	ca 01       	movw	r24, r20
    2c40:	01 96       	adiw	r24, 0x01	; 1
    2c42:	89 83       	std	Y+1, r24	; 0x01
    2c44:	9a 83       	std	Y+2, r25	; 0x02
    2c46:	8b 81       	ldd	r24, Y+3	; 0x03
    2c48:	9c 81       	ldd	r25, Y+4	; 0x04
    2c4a:	e4 0f       	add	r30, r20
    2c4c:	f5 1f       	adc	r31, r21
    2c4e:	b9 01       	movw	r22, r18
    2c50:	c3 d7       	rcall	.+3974   	; 0x3bd8 <__divmodhi4>
    2c52:	80 5d       	subi	r24, 0xD0	; 208
    2c54:	80 83       	st	Z, r24
	allData->frame_b->frameASCII[i++] = ',';
    2c56:	f8 01       	movw	r30, r16
    2c58:	22 89       	ldd	r18, Z+18	; 0x12
    2c5a:	33 89       	ldd	r19, Z+19	; 0x13
    2c5c:	89 81       	ldd	r24, Y+1	; 0x01
    2c5e:	9a 81       	ldd	r25, Y+2	; 0x02
    2c60:	ac 01       	movw	r20, r24
    2c62:	4f 5f       	subi	r20, 0xFF	; 255
    2c64:	5f 4f       	sbci	r21, 0xFF	; 255
    2c66:	49 83       	std	Y+1, r20	; 0x01
    2c68:	5a 83       	std	Y+2, r21	; 0x02
    2c6a:	f9 01       	movw	r30, r18
    2c6c:	e8 0f       	add	r30, r24
    2c6e:	f9 1f       	adc	r31, r25
    2c70:	2c e2       	ldi	r18, 0x2C	; 44
    2c72:	20 83       	st	Z, r18
	allData->frame_b->frameASCII[i++] = '%';
	allData->frame_b->frameASCII[i++] = ',';
	*/
	
	//--------------LPS25H pressure----------------------
	tmp = allData->LPS25H->pressure;
    2c74:	d8 01       	movw	r26, r16
    2c76:	14 96       	adiw	r26, 0x04	; 4
    2c78:	ed 91       	ld	r30, X+
    2c7a:	fc 91       	ld	r31, X
    2c7c:	15 97       	sbiw	r26, 0x05	; 5
    2c7e:	c4 80       	ldd	r12, Z+4	; 0x04
    2c80:	d5 80       	ldd	r13, Z+5	; 0x05
    2c82:	e6 80       	ldd	r14, Z+6	; 0x06
    2c84:	f7 80       	ldd	r15, Z+7	; 0x07
    2c86:	c7 01       	movw	r24, r14
    2c88:	b6 01       	movw	r22, r12
    2c8a:	15 d6       	rcall	.+3114   	; 0x38b6 <__fixsfsi>
    2c8c:	6b 83       	std	Y+3, r22	; 0x03
    2c8e:	7c 83       	std	Y+4, r23	; 0x04
	tmpf = ((allData->LPS25H->pressure - truncf(allData->LPS25H->pressure))*1000);
    2c90:	c7 01       	movw	r24, r14
    2c92:	b6 01       	movw	r22, r12
    2c94:	5a d7       	rcall	.+3764   	; 0x3b4a <trunc>
    2c96:	9b 01       	movw	r18, r22
    2c98:	ac 01       	movw	r20, r24
    2c9a:	c7 01       	movw	r24, r14
    2c9c:	b6 01       	movw	r22, r12
    2c9e:	3e d5       	rcall	.+2684   	; 0x371c <__subsf3>
    2ca0:	20 e0       	ldi	r18, 0x00	; 0
    2ca2:	30 e0       	ldi	r19, 0x00	; 0
    2ca4:	4a e7       	ldi	r20, 0x7A	; 122
    2ca6:	54 e4       	ldi	r21, 0x44	; 68
    2ca8:	ed d6       	rcall	.+3546   	; 0x3a84 <__mulsf3>
    2caa:	05 d6       	rcall	.+3082   	; 0x38b6 <__fixsfsi>
    2cac:	6d 83       	std	Y+5, r22	; 0x05
    2cae:	7e 83       	std	Y+6, r23	; 0x06
	if(tmp < 0){
    2cb0:	8b 81       	ldd	r24, Y+3	; 0x03
    2cb2:	9c 81       	ldd	r25, Y+4	; 0x04
    2cb4:	99 23       	and	r25, r25
    2cb6:	f4 f4       	brge	.+60     	; 0x2cf4 <prepareFrame+0x18a8>
		tmp = -tmp;
    2cb8:	8b 81       	ldd	r24, Y+3	; 0x03
    2cba:	9c 81       	ldd	r25, Y+4	; 0x04
    2cbc:	91 95       	neg	r25
    2cbe:	81 95       	neg	r24
    2cc0:	91 09       	sbc	r25, r1
    2cc2:	8b 83       	std	Y+3, r24	; 0x03
    2cc4:	9c 83       	std	Y+4, r25	; 0x04
		tmpf = -tmpf;
    2cc6:	8d 81       	ldd	r24, Y+5	; 0x05
    2cc8:	9e 81       	ldd	r25, Y+6	; 0x06
    2cca:	91 95       	neg	r25
    2ccc:	81 95       	neg	r24
    2cce:	91 09       	sbc	r25, r1
    2cd0:	8d 83       	std	Y+5, r24	; 0x05
    2cd2:	9e 83       	std	Y+6, r25	; 0x06
		allData->frame_b->frameASCII[i++] = '-';
    2cd4:	f8 01       	movw	r30, r16
    2cd6:	22 89       	ldd	r18, Z+18	; 0x12
    2cd8:	33 89       	ldd	r19, Z+19	; 0x13
    2cda:	89 81       	ldd	r24, Y+1	; 0x01
    2cdc:	9a 81       	ldd	r25, Y+2	; 0x02
    2cde:	ac 01       	movw	r20, r24
    2ce0:	4f 5f       	subi	r20, 0xFF	; 255
    2ce2:	5f 4f       	sbci	r21, 0xFF	; 255
    2ce4:	49 83       	std	Y+1, r20	; 0x01
    2ce6:	5a 83       	std	Y+2, r21	; 0x02
    2ce8:	f9 01       	movw	r30, r18
    2cea:	e8 0f       	add	r30, r24
    2cec:	f9 1f       	adc	r31, r25
    2cee:	2d e2       	ldi	r18, 0x2D	; 45
    2cf0:	20 83       	st	Z, r18
    2cf2:	11 c0       	rjmp	.+34     	; 0x2d16 <prepareFrame+0x18ca>
	}
	else allData->frame_b->frameASCII[i++] = '+';
    2cf4:	d8 01       	movw	r26, r16
    2cf6:	52 96       	adiw	r26, 0x12	; 18
    2cf8:	2d 91       	ld	r18, X+
    2cfa:	3c 91       	ld	r19, X
    2cfc:	53 97       	sbiw	r26, 0x13	; 19
    2cfe:	89 81       	ldd	r24, Y+1	; 0x01
    2d00:	9a 81       	ldd	r25, Y+2	; 0x02
    2d02:	ac 01       	movw	r20, r24
    2d04:	4f 5f       	subi	r20, 0xFF	; 255
    2d06:	5f 4f       	sbci	r21, 0xFF	; 255
    2d08:	49 83       	std	Y+1, r20	; 0x01
    2d0a:	5a 83       	std	Y+2, r21	; 0x02
    2d0c:	f9 01       	movw	r30, r18
    2d0e:	e8 0f       	add	r30, r24
    2d10:	f9 1f       	adc	r31, r25
    2d12:	2b e2       	ldi	r18, 0x2B	; 43
    2d14:	20 83       	st	Z, r18
	allData->frame_b->frameASCII[i++] = (tmp/1000)%10 + 48;
    2d16:	d8 01       	movw	r26, r16
    2d18:	52 96       	adiw	r26, 0x12	; 18
    2d1a:	ed 91       	ld	r30, X+
    2d1c:	fc 91       	ld	r31, X
    2d1e:	53 97       	sbiw	r26, 0x13	; 19
    2d20:	29 81       	ldd	r18, Y+1	; 0x01
    2d22:	3a 81       	ldd	r19, Y+2	; 0x02
    2d24:	c9 01       	movw	r24, r18
    2d26:	01 96       	adiw	r24, 0x01	; 1
    2d28:	89 83       	std	Y+1, r24	; 0x01
    2d2a:	9a 83       	std	Y+2, r25	; 0x02
    2d2c:	8b 81       	ldd	r24, Y+3	; 0x03
    2d2e:	9c 81       	ldd	r25, Y+4	; 0x04
    2d30:	e2 0f       	add	r30, r18
    2d32:	f3 1f       	adc	r31, r19
    2d34:	68 ee       	ldi	r22, 0xE8	; 232
    2d36:	73 e0       	ldi	r23, 0x03	; 3
    2d38:	4f d7       	rcall	.+3742   	; 0x3bd8 <__divmodhi4>
    2d3a:	cb 01       	movw	r24, r22
    2d3c:	2a e0       	ldi	r18, 0x0A	; 10
    2d3e:	30 e0       	ldi	r19, 0x00	; 0
    2d40:	b9 01       	movw	r22, r18
    2d42:	4a d7       	rcall	.+3732   	; 0x3bd8 <__divmodhi4>
    2d44:	80 5d       	subi	r24, 0xD0	; 208
    2d46:	80 83       	st	Z, r24
	allData->frame_b->frameASCII[i++] = (tmp/100)%10 + 48;
    2d48:	d8 01       	movw	r26, r16
    2d4a:	52 96       	adiw	r26, 0x12	; 18
    2d4c:	ed 91       	ld	r30, X+
    2d4e:	fc 91       	ld	r31, X
    2d50:	53 97       	sbiw	r26, 0x13	; 19
    2d52:	49 81       	ldd	r20, Y+1	; 0x01
    2d54:	5a 81       	ldd	r21, Y+2	; 0x02
    2d56:	ca 01       	movw	r24, r20
    2d58:	01 96       	adiw	r24, 0x01	; 1
    2d5a:	89 83       	std	Y+1, r24	; 0x01
    2d5c:	9a 83       	std	Y+2, r25	; 0x02
    2d5e:	8b 81       	ldd	r24, Y+3	; 0x03
    2d60:	9c 81       	ldd	r25, Y+4	; 0x04
    2d62:	e4 0f       	add	r30, r20
    2d64:	f5 1f       	adc	r31, r21
    2d66:	0f 2e       	mov	r0, r31
    2d68:	f4 e6       	ldi	r31, 0x64	; 100
    2d6a:	ef 2e       	mov	r14, r31
    2d6c:	f1 2c       	mov	r15, r1
    2d6e:	f0 2d       	mov	r31, r0
    2d70:	b7 01       	movw	r22, r14
    2d72:	32 d7       	rcall	.+3684   	; 0x3bd8 <__divmodhi4>
    2d74:	cb 01       	movw	r24, r22
    2d76:	b9 01       	movw	r22, r18
    2d78:	2f d7       	rcall	.+3678   	; 0x3bd8 <__divmodhi4>
    2d7a:	80 5d       	subi	r24, 0xD0	; 208
    2d7c:	80 83       	st	Z, r24
	allData->frame_b->frameASCII[i++] = (tmp/10)%10 + 48;
    2d7e:	d8 01       	movw	r26, r16
    2d80:	52 96       	adiw	r26, 0x12	; 18
    2d82:	ed 91       	ld	r30, X+
    2d84:	fc 91       	ld	r31, X
    2d86:	53 97       	sbiw	r26, 0x13	; 19
    2d88:	49 81       	ldd	r20, Y+1	; 0x01
    2d8a:	5a 81       	ldd	r21, Y+2	; 0x02
    2d8c:	ca 01       	movw	r24, r20
    2d8e:	01 96       	adiw	r24, 0x01	; 1
    2d90:	89 83       	std	Y+1, r24	; 0x01
    2d92:	9a 83       	std	Y+2, r25	; 0x02
    2d94:	8b 81       	ldd	r24, Y+3	; 0x03
    2d96:	9c 81       	ldd	r25, Y+4	; 0x04
    2d98:	e4 0f       	add	r30, r20
    2d9a:	f5 1f       	adc	r31, r21
    2d9c:	b9 01       	movw	r22, r18
    2d9e:	1c d7       	rcall	.+3640   	; 0x3bd8 <__divmodhi4>
    2da0:	cb 01       	movw	r24, r22
    2da2:	b9 01       	movw	r22, r18
    2da4:	19 d7       	rcall	.+3634   	; 0x3bd8 <__divmodhi4>
    2da6:	80 5d       	subi	r24, 0xD0	; 208
    2da8:	80 83       	st	Z, r24
	allData->frame_b->frameASCII[i++] = (tmp/1)%10 + 48;
    2daa:	d8 01       	movw	r26, r16
    2dac:	52 96       	adiw	r26, 0x12	; 18
    2dae:	ed 91       	ld	r30, X+
    2db0:	fc 91       	ld	r31, X
    2db2:	53 97       	sbiw	r26, 0x13	; 19
    2db4:	49 81       	ldd	r20, Y+1	; 0x01
    2db6:	5a 81       	ldd	r21, Y+2	; 0x02
    2db8:	ca 01       	movw	r24, r20
    2dba:	01 96       	adiw	r24, 0x01	; 1
    2dbc:	89 83       	std	Y+1, r24	; 0x01
    2dbe:	9a 83       	std	Y+2, r25	; 0x02
    2dc0:	8b 81       	ldd	r24, Y+3	; 0x03
    2dc2:	9c 81       	ldd	r25, Y+4	; 0x04
    2dc4:	e4 0f       	add	r30, r20
    2dc6:	f5 1f       	adc	r31, r21
    2dc8:	b9 01       	movw	r22, r18
    2dca:	06 d7       	rcall	.+3596   	; 0x3bd8 <__divmodhi4>
    2dcc:	80 5d       	subi	r24, 0xD0	; 208
    2dce:	80 83       	st	Z, r24
	allData->frame_b->frameASCII[i++] = '.';
    2dd0:	f8 01       	movw	r30, r16
    2dd2:	42 89       	ldd	r20, Z+18	; 0x12
    2dd4:	53 89       	ldd	r21, Z+19	; 0x13
    2dd6:	89 81       	ldd	r24, Y+1	; 0x01
    2dd8:	9a 81       	ldd	r25, Y+2	; 0x02
    2dda:	bc 01       	movw	r22, r24
    2ddc:	6f 5f       	subi	r22, 0xFF	; 255
    2dde:	7f 4f       	sbci	r23, 0xFF	; 255
    2de0:	69 83       	std	Y+1, r22	; 0x01
    2de2:	7a 83       	std	Y+2, r23	; 0x02
    2de4:	fa 01       	movw	r30, r20
    2de6:	e8 0f       	add	r30, r24
    2de8:	f9 1f       	adc	r31, r25
    2dea:	4e e2       	ldi	r20, 0x2E	; 46
    2dec:	40 83       	st	Z, r20
	allData->frame_b->frameASCII[i++] = (tmpf/100)%10 + 48;
    2dee:	d8 01       	movw	r26, r16
    2df0:	52 96       	adiw	r26, 0x12	; 18
    2df2:	ed 91       	ld	r30, X+
    2df4:	fc 91       	ld	r31, X
    2df6:	53 97       	sbiw	r26, 0x13	; 19
    2df8:	49 81       	ldd	r20, Y+1	; 0x01
    2dfa:	5a 81       	ldd	r21, Y+2	; 0x02
    2dfc:	ca 01       	movw	r24, r20
    2dfe:	01 96       	adiw	r24, 0x01	; 1
    2e00:	89 83       	std	Y+1, r24	; 0x01
    2e02:	9a 83       	std	Y+2, r25	; 0x02
    2e04:	8d 81       	ldd	r24, Y+5	; 0x05
    2e06:	9e 81       	ldd	r25, Y+6	; 0x06
    2e08:	e4 0f       	add	r30, r20
    2e0a:	f5 1f       	adc	r31, r21
    2e0c:	b7 01       	movw	r22, r14
    2e0e:	e4 d6       	rcall	.+3528   	; 0x3bd8 <__divmodhi4>
    2e10:	cb 01       	movw	r24, r22
    2e12:	b9 01       	movw	r22, r18
    2e14:	e1 d6       	rcall	.+3522   	; 0x3bd8 <__divmodhi4>
    2e16:	80 5d       	subi	r24, 0xD0	; 208
    2e18:	80 83       	st	Z, r24
	allData->frame_b->frameASCII[i++] = (tmpf/10)%10 + 48;
    2e1a:	d8 01       	movw	r26, r16
    2e1c:	52 96       	adiw	r26, 0x12	; 18
    2e1e:	ed 91       	ld	r30, X+
    2e20:	fc 91       	ld	r31, X
    2e22:	53 97       	sbiw	r26, 0x13	; 19
    2e24:	49 81       	ldd	r20, Y+1	; 0x01
    2e26:	5a 81       	ldd	r21, Y+2	; 0x02
    2e28:	ca 01       	movw	r24, r20
    2e2a:	01 96       	adiw	r24, 0x01	; 1
    2e2c:	89 83       	std	Y+1, r24	; 0x01
    2e2e:	9a 83       	std	Y+2, r25	; 0x02
    2e30:	8d 81       	ldd	r24, Y+5	; 0x05
    2e32:	9e 81       	ldd	r25, Y+6	; 0x06
    2e34:	e4 0f       	add	r30, r20
    2e36:	f5 1f       	adc	r31, r21
    2e38:	b9 01       	movw	r22, r18
    2e3a:	ce d6       	rcall	.+3484   	; 0x3bd8 <__divmodhi4>
    2e3c:	cb 01       	movw	r24, r22
    2e3e:	b9 01       	movw	r22, r18
    2e40:	cb d6       	rcall	.+3478   	; 0x3bd8 <__divmodhi4>
    2e42:	80 5d       	subi	r24, 0xD0	; 208
    2e44:	80 83       	st	Z, r24
	allData->frame_b->frameASCII[i++] = (tmpf/1)%10 + 48;
    2e46:	d8 01       	movw	r26, r16
    2e48:	52 96       	adiw	r26, 0x12	; 18
    2e4a:	ed 91       	ld	r30, X+
    2e4c:	fc 91       	ld	r31, X
    2e4e:	53 97       	sbiw	r26, 0x13	; 19
    2e50:	49 81       	ldd	r20, Y+1	; 0x01
    2e52:	5a 81       	ldd	r21, Y+2	; 0x02
    2e54:	ca 01       	movw	r24, r20
    2e56:	01 96       	adiw	r24, 0x01	; 1
    2e58:	89 83       	std	Y+1, r24	; 0x01
    2e5a:	9a 83       	std	Y+2, r25	; 0x02
    2e5c:	8d 81       	ldd	r24, Y+5	; 0x05
    2e5e:	9e 81       	ldd	r25, Y+6	; 0x06
    2e60:	e4 0f       	add	r30, r20
    2e62:	f5 1f       	adc	r31, r21
    2e64:	b9 01       	movw	r22, r18
    2e66:	b8 d6       	rcall	.+3440   	; 0x3bd8 <__divmodhi4>
    2e68:	80 5d       	subi	r24, 0xD0	; 208
    2e6a:	80 83       	st	Z, r24
	allData->frame_b->frameASCII[i++] = ',';
    2e6c:	f8 01       	movw	r30, r16
    2e6e:	22 89       	ldd	r18, Z+18	; 0x12
    2e70:	33 89       	ldd	r19, Z+19	; 0x13
    2e72:	89 81       	ldd	r24, Y+1	; 0x01
    2e74:	9a 81       	ldd	r25, Y+2	; 0x02
    2e76:	ac 01       	movw	r20, r24
    2e78:	4f 5f       	subi	r20, 0xFF	; 255
    2e7a:	5f 4f       	sbci	r21, 0xFF	; 255
    2e7c:	49 83       	std	Y+1, r20	; 0x01
    2e7e:	5a 83       	std	Y+2, r21	; 0x02
    2e80:	f9 01       	movw	r30, r18
    2e82:	e8 0f       	add	r30, r24
    2e84:	f9 1f       	adc	r31, r25
    2e86:	2c e2       	ldi	r18, 0x2C	; 44
    2e88:	20 83       	st	Z, r18
	allData->frame_b->frameASCII[i++] = (tmp/10)%10 + 48;
	allData->frame_b->frameASCII[i++] = (tmp)%10 + 48;
	allData->frame_b->frameASCII[i++] = ',';
	*/
	//--------------LIS331HH Accel y------------------------
	tmp = allData->LIS331HH->accel_y*1000;
    2e8a:	d8 01       	movw	r26, r16
    2e8c:	1c 96       	adiw	r26, 0x0c	; 12
    2e8e:	ed 91       	ld	r30, X+
    2e90:	fc 91       	ld	r31, X
    2e92:	1d 97       	sbiw	r26, 0x0d	; 13
    2e94:	20 e0       	ldi	r18, 0x00	; 0
    2e96:	30 e0       	ldi	r19, 0x00	; 0
    2e98:	4a e7       	ldi	r20, 0x7A	; 122
    2e9a:	54 e4       	ldi	r21, 0x44	; 68
    2e9c:	62 85       	ldd	r22, Z+10	; 0x0a
    2e9e:	73 85       	ldd	r23, Z+11	; 0x0b
    2ea0:	84 85       	ldd	r24, Z+12	; 0x0c
    2ea2:	95 85       	ldd	r25, Z+13	; 0x0d
    2ea4:	ef d5       	rcall	.+3038   	; 0x3a84 <__mulsf3>
    2ea6:	07 d5       	rcall	.+2574   	; 0x38b6 <__fixsfsi>
    2ea8:	6b 83       	std	Y+3, r22	; 0x03
    2eaa:	7c 83       	std	Y+4, r23	; 0x04
	if(tmp < 0){
    2eac:	8b 81       	ldd	r24, Y+3	; 0x03
    2eae:	9c 81       	ldd	r25, Y+4	; 0x04
    2eb0:	99 23       	and	r25, r25
    2eb2:	bc f4       	brge	.+46     	; 0x2ee2 <prepareFrame+0x1a96>
		tmp = -tmp;
    2eb4:	8b 81       	ldd	r24, Y+3	; 0x03
    2eb6:	9c 81       	ldd	r25, Y+4	; 0x04
    2eb8:	91 95       	neg	r25
    2eba:	81 95       	neg	r24
    2ebc:	91 09       	sbc	r25, r1
    2ebe:	8b 83       	std	Y+3, r24	; 0x03
    2ec0:	9c 83       	std	Y+4, r25	; 0x04
		allData->frame_b->frameASCII[i++] = '-';
    2ec2:	f8 01       	movw	r30, r16
    2ec4:	22 89       	ldd	r18, Z+18	; 0x12
    2ec6:	33 89       	ldd	r19, Z+19	; 0x13
    2ec8:	89 81       	ldd	r24, Y+1	; 0x01
    2eca:	9a 81       	ldd	r25, Y+2	; 0x02
    2ecc:	ac 01       	movw	r20, r24
    2ece:	4f 5f       	subi	r20, 0xFF	; 255
    2ed0:	5f 4f       	sbci	r21, 0xFF	; 255
    2ed2:	49 83       	std	Y+1, r20	; 0x01
    2ed4:	5a 83       	std	Y+2, r21	; 0x02
    2ed6:	f9 01       	movw	r30, r18
    2ed8:	e8 0f       	add	r30, r24
    2eda:	f9 1f       	adc	r31, r25
    2edc:	2d e2       	ldi	r18, 0x2D	; 45
    2ede:	20 83       	st	Z, r18
    2ee0:	11 c0       	rjmp	.+34     	; 0x2f04 <prepareFrame+0x1ab8>
	}
	else allData->frame_b->frameASCII[i++] = '+';
    2ee2:	d8 01       	movw	r26, r16
    2ee4:	52 96       	adiw	r26, 0x12	; 18
    2ee6:	2d 91       	ld	r18, X+
    2ee8:	3c 91       	ld	r19, X
    2eea:	53 97       	sbiw	r26, 0x13	; 19
    2eec:	89 81       	ldd	r24, Y+1	; 0x01
    2eee:	9a 81       	ldd	r25, Y+2	; 0x02
    2ef0:	ac 01       	movw	r20, r24
    2ef2:	4f 5f       	subi	r20, 0xFF	; 255
    2ef4:	5f 4f       	sbci	r21, 0xFF	; 255
    2ef6:	49 83       	std	Y+1, r20	; 0x01
    2ef8:	5a 83       	std	Y+2, r21	; 0x02
    2efa:	f9 01       	movw	r30, r18
    2efc:	e8 0f       	add	r30, r24
    2efe:	f9 1f       	adc	r31, r25
    2f00:	2b e2       	ldi	r18, 0x2B	; 43
    2f02:	20 83       	st	Z, r18
	allData->frame_b->frameASCII[i++] = (tmp/10000)%10 + 48;
    2f04:	d8 01       	movw	r26, r16
    2f06:	52 96       	adiw	r26, 0x12	; 18
    2f08:	ed 91       	ld	r30, X+
    2f0a:	fc 91       	ld	r31, X
    2f0c:	53 97       	sbiw	r26, 0x13	; 19
    2f0e:	29 81       	ldd	r18, Y+1	; 0x01
    2f10:	3a 81       	ldd	r19, Y+2	; 0x02
    2f12:	c9 01       	movw	r24, r18
    2f14:	01 96       	adiw	r24, 0x01	; 1
    2f16:	89 83       	std	Y+1, r24	; 0x01
    2f18:	9a 83       	std	Y+2, r25	; 0x02
    2f1a:	8b 81       	ldd	r24, Y+3	; 0x03
    2f1c:	9c 81       	ldd	r25, Y+4	; 0x04
    2f1e:	e2 0f       	add	r30, r18
    2f20:	f3 1f       	adc	r31, r19
    2f22:	60 e1       	ldi	r22, 0x10	; 16
    2f24:	77 e2       	ldi	r23, 0x27	; 39
    2f26:	58 d6       	rcall	.+3248   	; 0x3bd8 <__divmodhi4>
    2f28:	cb 01       	movw	r24, r22
    2f2a:	2a e0       	ldi	r18, 0x0A	; 10
    2f2c:	30 e0       	ldi	r19, 0x00	; 0
    2f2e:	b9 01       	movw	r22, r18
    2f30:	53 d6       	rcall	.+3238   	; 0x3bd8 <__divmodhi4>
    2f32:	80 5d       	subi	r24, 0xD0	; 208
    2f34:	80 83       	st	Z, r24
	allData->frame_b->frameASCII[i++] = (tmp/1000)%10 + 48;
    2f36:	d8 01       	movw	r26, r16
    2f38:	52 96       	adiw	r26, 0x12	; 18
    2f3a:	ed 91       	ld	r30, X+
    2f3c:	fc 91       	ld	r31, X
    2f3e:	53 97       	sbiw	r26, 0x13	; 19
    2f40:	49 81       	ldd	r20, Y+1	; 0x01
    2f42:	5a 81       	ldd	r21, Y+2	; 0x02
    2f44:	ca 01       	movw	r24, r20
    2f46:	01 96       	adiw	r24, 0x01	; 1
    2f48:	89 83       	std	Y+1, r24	; 0x01
    2f4a:	9a 83       	std	Y+2, r25	; 0x02
    2f4c:	8b 81       	ldd	r24, Y+3	; 0x03
    2f4e:	9c 81       	ldd	r25, Y+4	; 0x04
    2f50:	e4 0f       	add	r30, r20
    2f52:	f5 1f       	adc	r31, r21
    2f54:	68 ee       	ldi	r22, 0xE8	; 232
    2f56:	73 e0       	ldi	r23, 0x03	; 3
    2f58:	3f d6       	rcall	.+3198   	; 0x3bd8 <__divmodhi4>
    2f5a:	cb 01       	movw	r24, r22
    2f5c:	b9 01       	movw	r22, r18
    2f5e:	3c d6       	rcall	.+3192   	; 0x3bd8 <__divmodhi4>
    2f60:	80 5d       	subi	r24, 0xD0	; 208
    2f62:	80 83       	st	Z, r24
	allData->frame_b->frameASCII[i++] = '.';
    2f64:	f8 01       	movw	r30, r16
    2f66:	42 89       	ldd	r20, Z+18	; 0x12
    2f68:	53 89       	ldd	r21, Z+19	; 0x13
    2f6a:	89 81       	ldd	r24, Y+1	; 0x01
    2f6c:	9a 81       	ldd	r25, Y+2	; 0x02
    2f6e:	bc 01       	movw	r22, r24
    2f70:	6f 5f       	subi	r22, 0xFF	; 255
    2f72:	7f 4f       	sbci	r23, 0xFF	; 255
    2f74:	69 83       	std	Y+1, r22	; 0x01
    2f76:	7a 83       	std	Y+2, r23	; 0x02
    2f78:	fa 01       	movw	r30, r20
    2f7a:	e8 0f       	add	r30, r24
    2f7c:	f9 1f       	adc	r31, r25
    2f7e:	4e e2       	ldi	r20, 0x2E	; 46
    2f80:	40 83       	st	Z, r20
	allData->frame_b->frameASCII[i++] = (tmp/100)%10 + 48;
    2f82:	d8 01       	movw	r26, r16
    2f84:	52 96       	adiw	r26, 0x12	; 18
    2f86:	ed 91       	ld	r30, X+
    2f88:	fc 91       	ld	r31, X
    2f8a:	53 97       	sbiw	r26, 0x13	; 19
    2f8c:	49 81       	ldd	r20, Y+1	; 0x01
    2f8e:	5a 81       	ldd	r21, Y+2	; 0x02
    2f90:	ca 01       	movw	r24, r20
    2f92:	01 96       	adiw	r24, 0x01	; 1
    2f94:	89 83       	std	Y+1, r24	; 0x01
    2f96:	9a 83       	std	Y+2, r25	; 0x02
    2f98:	8b 81       	ldd	r24, Y+3	; 0x03
    2f9a:	9c 81       	ldd	r25, Y+4	; 0x04
    2f9c:	e4 0f       	add	r30, r20
    2f9e:	f5 1f       	adc	r31, r21
    2fa0:	64 e6       	ldi	r22, 0x64	; 100
    2fa2:	70 e0       	ldi	r23, 0x00	; 0
    2fa4:	19 d6       	rcall	.+3122   	; 0x3bd8 <__divmodhi4>
    2fa6:	cb 01       	movw	r24, r22
    2fa8:	b9 01       	movw	r22, r18
    2faa:	16 d6       	rcall	.+3116   	; 0x3bd8 <__divmodhi4>
    2fac:	80 5d       	subi	r24, 0xD0	; 208
    2fae:	80 83       	st	Z, r24
	allData->frame_b->frameASCII[i++] = (tmp/10)%10 + 48;
    2fb0:	d8 01       	movw	r26, r16
    2fb2:	52 96       	adiw	r26, 0x12	; 18
    2fb4:	ed 91       	ld	r30, X+
    2fb6:	fc 91       	ld	r31, X
    2fb8:	53 97       	sbiw	r26, 0x13	; 19
    2fba:	49 81       	ldd	r20, Y+1	; 0x01
    2fbc:	5a 81       	ldd	r21, Y+2	; 0x02
    2fbe:	ca 01       	movw	r24, r20
    2fc0:	01 96       	adiw	r24, 0x01	; 1
    2fc2:	89 83       	std	Y+1, r24	; 0x01
    2fc4:	9a 83       	std	Y+2, r25	; 0x02
    2fc6:	8b 81       	ldd	r24, Y+3	; 0x03
    2fc8:	9c 81       	ldd	r25, Y+4	; 0x04
    2fca:	e4 0f       	add	r30, r20
    2fcc:	f5 1f       	adc	r31, r21
    2fce:	b9 01       	movw	r22, r18
    2fd0:	03 d6       	rcall	.+3078   	; 0x3bd8 <__divmodhi4>
    2fd2:	cb 01       	movw	r24, r22
    2fd4:	b9 01       	movw	r22, r18
    2fd6:	00 d6       	rcall	.+3072   	; 0x3bd8 <__divmodhi4>
    2fd8:	80 5d       	subi	r24, 0xD0	; 208
    2fda:	80 83       	st	Z, r24
	allData->frame_b->frameASCII[i++] = (tmp)%10 + 48;
    2fdc:	d8 01       	movw	r26, r16
    2fde:	52 96       	adiw	r26, 0x12	; 18
    2fe0:	ed 91       	ld	r30, X+
    2fe2:	fc 91       	ld	r31, X
    2fe4:	53 97       	sbiw	r26, 0x13	; 19
    2fe6:	49 81       	ldd	r20, Y+1	; 0x01
    2fe8:	5a 81       	ldd	r21, Y+2	; 0x02
    2fea:	ca 01       	movw	r24, r20
    2fec:	01 96       	adiw	r24, 0x01	; 1
    2fee:	89 83       	std	Y+1, r24	; 0x01
    2ff0:	9a 83       	std	Y+2, r25	; 0x02
    2ff2:	8b 81       	ldd	r24, Y+3	; 0x03
    2ff4:	9c 81       	ldd	r25, Y+4	; 0x04
    2ff6:	e4 0f       	add	r30, r20
    2ff8:	f5 1f       	adc	r31, r21
    2ffa:	b9 01       	movw	r22, r18
    2ffc:	ed d5       	rcall	.+3034   	; 0x3bd8 <__divmodhi4>
    2ffe:	80 5d       	subi	r24, 0xD0	; 208
    3000:	80 83       	st	Z, r24
	allData->frame_b->frameASCII[i++] = ',';
    3002:	f8 01       	movw	r30, r16
    3004:	22 89       	ldd	r18, Z+18	; 0x12
    3006:	33 89       	ldd	r19, Z+19	; 0x13
    3008:	89 81       	ldd	r24, Y+1	; 0x01
    300a:	9a 81       	ldd	r25, Y+2	; 0x02
    300c:	ac 01       	movw	r20, r24
    300e:	4f 5f       	subi	r20, 0xFF	; 255
    3010:	5f 4f       	sbci	r21, 0xFF	; 255
    3012:	49 83       	std	Y+1, r20	; 0x01
    3014:	5a 83       	std	Y+2, r21	; 0x02
    3016:	f9 01       	movw	r30, r18
    3018:	e8 0f       	add	r30, r24
    301a:	f9 1f       	adc	r31, r25
    301c:	2c e2       	ldi	r18, 0x2C	; 44
    301e:	20 83       	st	Z, r18
	allData->frame_b->frameASCII[i++] = (tmp/10)%10 + 48;
	allData->frame_b->frameASCII[i++] = (tmp)%10 + 48;
	allData->frame_b->frameASCII[i++] = ',';
	*/
	//--------------LS9DS0 Accel y------------------------
	tmp = allData->LSM9DS0->accel_y*1000;
    3020:	d8 01       	movw	r26, r16
    3022:	12 96       	adiw	r26, 0x02	; 2
    3024:	ed 91       	ld	r30, X+
    3026:	fc 91       	ld	r31, X
    3028:	13 97       	sbiw	r26, 0x03	; 3
    302a:	20 e0       	ldi	r18, 0x00	; 0
    302c:	30 e0       	ldi	r19, 0x00	; 0
    302e:	4a e7       	ldi	r20, 0x7A	; 122
    3030:	54 e4       	ldi	r21, 0x44	; 68
    3032:	60 8d       	ldd	r22, Z+24	; 0x18
    3034:	71 8d       	ldd	r23, Z+25	; 0x19
    3036:	82 8d       	ldd	r24, Z+26	; 0x1a
    3038:	93 8d       	ldd	r25, Z+27	; 0x1b
    303a:	24 d5       	rcall	.+2632   	; 0x3a84 <__mulsf3>
    303c:	3c d4       	rcall	.+2168   	; 0x38b6 <__fixsfsi>
    303e:	6b 83       	std	Y+3, r22	; 0x03
    3040:	7c 83       	std	Y+4, r23	; 0x04
	if(tmp < 0){
    3042:	8b 81       	ldd	r24, Y+3	; 0x03
    3044:	9c 81       	ldd	r25, Y+4	; 0x04
    3046:	99 23       	and	r25, r25
    3048:	bc f4       	brge	.+46     	; 0x3078 <prepareFrame+0x1c2c>
		tmp = -tmp;
    304a:	8b 81       	ldd	r24, Y+3	; 0x03
    304c:	9c 81       	ldd	r25, Y+4	; 0x04
    304e:	91 95       	neg	r25
    3050:	81 95       	neg	r24
    3052:	91 09       	sbc	r25, r1
    3054:	8b 83       	std	Y+3, r24	; 0x03
    3056:	9c 83       	std	Y+4, r25	; 0x04
		allData->frame_b->frameASCII[i++] = '-';
    3058:	f8 01       	movw	r30, r16
    305a:	22 89       	ldd	r18, Z+18	; 0x12
    305c:	33 89       	ldd	r19, Z+19	; 0x13
    305e:	89 81       	ldd	r24, Y+1	; 0x01
    3060:	9a 81       	ldd	r25, Y+2	; 0x02
    3062:	ac 01       	movw	r20, r24
    3064:	4f 5f       	subi	r20, 0xFF	; 255
    3066:	5f 4f       	sbci	r21, 0xFF	; 255
    3068:	49 83       	std	Y+1, r20	; 0x01
    306a:	5a 83       	std	Y+2, r21	; 0x02
    306c:	f9 01       	movw	r30, r18
    306e:	e8 0f       	add	r30, r24
    3070:	f9 1f       	adc	r31, r25
    3072:	2d e2       	ldi	r18, 0x2D	; 45
    3074:	20 83       	st	Z, r18
    3076:	11 c0       	rjmp	.+34     	; 0x309a <prepareFrame+0x1c4e>
	}
	else allData->frame_b->frameASCII[i++] = '+';
    3078:	d8 01       	movw	r26, r16
    307a:	52 96       	adiw	r26, 0x12	; 18
    307c:	2d 91       	ld	r18, X+
    307e:	3c 91       	ld	r19, X
    3080:	53 97       	sbiw	r26, 0x13	; 19
    3082:	89 81       	ldd	r24, Y+1	; 0x01
    3084:	9a 81       	ldd	r25, Y+2	; 0x02
    3086:	ac 01       	movw	r20, r24
    3088:	4f 5f       	subi	r20, 0xFF	; 255
    308a:	5f 4f       	sbci	r21, 0xFF	; 255
    308c:	49 83       	std	Y+1, r20	; 0x01
    308e:	5a 83       	std	Y+2, r21	; 0x02
    3090:	f9 01       	movw	r30, r18
    3092:	e8 0f       	add	r30, r24
    3094:	f9 1f       	adc	r31, r25
    3096:	2b e2       	ldi	r18, 0x2B	; 43
    3098:	20 83       	st	Z, r18
	allData->frame_b->frameASCII[i++] = (tmp/10000)%10 + 48;
    309a:	d8 01       	movw	r26, r16
    309c:	52 96       	adiw	r26, 0x12	; 18
    309e:	ed 91       	ld	r30, X+
    30a0:	fc 91       	ld	r31, X
    30a2:	53 97       	sbiw	r26, 0x13	; 19
    30a4:	29 81       	ldd	r18, Y+1	; 0x01
    30a6:	3a 81       	ldd	r19, Y+2	; 0x02
    30a8:	c9 01       	movw	r24, r18
    30aa:	01 96       	adiw	r24, 0x01	; 1
    30ac:	89 83       	std	Y+1, r24	; 0x01
    30ae:	9a 83       	std	Y+2, r25	; 0x02
    30b0:	8b 81       	ldd	r24, Y+3	; 0x03
    30b2:	9c 81       	ldd	r25, Y+4	; 0x04
    30b4:	e2 0f       	add	r30, r18
    30b6:	f3 1f       	adc	r31, r19
    30b8:	60 e1       	ldi	r22, 0x10	; 16
    30ba:	77 e2       	ldi	r23, 0x27	; 39
    30bc:	8d d5       	rcall	.+2842   	; 0x3bd8 <__divmodhi4>
    30be:	cb 01       	movw	r24, r22
    30c0:	2a e0       	ldi	r18, 0x0A	; 10
    30c2:	30 e0       	ldi	r19, 0x00	; 0
    30c4:	b9 01       	movw	r22, r18
    30c6:	88 d5       	rcall	.+2832   	; 0x3bd8 <__divmodhi4>
    30c8:	80 5d       	subi	r24, 0xD0	; 208
    30ca:	80 83       	st	Z, r24
	allData->frame_b->frameASCII[i++] = (tmp/1000)%10 + 48;
    30cc:	d8 01       	movw	r26, r16
    30ce:	52 96       	adiw	r26, 0x12	; 18
    30d0:	ed 91       	ld	r30, X+
    30d2:	fc 91       	ld	r31, X
    30d4:	53 97       	sbiw	r26, 0x13	; 19
    30d6:	49 81       	ldd	r20, Y+1	; 0x01
    30d8:	5a 81       	ldd	r21, Y+2	; 0x02
    30da:	ca 01       	movw	r24, r20
    30dc:	01 96       	adiw	r24, 0x01	; 1
    30de:	89 83       	std	Y+1, r24	; 0x01
    30e0:	9a 83       	std	Y+2, r25	; 0x02
    30e2:	8b 81       	ldd	r24, Y+3	; 0x03
    30e4:	9c 81       	ldd	r25, Y+4	; 0x04
    30e6:	e4 0f       	add	r30, r20
    30e8:	f5 1f       	adc	r31, r21
    30ea:	68 ee       	ldi	r22, 0xE8	; 232
    30ec:	73 e0       	ldi	r23, 0x03	; 3
    30ee:	74 d5       	rcall	.+2792   	; 0x3bd8 <__divmodhi4>
    30f0:	cb 01       	movw	r24, r22
    30f2:	b9 01       	movw	r22, r18
    30f4:	71 d5       	rcall	.+2786   	; 0x3bd8 <__divmodhi4>
    30f6:	80 5d       	subi	r24, 0xD0	; 208
    30f8:	80 83       	st	Z, r24
	allData->frame_b->frameASCII[i++] = '.';
    30fa:	f8 01       	movw	r30, r16
    30fc:	42 89       	ldd	r20, Z+18	; 0x12
    30fe:	53 89       	ldd	r21, Z+19	; 0x13
    3100:	89 81       	ldd	r24, Y+1	; 0x01
    3102:	9a 81       	ldd	r25, Y+2	; 0x02
    3104:	bc 01       	movw	r22, r24
    3106:	6f 5f       	subi	r22, 0xFF	; 255
    3108:	7f 4f       	sbci	r23, 0xFF	; 255
    310a:	69 83       	std	Y+1, r22	; 0x01
    310c:	7a 83       	std	Y+2, r23	; 0x02
    310e:	fa 01       	movw	r30, r20
    3110:	e8 0f       	add	r30, r24
    3112:	f9 1f       	adc	r31, r25
    3114:	4e e2       	ldi	r20, 0x2E	; 46
    3116:	40 83       	st	Z, r20
	allData->frame_b->frameASCII[i++] = (tmp/100)%10 + 48;
    3118:	d8 01       	movw	r26, r16
    311a:	52 96       	adiw	r26, 0x12	; 18
    311c:	ed 91       	ld	r30, X+
    311e:	fc 91       	ld	r31, X
    3120:	53 97       	sbiw	r26, 0x13	; 19
    3122:	49 81       	ldd	r20, Y+1	; 0x01
    3124:	5a 81       	ldd	r21, Y+2	; 0x02
    3126:	ca 01       	movw	r24, r20
    3128:	01 96       	adiw	r24, 0x01	; 1
    312a:	89 83       	std	Y+1, r24	; 0x01
    312c:	9a 83       	std	Y+2, r25	; 0x02
    312e:	8b 81       	ldd	r24, Y+3	; 0x03
    3130:	9c 81       	ldd	r25, Y+4	; 0x04
    3132:	e4 0f       	add	r30, r20
    3134:	f5 1f       	adc	r31, r21
    3136:	64 e6       	ldi	r22, 0x64	; 100
    3138:	70 e0       	ldi	r23, 0x00	; 0
    313a:	4e d5       	rcall	.+2716   	; 0x3bd8 <__divmodhi4>
    313c:	cb 01       	movw	r24, r22
    313e:	b9 01       	movw	r22, r18
    3140:	4b d5       	rcall	.+2710   	; 0x3bd8 <__divmodhi4>
    3142:	80 5d       	subi	r24, 0xD0	; 208
    3144:	80 83       	st	Z, r24
	allData->frame_b->frameASCII[i++] = (tmp/10)%10 + 48;
    3146:	d8 01       	movw	r26, r16
    3148:	52 96       	adiw	r26, 0x12	; 18
    314a:	ed 91       	ld	r30, X+
    314c:	fc 91       	ld	r31, X
    314e:	53 97       	sbiw	r26, 0x13	; 19
    3150:	49 81       	ldd	r20, Y+1	; 0x01
    3152:	5a 81       	ldd	r21, Y+2	; 0x02
    3154:	ca 01       	movw	r24, r20
    3156:	01 96       	adiw	r24, 0x01	; 1
    3158:	89 83       	std	Y+1, r24	; 0x01
    315a:	9a 83       	std	Y+2, r25	; 0x02
    315c:	8b 81       	ldd	r24, Y+3	; 0x03
    315e:	9c 81       	ldd	r25, Y+4	; 0x04
    3160:	e4 0f       	add	r30, r20
    3162:	f5 1f       	adc	r31, r21
    3164:	b9 01       	movw	r22, r18
    3166:	38 d5       	rcall	.+2672   	; 0x3bd8 <__divmodhi4>
    3168:	cb 01       	movw	r24, r22
    316a:	b9 01       	movw	r22, r18
    316c:	35 d5       	rcall	.+2666   	; 0x3bd8 <__divmodhi4>
    316e:	80 5d       	subi	r24, 0xD0	; 208
    3170:	80 83       	st	Z, r24
	allData->frame_b->frameASCII[i++] = (tmp)%10 + 48;
    3172:	d8 01       	movw	r26, r16
    3174:	52 96       	adiw	r26, 0x12	; 18
    3176:	ed 91       	ld	r30, X+
    3178:	fc 91       	ld	r31, X
    317a:	53 97       	sbiw	r26, 0x13	; 19
    317c:	49 81       	ldd	r20, Y+1	; 0x01
    317e:	5a 81       	ldd	r21, Y+2	; 0x02
    3180:	ca 01       	movw	r24, r20
    3182:	01 96       	adiw	r24, 0x01	; 1
    3184:	89 83       	std	Y+1, r24	; 0x01
    3186:	9a 83       	std	Y+2, r25	; 0x02
    3188:	8b 81       	ldd	r24, Y+3	; 0x03
    318a:	9c 81       	ldd	r25, Y+4	; 0x04
    318c:	e4 0f       	add	r30, r20
    318e:	f5 1f       	adc	r31, r21
    3190:	b9 01       	movw	r22, r18
    3192:	22 d5       	rcall	.+2628   	; 0x3bd8 <__divmodhi4>
    3194:	80 5d       	subi	r24, 0xD0	; 208
    3196:	80 83       	st	Z, r24
	allData->frame_b->frameASCII[i++] = ',';
    3198:	f8 01       	movw	r30, r16
    319a:	22 89       	ldd	r18, Z+18	; 0x12
    319c:	33 89       	ldd	r19, Z+19	; 0x13
    319e:	89 81       	ldd	r24, Y+1	; 0x01
    31a0:	9a 81       	ldd	r25, Y+2	; 0x02
    31a2:	ac 01       	movw	r20, r24
    31a4:	4f 5f       	subi	r20, 0xFF	; 255
    31a6:	5f 4f       	sbci	r21, 0xFF	; 255
    31a8:	49 83       	std	Y+1, r20	; 0x01
    31aa:	5a 83       	std	Y+2, r21	; 0x02
    31ac:	f9 01       	movw	r30, r18
    31ae:	e8 0f       	add	r30, r24
    31b0:	f9 1f       	adc	r31, r25
    31b2:	2c e2       	ldi	r18, 0x2C	; 44
    31b4:	20 83       	st	Z, r18
	*/
	
	//==========================Gyro======================
	//--------------MPU9150 Gyro x---------------------//156
	
	tmp = allData->MPU9150->gyro_x*10;
    31b6:	d8 01       	movw	r26, r16
    31b8:	ed 91       	ld	r30, X+
    31ba:	fc 91       	ld	r31, X
    31bc:	20 e0       	ldi	r18, 0x00	; 0
    31be:	30 e0       	ldi	r19, 0x00	; 0
    31c0:	40 e2       	ldi	r20, 0x20	; 32
    31c2:	51 e4       	ldi	r21, 0x41	; 65
    31c4:	64 a1       	ldd	r22, Z+36	; 0x24
    31c6:	75 a1       	ldd	r23, Z+37	; 0x25
    31c8:	86 a1       	ldd	r24, Z+38	; 0x26
    31ca:	97 a1       	ldd	r25, Z+39	; 0x27
    31cc:	5b d4       	rcall	.+2230   	; 0x3a84 <__mulsf3>
    31ce:	73 d3       	rcall	.+1766   	; 0x38b6 <__fixsfsi>
    31d0:	6b 83       	std	Y+3, r22	; 0x03
    31d2:	7c 83       	std	Y+4, r23	; 0x04
	if(tmp < 0){
    31d4:	8b 81       	ldd	r24, Y+3	; 0x03
    31d6:	9c 81       	ldd	r25, Y+4	; 0x04
    31d8:	99 23       	and	r25, r25
    31da:	bc f4       	brge	.+46     	; 0x320a <prepareFrame+0x1dbe>
		tmp = -tmp;
    31dc:	8b 81       	ldd	r24, Y+3	; 0x03
    31de:	9c 81       	ldd	r25, Y+4	; 0x04
    31e0:	91 95       	neg	r25
    31e2:	81 95       	neg	r24
    31e4:	91 09       	sbc	r25, r1
    31e6:	8b 83       	std	Y+3, r24	; 0x03
    31e8:	9c 83       	std	Y+4, r25	; 0x04
		allData->frame_b->frameASCII[i++] = '-';
    31ea:	f8 01       	movw	r30, r16
    31ec:	22 89       	ldd	r18, Z+18	; 0x12
    31ee:	33 89       	ldd	r19, Z+19	; 0x13
    31f0:	89 81       	ldd	r24, Y+1	; 0x01
    31f2:	9a 81       	ldd	r25, Y+2	; 0x02
    31f4:	ac 01       	movw	r20, r24
    31f6:	4f 5f       	subi	r20, 0xFF	; 255
    31f8:	5f 4f       	sbci	r21, 0xFF	; 255
    31fa:	49 83       	std	Y+1, r20	; 0x01
    31fc:	5a 83       	std	Y+2, r21	; 0x02
    31fe:	f9 01       	movw	r30, r18
    3200:	e8 0f       	add	r30, r24
    3202:	f9 1f       	adc	r31, r25
    3204:	2d e2       	ldi	r18, 0x2D	; 45
    3206:	20 83       	st	Z, r18
    3208:	11 c0       	rjmp	.+34     	; 0x322c <prepareFrame+0x1de0>
	}
	else allData->frame_b->frameASCII[i++] = '+';
    320a:	d8 01       	movw	r26, r16
    320c:	52 96       	adiw	r26, 0x12	; 18
    320e:	2d 91       	ld	r18, X+
    3210:	3c 91       	ld	r19, X
    3212:	53 97       	sbiw	r26, 0x13	; 19
    3214:	89 81       	ldd	r24, Y+1	; 0x01
    3216:	9a 81       	ldd	r25, Y+2	; 0x02
    3218:	ac 01       	movw	r20, r24
    321a:	4f 5f       	subi	r20, 0xFF	; 255
    321c:	5f 4f       	sbci	r21, 0xFF	; 255
    321e:	49 83       	std	Y+1, r20	; 0x01
    3220:	5a 83       	std	Y+2, r21	; 0x02
    3222:	f9 01       	movw	r30, r18
    3224:	e8 0f       	add	r30, r24
    3226:	f9 1f       	adc	r31, r25
    3228:	2b e2       	ldi	r18, 0x2B	; 43
    322a:	20 83       	st	Z, r18
	allData->frame_b->frameASCII[i++] = (tmp/10000)%10 + 48;
    322c:	d8 01       	movw	r26, r16
    322e:	52 96       	adiw	r26, 0x12	; 18
    3230:	ed 91       	ld	r30, X+
    3232:	fc 91       	ld	r31, X
    3234:	53 97       	sbiw	r26, 0x13	; 19
    3236:	29 81       	ldd	r18, Y+1	; 0x01
    3238:	3a 81       	ldd	r19, Y+2	; 0x02
    323a:	c9 01       	movw	r24, r18
    323c:	01 96       	adiw	r24, 0x01	; 1
    323e:	89 83       	std	Y+1, r24	; 0x01
    3240:	9a 83       	std	Y+2, r25	; 0x02
    3242:	8b 81       	ldd	r24, Y+3	; 0x03
    3244:	9c 81       	ldd	r25, Y+4	; 0x04
    3246:	e2 0f       	add	r30, r18
    3248:	f3 1f       	adc	r31, r19
    324a:	60 e1       	ldi	r22, 0x10	; 16
    324c:	77 e2       	ldi	r23, 0x27	; 39
    324e:	c4 d4       	rcall	.+2440   	; 0x3bd8 <__divmodhi4>
    3250:	cb 01       	movw	r24, r22
    3252:	2a e0       	ldi	r18, 0x0A	; 10
    3254:	30 e0       	ldi	r19, 0x00	; 0
    3256:	b9 01       	movw	r22, r18
    3258:	bf d4       	rcall	.+2430   	; 0x3bd8 <__divmodhi4>
    325a:	80 5d       	subi	r24, 0xD0	; 208
    325c:	80 83       	st	Z, r24
	allData->frame_b->frameASCII[i++] = (tmp/1000)%10 + 48;
    325e:	d8 01       	movw	r26, r16
    3260:	52 96       	adiw	r26, 0x12	; 18
    3262:	ed 91       	ld	r30, X+
    3264:	fc 91       	ld	r31, X
    3266:	53 97       	sbiw	r26, 0x13	; 19
    3268:	49 81       	ldd	r20, Y+1	; 0x01
    326a:	5a 81       	ldd	r21, Y+2	; 0x02
    326c:	ca 01       	movw	r24, r20
    326e:	01 96       	adiw	r24, 0x01	; 1
    3270:	89 83       	std	Y+1, r24	; 0x01
    3272:	9a 83       	std	Y+2, r25	; 0x02
    3274:	8b 81       	ldd	r24, Y+3	; 0x03
    3276:	9c 81       	ldd	r25, Y+4	; 0x04
    3278:	e4 0f       	add	r30, r20
    327a:	f5 1f       	adc	r31, r21
    327c:	68 ee       	ldi	r22, 0xE8	; 232
    327e:	73 e0       	ldi	r23, 0x03	; 3
    3280:	ab d4       	rcall	.+2390   	; 0x3bd8 <__divmodhi4>
    3282:	cb 01       	movw	r24, r22
    3284:	b9 01       	movw	r22, r18
    3286:	a8 d4       	rcall	.+2384   	; 0x3bd8 <__divmodhi4>
    3288:	80 5d       	subi	r24, 0xD0	; 208
    328a:	80 83       	st	Z, r24
	allData->frame_b->frameASCII[i++] = (tmp/100)%10 + 48;
    328c:	d8 01       	movw	r26, r16
    328e:	52 96       	adiw	r26, 0x12	; 18
    3290:	ed 91       	ld	r30, X+
    3292:	fc 91       	ld	r31, X
    3294:	53 97       	sbiw	r26, 0x13	; 19
    3296:	49 81       	ldd	r20, Y+1	; 0x01
    3298:	5a 81       	ldd	r21, Y+2	; 0x02
    329a:	ca 01       	movw	r24, r20
    329c:	01 96       	adiw	r24, 0x01	; 1
    329e:	89 83       	std	Y+1, r24	; 0x01
    32a0:	9a 83       	std	Y+2, r25	; 0x02
    32a2:	8b 81       	ldd	r24, Y+3	; 0x03
    32a4:	9c 81       	ldd	r25, Y+4	; 0x04
    32a6:	e4 0f       	add	r30, r20
    32a8:	f5 1f       	adc	r31, r21
    32aa:	64 e6       	ldi	r22, 0x64	; 100
    32ac:	70 e0       	ldi	r23, 0x00	; 0
    32ae:	94 d4       	rcall	.+2344   	; 0x3bd8 <__divmodhi4>
    32b0:	cb 01       	movw	r24, r22
    32b2:	b9 01       	movw	r22, r18
    32b4:	91 d4       	rcall	.+2338   	; 0x3bd8 <__divmodhi4>
    32b6:	80 5d       	subi	r24, 0xD0	; 208
    32b8:	80 83       	st	Z, r24
	allData->frame_b->frameASCII[i++] = (tmp/10)%10 + 48;
    32ba:	d8 01       	movw	r26, r16
    32bc:	52 96       	adiw	r26, 0x12	; 18
    32be:	ed 91       	ld	r30, X+
    32c0:	fc 91       	ld	r31, X
    32c2:	53 97       	sbiw	r26, 0x13	; 19
    32c4:	49 81       	ldd	r20, Y+1	; 0x01
    32c6:	5a 81       	ldd	r21, Y+2	; 0x02
    32c8:	ca 01       	movw	r24, r20
    32ca:	01 96       	adiw	r24, 0x01	; 1
    32cc:	89 83       	std	Y+1, r24	; 0x01
    32ce:	9a 83       	std	Y+2, r25	; 0x02
    32d0:	8b 81       	ldd	r24, Y+3	; 0x03
    32d2:	9c 81       	ldd	r25, Y+4	; 0x04
    32d4:	e4 0f       	add	r30, r20
    32d6:	f5 1f       	adc	r31, r21
    32d8:	b9 01       	movw	r22, r18
    32da:	7e d4       	rcall	.+2300   	; 0x3bd8 <__divmodhi4>
    32dc:	cb 01       	movw	r24, r22
    32de:	b9 01       	movw	r22, r18
    32e0:	7b d4       	rcall	.+2294   	; 0x3bd8 <__divmodhi4>
    32e2:	80 5d       	subi	r24, 0xD0	; 208
    32e4:	80 83       	st	Z, r24
	allData->frame_b->frameASCII[i++] = '.';
    32e6:	f8 01       	movw	r30, r16
    32e8:	42 89       	ldd	r20, Z+18	; 0x12
    32ea:	53 89       	ldd	r21, Z+19	; 0x13
    32ec:	89 81       	ldd	r24, Y+1	; 0x01
    32ee:	9a 81       	ldd	r25, Y+2	; 0x02
    32f0:	bc 01       	movw	r22, r24
    32f2:	6f 5f       	subi	r22, 0xFF	; 255
    32f4:	7f 4f       	sbci	r23, 0xFF	; 255
    32f6:	69 83       	std	Y+1, r22	; 0x01
    32f8:	7a 83       	std	Y+2, r23	; 0x02
    32fa:	fa 01       	movw	r30, r20
    32fc:	e8 0f       	add	r30, r24
    32fe:	f9 1f       	adc	r31, r25
    3300:	4e e2       	ldi	r20, 0x2E	; 46
    3302:	40 83       	st	Z, r20
	allData->frame_b->frameASCII[i++] = (tmp)%10 + 48;
    3304:	d8 01       	movw	r26, r16
    3306:	52 96       	adiw	r26, 0x12	; 18
    3308:	ed 91       	ld	r30, X+
    330a:	fc 91       	ld	r31, X
    330c:	53 97       	sbiw	r26, 0x13	; 19
    330e:	49 81       	ldd	r20, Y+1	; 0x01
    3310:	5a 81       	ldd	r21, Y+2	; 0x02
    3312:	ca 01       	movw	r24, r20
    3314:	01 96       	adiw	r24, 0x01	; 1
    3316:	89 83       	std	Y+1, r24	; 0x01
    3318:	9a 83       	std	Y+2, r25	; 0x02
    331a:	8b 81       	ldd	r24, Y+3	; 0x03
    331c:	9c 81       	ldd	r25, Y+4	; 0x04
    331e:	e4 0f       	add	r30, r20
    3320:	f5 1f       	adc	r31, r21
    3322:	b9 01       	movw	r22, r18
    3324:	59 d4       	rcall	.+2226   	; 0x3bd8 <__divmodhi4>
    3326:	80 5d       	subi	r24, 0xD0	; 208
    3328:	80 83       	st	Z, r24
	allData->frame_b->frameASCII[i++] = ',';
    332a:	f8 01       	movw	r30, r16
    332c:	22 89       	ldd	r18, Z+18	; 0x12
    332e:	33 89       	ldd	r19, Z+19	; 0x13
    3330:	89 81       	ldd	r24, Y+1	; 0x01
    3332:	9a 81       	ldd	r25, Y+2	; 0x02
    3334:	ac 01       	movw	r20, r24
    3336:	4f 5f       	subi	r20, 0xFF	; 255
    3338:	5f 4f       	sbci	r21, 0xFF	; 255
    333a:	49 83       	std	Y+1, r20	; 0x01
    333c:	5a 83       	std	Y+2, r21	; 0x02
    333e:	f9 01       	movw	r30, r18
    3340:	e8 0f       	add	r30, r24
    3342:	f9 1f       	adc	r31, r25
    3344:	2c e2       	ldi	r18, 0x2C	; 44
    3346:	20 83       	st	Z, r18
	
	//--------------MPU9150 Gyro z----------------------
	
	tmp = allData->MPU9150->gyro_z*10;
    3348:	d8 01       	movw	r26, r16
    334a:	ed 91       	ld	r30, X+
    334c:	fc 91       	ld	r31, X
    334e:	20 e0       	ldi	r18, 0x00	; 0
    3350:	30 e0       	ldi	r19, 0x00	; 0
    3352:	40 e2       	ldi	r20, 0x20	; 32
    3354:	51 e4       	ldi	r21, 0x41	; 65
    3356:	64 a5       	ldd	r22, Z+44	; 0x2c
    3358:	75 a5       	ldd	r23, Z+45	; 0x2d
    335a:	86 a5       	ldd	r24, Z+46	; 0x2e
    335c:	97 a5       	ldd	r25, Z+47	; 0x2f
    335e:	92 d3       	rcall	.+1828   	; 0x3a84 <__mulsf3>
    3360:	aa d2       	rcall	.+1364   	; 0x38b6 <__fixsfsi>
    3362:	6b 83       	std	Y+3, r22	; 0x03
    3364:	7c 83       	std	Y+4, r23	; 0x04
	if(tmp < 0){
    3366:	8b 81       	ldd	r24, Y+3	; 0x03
    3368:	9c 81       	ldd	r25, Y+4	; 0x04
    336a:	99 23       	and	r25, r25
    336c:	bc f4       	brge	.+46     	; 0x339c <prepareFrame+0x1f50>
		tmp = -tmp;
    336e:	8b 81       	ldd	r24, Y+3	; 0x03
    3370:	9c 81       	ldd	r25, Y+4	; 0x04
    3372:	91 95       	neg	r25
    3374:	81 95       	neg	r24
    3376:	91 09       	sbc	r25, r1
    3378:	8b 83       	std	Y+3, r24	; 0x03
    337a:	9c 83       	std	Y+4, r25	; 0x04
		allData->frame_b->frameASCII[i++] = '-';
    337c:	f8 01       	movw	r30, r16
    337e:	22 89       	ldd	r18, Z+18	; 0x12
    3380:	33 89       	ldd	r19, Z+19	; 0x13
    3382:	89 81       	ldd	r24, Y+1	; 0x01
    3384:	9a 81       	ldd	r25, Y+2	; 0x02
    3386:	ac 01       	movw	r20, r24
    3388:	4f 5f       	subi	r20, 0xFF	; 255
    338a:	5f 4f       	sbci	r21, 0xFF	; 255
    338c:	49 83       	std	Y+1, r20	; 0x01
    338e:	5a 83       	std	Y+2, r21	; 0x02
    3390:	f9 01       	movw	r30, r18
    3392:	e8 0f       	add	r30, r24
    3394:	f9 1f       	adc	r31, r25
    3396:	2d e2       	ldi	r18, 0x2D	; 45
    3398:	20 83       	st	Z, r18
    339a:	11 c0       	rjmp	.+34     	; 0x33be <prepareFrame+0x1f72>
	}
	else allData->frame_b->frameASCII[i++] = '+';
    339c:	d8 01       	movw	r26, r16
    339e:	52 96       	adiw	r26, 0x12	; 18
    33a0:	2d 91       	ld	r18, X+
    33a2:	3c 91       	ld	r19, X
    33a4:	53 97       	sbiw	r26, 0x13	; 19
    33a6:	89 81       	ldd	r24, Y+1	; 0x01
    33a8:	9a 81       	ldd	r25, Y+2	; 0x02
    33aa:	ac 01       	movw	r20, r24
    33ac:	4f 5f       	subi	r20, 0xFF	; 255
    33ae:	5f 4f       	sbci	r21, 0xFF	; 255
    33b0:	49 83       	std	Y+1, r20	; 0x01
    33b2:	5a 83       	std	Y+2, r21	; 0x02
    33b4:	f9 01       	movw	r30, r18
    33b6:	e8 0f       	add	r30, r24
    33b8:	f9 1f       	adc	r31, r25
    33ba:	2b e2       	ldi	r18, 0x2B	; 43
    33bc:	20 83       	st	Z, r18
	allData->frame_b->frameASCII[i++] = (tmp/10000)%10 + 48;
    33be:	d8 01       	movw	r26, r16
    33c0:	52 96       	adiw	r26, 0x12	; 18
    33c2:	ed 91       	ld	r30, X+
    33c4:	fc 91       	ld	r31, X
    33c6:	53 97       	sbiw	r26, 0x13	; 19
    33c8:	29 81       	ldd	r18, Y+1	; 0x01
    33ca:	3a 81       	ldd	r19, Y+2	; 0x02
    33cc:	c9 01       	movw	r24, r18
    33ce:	01 96       	adiw	r24, 0x01	; 1
    33d0:	89 83       	std	Y+1, r24	; 0x01
    33d2:	9a 83       	std	Y+2, r25	; 0x02
    33d4:	8b 81       	ldd	r24, Y+3	; 0x03
    33d6:	9c 81       	ldd	r25, Y+4	; 0x04
    33d8:	e2 0f       	add	r30, r18
    33da:	f3 1f       	adc	r31, r19
    33dc:	60 e1       	ldi	r22, 0x10	; 16
    33de:	77 e2       	ldi	r23, 0x27	; 39
    33e0:	fb d3       	rcall	.+2038   	; 0x3bd8 <__divmodhi4>
    33e2:	cb 01       	movw	r24, r22
    33e4:	2a e0       	ldi	r18, 0x0A	; 10
    33e6:	30 e0       	ldi	r19, 0x00	; 0
    33e8:	b9 01       	movw	r22, r18
    33ea:	f6 d3       	rcall	.+2028   	; 0x3bd8 <__divmodhi4>
    33ec:	80 5d       	subi	r24, 0xD0	; 208
    33ee:	80 83       	st	Z, r24
	allData->frame_b->frameASCII[i++] = (tmp/1000)%10 + 48;
    33f0:	d8 01       	movw	r26, r16
    33f2:	52 96       	adiw	r26, 0x12	; 18
    33f4:	ed 91       	ld	r30, X+
    33f6:	fc 91       	ld	r31, X
    33f8:	53 97       	sbiw	r26, 0x13	; 19
    33fa:	49 81       	ldd	r20, Y+1	; 0x01
    33fc:	5a 81       	ldd	r21, Y+2	; 0x02
    33fe:	ca 01       	movw	r24, r20
    3400:	01 96       	adiw	r24, 0x01	; 1
    3402:	89 83       	std	Y+1, r24	; 0x01
    3404:	9a 83       	std	Y+2, r25	; 0x02
    3406:	8b 81       	ldd	r24, Y+3	; 0x03
    3408:	9c 81       	ldd	r25, Y+4	; 0x04
    340a:	e4 0f       	add	r30, r20
    340c:	f5 1f       	adc	r31, r21
    340e:	68 ee       	ldi	r22, 0xE8	; 232
    3410:	73 e0       	ldi	r23, 0x03	; 3
    3412:	e2 d3       	rcall	.+1988   	; 0x3bd8 <__divmodhi4>
    3414:	cb 01       	movw	r24, r22
    3416:	b9 01       	movw	r22, r18
    3418:	df d3       	rcall	.+1982   	; 0x3bd8 <__divmodhi4>
    341a:	80 5d       	subi	r24, 0xD0	; 208
    341c:	80 83       	st	Z, r24
	allData->frame_b->frameASCII[i++] = (tmp/100)%10 + 48;
    341e:	d8 01       	movw	r26, r16
    3420:	52 96       	adiw	r26, 0x12	; 18
    3422:	ed 91       	ld	r30, X+
    3424:	fc 91       	ld	r31, X
    3426:	53 97       	sbiw	r26, 0x13	; 19
    3428:	49 81       	ldd	r20, Y+1	; 0x01
    342a:	5a 81       	ldd	r21, Y+2	; 0x02
    342c:	ca 01       	movw	r24, r20
    342e:	01 96       	adiw	r24, 0x01	; 1
    3430:	89 83       	std	Y+1, r24	; 0x01
    3432:	9a 83       	std	Y+2, r25	; 0x02
    3434:	8b 81       	ldd	r24, Y+3	; 0x03
    3436:	9c 81       	ldd	r25, Y+4	; 0x04
    3438:	e4 0f       	add	r30, r20
    343a:	f5 1f       	adc	r31, r21
    343c:	64 e6       	ldi	r22, 0x64	; 100
    343e:	70 e0       	ldi	r23, 0x00	; 0
    3440:	cb d3       	rcall	.+1942   	; 0x3bd8 <__divmodhi4>
    3442:	cb 01       	movw	r24, r22
    3444:	b9 01       	movw	r22, r18
    3446:	c8 d3       	rcall	.+1936   	; 0x3bd8 <__divmodhi4>
    3448:	80 5d       	subi	r24, 0xD0	; 208
    344a:	80 83       	st	Z, r24
	allData->frame_b->frameASCII[i++] = (tmp/10)%10 + 48;
    344c:	d8 01       	movw	r26, r16
    344e:	52 96       	adiw	r26, 0x12	; 18
    3450:	ed 91       	ld	r30, X+
    3452:	fc 91       	ld	r31, X
    3454:	53 97       	sbiw	r26, 0x13	; 19
    3456:	49 81       	ldd	r20, Y+1	; 0x01
    3458:	5a 81       	ldd	r21, Y+2	; 0x02
    345a:	ca 01       	movw	r24, r20
    345c:	01 96       	adiw	r24, 0x01	; 1
    345e:	89 83       	std	Y+1, r24	; 0x01
    3460:	9a 83       	std	Y+2, r25	; 0x02
    3462:	8b 81       	ldd	r24, Y+3	; 0x03
    3464:	9c 81       	ldd	r25, Y+4	; 0x04
    3466:	e4 0f       	add	r30, r20
    3468:	f5 1f       	adc	r31, r21
    346a:	b9 01       	movw	r22, r18
    346c:	b5 d3       	rcall	.+1898   	; 0x3bd8 <__divmodhi4>
    346e:	cb 01       	movw	r24, r22
    3470:	b9 01       	movw	r22, r18
    3472:	b2 d3       	rcall	.+1892   	; 0x3bd8 <__divmodhi4>
    3474:	80 5d       	subi	r24, 0xD0	; 208
    3476:	80 83       	st	Z, r24
	allData->frame_b->frameASCII[i++] = '.';
    3478:	f8 01       	movw	r30, r16
    347a:	42 89       	ldd	r20, Z+18	; 0x12
    347c:	53 89       	ldd	r21, Z+19	; 0x13
    347e:	89 81       	ldd	r24, Y+1	; 0x01
    3480:	9a 81       	ldd	r25, Y+2	; 0x02
    3482:	bc 01       	movw	r22, r24
    3484:	6f 5f       	subi	r22, 0xFF	; 255
    3486:	7f 4f       	sbci	r23, 0xFF	; 255
    3488:	69 83       	std	Y+1, r22	; 0x01
    348a:	7a 83       	std	Y+2, r23	; 0x02
    348c:	fa 01       	movw	r30, r20
    348e:	e8 0f       	add	r30, r24
    3490:	f9 1f       	adc	r31, r25
    3492:	4e e2       	ldi	r20, 0x2E	; 46
    3494:	40 83       	st	Z, r20
	allData->frame_b->frameASCII[i++] = (tmp)%10 + 48;
    3496:	d8 01       	movw	r26, r16
    3498:	52 96       	adiw	r26, 0x12	; 18
    349a:	ed 91       	ld	r30, X+
    349c:	fc 91       	ld	r31, X
    349e:	53 97       	sbiw	r26, 0x13	; 19
    34a0:	49 81       	ldd	r20, Y+1	; 0x01
    34a2:	5a 81       	ldd	r21, Y+2	; 0x02
    34a4:	ca 01       	movw	r24, r20
    34a6:	01 96       	adiw	r24, 0x01	; 1
    34a8:	89 83       	std	Y+1, r24	; 0x01
    34aa:	9a 83       	std	Y+2, r25	; 0x02
    34ac:	8b 81       	ldd	r24, Y+3	; 0x03
    34ae:	9c 81       	ldd	r25, Y+4	; 0x04
    34b0:	e4 0f       	add	r30, r20
    34b2:	f5 1f       	adc	r31, r21
    34b4:	b9 01       	movw	r22, r18
    34b6:	90 d3       	rcall	.+1824   	; 0x3bd8 <__divmodhi4>
    34b8:	80 5d       	subi	r24, 0xD0	; 208
    34ba:	80 83       	st	Z, r24
	allData->frame_b->frameASCII[i++] = ',';
    34bc:	f8 01       	movw	r30, r16
    34be:	22 89       	ldd	r18, Z+18	; 0x12
    34c0:	33 89       	ldd	r19, Z+19	; 0x13
    34c2:	89 81       	ldd	r24, Y+1	; 0x01
    34c4:	9a 81       	ldd	r25, Y+2	; 0x02
    34c6:	ac 01       	movw	r20, r24
    34c8:	4f 5f       	subi	r20, 0xFF	; 255
    34ca:	5f 4f       	sbci	r21, 0xFF	; 255
    34cc:	49 83       	std	Y+1, r20	; 0x01
    34ce:	5a 83       	std	Y+2, r21	; 0x02
    34d0:	f9 01       	movw	r30, r18
    34d2:	e8 0f       	add	r30, r24
    34d4:	f9 1f       	adc	r31, r25
    34d6:	2c e2       	ldi	r18, 0x2C	; 44
    34d8:	20 83       	st	Z, r18
	allData->frame_b->frameASCII[i++] = '.';
	allData->frame_b->frameASCII[i++] = (tmp)%10 + 48;
	allData->frame_b->frameASCII[i++] = ',';
	*/
	//--------------LSM9DS0 Gyro y---------------------
	tmp = allData->LSM9DS0->gyro_y*10;
    34da:	d8 01       	movw	r26, r16
    34dc:	12 96       	adiw	r26, 0x02	; 2
    34de:	ed 91       	ld	r30, X+
    34e0:	fc 91       	ld	r31, X
    34e2:	13 97       	sbiw	r26, 0x03	; 3
    34e4:	20 e0       	ldi	r18, 0x00	; 0
    34e6:	30 e0       	ldi	r19, 0x00	; 0
    34e8:	40 e2       	ldi	r20, 0x20	; 32
    34ea:	51 e4       	ldi	r21, 0x41	; 65
    34ec:	60 a5       	ldd	r22, Z+40	; 0x28
    34ee:	71 a5       	ldd	r23, Z+41	; 0x29
    34f0:	82 a5       	ldd	r24, Z+42	; 0x2a
    34f2:	93 a5       	ldd	r25, Z+43	; 0x2b
    34f4:	c7 d2       	rcall	.+1422   	; 0x3a84 <__mulsf3>
    34f6:	df d1       	rcall	.+958    	; 0x38b6 <__fixsfsi>
    34f8:	6b 83       	std	Y+3, r22	; 0x03
    34fa:	7c 83       	std	Y+4, r23	; 0x04
	if(tmp < 0){
    34fc:	8b 81       	ldd	r24, Y+3	; 0x03
    34fe:	9c 81       	ldd	r25, Y+4	; 0x04
    3500:	99 23       	and	r25, r25
    3502:	bc f4       	brge	.+46     	; 0x3532 <prepareFrame+0x20e6>
		tmp = -tmp;
    3504:	8b 81       	ldd	r24, Y+3	; 0x03
    3506:	9c 81       	ldd	r25, Y+4	; 0x04
    3508:	91 95       	neg	r25
    350a:	81 95       	neg	r24
    350c:	91 09       	sbc	r25, r1
    350e:	8b 83       	std	Y+3, r24	; 0x03
    3510:	9c 83       	std	Y+4, r25	; 0x04
		allData->frame_b->frameASCII[i++] = '-';
    3512:	f8 01       	movw	r30, r16
    3514:	22 89       	ldd	r18, Z+18	; 0x12
    3516:	33 89       	ldd	r19, Z+19	; 0x13
    3518:	89 81       	ldd	r24, Y+1	; 0x01
    351a:	9a 81       	ldd	r25, Y+2	; 0x02
    351c:	ac 01       	movw	r20, r24
    351e:	4f 5f       	subi	r20, 0xFF	; 255
    3520:	5f 4f       	sbci	r21, 0xFF	; 255
    3522:	49 83       	std	Y+1, r20	; 0x01
    3524:	5a 83       	std	Y+2, r21	; 0x02
    3526:	f9 01       	movw	r30, r18
    3528:	e8 0f       	add	r30, r24
    352a:	f9 1f       	adc	r31, r25
    352c:	2d e2       	ldi	r18, 0x2D	; 45
    352e:	20 83       	st	Z, r18
    3530:	11 c0       	rjmp	.+34     	; 0x3554 <prepareFrame+0x2108>
	}
	else allData->frame_b->frameASCII[i++] = '+';
    3532:	d8 01       	movw	r26, r16
    3534:	52 96       	adiw	r26, 0x12	; 18
    3536:	2d 91       	ld	r18, X+
    3538:	3c 91       	ld	r19, X
    353a:	53 97       	sbiw	r26, 0x13	; 19
    353c:	89 81       	ldd	r24, Y+1	; 0x01
    353e:	9a 81       	ldd	r25, Y+2	; 0x02
    3540:	ac 01       	movw	r20, r24
    3542:	4f 5f       	subi	r20, 0xFF	; 255
    3544:	5f 4f       	sbci	r21, 0xFF	; 255
    3546:	49 83       	std	Y+1, r20	; 0x01
    3548:	5a 83       	std	Y+2, r21	; 0x02
    354a:	f9 01       	movw	r30, r18
    354c:	e8 0f       	add	r30, r24
    354e:	f9 1f       	adc	r31, r25
    3550:	2b e2       	ldi	r18, 0x2B	; 43
    3552:	20 83       	st	Z, r18
	allData->frame_b->frameASCII[i++] = (tmp/10000)%10 + 48;
    3554:	d8 01       	movw	r26, r16
    3556:	52 96       	adiw	r26, 0x12	; 18
    3558:	ed 91       	ld	r30, X+
    355a:	fc 91       	ld	r31, X
    355c:	53 97       	sbiw	r26, 0x13	; 19
    355e:	29 81       	ldd	r18, Y+1	; 0x01
    3560:	3a 81       	ldd	r19, Y+2	; 0x02
    3562:	c9 01       	movw	r24, r18
    3564:	01 96       	adiw	r24, 0x01	; 1
    3566:	89 83       	std	Y+1, r24	; 0x01
    3568:	9a 83       	std	Y+2, r25	; 0x02
    356a:	8b 81       	ldd	r24, Y+3	; 0x03
    356c:	9c 81       	ldd	r25, Y+4	; 0x04
    356e:	e2 0f       	add	r30, r18
    3570:	f3 1f       	adc	r31, r19
    3572:	60 e1       	ldi	r22, 0x10	; 16
    3574:	77 e2       	ldi	r23, 0x27	; 39
    3576:	30 d3       	rcall	.+1632   	; 0x3bd8 <__divmodhi4>
    3578:	cb 01       	movw	r24, r22
    357a:	2a e0       	ldi	r18, 0x0A	; 10
    357c:	30 e0       	ldi	r19, 0x00	; 0
    357e:	b9 01       	movw	r22, r18
    3580:	2b d3       	rcall	.+1622   	; 0x3bd8 <__divmodhi4>
    3582:	80 5d       	subi	r24, 0xD0	; 208
    3584:	80 83       	st	Z, r24
	allData->frame_b->frameASCII[i++] = (tmp/1000)%10 + 48;
    3586:	d8 01       	movw	r26, r16
    3588:	52 96       	adiw	r26, 0x12	; 18
    358a:	ed 91       	ld	r30, X+
    358c:	fc 91       	ld	r31, X
    358e:	53 97       	sbiw	r26, 0x13	; 19
    3590:	49 81       	ldd	r20, Y+1	; 0x01
    3592:	5a 81       	ldd	r21, Y+2	; 0x02
    3594:	ca 01       	movw	r24, r20
    3596:	01 96       	adiw	r24, 0x01	; 1
    3598:	89 83       	std	Y+1, r24	; 0x01
    359a:	9a 83       	std	Y+2, r25	; 0x02
    359c:	8b 81       	ldd	r24, Y+3	; 0x03
    359e:	9c 81       	ldd	r25, Y+4	; 0x04
    35a0:	e4 0f       	add	r30, r20
    35a2:	f5 1f       	adc	r31, r21
    35a4:	68 ee       	ldi	r22, 0xE8	; 232
    35a6:	73 e0       	ldi	r23, 0x03	; 3
    35a8:	17 d3       	rcall	.+1582   	; 0x3bd8 <__divmodhi4>
    35aa:	cb 01       	movw	r24, r22
    35ac:	b9 01       	movw	r22, r18
    35ae:	14 d3       	rcall	.+1576   	; 0x3bd8 <__divmodhi4>
    35b0:	80 5d       	subi	r24, 0xD0	; 208
    35b2:	80 83       	st	Z, r24
	allData->frame_b->frameASCII[i++] = (tmp/100)%10 + 48;
    35b4:	d8 01       	movw	r26, r16
    35b6:	52 96       	adiw	r26, 0x12	; 18
    35b8:	ed 91       	ld	r30, X+
    35ba:	fc 91       	ld	r31, X
    35bc:	53 97       	sbiw	r26, 0x13	; 19
    35be:	49 81       	ldd	r20, Y+1	; 0x01
    35c0:	5a 81       	ldd	r21, Y+2	; 0x02
    35c2:	ca 01       	movw	r24, r20
    35c4:	01 96       	adiw	r24, 0x01	; 1
    35c6:	89 83       	std	Y+1, r24	; 0x01
    35c8:	9a 83       	std	Y+2, r25	; 0x02
    35ca:	8b 81       	ldd	r24, Y+3	; 0x03
    35cc:	9c 81       	ldd	r25, Y+4	; 0x04
    35ce:	e4 0f       	add	r30, r20
    35d0:	f5 1f       	adc	r31, r21
    35d2:	64 e6       	ldi	r22, 0x64	; 100
    35d4:	70 e0       	ldi	r23, 0x00	; 0
    35d6:	00 d3       	rcall	.+1536   	; 0x3bd8 <__divmodhi4>
    35d8:	cb 01       	movw	r24, r22
    35da:	b9 01       	movw	r22, r18
    35dc:	fd d2       	rcall	.+1530   	; 0x3bd8 <__divmodhi4>
    35de:	80 5d       	subi	r24, 0xD0	; 208
    35e0:	80 83       	st	Z, r24
	allData->frame_b->frameASCII[i++] = (tmp/10)%10 + 48;
    35e2:	d8 01       	movw	r26, r16
    35e4:	52 96       	adiw	r26, 0x12	; 18
    35e6:	ed 91       	ld	r30, X+
    35e8:	fc 91       	ld	r31, X
    35ea:	53 97       	sbiw	r26, 0x13	; 19
    35ec:	49 81       	ldd	r20, Y+1	; 0x01
    35ee:	5a 81       	ldd	r21, Y+2	; 0x02
    35f0:	ca 01       	movw	r24, r20
    35f2:	01 96       	adiw	r24, 0x01	; 1
    35f4:	89 83       	std	Y+1, r24	; 0x01
    35f6:	9a 83       	std	Y+2, r25	; 0x02
    35f8:	8b 81       	ldd	r24, Y+3	; 0x03
    35fa:	9c 81       	ldd	r25, Y+4	; 0x04
    35fc:	e4 0f       	add	r30, r20
    35fe:	f5 1f       	adc	r31, r21
    3600:	b9 01       	movw	r22, r18
    3602:	ea d2       	rcall	.+1492   	; 0x3bd8 <__divmodhi4>
    3604:	cb 01       	movw	r24, r22
    3606:	b9 01       	movw	r22, r18
    3608:	e7 d2       	rcall	.+1486   	; 0x3bd8 <__divmodhi4>
    360a:	80 5d       	subi	r24, 0xD0	; 208
    360c:	80 83       	st	Z, r24
	allData->frame_b->frameASCII[i++] = '.';
    360e:	f8 01       	movw	r30, r16
    3610:	42 89       	ldd	r20, Z+18	; 0x12
    3612:	53 89       	ldd	r21, Z+19	; 0x13
    3614:	89 81       	ldd	r24, Y+1	; 0x01
    3616:	9a 81       	ldd	r25, Y+2	; 0x02
    3618:	bc 01       	movw	r22, r24
    361a:	6f 5f       	subi	r22, 0xFF	; 255
    361c:	7f 4f       	sbci	r23, 0xFF	; 255
    361e:	69 83       	std	Y+1, r22	; 0x01
    3620:	7a 83       	std	Y+2, r23	; 0x02
    3622:	fa 01       	movw	r30, r20
    3624:	e8 0f       	add	r30, r24
    3626:	f9 1f       	adc	r31, r25
    3628:	4e e2       	ldi	r20, 0x2E	; 46
    362a:	40 83       	st	Z, r20
	allData->frame_b->frameASCII[i++] = (tmp)%10 + 48;
    362c:	d8 01       	movw	r26, r16
    362e:	52 96       	adiw	r26, 0x12	; 18
    3630:	ed 91       	ld	r30, X+
    3632:	fc 91       	ld	r31, X
    3634:	53 97       	sbiw	r26, 0x13	; 19
    3636:	49 81       	ldd	r20, Y+1	; 0x01
    3638:	5a 81       	ldd	r21, Y+2	; 0x02
    363a:	ca 01       	movw	r24, r20
    363c:	01 96       	adiw	r24, 0x01	; 1
    363e:	89 83       	std	Y+1, r24	; 0x01
    3640:	9a 83       	std	Y+2, r25	; 0x02
    3642:	8b 81       	ldd	r24, Y+3	; 0x03
    3644:	9c 81       	ldd	r25, Y+4	; 0x04
    3646:	e4 0f       	add	r30, r20
    3648:	f5 1f       	adc	r31, r21
    364a:	b9 01       	movw	r22, r18
    364c:	c5 d2       	rcall	.+1418   	; 0x3bd8 <__divmodhi4>
    364e:	80 5d       	subi	r24, 0xD0	; 208
    3650:	80 83       	st	Z, r24
	allData->frame_b->frameASCII[i++] = ',';
    3652:	f8 01       	movw	r30, r16
    3654:	22 89       	ldd	r18, Z+18	; 0x12
    3656:	33 89       	ldd	r19, Z+19	; 0x13
    3658:	89 81       	ldd	r24, Y+1	; 0x01
    365a:	9a 81       	ldd	r25, Y+2	; 0x02
    365c:	ac 01       	movw	r20, r24
    365e:	4f 5f       	subi	r20, 0xFF	; 255
    3660:	5f 4f       	sbci	r21, 0xFF	; 255
    3662:	49 83       	std	Y+1, r20	; 0x01
    3664:	5a 83       	std	Y+2, r21	; 0x02
    3666:	f9 01       	movw	r30, r18
    3668:	e8 0f       	add	r30, r24
    366a:	f9 1f       	adc	r31, r25
    366c:	2c e2       	ldi	r18, 0x2C	; 44
    366e:	20 83       	st	Z, r18
	allData->frame_b->frameASCII[i++] = (tmp/10)%10 + 48;
	allData->frame_b->frameASCII[i++] = (tmp)%10 + 48;
	allData->frame_b->frameASCII[i++] = ',';
	*/
	
	allData->frame_b->frameASCII[i++] = '\r';
    3670:	d8 01       	movw	r26, r16
    3672:	52 96       	adiw	r26, 0x12	; 18
    3674:	2d 91       	ld	r18, X+
    3676:	3c 91       	ld	r19, X
    3678:	53 97       	sbiw	r26, 0x13	; 19
    367a:	89 81       	ldd	r24, Y+1	; 0x01
    367c:	9a 81       	ldd	r25, Y+2	; 0x02
    367e:	ac 01       	movw	r20, r24
    3680:	4f 5f       	subi	r20, 0xFF	; 255
    3682:	5f 4f       	sbci	r21, 0xFF	; 255
    3684:	49 83       	std	Y+1, r20	; 0x01
    3686:	5a 83       	std	Y+2, r21	; 0x02
    3688:	f9 01       	movw	r30, r18
    368a:	e8 0f       	add	r30, r24
    368c:	f9 1f       	adc	r31, r25
    368e:	2d e0       	ldi	r18, 0x0D	; 13
    3690:	20 83       	st	Z, r18
	allData->frame_b->frameASCII[i++] = '\n';		//248 bajtw
    3692:	52 96       	adiw	r26, 0x12	; 18
    3694:	2d 91       	ld	r18, X+
    3696:	3c 91       	ld	r19, X
    3698:	53 97       	sbiw	r26, 0x13	; 19
    369a:	89 81       	ldd	r24, Y+1	; 0x01
    369c:	9a 81       	ldd	r25, Y+2	; 0x02
    369e:	ac 01       	movw	r20, r24
    36a0:	4f 5f       	subi	r20, 0xFF	; 255
    36a2:	5f 4f       	sbci	r21, 0xFF	; 255
    36a4:	49 83       	std	Y+1, r20	; 0x01
    36a6:	5a 83       	std	Y+2, r21	; 0x02
    36a8:	f9 01       	movw	r30, r18
    36aa:	e8 0f       	add	r30, r24
    36ac:	f9 1f       	adc	r31, r25
    36ae:	2a e0       	ldi	r18, 0x0A	; 10
    36b0:	20 83       	st	Z, r18
	allData->frame_b->frameASCII[i++] = 0;
    36b2:	52 96       	adiw	r26, 0x12	; 18
    36b4:	2d 91       	ld	r18, X+
    36b6:	3c 91       	ld	r19, X
    36b8:	53 97       	sbiw	r26, 0x13	; 19
    36ba:	89 81       	ldd	r24, Y+1	; 0x01
    36bc:	9a 81       	ldd	r25, Y+2	; 0x02
    36be:	ac 01       	movw	r20, r24
    36c0:	4f 5f       	subi	r20, 0xFF	; 255
    36c2:	5f 4f       	sbci	r21, 0xFF	; 255
    36c4:	49 83       	std	Y+1, r20	; 0x01
    36c6:	5a 83       	std	Y+2, r21	; 0x02
    36c8:	f9 01       	movw	r30, r18
    36ca:	e8 0f       	add	r30, r24
    36cc:	f9 1f       	adc	r31, r25
    36ce:	10 82       	st	Z, r1
	allData->frame_b->frameASCII[i++] = 'X';
    36d0:	52 96       	adiw	r26, 0x12	; 18
    36d2:	2d 91       	ld	r18, X+
    36d4:	3c 91       	ld	r19, X
    36d6:	53 97       	sbiw	r26, 0x13	; 19
    36d8:	89 81       	ldd	r24, Y+1	; 0x01
    36da:	9a 81       	ldd	r25, Y+2	; 0x02
    36dc:	ac 01       	movw	r20, r24
    36de:	4f 5f       	subi	r20, 0xFF	; 255
    36e0:	5f 4f       	sbci	r21, 0xFF	; 255
    36e2:	49 83       	std	Y+1, r20	; 0x01
    36e4:	5a 83       	std	Y+2, r21	; 0x02
    36e6:	f9 01       	movw	r30, r18
    36e8:	e8 0f       	add	r30, r24
    36ea:	f9 1f       	adc	r31, r25
    36ec:	28 e5       	ldi	r18, 0x58	; 88
    36ee:	20 83       	st	Z, r18
}
    36f0:	2a 96       	adiw	r28, 0x0a	; 10
    36f2:	cd bf       	out	0x3d, r28	; 61
    36f4:	de bf       	out	0x3e, r29	; 62
    36f6:	df 91       	pop	r29
    36f8:	cf 91       	pop	r28
    36fa:	1f 91       	pop	r17
    36fc:	0f 91       	pop	r16
    36fe:	ff 90       	pop	r15
    3700:	ef 90       	pop	r14
    3702:	df 90       	pop	r13
    3704:	cf 90       	pop	r12
    3706:	bf 90       	pop	r11
    3708:	af 90       	pop	r10
    370a:	9f 90       	pop	r9
    370c:	8f 90       	pop	r8
    370e:	7f 90       	pop	r7
    3710:	6f 90       	pop	r6
    3712:	5f 90       	pop	r5
    3714:	4f 90       	pop	r4
    3716:	3f 90       	pop	r3
    3718:	2f 90       	pop	r2
    371a:	08 95       	ret

0000371c <__subsf3>:
    371c:	50 58       	subi	r21, 0x80	; 128

0000371e <__addsf3>:
    371e:	bb 27       	eor	r27, r27
    3720:	aa 27       	eor	r26, r26
    3722:	0e d0       	rcall	.+28     	; 0x3740 <__addsf3x>
    3724:	71 c1       	rjmp	.+738    	; 0x3a08 <__fp_round>
    3726:	62 d1       	rcall	.+708    	; 0x39ec <__fp_pscA>
    3728:	30 f0       	brcs	.+12     	; 0x3736 <__addsf3+0x18>
    372a:	67 d1       	rcall	.+718    	; 0x39fa <__fp_pscB>
    372c:	20 f0       	brcs	.+8      	; 0x3736 <__addsf3+0x18>
    372e:	31 f4       	brne	.+12     	; 0x373c <__addsf3+0x1e>
    3730:	9f 3f       	cpi	r25, 0xFF	; 255
    3732:	11 f4       	brne	.+4      	; 0x3738 <__addsf3+0x1a>
    3734:	1e f4       	brtc	.+6      	; 0x373c <__addsf3+0x1e>
    3736:	57 c1       	rjmp	.+686    	; 0x39e6 <__fp_nan>
    3738:	0e f4       	brtc	.+2      	; 0x373c <__addsf3+0x1e>
    373a:	e0 95       	com	r30
    373c:	e7 fb       	bst	r30, 7
    373e:	4d c1       	rjmp	.+666    	; 0x39da <__fp_inf>

00003740 <__addsf3x>:
    3740:	e9 2f       	mov	r30, r25
    3742:	73 d1       	rcall	.+742    	; 0x3a2a <__fp_split3>
    3744:	80 f3       	brcs	.-32     	; 0x3726 <__addsf3+0x8>
    3746:	ba 17       	cp	r27, r26
    3748:	62 07       	cpc	r22, r18
    374a:	73 07       	cpc	r23, r19
    374c:	84 07       	cpc	r24, r20
    374e:	95 07       	cpc	r25, r21
    3750:	18 f0       	brcs	.+6      	; 0x3758 <__addsf3x+0x18>
    3752:	71 f4       	brne	.+28     	; 0x3770 <__addsf3x+0x30>
    3754:	9e f5       	brtc	.+102    	; 0x37bc <__addsf3x+0x7c>
    3756:	8b c1       	rjmp	.+790    	; 0x3a6e <__fp_zero>
    3758:	0e f4       	brtc	.+2      	; 0x375c <__addsf3x+0x1c>
    375a:	e0 95       	com	r30
    375c:	0b 2e       	mov	r0, r27
    375e:	ba 2f       	mov	r27, r26
    3760:	a0 2d       	mov	r26, r0
    3762:	0b 01       	movw	r0, r22
    3764:	b9 01       	movw	r22, r18
    3766:	90 01       	movw	r18, r0
    3768:	0c 01       	movw	r0, r24
    376a:	ca 01       	movw	r24, r20
    376c:	a0 01       	movw	r20, r0
    376e:	11 24       	eor	r1, r1
    3770:	ff 27       	eor	r31, r31
    3772:	59 1b       	sub	r21, r25
    3774:	99 f0       	breq	.+38     	; 0x379c <__addsf3x+0x5c>
    3776:	59 3f       	cpi	r21, 0xF9	; 249
    3778:	50 f4       	brcc	.+20     	; 0x378e <__addsf3x+0x4e>
    377a:	50 3e       	cpi	r21, 0xE0	; 224
    377c:	68 f1       	brcs	.+90     	; 0x37d8 <__addsf3x+0x98>
    377e:	1a 16       	cp	r1, r26
    3780:	f0 40       	sbci	r31, 0x00	; 0
    3782:	a2 2f       	mov	r26, r18
    3784:	23 2f       	mov	r18, r19
    3786:	34 2f       	mov	r19, r20
    3788:	44 27       	eor	r20, r20
    378a:	58 5f       	subi	r21, 0xF8	; 248
    378c:	f3 cf       	rjmp	.-26     	; 0x3774 <__addsf3x+0x34>
    378e:	46 95       	lsr	r20
    3790:	37 95       	ror	r19
    3792:	27 95       	ror	r18
    3794:	a7 95       	ror	r26
    3796:	f0 40       	sbci	r31, 0x00	; 0
    3798:	53 95       	inc	r21
    379a:	c9 f7       	brne	.-14     	; 0x378e <__addsf3x+0x4e>
    379c:	7e f4       	brtc	.+30     	; 0x37bc <__addsf3x+0x7c>
    379e:	1f 16       	cp	r1, r31
    37a0:	ba 0b       	sbc	r27, r26
    37a2:	62 0b       	sbc	r22, r18
    37a4:	73 0b       	sbc	r23, r19
    37a6:	84 0b       	sbc	r24, r20
    37a8:	ba f0       	brmi	.+46     	; 0x37d8 <__addsf3x+0x98>
    37aa:	91 50       	subi	r25, 0x01	; 1
    37ac:	a1 f0       	breq	.+40     	; 0x37d6 <__addsf3x+0x96>
    37ae:	ff 0f       	add	r31, r31
    37b0:	bb 1f       	adc	r27, r27
    37b2:	66 1f       	adc	r22, r22
    37b4:	77 1f       	adc	r23, r23
    37b6:	88 1f       	adc	r24, r24
    37b8:	c2 f7       	brpl	.-16     	; 0x37aa <__addsf3x+0x6a>
    37ba:	0e c0       	rjmp	.+28     	; 0x37d8 <__addsf3x+0x98>
    37bc:	ba 0f       	add	r27, r26
    37be:	62 1f       	adc	r22, r18
    37c0:	73 1f       	adc	r23, r19
    37c2:	84 1f       	adc	r24, r20
    37c4:	48 f4       	brcc	.+18     	; 0x37d8 <__addsf3x+0x98>
    37c6:	87 95       	ror	r24
    37c8:	77 95       	ror	r23
    37ca:	67 95       	ror	r22
    37cc:	b7 95       	ror	r27
    37ce:	f7 95       	ror	r31
    37d0:	9e 3f       	cpi	r25, 0xFE	; 254
    37d2:	08 f0       	brcs	.+2      	; 0x37d6 <__addsf3x+0x96>
    37d4:	b3 cf       	rjmp	.-154    	; 0x373c <__addsf3+0x1e>
    37d6:	93 95       	inc	r25
    37d8:	88 0f       	add	r24, r24
    37da:	08 f0       	brcs	.+2      	; 0x37de <__addsf3x+0x9e>
    37dc:	99 27       	eor	r25, r25
    37de:	ee 0f       	add	r30, r30
    37e0:	97 95       	ror	r25
    37e2:	87 95       	ror	r24
    37e4:	08 95       	ret

000037e6 <__divsf3>:
    37e6:	0c d0       	rcall	.+24     	; 0x3800 <__divsf3x>
    37e8:	0f c1       	rjmp	.+542    	; 0x3a08 <__fp_round>
    37ea:	07 d1       	rcall	.+526    	; 0x39fa <__fp_pscB>
    37ec:	40 f0       	brcs	.+16     	; 0x37fe <__divsf3+0x18>
    37ee:	fe d0       	rcall	.+508    	; 0x39ec <__fp_pscA>
    37f0:	30 f0       	brcs	.+12     	; 0x37fe <__divsf3+0x18>
    37f2:	21 f4       	brne	.+8      	; 0x37fc <__divsf3+0x16>
    37f4:	5f 3f       	cpi	r21, 0xFF	; 255
    37f6:	19 f0       	breq	.+6      	; 0x37fe <__divsf3+0x18>
    37f8:	f0 c0       	rjmp	.+480    	; 0x39da <__fp_inf>
    37fa:	51 11       	cpse	r21, r1
    37fc:	39 c1       	rjmp	.+626    	; 0x3a70 <__fp_szero>
    37fe:	f3 c0       	rjmp	.+486    	; 0x39e6 <__fp_nan>

00003800 <__divsf3x>:
    3800:	14 d1       	rcall	.+552    	; 0x3a2a <__fp_split3>
    3802:	98 f3       	brcs	.-26     	; 0x37ea <__divsf3+0x4>

00003804 <__divsf3_pse>:
    3804:	99 23       	and	r25, r25
    3806:	c9 f3       	breq	.-14     	; 0x37fa <__divsf3+0x14>
    3808:	55 23       	and	r21, r21
    380a:	b1 f3       	breq	.-20     	; 0x37f8 <__divsf3+0x12>
    380c:	95 1b       	sub	r25, r21
    380e:	55 0b       	sbc	r21, r21
    3810:	bb 27       	eor	r27, r27
    3812:	aa 27       	eor	r26, r26
    3814:	62 17       	cp	r22, r18
    3816:	73 07       	cpc	r23, r19
    3818:	84 07       	cpc	r24, r20
    381a:	38 f0       	brcs	.+14     	; 0x382a <__divsf3_pse+0x26>
    381c:	9f 5f       	subi	r25, 0xFF	; 255
    381e:	5f 4f       	sbci	r21, 0xFF	; 255
    3820:	22 0f       	add	r18, r18
    3822:	33 1f       	adc	r19, r19
    3824:	44 1f       	adc	r20, r20
    3826:	aa 1f       	adc	r26, r26
    3828:	a9 f3       	breq	.-22     	; 0x3814 <__divsf3_pse+0x10>
    382a:	33 d0       	rcall	.+102    	; 0x3892 <__divsf3_pse+0x8e>
    382c:	0e 2e       	mov	r0, r30
    382e:	3a f0       	brmi	.+14     	; 0x383e <__divsf3_pse+0x3a>
    3830:	e0 e8       	ldi	r30, 0x80	; 128
    3832:	30 d0       	rcall	.+96     	; 0x3894 <__divsf3_pse+0x90>
    3834:	91 50       	subi	r25, 0x01	; 1
    3836:	50 40       	sbci	r21, 0x00	; 0
    3838:	e6 95       	lsr	r30
    383a:	00 1c       	adc	r0, r0
    383c:	ca f7       	brpl	.-14     	; 0x3830 <__divsf3_pse+0x2c>
    383e:	29 d0       	rcall	.+82     	; 0x3892 <__divsf3_pse+0x8e>
    3840:	fe 2f       	mov	r31, r30
    3842:	27 d0       	rcall	.+78     	; 0x3892 <__divsf3_pse+0x8e>
    3844:	66 0f       	add	r22, r22
    3846:	77 1f       	adc	r23, r23
    3848:	88 1f       	adc	r24, r24
    384a:	bb 1f       	adc	r27, r27
    384c:	26 17       	cp	r18, r22
    384e:	37 07       	cpc	r19, r23
    3850:	48 07       	cpc	r20, r24
    3852:	ab 07       	cpc	r26, r27
    3854:	b0 e8       	ldi	r27, 0x80	; 128
    3856:	09 f0       	breq	.+2      	; 0x385a <__divsf3_pse+0x56>
    3858:	bb 0b       	sbc	r27, r27
    385a:	80 2d       	mov	r24, r0
    385c:	bf 01       	movw	r22, r30
    385e:	ff 27       	eor	r31, r31
    3860:	93 58       	subi	r25, 0x83	; 131
    3862:	5f 4f       	sbci	r21, 0xFF	; 255
    3864:	2a f0       	brmi	.+10     	; 0x3870 <__divsf3_pse+0x6c>
    3866:	9e 3f       	cpi	r25, 0xFE	; 254
    3868:	51 05       	cpc	r21, r1
    386a:	68 f0       	brcs	.+26     	; 0x3886 <__divsf3_pse+0x82>
    386c:	b6 c0       	rjmp	.+364    	; 0x39da <__fp_inf>
    386e:	00 c1       	rjmp	.+512    	; 0x3a70 <__fp_szero>
    3870:	5f 3f       	cpi	r21, 0xFF	; 255
    3872:	ec f3       	brlt	.-6      	; 0x386e <__divsf3_pse+0x6a>
    3874:	98 3e       	cpi	r25, 0xE8	; 232
    3876:	dc f3       	brlt	.-10     	; 0x386e <__divsf3_pse+0x6a>
    3878:	86 95       	lsr	r24
    387a:	77 95       	ror	r23
    387c:	67 95       	ror	r22
    387e:	b7 95       	ror	r27
    3880:	f7 95       	ror	r31
    3882:	9f 5f       	subi	r25, 0xFF	; 255
    3884:	c9 f7       	brne	.-14     	; 0x3878 <__divsf3_pse+0x74>
    3886:	88 0f       	add	r24, r24
    3888:	91 1d       	adc	r25, r1
    388a:	96 95       	lsr	r25
    388c:	87 95       	ror	r24
    388e:	97 f9       	bld	r25, 7
    3890:	08 95       	ret
    3892:	e1 e0       	ldi	r30, 0x01	; 1
    3894:	66 0f       	add	r22, r22
    3896:	77 1f       	adc	r23, r23
    3898:	88 1f       	adc	r24, r24
    389a:	bb 1f       	adc	r27, r27
    389c:	62 17       	cp	r22, r18
    389e:	73 07       	cpc	r23, r19
    38a0:	84 07       	cpc	r24, r20
    38a2:	ba 07       	cpc	r27, r26
    38a4:	20 f0       	brcs	.+8      	; 0x38ae <__divsf3_pse+0xaa>
    38a6:	62 1b       	sub	r22, r18
    38a8:	73 0b       	sbc	r23, r19
    38aa:	84 0b       	sbc	r24, r20
    38ac:	ba 0b       	sbc	r27, r26
    38ae:	ee 1f       	adc	r30, r30
    38b0:	88 f7       	brcc	.-30     	; 0x3894 <__divsf3_pse+0x90>
    38b2:	e0 95       	com	r30
    38b4:	08 95       	ret

000038b6 <__fixsfsi>:
    38b6:	04 d0       	rcall	.+8      	; 0x38c0 <__fixunssfsi>
    38b8:	68 94       	set
    38ba:	b1 11       	cpse	r27, r1
    38bc:	d9 c0       	rjmp	.+434    	; 0x3a70 <__fp_szero>
    38be:	08 95       	ret

000038c0 <__fixunssfsi>:
    38c0:	bc d0       	rcall	.+376    	; 0x3a3a <__fp_splitA>
    38c2:	88 f0       	brcs	.+34     	; 0x38e6 <__fixunssfsi+0x26>
    38c4:	9f 57       	subi	r25, 0x7F	; 127
    38c6:	90 f0       	brcs	.+36     	; 0x38ec <__fixunssfsi+0x2c>
    38c8:	b9 2f       	mov	r27, r25
    38ca:	99 27       	eor	r25, r25
    38cc:	b7 51       	subi	r27, 0x17	; 23
    38ce:	a0 f0       	brcs	.+40     	; 0x38f8 <__fixunssfsi+0x38>
    38d0:	d1 f0       	breq	.+52     	; 0x3906 <__fixunssfsi+0x46>
    38d2:	66 0f       	add	r22, r22
    38d4:	77 1f       	adc	r23, r23
    38d6:	88 1f       	adc	r24, r24
    38d8:	99 1f       	adc	r25, r25
    38da:	1a f0       	brmi	.+6      	; 0x38e2 <__fixunssfsi+0x22>
    38dc:	ba 95       	dec	r27
    38de:	c9 f7       	brne	.-14     	; 0x38d2 <__fixunssfsi+0x12>
    38e0:	12 c0       	rjmp	.+36     	; 0x3906 <__fixunssfsi+0x46>
    38e2:	b1 30       	cpi	r27, 0x01	; 1
    38e4:	81 f0       	breq	.+32     	; 0x3906 <__fixunssfsi+0x46>
    38e6:	c3 d0       	rcall	.+390    	; 0x3a6e <__fp_zero>
    38e8:	b1 e0       	ldi	r27, 0x01	; 1
    38ea:	08 95       	ret
    38ec:	c0 c0       	rjmp	.+384    	; 0x3a6e <__fp_zero>
    38ee:	67 2f       	mov	r22, r23
    38f0:	78 2f       	mov	r23, r24
    38f2:	88 27       	eor	r24, r24
    38f4:	b8 5f       	subi	r27, 0xF8	; 248
    38f6:	39 f0       	breq	.+14     	; 0x3906 <__fixunssfsi+0x46>
    38f8:	b9 3f       	cpi	r27, 0xF9	; 249
    38fa:	cc f3       	brlt	.-14     	; 0x38ee <__fixunssfsi+0x2e>
    38fc:	86 95       	lsr	r24
    38fe:	77 95       	ror	r23
    3900:	67 95       	ror	r22
    3902:	b3 95       	inc	r27
    3904:	d9 f7       	brne	.-10     	; 0x38fc <__fixunssfsi+0x3c>
    3906:	3e f4       	brtc	.+14     	; 0x3916 <__fixunssfsi+0x56>
    3908:	90 95       	com	r25
    390a:	80 95       	com	r24
    390c:	70 95       	com	r23
    390e:	61 95       	neg	r22
    3910:	7f 4f       	sbci	r23, 0xFF	; 255
    3912:	8f 4f       	sbci	r24, 0xFF	; 255
    3914:	9f 4f       	sbci	r25, 0xFF	; 255
    3916:	08 95       	ret

00003918 <__floatunsisf>:
    3918:	e8 94       	clt
    391a:	09 c0       	rjmp	.+18     	; 0x392e <__floatsisf+0x12>

0000391c <__floatsisf>:
    391c:	97 fb       	bst	r25, 7
    391e:	3e f4       	brtc	.+14     	; 0x392e <__floatsisf+0x12>
    3920:	90 95       	com	r25
    3922:	80 95       	com	r24
    3924:	70 95       	com	r23
    3926:	61 95       	neg	r22
    3928:	7f 4f       	sbci	r23, 0xFF	; 255
    392a:	8f 4f       	sbci	r24, 0xFF	; 255
    392c:	9f 4f       	sbci	r25, 0xFF	; 255
    392e:	99 23       	and	r25, r25
    3930:	a9 f0       	breq	.+42     	; 0x395c <__floatsisf+0x40>
    3932:	f9 2f       	mov	r31, r25
    3934:	96 e9       	ldi	r25, 0x96	; 150
    3936:	bb 27       	eor	r27, r27
    3938:	93 95       	inc	r25
    393a:	f6 95       	lsr	r31
    393c:	87 95       	ror	r24
    393e:	77 95       	ror	r23
    3940:	67 95       	ror	r22
    3942:	b7 95       	ror	r27
    3944:	f1 11       	cpse	r31, r1
    3946:	f8 cf       	rjmp	.-16     	; 0x3938 <__floatsisf+0x1c>
    3948:	fa f4       	brpl	.+62     	; 0x3988 <__floatsisf+0x6c>
    394a:	bb 0f       	add	r27, r27
    394c:	11 f4       	brne	.+4      	; 0x3952 <__floatsisf+0x36>
    394e:	60 ff       	sbrs	r22, 0
    3950:	1b c0       	rjmp	.+54     	; 0x3988 <__floatsisf+0x6c>
    3952:	6f 5f       	subi	r22, 0xFF	; 255
    3954:	7f 4f       	sbci	r23, 0xFF	; 255
    3956:	8f 4f       	sbci	r24, 0xFF	; 255
    3958:	9f 4f       	sbci	r25, 0xFF	; 255
    395a:	16 c0       	rjmp	.+44     	; 0x3988 <__floatsisf+0x6c>
    395c:	88 23       	and	r24, r24
    395e:	11 f0       	breq	.+4      	; 0x3964 <__floatsisf+0x48>
    3960:	96 e9       	ldi	r25, 0x96	; 150
    3962:	11 c0       	rjmp	.+34     	; 0x3986 <__floatsisf+0x6a>
    3964:	77 23       	and	r23, r23
    3966:	21 f0       	breq	.+8      	; 0x3970 <__floatsisf+0x54>
    3968:	9e e8       	ldi	r25, 0x8E	; 142
    396a:	87 2f       	mov	r24, r23
    396c:	76 2f       	mov	r23, r22
    396e:	05 c0       	rjmp	.+10     	; 0x397a <__floatsisf+0x5e>
    3970:	66 23       	and	r22, r22
    3972:	71 f0       	breq	.+28     	; 0x3990 <__floatsisf+0x74>
    3974:	96 e8       	ldi	r25, 0x86	; 134
    3976:	86 2f       	mov	r24, r22
    3978:	70 e0       	ldi	r23, 0x00	; 0
    397a:	60 e0       	ldi	r22, 0x00	; 0
    397c:	2a f0       	brmi	.+10     	; 0x3988 <__floatsisf+0x6c>
    397e:	9a 95       	dec	r25
    3980:	66 0f       	add	r22, r22
    3982:	77 1f       	adc	r23, r23
    3984:	88 1f       	adc	r24, r24
    3986:	da f7       	brpl	.-10     	; 0x397e <__floatsisf+0x62>
    3988:	88 0f       	add	r24, r24
    398a:	96 95       	lsr	r25
    398c:	87 95       	ror	r24
    398e:	97 f9       	bld	r25, 7
    3990:	08 95       	ret

00003992 <__fp_cmp>:
    3992:	99 0f       	add	r25, r25
    3994:	00 08       	sbc	r0, r0
    3996:	55 0f       	add	r21, r21
    3998:	aa 0b       	sbc	r26, r26
    399a:	e0 e8       	ldi	r30, 0x80	; 128
    399c:	fe ef       	ldi	r31, 0xFE	; 254
    399e:	16 16       	cp	r1, r22
    39a0:	17 06       	cpc	r1, r23
    39a2:	e8 07       	cpc	r30, r24
    39a4:	f9 07       	cpc	r31, r25
    39a6:	c0 f0       	brcs	.+48     	; 0x39d8 <__fp_cmp+0x46>
    39a8:	12 16       	cp	r1, r18
    39aa:	13 06       	cpc	r1, r19
    39ac:	e4 07       	cpc	r30, r20
    39ae:	f5 07       	cpc	r31, r21
    39b0:	98 f0       	brcs	.+38     	; 0x39d8 <__fp_cmp+0x46>
    39b2:	62 1b       	sub	r22, r18
    39b4:	73 0b       	sbc	r23, r19
    39b6:	84 0b       	sbc	r24, r20
    39b8:	95 0b       	sbc	r25, r21
    39ba:	39 f4       	brne	.+14     	; 0x39ca <__fp_cmp+0x38>
    39bc:	0a 26       	eor	r0, r26
    39be:	61 f0       	breq	.+24     	; 0x39d8 <__fp_cmp+0x46>
    39c0:	23 2b       	or	r18, r19
    39c2:	24 2b       	or	r18, r20
    39c4:	25 2b       	or	r18, r21
    39c6:	21 f4       	brne	.+8      	; 0x39d0 <__fp_cmp+0x3e>
    39c8:	08 95       	ret
    39ca:	0a 26       	eor	r0, r26
    39cc:	09 f4       	brne	.+2      	; 0x39d0 <__fp_cmp+0x3e>
    39ce:	a1 40       	sbci	r26, 0x01	; 1
    39d0:	a6 95       	lsr	r26
    39d2:	8f ef       	ldi	r24, 0xFF	; 255
    39d4:	81 1d       	adc	r24, r1
    39d6:	81 1d       	adc	r24, r1
    39d8:	08 95       	ret

000039da <__fp_inf>:
    39da:	97 f9       	bld	r25, 7
    39dc:	9f 67       	ori	r25, 0x7F	; 127
    39de:	80 e8       	ldi	r24, 0x80	; 128
    39e0:	70 e0       	ldi	r23, 0x00	; 0
    39e2:	60 e0       	ldi	r22, 0x00	; 0
    39e4:	08 95       	ret

000039e6 <__fp_nan>:
    39e6:	9f ef       	ldi	r25, 0xFF	; 255
    39e8:	80 ec       	ldi	r24, 0xC0	; 192
    39ea:	08 95       	ret

000039ec <__fp_pscA>:
    39ec:	00 24       	eor	r0, r0
    39ee:	0a 94       	dec	r0
    39f0:	16 16       	cp	r1, r22
    39f2:	17 06       	cpc	r1, r23
    39f4:	18 06       	cpc	r1, r24
    39f6:	09 06       	cpc	r0, r25
    39f8:	08 95       	ret

000039fa <__fp_pscB>:
    39fa:	00 24       	eor	r0, r0
    39fc:	0a 94       	dec	r0
    39fe:	12 16       	cp	r1, r18
    3a00:	13 06       	cpc	r1, r19
    3a02:	14 06       	cpc	r1, r20
    3a04:	05 06       	cpc	r0, r21
    3a06:	08 95       	ret

00003a08 <__fp_round>:
    3a08:	09 2e       	mov	r0, r25
    3a0a:	03 94       	inc	r0
    3a0c:	00 0c       	add	r0, r0
    3a0e:	11 f4       	brne	.+4      	; 0x3a14 <__fp_round+0xc>
    3a10:	88 23       	and	r24, r24
    3a12:	52 f0       	brmi	.+20     	; 0x3a28 <__fp_round+0x20>
    3a14:	bb 0f       	add	r27, r27
    3a16:	40 f4       	brcc	.+16     	; 0x3a28 <__fp_round+0x20>
    3a18:	bf 2b       	or	r27, r31
    3a1a:	11 f4       	brne	.+4      	; 0x3a20 <__fp_round+0x18>
    3a1c:	60 ff       	sbrs	r22, 0
    3a1e:	04 c0       	rjmp	.+8      	; 0x3a28 <__fp_round+0x20>
    3a20:	6f 5f       	subi	r22, 0xFF	; 255
    3a22:	7f 4f       	sbci	r23, 0xFF	; 255
    3a24:	8f 4f       	sbci	r24, 0xFF	; 255
    3a26:	9f 4f       	sbci	r25, 0xFF	; 255
    3a28:	08 95       	ret

00003a2a <__fp_split3>:
    3a2a:	57 fd       	sbrc	r21, 7
    3a2c:	90 58       	subi	r25, 0x80	; 128
    3a2e:	44 0f       	add	r20, r20
    3a30:	55 1f       	adc	r21, r21
    3a32:	59 f0       	breq	.+22     	; 0x3a4a <__fp_splitA+0x10>
    3a34:	5f 3f       	cpi	r21, 0xFF	; 255
    3a36:	71 f0       	breq	.+28     	; 0x3a54 <__fp_splitA+0x1a>
    3a38:	47 95       	ror	r20

00003a3a <__fp_splitA>:
    3a3a:	88 0f       	add	r24, r24
    3a3c:	97 fb       	bst	r25, 7
    3a3e:	99 1f       	adc	r25, r25
    3a40:	61 f0       	breq	.+24     	; 0x3a5a <__fp_splitA+0x20>
    3a42:	9f 3f       	cpi	r25, 0xFF	; 255
    3a44:	79 f0       	breq	.+30     	; 0x3a64 <__fp_splitA+0x2a>
    3a46:	87 95       	ror	r24
    3a48:	08 95       	ret
    3a4a:	12 16       	cp	r1, r18
    3a4c:	13 06       	cpc	r1, r19
    3a4e:	14 06       	cpc	r1, r20
    3a50:	55 1f       	adc	r21, r21
    3a52:	f2 cf       	rjmp	.-28     	; 0x3a38 <__fp_split3+0xe>
    3a54:	46 95       	lsr	r20
    3a56:	f1 df       	rcall	.-30     	; 0x3a3a <__fp_splitA>
    3a58:	08 c0       	rjmp	.+16     	; 0x3a6a <__fp_splitA+0x30>
    3a5a:	16 16       	cp	r1, r22
    3a5c:	17 06       	cpc	r1, r23
    3a5e:	18 06       	cpc	r1, r24
    3a60:	99 1f       	adc	r25, r25
    3a62:	f1 cf       	rjmp	.-30     	; 0x3a46 <__fp_splitA+0xc>
    3a64:	86 95       	lsr	r24
    3a66:	71 05       	cpc	r23, r1
    3a68:	61 05       	cpc	r22, r1
    3a6a:	08 94       	sec
    3a6c:	08 95       	ret

00003a6e <__fp_zero>:
    3a6e:	e8 94       	clt

00003a70 <__fp_szero>:
    3a70:	bb 27       	eor	r27, r27
    3a72:	66 27       	eor	r22, r22
    3a74:	77 27       	eor	r23, r23
    3a76:	cb 01       	movw	r24, r22
    3a78:	97 f9       	bld	r25, 7
    3a7a:	08 95       	ret

00003a7c <__gesf2>:
    3a7c:	8a df       	rcall	.-236    	; 0x3992 <__fp_cmp>
    3a7e:	08 f4       	brcc	.+2      	; 0x3a82 <__gesf2+0x6>
    3a80:	8f ef       	ldi	r24, 0xFF	; 255
    3a82:	08 95       	ret

00003a84 <__mulsf3>:
    3a84:	0b d0       	rcall	.+22     	; 0x3a9c <__mulsf3x>
    3a86:	c0 cf       	rjmp	.-128    	; 0x3a08 <__fp_round>
    3a88:	b1 df       	rcall	.-158    	; 0x39ec <__fp_pscA>
    3a8a:	28 f0       	brcs	.+10     	; 0x3a96 <__mulsf3+0x12>
    3a8c:	b6 df       	rcall	.-148    	; 0x39fa <__fp_pscB>
    3a8e:	18 f0       	brcs	.+6      	; 0x3a96 <__mulsf3+0x12>
    3a90:	95 23       	and	r25, r21
    3a92:	09 f0       	breq	.+2      	; 0x3a96 <__mulsf3+0x12>
    3a94:	a2 cf       	rjmp	.-188    	; 0x39da <__fp_inf>
    3a96:	a7 cf       	rjmp	.-178    	; 0x39e6 <__fp_nan>
    3a98:	11 24       	eor	r1, r1
    3a9a:	ea cf       	rjmp	.-44     	; 0x3a70 <__fp_szero>

00003a9c <__mulsf3x>:
    3a9c:	c6 df       	rcall	.-116    	; 0x3a2a <__fp_split3>
    3a9e:	a0 f3       	brcs	.-24     	; 0x3a88 <__mulsf3+0x4>

00003aa0 <__mulsf3_pse>:
    3aa0:	95 9f       	mul	r25, r21
    3aa2:	d1 f3       	breq	.-12     	; 0x3a98 <__mulsf3+0x14>
    3aa4:	95 0f       	add	r25, r21
    3aa6:	50 e0       	ldi	r21, 0x00	; 0
    3aa8:	55 1f       	adc	r21, r21
    3aaa:	62 9f       	mul	r22, r18
    3aac:	f0 01       	movw	r30, r0
    3aae:	72 9f       	mul	r23, r18
    3ab0:	bb 27       	eor	r27, r27
    3ab2:	f0 0d       	add	r31, r0
    3ab4:	b1 1d       	adc	r27, r1
    3ab6:	63 9f       	mul	r22, r19
    3ab8:	aa 27       	eor	r26, r26
    3aba:	f0 0d       	add	r31, r0
    3abc:	b1 1d       	adc	r27, r1
    3abe:	aa 1f       	adc	r26, r26
    3ac0:	64 9f       	mul	r22, r20
    3ac2:	66 27       	eor	r22, r22
    3ac4:	b0 0d       	add	r27, r0
    3ac6:	a1 1d       	adc	r26, r1
    3ac8:	66 1f       	adc	r22, r22
    3aca:	82 9f       	mul	r24, r18
    3acc:	22 27       	eor	r18, r18
    3ace:	b0 0d       	add	r27, r0
    3ad0:	a1 1d       	adc	r26, r1
    3ad2:	62 1f       	adc	r22, r18
    3ad4:	73 9f       	mul	r23, r19
    3ad6:	b0 0d       	add	r27, r0
    3ad8:	a1 1d       	adc	r26, r1
    3ada:	62 1f       	adc	r22, r18
    3adc:	83 9f       	mul	r24, r19
    3ade:	a0 0d       	add	r26, r0
    3ae0:	61 1d       	adc	r22, r1
    3ae2:	22 1f       	adc	r18, r18
    3ae4:	74 9f       	mul	r23, r20
    3ae6:	33 27       	eor	r19, r19
    3ae8:	a0 0d       	add	r26, r0
    3aea:	61 1d       	adc	r22, r1
    3aec:	23 1f       	adc	r18, r19
    3aee:	84 9f       	mul	r24, r20
    3af0:	60 0d       	add	r22, r0
    3af2:	21 1d       	adc	r18, r1
    3af4:	82 2f       	mov	r24, r18
    3af6:	76 2f       	mov	r23, r22
    3af8:	6a 2f       	mov	r22, r26
    3afa:	11 24       	eor	r1, r1
    3afc:	9f 57       	subi	r25, 0x7F	; 127
    3afe:	50 40       	sbci	r21, 0x00	; 0
    3b00:	8a f0       	brmi	.+34     	; 0x3b24 <__mulsf3_pse+0x84>
    3b02:	e1 f0       	breq	.+56     	; 0x3b3c <__mulsf3_pse+0x9c>
    3b04:	88 23       	and	r24, r24
    3b06:	4a f0       	brmi	.+18     	; 0x3b1a <__mulsf3_pse+0x7a>
    3b08:	ee 0f       	add	r30, r30
    3b0a:	ff 1f       	adc	r31, r31
    3b0c:	bb 1f       	adc	r27, r27
    3b0e:	66 1f       	adc	r22, r22
    3b10:	77 1f       	adc	r23, r23
    3b12:	88 1f       	adc	r24, r24
    3b14:	91 50       	subi	r25, 0x01	; 1
    3b16:	50 40       	sbci	r21, 0x00	; 0
    3b18:	a9 f7       	brne	.-22     	; 0x3b04 <__mulsf3_pse+0x64>
    3b1a:	9e 3f       	cpi	r25, 0xFE	; 254
    3b1c:	51 05       	cpc	r21, r1
    3b1e:	70 f0       	brcs	.+28     	; 0x3b3c <__mulsf3_pse+0x9c>
    3b20:	5c cf       	rjmp	.-328    	; 0x39da <__fp_inf>
    3b22:	a6 cf       	rjmp	.-180    	; 0x3a70 <__fp_szero>
    3b24:	5f 3f       	cpi	r21, 0xFF	; 255
    3b26:	ec f3       	brlt	.-6      	; 0x3b22 <__mulsf3_pse+0x82>
    3b28:	98 3e       	cpi	r25, 0xE8	; 232
    3b2a:	dc f3       	brlt	.-10     	; 0x3b22 <__mulsf3_pse+0x82>
    3b2c:	86 95       	lsr	r24
    3b2e:	77 95       	ror	r23
    3b30:	67 95       	ror	r22
    3b32:	b7 95       	ror	r27
    3b34:	f7 95       	ror	r31
    3b36:	e7 95       	ror	r30
    3b38:	9f 5f       	subi	r25, 0xFF	; 255
    3b3a:	c1 f7       	brne	.-16     	; 0x3b2c <__mulsf3_pse+0x8c>
    3b3c:	fe 2b       	or	r31, r30
    3b3e:	88 0f       	add	r24, r24
    3b40:	91 1d       	adc	r25, r1
    3b42:	96 95       	lsr	r25
    3b44:	87 95       	ror	r24
    3b46:	97 f9       	bld	r25, 7
    3b48:	08 95       	ret

00003b4a <trunc>:
    3b4a:	2f d0       	rcall	.+94     	; 0x3baa <__fp_trunc>
    3b4c:	20 f0       	brcs	.+8      	; 0x3b56 <trunc+0xc>
    3b4e:	9f 37       	cpi	r25, 0x7F	; 127
    3b50:	08 f4       	brcc	.+2      	; 0x3b54 <trunc+0xa>
    3b52:	8e cf       	rjmp	.-228    	; 0x3a70 <__fp_szero>
    3b54:	01 c0       	rjmp	.+2      	; 0x3b58 <__fp_mintl>
    3b56:	1b c0       	rjmp	.+54     	; 0x3b8e <__fp_mpack>

00003b58 <__fp_mintl>:
    3b58:	88 23       	and	r24, r24
    3b5a:	71 f4       	brne	.+28     	; 0x3b78 <__fp_mintl+0x20>
    3b5c:	77 23       	and	r23, r23
    3b5e:	21 f0       	breq	.+8      	; 0x3b68 <__fp_mintl+0x10>
    3b60:	98 50       	subi	r25, 0x08	; 8
    3b62:	87 2b       	or	r24, r23
    3b64:	76 2f       	mov	r23, r22
    3b66:	07 c0       	rjmp	.+14     	; 0x3b76 <__fp_mintl+0x1e>
    3b68:	66 23       	and	r22, r22
    3b6a:	11 f4       	brne	.+4      	; 0x3b70 <__fp_mintl+0x18>
    3b6c:	99 27       	eor	r25, r25
    3b6e:	0d c0       	rjmp	.+26     	; 0x3b8a <__fp_mintl+0x32>
    3b70:	90 51       	subi	r25, 0x10	; 16
    3b72:	86 2b       	or	r24, r22
    3b74:	70 e0       	ldi	r23, 0x00	; 0
    3b76:	60 e0       	ldi	r22, 0x00	; 0
    3b78:	2a f0       	brmi	.+10     	; 0x3b84 <__fp_mintl+0x2c>
    3b7a:	9a 95       	dec	r25
    3b7c:	66 0f       	add	r22, r22
    3b7e:	77 1f       	adc	r23, r23
    3b80:	88 1f       	adc	r24, r24
    3b82:	da f7       	brpl	.-10     	; 0x3b7a <__fp_mintl+0x22>
    3b84:	88 0f       	add	r24, r24
    3b86:	96 95       	lsr	r25
    3b88:	87 95       	ror	r24
    3b8a:	97 f9       	bld	r25, 7
    3b8c:	08 95       	ret

00003b8e <__fp_mpack>:
    3b8e:	9f 3f       	cpi	r25, 0xFF	; 255
    3b90:	31 f0       	breq	.+12     	; 0x3b9e <__fp_mpack_finite+0xc>

00003b92 <__fp_mpack_finite>:
    3b92:	91 50       	subi	r25, 0x01	; 1
    3b94:	20 f4       	brcc	.+8      	; 0x3b9e <__fp_mpack_finite+0xc>
    3b96:	87 95       	ror	r24
    3b98:	77 95       	ror	r23
    3b9a:	67 95       	ror	r22
    3b9c:	b7 95       	ror	r27
    3b9e:	88 0f       	add	r24, r24
    3ba0:	91 1d       	adc	r25, r1
    3ba2:	96 95       	lsr	r25
    3ba4:	87 95       	ror	r24
    3ba6:	97 f9       	bld	r25, 7
    3ba8:	08 95       	ret

00003baa <__fp_trunc>:
    3baa:	47 df       	rcall	.-370    	; 0x3a3a <__fp_splitA>
    3bac:	a0 f0       	brcs	.+40     	; 0x3bd6 <__fp_trunc+0x2c>
    3bae:	be e7       	ldi	r27, 0x7E	; 126
    3bb0:	b9 17       	cp	r27, r25
    3bb2:	88 f4       	brcc	.+34     	; 0x3bd6 <__fp_trunc+0x2c>
    3bb4:	bb 27       	eor	r27, r27
    3bb6:	9f 38       	cpi	r25, 0x8F	; 143
    3bb8:	60 f4       	brcc	.+24     	; 0x3bd2 <__fp_trunc+0x28>
    3bba:	16 16       	cp	r1, r22
    3bbc:	b1 1d       	adc	r27, r1
    3bbe:	67 2f       	mov	r22, r23
    3bc0:	78 2f       	mov	r23, r24
    3bc2:	88 27       	eor	r24, r24
    3bc4:	98 5f       	subi	r25, 0xF8	; 248
    3bc6:	f7 cf       	rjmp	.-18     	; 0x3bb6 <__fp_trunc+0xc>
    3bc8:	86 95       	lsr	r24
    3bca:	77 95       	ror	r23
    3bcc:	67 95       	ror	r22
    3bce:	b1 1d       	adc	r27, r1
    3bd0:	93 95       	inc	r25
    3bd2:	96 39       	cpi	r25, 0x96	; 150
    3bd4:	c8 f3       	brcs	.-14     	; 0x3bc8 <__fp_trunc+0x1e>
    3bd6:	08 95       	ret

00003bd8 <__divmodhi4>:
    3bd8:	97 fb       	bst	r25, 7
    3bda:	07 2e       	mov	r0, r23
    3bdc:	16 f4       	brtc	.+4      	; 0x3be2 <__divmodhi4+0xa>
    3bde:	00 94       	com	r0
    3be0:	06 d0       	rcall	.+12     	; 0x3bee <__divmodhi4_neg1>
    3be2:	77 fd       	sbrc	r23, 7
    3be4:	08 d0       	rcall	.+16     	; 0x3bf6 <__divmodhi4_neg2>
    3be6:	44 d0       	rcall	.+136    	; 0x3c70 <__udivmodhi4>
    3be8:	07 fc       	sbrc	r0, 7
    3bea:	05 d0       	rcall	.+10     	; 0x3bf6 <__divmodhi4_neg2>
    3bec:	3e f4       	brtc	.+14     	; 0x3bfc <__divmodhi4_exit>

00003bee <__divmodhi4_neg1>:
    3bee:	90 95       	com	r25
    3bf0:	81 95       	neg	r24
    3bf2:	9f 4f       	sbci	r25, 0xFF	; 255
    3bf4:	08 95       	ret

00003bf6 <__divmodhi4_neg2>:
    3bf6:	70 95       	com	r23
    3bf8:	61 95       	neg	r22
    3bfa:	7f 4f       	sbci	r23, 0xFF	; 255

00003bfc <__divmodhi4_exit>:
    3bfc:	08 95       	ret

00003bfe <__udivmodsi4>:
    3bfe:	a1 e2       	ldi	r26, 0x21	; 33
    3c00:	1a 2e       	mov	r1, r26
    3c02:	aa 1b       	sub	r26, r26
    3c04:	bb 1b       	sub	r27, r27
    3c06:	fd 01       	movw	r30, r26
    3c08:	0d c0       	rjmp	.+26     	; 0x3c24 <__udivmodsi4_ep>

00003c0a <__udivmodsi4_loop>:
    3c0a:	aa 1f       	adc	r26, r26
    3c0c:	bb 1f       	adc	r27, r27
    3c0e:	ee 1f       	adc	r30, r30
    3c10:	ff 1f       	adc	r31, r31
    3c12:	a2 17       	cp	r26, r18
    3c14:	b3 07       	cpc	r27, r19
    3c16:	e4 07       	cpc	r30, r20
    3c18:	f5 07       	cpc	r31, r21
    3c1a:	20 f0       	brcs	.+8      	; 0x3c24 <__udivmodsi4_ep>
    3c1c:	a2 1b       	sub	r26, r18
    3c1e:	b3 0b       	sbc	r27, r19
    3c20:	e4 0b       	sbc	r30, r20
    3c22:	f5 0b       	sbc	r31, r21

00003c24 <__udivmodsi4_ep>:
    3c24:	66 1f       	adc	r22, r22
    3c26:	77 1f       	adc	r23, r23
    3c28:	88 1f       	adc	r24, r24
    3c2a:	99 1f       	adc	r25, r25
    3c2c:	1a 94       	dec	r1
    3c2e:	69 f7       	brne	.-38     	; 0x3c0a <__udivmodsi4_loop>
    3c30:	60 95       	com	r22
    3c32:	70 95       	com	r23
    3c34:	80 95       	com	r24
    3c36:	90 95       	com	r25
    3c38:	9b 01       	movw	r18, r22
    3c3a:	ac 01       	movw	r20, r24
    3c3c:	bd 01       	movw	r22, r26
    3c3e:	cf 01       	movw	r24, r30
    3c40:	08 95       	ret

00003c42 <__tablejump2__>:
    3c42:	ee 0f       	add	r30, r30
    3c44:	ff 1f       	adc	r31, r31
    3c46:	88 1f       	adc	r24, r24
    3c48:	8b bf       	out	0x3b, r24	; 59
    3c4a:	07 90       	elpm	r0, Z+
    3c4c:	f6 91       	elpm	r31, Z
    3c4e:	e0 2d       	mov	r30, r0
    3c50:	19 94       	eijmp

00003c52 <__umulhisi3>:
    3c52:	a2 9f       	mul	r26, r18
    3c54:	b0 01       	movw	r22, r0
    3c56:	b3 9f       	mul	r27, r19
    3c58:	c0 01       	movw	r24, r0
    3c5a:	a3 9f       	mul	r26, r19
    3c5c:	70 0d       	add	r23, r0
    3c5e:	81 1d       	adc	r24, r1
    3c60:	11 24       	eor	r1, r1
    3c62:	91 1d       	adc	r25, r1
    3c64:	b2 9f       	mul	r27, r18
    3c66:	70 0d       	add	r23, r0
    3c68:	81 1d       	adc	r24, r1
    3c6a:	11 24       	eor	r1, r1
    3c6c:	91 1d       	adc	r25, r1
    3c6e:	08 95       	ret

00003c70 <__udivmodhi4>:
    3c70:	aa 1b       	sub	r26, r26
    3c72:	bb 1b       	sub	r27, r27
    3c74:	51 e1       	ldi	r21, 0x11	; 17
    3c76:	07 c0       	rjmp	.+14     	; 0x3c86 <__udivmodhi4_ep>

00003c78 <__udivmodhi4_loop>:
    3c78:	aa 1f       	adc	r26, r26
    3c7a:	bb 1f       	adc	r27, r27
    3c7c:	a6 17       	cp	r26, r22
    3c7e:	b7 07       	cpc	r27, r23
    3c80:	10 f0       	brcs	.+4      	; 0x3c86 <__udivmodhi4_ep>
    3c82:	a6 1b       	sub	r26, r22
    3c84:	b7 0b       	sbc	r27, r23

00003c86 <__udivmodhi4_ep>:
    3c86:	88 1f       	adc	r24, r24
    3c88:	99 1f       	adc	r25, r25
    3c8a:	5a 95       	dec	r21
    3c8c:	a9 f7       	brne	.-22     	; 0x3c78 <__udivmodhi4_loop>
    3c8e:	80 95       	com	r24
    3c90:	90 95       	com	r25
    3c92:	bc 01       	movw	r22, r24
    3c94:	cd 01       	movw	r24, r26
    3c96:	08 95       	ret

00003c98 <_exit>:
    3c98:	f8 94       	cli

00003c9a <__stop_program>:
    3c9a:	ff cf       	rjmp	.-2      	; 0x3c9a <__stop_program>
