
V1.0.elf:     file format elf32-avr

Sections:
Idx Name          Size      VMA       LMA       File off  Algn
  0 .text         00008f2a  00000000  00000000  00000094  2**1
                  CONTENTS, ALLOC, LOAD, READONLY, CODE
  1 .data         000000d8  00802000  00008f2a  00008fbe  2**0
                  CONTENTS, ALLOC, LOAD, DATA
  2 .bss          00000a49  008020d8  008020d8  00009096  2**0
                  ALLOC
  3 .comment      0000005c  00000000  00000000  00009096  2**0
                  CONTENTS, READONLY
  4 .note.gnu.avr.deviceinfo 00000040  00000000  00000000  000090f4  2**2
                  CONTENTS, READONLY
  5 .debug_aranges 00000578  00000000  00000000  00009134  2**0
                  CONTENTS, READONLY, DEBUGGING
  6 .debug_info   00016933  00000000  00000000  000096ac  2**0
                  CONTENTS, READONLY, DEBUGGING
  7 .debug_abbrev 00004b42  00000000  00000000  0001ffdf  2**0
                  CONTENTS, READONLY, DEBUGGING
  8 .debug_line   0000893c  00000000  00000000  00024b21  2**0
                  CONTENTS, READONLY, DEBUGGING
  9 .debug_frame  00001a24  00000000  00000000  0002d460  2**2
                  CONTENTS, READONLY, DEBUGGING
 10 .debug_str    00005af2  00000000  00000000  0002ee84  2**0
                  CONTENTS, READONLY, DEBUGGING
 11 .debug_loc    0001b387  00000000  00000000  00034976  2**0
                  CONTENTS, READONLY, DEBUGGING
 12 .debug_ranges 00001d80  00000000  00000000  0004fcfd  2**0
                  CONTENTS, READONLY, DEBUGGING

Disassembly of section .text:

00000000 <__vectors>:
       0:	07 c1       	rjmp	.+526    	; 0x210 <__ctors_end>
       2:	00 00       	nop
       4:	25 c1       	rjmp	.+586    	; 0x250 <__bad_interrupt>
       6:	00 00       	nop
       8:	23 c1       	rjmp	.+582    	; 0x250 <__bad_interrupt>
       a:	00 00       	nop
       c:	21 c1       	rjmp	.+578    	; 0x250 <__bad_interrupt>
       e:	00 00       	nop
      10:	1f c1       	rjmp	.+574    	; 0x250 <__bad_interrupt>
      12:	00 00       	nop
      14:	1d c1       	rjmp	.+570    	; 0x250 <__bad_interrupt>
      16:	00 00       	nop
      18:	1b c1       	rjmp	.+566    	; 0x250 <__bad_interrupt>
      1a:	00 00       	nop
      1c:	19 c1       	rjmp	.+562    	; 0x250 <__bad_interrupt>
      1e:	00 00       	nop
      20:	17 c1       	rjmp	.+558    	; 0x250 <__bad_interrupt>
      22:	00 00       	nop
      24:	15 c1       	rjmp	.+554    	; 0x250 <__bad_interrupt>
      26:	00 00       	nop
      28:	13 c1       	rjmp	.+550    	; 0x250 <__bad_interrupt>
      2a:	00 00       	nop
      2c:	11 c1       	rjmp	.+546    	; 0x250 <__bad_interrupt>
      2e:	00 00       	nop
      30:	0f c1       	rjmp	.+542    	; 0x250 <__bad_interrupt>
      32:	00 00       	nop
      34:	0d c1       	rjmp	.+538    	; 0x250 <__bad_interrupt>
      36:	00 00       	nop
      38:	df c4       	rjmp	.+2494   	; 0x9f8 <__vector_14>
      3a:	00 00       	nop
      3c:	09 c1       	rjmp	.+530    	; 0x250 <__bad_interrupt>
      3e:	00 00       	nop
      40:	07 c1       	rjmp	.+526    	; 0x250 <__bad_interrupt>
      42:	00 00       	nop
      44:	05 c1       	rjmp	.+522    	; 0x250 <__bad_interrupt>
      46:	00 00       	nop
      48:	03 c1       	rjmp	.+518    	; 0x250 <__bad_interrupt>
      4a:	00 00       	nop
      4c:	01 c1       	rjmp	.+514    	; 0x250 <__bad_interrupt>
      4e:	00 00       	nop
      50:	ff c0       	rjmp	.+510    	; 0x250 <__bad_interrupt>
      52:	00 00       	nop
      54:	fd c0       	rjmp	.+506    	; 0x250 <__bad_interrupt>
      56:	00 00       	nop
      58:	fb c0       	rjmp	.+502    	; 0x250 <__bad_interrupt>
      5a:	00 00       	nop
      5c:	f9 c0       	rjmp	.+498    	; 0x250 <__bad_interrupt>
      5e:	00 00       	nop
      60:	f7 c0       	rjmp	.+494    	; 0x250 <__bad_interrupt>
      62:	00 00       	nop
      64:	f5 c0       	rjmp	.+490    	; 0x250 <__bad_interrupt>
      66:	00 00       	nop
      68:	f3 c0       	rjmp	.+486    	; 0x250 <__bad_interrupt>
      6a:	00 00       	nop
      6c:	f1 c0       	rjmp	.+482    	; 0x250 <__bad_interrupt>
      6e:	00 00       	nop
      70:	ef c0       	rjmp	.+478    	; 0x250 <__bad_interrupt>
      72:	00 00       	nop
      74:	ed c0       	rjmp	.+474    	; 0x250 <__bad_interrupt>
      76:	00 00       	nop
      78:	eb c0       	rjmp	.+470    	; 0x250 <__bad_interrupt>
      7a:	00 00       	nop
      7c:	e9 c0       	rjmp	.+466    	; 0x250 <__bad_interrupt>
      7e:	00 00       	nop
      80:	e7 c0       	rjmp	.+462    	; 0x250 <__bad_interrupt>
      82:	00 00       	nop
      84:	e5 c0       	rjmp	.+458    	; 0x250 <__bad_interrupt>
      86:	00 00       	nop
      88:	e3 c0       	rjmp	.+454    	; 0x250 <__bad_interrupt>
      8a:	00 00       	nop
      8c:	e1 c0       	rjmp	.+450    	; 0x250 <__bad_interrupt>
      8e:	00 00       	nop
      90:	df c0       	rjmp	.+446    	; 0x250 <__bad_interrupt>
      92:	00 00       	nop
      94:	dd c0       	rjmp	.+442    	; 0x250 <__bad_interrupt>
      96:	00 00       	nop
      98:	db c0       	rjmp	.+438    	; 0x250 <__bad_interrupt>
      9a:	00 00       	nop
      9c:	d9 c0       	rjmp	.+434    	; 0x250 <__bad_interrupt>
      9e:	00 00       	nop
      a0:	d7 c0       	rjmp	.+430    	; 0x250 <__bad_interrupt>
      a2:	00 00       	nop
      a4:	d5 c0       	rjmp	.+426    	; 0x250 <__bad_interrupt>
      a6:	00 00       	nop
      a8:	8f c2       	rjmp	.+1310   	; 0x5c8 <__vector_42>
      aa:	00 00       	nop
      ac:	d1 c0       	rjmp	.+418    	; 0x250 <__bad_interrupt>
      ae:	00 00       	nop
      b0:	cf c0       	rjmp	.+414    	; 0x250 <__bad_interrupt>
      b2:	00 00       	nop
      b4:	cd c0       	rjmp	.+410    	; 0x250 <__bad_interrupt>
      b6:	00 00       	nop
      b8:	cb c0       	rjmp	.+406    	; 0x250 <__bad_interrupt>
      ba:	00 00       	nop
      bc:	f9 c4       	rjmp	.+2546   	; 0xab0 <__vector_47>
      be:	00 00       	nop
      c0:	c7 c0       	rjmp	.+398    	; 0x250 <__bad_interrupt>
      c2:	00 00       	nop
      c4:	c5 c0       	rjmp	.+394    	; 0x250 <__bad_interrupt>
      c6:	00 00       	nop
      c8:	c3 c0       	rjmp	.+390    	; 0x250 <__bad_interrupt>
      ca:	00 00       	nop
      cc:	c1 c0       	rjmp	.+386    	; 0x250 <__bad_interrupt>
      ce:	00 00       	nop
      d0:	bf c0       	rjmp	.+382    	; 0x250 <__bad_interrupt>
      d2:	00 00       	nop
      d4:	bd c0       	rjmp	.+378    	; 0x250 <__bad_interrupt>
      d6:	00 00       	nop
      d8:	bb c0       	rjmp	.+374    	; 0x250 <__bad_interrupt>
      da:	00 00       	nop
      dc:	b9 c0       	rjmp	.+370    	; 0x250 <__bad_interrupt>
      de:	00 00       	nop
      e0:	b7 c0       	rjmp	.+366    	; 0x250 <__bad_interrupt>
      e2:	00 00       	nop
      e4:	b5 c0       	rjmp	.+362    	; 0x250 <__bad_interrupt>
      e6:	00 00       	nop
      e8:	b3 c0       	rjmp	.+358    	; 0x250 <__bad_interrupt>
      ea:	00 00       	nop
      ec:	b1 c0       	rjmp	.+354    	; 0x250 <__bad_interrupt>
      ee:	00 00       	nop
      f0:	af c0       	rjmp	.+350    	; 0x250 <__bad_interrupt>
      f2:	00 00       	nop
      f4:	ad c0       	rjmp	.+346    	; 0x250 <__bad_interrupt>
      f6:	00 00       	nop
      f8:	ab c0       	rjmp	.+342    	; 0x250 <__bad_interrupt>
      fa:	00 00       	nop
      fc:	a9 c0       	rjmp	.+338    	; 0x250 <__bad_interrupt>
      fe:	00 00       	nop
     100:	a7 c0       	rjmp	.+334    	; 0x250 <__bad_interrupt>
     102:	00 00       	nop
     104:	a5 c0       	rjmp	.+330    	; 0x250 <__bad_interrupt>
     106:	00 00       	nop
     108:	a3 c0       	rjmp	.+326    	; 0x250 <__bad_interrupt>
     10a:	00 00       	nop
     10c:	a1 c0       	rjmp	.+322    	; 0x250 <__bad_interrupt>
     10e:	00 00       	nop
     110:	9f c0       	rjmp	.+318    	; 0x250 <__bad_interrupt>
     112:	00 00       	nop
     114:	9d c0       	rjmp	.+314    	; 0x250 <__bad_interrupt>
     116:	00 00       	nop
     118:	9b c0       	rjmp	.+310    	; 0x250 <__bad_interrupt>
     11a:	00 00       	nop
     11c:	99 c0       	rjmp	.+306    	; 0x250 <__bad_interrupt>
     11e:	00 00       	nop
     120:	97 c0       	rjmp	.+302    	; 0x250 <__bad_interrupt>
     122:	00 00       	nop
     124:	95 c0       	rjmp	.+298    	; 0x250 <__bad_interrupt>
     126:	00 00       	nop
     128:	93 c0       	rjmp	.+294    	; 0x250 <__bad_interrupt>
     12a:	00 00       	nop
     12c:	91 c0       	rjmp	.+290    	; 0x250 <__bad_interrupt>
     12e:	00 00       	nop
     130:	8f c0       	rjmp	.+286    	; 0x250 <__bad_interrupt>
     132:	00 00       	nop
     134:	6b c4       	rjmp	.+2262   	; 0xa0c <__vector_77>
     136:	00 00       	nop
     138:	8b c0       	rjmp	.+278    	; 0x250 <__bad_interrupt>
     13a:	00 00       	nop
     13c:	89 c0       	rjmp	.+274    	; 0x250 <__bad_interrupt>
     13e:	00 00       	nop
     140:	87 c0       	rjmp	.+270    	; 0x250 <__bad_interrupt>
     142:	00 00       	nop
     144:	85 c0       	rjmp	.+266    	; 0x250 <__bad_interrupt>
     146:	00 00       	nop
     148:	83 c0       	rjmp	.+262    	; 0x250 <__bad_interrupt>
     14a:	00 00       	nop
     14c:	81 c0       	rjmp	.+258    	; 0x250 <__bad_interrupt>
     14e:	00 00       	nop
     150:	7f c0       	rjmp	.+254    	; 0x250 <__bad_interrupt>
     152:	00 00       	nop
     154:	7d c0       	rjmp	.+250    	; 0x250 <__bad_interrupt>
     156:	00 00       	nop
     158:	7b c0       	rjmp	.+246    	; 0x250 <__bad_interrupt>
     15a:	00 00       	nop
     15c:	79 c0       	rjmp	.+242    	; 0x250 <__bad_interrupt>
     15e:	00 00       	nop
     160:	9f c2       	rjmp	.+1342   	; 0x6a0 <__vector_88>
     162:	00 00       	nop
     164:	75 c0       	rjmp	.+234    	; 0x250 <__bad_interrupt>
     166:	00 00       	nop
     168:	65 c2       	rjmp	.+1226   	; 0x634 <__vector_90>
     16a:	00 00       	nop
     16c:	71 c0       	rjmp	.+226    	; 0x250 <__bad_interrupt>
     16e:	00 00       	nop
     170:	6f c0       	rjmp	.+222    	; 0x250 <__bad_interrupt>
     172:	00 00       	nop
     174:	6d c0       	rjmp	.+218    	; 0x250 <__bad_interrupt>
     176:	00 00       	nop
     178:	6b c0       	rjmp	.+214    	; 0x250 <__bad_interrupt>
     17a:	00 00       	nop
     17c:	69 c0       	rjmp	.+210    	; 0x250 <__bad_interrupt>
     17e:	00 00       	nop
     180:	67 c0       	rjmp	.+206    	; 0x250 <__bad_interrupt>
     182:	00 00       	nop
     184:	65 c0       	rjmp	.+202    	; 0x250 <__bad_interrupt>
     186:	00 00       	nop
     188:	63 c0       	rjmp	.+198    	; 0x250 <__bad_interrupt>
     18a:	00 00       	nop
     18c:	61 c0       	rjmp	.+194    	; 0x250 <__bad_interrupt>
     18e:	00 00       	nop
     190:	5f c0       	rjmp	.+190    	; 0x250 <__bad_interrupt>
     192:	00 00       	nop
     194:	5d c0       	rjmp	.+186    	; 0x250 <__bad_interrupt>
     196:	00 00       	nop
     198:	5b c0       	rjmp	.+182    	; 0x250 <__bad_interrupt>
     19a:	00 00       	nop
     19c:	59 c0       	rjmp	.+178    	; 0x250 <__bad_interrupt>
     19e:	00 00       	nop
     1a0:	57 c0       	rjmp	.+174    	; 0x250 <__bad_interrupt>
     1a2:	00 00       	nop
     1a4:	55 c0       	rjmp	.+170    	; 0x250 <__bad_interrupt>
     1a6:	00 00       	nop
     1a8:	53 c0       	rjmp	.+166    	; 0x250 <__bad_interrupt>
     1aa:	00 00       	nop
     1ac:	51 c0       	rjmp	.+162    	; 0x250 <__bad_interrupt>
     1ae:	00 00       	nop
     1b0:	a8 c4       	rjmp	.+2384   	; 0xb02 <__vector_108>
     1b2:	00 00       	nop
     1b4:	4d c0       	rjmp	.+154    	; 0x250 <__bad_interrupt>
     1b6:	00 00       	nop
     1b8:	4b c0       	rjmp	.+150    	; 0x250 <__bad_interrupt>
     1ba:	00 00       	nop
     1bc:	49 c0       	rjmp	.+146    	; 0x250 <__bad_interrupt>
     1be:	00 00       	nop
     1c0:	47 c0       	rjmp	.+142    	; 0x250 <__bad_interrupt>
     1c2:	00 00       	nop
     1c4:	45 c0       	rjmp	.+138    	; 0x250 <__bad_interrupt>
     1c6:	00 00       	nop
     1c8:	43 c0       	rjmp	.+134    	; 0x250 <__bad_interrupt>
     1ca:	00 00       	nop
     1cc:	41 c0       	rjmp	.+130    	; 0x250 <__bad_interrupt>
     1ce:	00 00       	nop
     1d0:	3f c0       	rjmp	.+126    	; 0x250 <__bad_interrupt>
     1d2:	00 00       	nop
     1d4:	3d c0       	rjmp	.+122    	; 0x250 <__bad_interrupt>
     1d6:	00 00       	nop
     1d8:	3b c0       	rjmp	.+118    	; 0x250 <__bad_interrupt>
     1da:	00 00       	nop
     1dc:	39 c0       	rjmp	.+114    	; 0x250 <__bad_interrupt>
     1de:	00 00       	nop
     1e0:	37 c0       	rjmp	.+110    	; 0x250 <__bad_interrupt>
     1e2:	00 00       	nop
     1e4:	35 c0       	rjmp	.+106    	; 0x250 <__bad_interrupt>
     1e6:	00 00       	nop
     1e8:	33 c0       	rjmp	.+102    	; 0x250 <__bad_interrupt>
     1ea:	00 00       	nop
     1ec:	31 c0       	rjmp	.+98     	; 0x250 <__bad_interrupt>
     1ee:	00 00       	nop
     1f0:	2f c0       	rjmp	.+94     	; 0x250 <__bad_interrupt>
     1f2:	00 00       	nop
     1f4:	2d c0       	rjmp	.+90     	; 0x250 <__bad_interrupt>
     1f6:	00 00       	nop
     1f8:	2b c0       	rjmp	.+86     	; 0x250 <__bad_interrupt>
     1fa:	00 00       	nop
     1fc:	44 09       	sbc	r20, r4
     1fe:	2f 09       	sbc	r18, r15
     200:	1d 09       	sbc	r17, r13
     202:	01 09       	sbc	r16, r1
     204:	65 09       	sbc	r22, r5
     206:	4a 09       	sbc	r20, r10
     208:	f1 08       	sbc	r15, r1
     20a:	da 08       	sbc	r13, r10
     20c:	d2 06       	cpc	r13, r18
     20e:	94 08       	sbc	r9, r4

00000210 <__ctors_end>:
     210:	11 24       	eor	r1, r1
     212:	1f be       	out	0x3f, r1	; 63
     214:	cf ef       	ldi	r28, 0xFF	; 255
     216:	cd bf       	out	0x3d, r28	; 61
     218:	df e3       	ldi	r29, 0x3F	; 63
     21a:	de bf       	out	0x3e, r29	; 62
     21c:	00 e0       	ldi	r16, 0x00	; 0
     21e:	0c bf       	out	0x3c, r16	; 60

00000220 <__do_copy_data>:
     220:	10 e2       	ldi	r17, 0x20	; 32
     222:	a0 e0       	ldi	r26, 0x00	; 0
     224:	b0 e2       	ldi	r27, 0x20	; 32
     226:	ea e2       	ldi	r30, 0x2A	; 42
     228:	ff e8       	ldi	r31, 0x8F	; 143
     22a:	00 e0       	ldi	r16, 0x00	; 0
     22c:	0b bf       	out	0x3b, r16	; 59
     22e:	02 c0       	rjmp	.+4      	; 0x234 <__do_copy_data+0x14>
     230:	07 90       	elpm	r0, Z+
     232:	0d 92       	st	X+, r0
     234:	a8 3d       	cpi	r26, 0xD8	; 216
     236:	b1 07       	cpc	r27, r17
     238:	d9 f7       	brne	.-10     	; 0x230 <__do_copy_data+0x10>

0000023a <__do_clear_bss>:
     23a:	2b e2       	ldi	r18, 0x2B	; 43
     23c:	a8 ed       	ldi	r26, 0xD8	; 216
     23e:	b0 e2       	ldi	r27, 0x20	; 32
     240:	01 c0       	rjmp	.+2      	; 0x244 <.do_clear_bss_start>

00000242 <.do_clear_bss_loop>:
     242:	1d 92       	st	X+, r1

00000244 <.do_clear_bss_start>:
     244:	a1 32       	cpi	r26, 0x21	; 33
     246:	b2 07       	cpc	r27, r18
     248:	e1 f7       	brne	.-8      	; 0x242 <.do_clear_bss_loop>
     24a:	0e d5       	rcall	.+2588   	; 0xc68 <main>
     24c:	0c 94 93 47 	jmp	0x8f26	; 0x8f26 <_exit>

00000250 <__bad_interrupt>:
     250:	ac c1       	rjmp	.+856    	; 0x5aa <__vector_default>

00000252 <AD7195_Init>:
	(*value2) = (uint32_t)SPI_R_Byte() << 16;
	(*value2) |= (uint32_t)SPI_R_Byte() << 8;
	(*value2) |= (uint32_t)SPI_R_Byte();
	(*channel2) = SPI_R_Byte() & 0x0F;
	AD7195_CS(1, false);
}
     252:	cf 93       	push	r28
     254:	81 11       	cpse	r24, r1
     256:	2c c0       	rjmp	.+88     	; 0x2b0 <AD7195_Init+0x5e>
     258:	c8 e0       	ldi	r28, 0x08	; 8
     25a:	c0 93 46 06 	sts	0x0646, r28	; 0x800646 <__TEXT_REGION_LENGTH__+0x700646>
     25e:	80 e1       	ldi	r24, 0x10	; 16
     260:	0e 94 76 3c 	call	0x78ec	; 0x78ec <SPI_W_Byte>
     264:	80 e0       	ldi	r24, 0x00	; 0
     266:	0e 94 76 3c 	call	0x78ec	; 0x78ec <SPI_W_Byte>
     26a:	80 ef       	ldi	r24, 0xF0	; 240
     26c:	0e 94 76 3c 	call	0x78ec	; 0x78ec <SPI_W_Byte>
     270:	8e e0       	ldi	r24, 0x0E	; 14
     272:	0e 94 76 3c 	call	0x78ec	; 0x78ec <SPI_W_Byte>
     276:	c0 93 45 06 	sts	0x0645, r28	; 0x800645 <__TEXT_REGION_LENGTH__+0x700645>
     27a:	2f ef       	ldi	r18, 0xFF	; 255
     27c:	89 ef       	ldi	r24, 0xF9	; 249
     27e:	90 e0       	ldi	r25, 0x00	; 0
     280:	21 50       	subi	r18, 0x01	; 1
     282:	80 40       	sbci	r24, 0x00	; 0
     284:	90 40       	sbci	r25, 0x00	; 0
     286:	e1 f7       	brne	.-8      	; 0x280 <AD7195_Init+0x2e>
     288:	00 c0       	rjmp	.+0      	; 0x28a <AD7195_Init+0x38>
     28a:	00 00       	nop
     28c:	c0 93 46 06 	sts	0x0646, r28	; 0x800646 <__TEXT_REGION_LENGTH__+0x700646>
     290:	88 e0       	ldi	r24, 0x08	; 8
     292:	0e 94 76 3c 	call	0x78ec	; 0x78ec <SPI_W_Byte>
     296:	84 e1       	ldi	r24, 0x14	; 20
     298:	0e 94 76 3c 	call	0x78ec	; 0x78ec <SPI_W_Byte>
     29c:	80 e0       	ldi	r24, 0x00	; 0
     29e:	0e 94 76 3c 	call	0x78ec	; 0x78ec <SPI_W_Byte>
     2a2:	81 e0       	ldi	r24, 0x01	; 1
     2a4:	0e 94 76 3c 	call	0x78ec	; 0x78ec <SPI_W_Byte>
     2a8:	c0 93 45 06 	sts	0x0645, r28	; 0x800645 <__TEXT_REGION_LENGTH__+0x700645>
     2ac:	cf 91       	pop	r28
     2ae:	08 95       	ret
     2b0:	81 30       	cpi	r24, 0x01	; 1
     2b2:	11 f4       	brne	.+4      	; 0x2b8 <AD7195_Init+0x66>
     2b4:	c0 e1       	ldi	r28, 0x10	; 16
     2b6:	d1 cf       	rjmp	.-94     	; 0x25a <AD7195_Init+0x8>
     2b8:	80 e1       	ldi	r24, 0x10	; 16
     2ba:	0e 94 76 3c 	call	0x78ec	; 0x78ec <SPI_W_Byte>
     2be:	80 e0       	ldi	r24, 0x00	; 0
     2c0:	0e 94 76 3c 	call	0x78ec	; 0x78ec <SPI_W_Byte>
     2c4:	80 ef       	ldi	r24, 0xF0	; 240
     2c6:	0e 94 76 3c 	call	0x78ec	; 0x78ec <SPI_W_Byte>
     2ca:	8e e0       	ldi	r24, 0x0E	; 14
     2cc:	0e 94 76 3c 	call	0x78ec	; 0x78ec <SPI_W_Byte>
     2d0:	2f ef       	ldi	r18, 0xFF	; 255
     2d2:	89 ef       	ldi	r24, 0xF9	; 249
     2d4:	90 e0       	ldi	r25, 0x00	; 0
     2d6:	21 50       	subi	r18, 0x01	; 1
     2d8:	80 40       	sbci	r24, 0x00	; 0
     2da:	90 40       	sbci	r25, 0x00	; 0
     2dc:	e1 f7       	brne	.-8      	; 0x2d6 <AD7195_Init+0x84>
     2de:	00 c0       	rjmp	.+0      	; 0x2e0 <AD7195_Init+0x8e>
     2e0:	00 00       	nop
     2e2:	88 e0       	ldi	r24, 0x08	; 8
     2e4:	0e 94 76 3c 	call	0x78ec	; 0x78ec <SPI_W_Byte>
     2e8:	84 e1       	ldi	r24, 0x14	; 20
     2ea:	0e 94 76 3c 	call	0x78ec	; 0x78ec <SPI_W_Byte>
     2ee:	80 e0       	ldi	r24, 0x00	; 0
     2f0:	0e 94 76 3c 	call	0x78ec	; 0x78ec <SPI_W_Byte>
     2f4:	81 e0       	ldi	r24, 0x01	; 1
     2f6:	cf 91       	pop	r28
     2f8:	0c 94 76 3c 	jmp	0x78ec	; 0x78ec <SPI_W_Byte>

000002fc <AD7195_Sync>:
     2fc:	e0 e6       	ldi	r30, 0x60	; 96
     2fe:	f6 e0       	ldi	r31, 0x06	; 6
     300:	82 e0       	ldi	r24, 0x02	; 2
     302:	86 83       	std	Z+6, r24	; 0x06
     304:	2f ef       	ldi	r18, 0xFF	; 255
     306:	33 ec       	ldi	r19, 0xC3	; 195
     308:	99 e0       	ldi	r25, 0x09	; 9
     30a:	21 50       	subi	r18, 0x01	; 1
     30c:	30 40       	sbci	r19, 0x00	; 0
     30e:	90 40       	sbci	r25, 0x00	; 0
     310:	e1 f7       	brne	.-8      	; 0x30a <AD7195_Sync+0xe>
     312:	00 c0       	rjmp	.+0      	; 0x314 <AD7195_Sync+0x18>
     314:	00 00       	nop
     316:	85 83       	std	Z+5, r24	; 0x05
     318:	08 95       	ret

0000031a <AD7195_Reset>:
     31a:	cf 93       	push	r28
     31c:	81 11       	cpse	r24, r1
     31e:	2e c0       	rjmp	.+92     	; 0x37c <AD7195_Reset+0x62>
     320:	c8 e0       	ldi	r28, 0x08	; 8
     322:	c0 93 46 06 	sts	0x0646, r28	; 0x800646 <__TEXT_REGION_LENGTH__+0x700646>
     326:	81 e0       	ldi	r24, 0x01	; 1
     328:	0e 94 76 3c 	call	0x78ec	; 0x78ec <SPI_W_Byte>
     32c:	8f ef       	ldi	r24, 0xFF	; 255
     32e:	0e 94 76 3c 	call	0x78ec	; 0x78ec <SPI_W_Byte>
     332:	8f ef       	ldi	r24, 0xFF	; 255
     334:	0e 94 76 3c 	call	0x78ec	; 0x78ec <SPI_W_Byte>
     338:	8f ef       	ldi	r24, 0xFF	; 255
     33a:	0e 94 76 3c 	call	0x78ec	; 0x78ec <SPI_W_Byte>
     33e:	8f ef       	ldi	r24, 0xFF	; 255
     340:	0e 94 76 3c 	call	0x78ec	; 0x78ec <SPI_W_Byte>
     344:	8f ef       	ldi	r24, 0xFF	; 255
     346:	0e 94 76 3c 	call	0x78ec	; 0x78ec <SPI_W_Byte>
     34a:	8f ef       	ldi	r24, 0xFF	; 255
     34c:	0e 94 76 3c 	call	0x78ec	; 0x78ec <SPI_W_Byte>
     350:	8f ef       	ldi	r24, 0xFF	; 255
     352:	0e 94 76 3c 	call	0x78ec	; 0x78ec <SPI_W_Byte>
     356:	8f ef       	ldi	r24, 0xFF	; 255
     358:	0e 94 76 3c 	call	0x78ec	; 0x78ec <SPI_W_Byte>
     35c:	8f ef       	ldi	r24, 0xFF	; 255
     35e:	0e 94 76 3c 	call	0x78ec	; 0x78ec <SPI_W_Byte>
     362:	8f ef       	ldi	r24, 0xFF	; 255
     364:	0e 94 76 3c 	call	0x78ec	; 0x78ec <SPI_W_Byte>
     368:	8f ef       	ldi	r24, 0xFF	; 255
     36a:	0e 94 76 3c 	call	0x78ec	; 0x78ec <SPI_W_Byte>
     36e:	8f ef       	ldi	r24, 0xFF	; 255
     370:	0e 94 76 3c 	call	0x78ec	; 0x78ec <SPI_W_Byte>
     374:	c0 93 45 06 	sts	0x0645, r28	; 0x800645 <__TEXT_REGION_LENGTH__+0x700645>
     378:	cf 91       	pop	r28
     37a:	08 95       	ret
     37c:	81 30       	cpi	r24, 0x01	; 1
     37e:	21 f4       	brne	.+8      	; 0x388 <AD7195_Reset+0x6e>
     380:	c0 e1       	ldi	r28, 0x10	; 16
     382:	c0 93 46 06 	sts	0x0646, r28	; 0x800646 <__TEXT_REGION_LENGTH__+0x700646>
     386:	d0 cf       	rjmp	.-96     	; 0x328 <AD7195_Reset+0xe>
     388:	81 e0       	ldi	r24, 0x01	; 1
     38a:	0e 94 76 3c 	call	0x78ec	; 0x78ec <SPI_W_Byte>
     38e:	8f ef       	ldi	r24, 0xFF	; 255
     390:	0e 94 76 3c 	call	0x78ec	; 0x78ec <SPI_W_Byte>
     394:	8f ef       	ldi	r24, 0xFF	; 255
     396:	0e 94 76 3c 	call	0x78ec	; 0x78ec <SPI_W_Byte>
     39a:	8f ef       	ldi	r24, 0xFF	; 255
     39c:	0e 94 76 3c 	call	0x78ec	; 0x78ec <SPI_W_Byte>
     3a0:	8f ef       	ldi	r24, 0xFF	; 255
     3a2:	0e 94 76 3c 	call	0x78ec	; 0x78ec <SPI_W_Byte>
     3a6:	8f ef       	ldi	r24, 0xFF	; 255
     3a8:	0e 94 76 3c 	call	0x78ec	; 0x78ec <SPI_W_Byte>
     3ac:	8f ef       	ldi	r24, 0xFF	; 255
     3ae:	0e 94 76 3c 	call	0x78ec	; 0x78ec <SPI_W_Byte>
     3b2:	8f ef       	ldi	r24, 0xFF	; 255
     3b4:	0e 94 76 3c 	call	0x78ec	; 0x78ec <SPI_W_Byte>
     3b8:	8f ef       	ldi	r24, 0xFF	; 255
     3ba:	0e 94 76 3c 	call	0x78ec	; 0x78ec <SPI_W_Byte>
     3be:	8f ef       	ldi	r24, 0xFF	; 255
     3c0:	0e 94 76 3c 	call	0x78ec	; 0x78ec <SPI_W_Byte>
     3c4:	8f ef       	ldi	r24, 0xFF	; 255
     3c6:	0e 94 76 3c 	call	0x78ec	; 0x78ec <SPI_W_Byte>
     3ca:	8f ef       	ldi	r24, 0xFF	; 255
     3cc:	0e 94 76 3c 	call	0x78ec	; 0x78ec <SPI_W_Byte>
     3d0:	8f ef       	ldi	r24, 0xFF	; 255
     3d2:	cf 91       	pop	r28
     3d4:	0c 94 76 3c 	jmp	0x78ec	; 0x78ec <SPI_W_Byte>

000003d8 <AD7195_RDY>:

bool AD7195_RDY(uint8_t chipNo){
     3d8:	cf 93       	push	r28
#include "struct.h"
#include <util/delay.h>

void AD7195_CS(uint8_t chipNo, bool state){
	if((chipNo == 0) && (state == false)) PORTC.OUTSET = PIN3_bm;
	if((chipNo == 0) && (state == true))  PORTC.OUTCLR = PIN3_bm;
     3da:	81 11       	cpse	r24, r1
     3dc:	0f c0       	rjmp	.+30     	; 0x3fc <AD7195_RDY+0x24>
     3de:	c8 e0       	ldi	r28, 0x08	; 8
	
	if((chipNo == 1) && (state == false)) PORTC.OUTSET = PIN4_bm;
	if((chipNo == 1) && (state == true))  PORTC.OUTCLR = PIN4_bm;
     3e0:	c0 93 46 06 	sts	0x0646, r28	; 0x800646 <__TEXT_REGION_LENGTH__+0x700646>
	AD7195_CS(1, false);
}

bool AD7195_RDY(uint8_t chipNo){
	AD7195_CS(chipNo, true);
	SPI_W_Byte(0b01000000);					//Read, ID register
     3e4:	80 e4       	ldi	r24, 0x40	; 64
     3e6:	0e 94 76 3c 	call	0x78ec	; 0x78ec <SPI_W_Byte>
	char status = SPI_R_Byte();					//CHOP off, AC ex off
     3ea:	0e 94 88 3c 	call	0x7910	; 0x7910 <SPI_R_Byte>

void AD7195_CS(uint8_t chipNo, bool state){
	if((chipNo == 0) && (state == false)) PORTC.OUTSET = PIN3_bm;
	if((chipNo == 0) && (state == true))  PORTC.OUTCLR = PIN3_bm;
	
	if((chipNo == 1) && (state == false)) PORTC.OUTSET = PIN4_bm;
     3ee:	c0 93 45 06 	sts	0x0645, r28	; 0x800645 <__TEXT_REGION_LENGTH__+0x700645>
	AD7195_CS(chipNo, true);
	SPI_W_Byte(0b01000000);					//Read, ID register
	char status = SPI_R_Byte();					//CHOP off, AC ex off
	AD7195_CS(chipNo, false);
	
	return status & 0x80;
     3f2:	88 1f       	adc	r24, r24
     3f4:	88 27       	eor	r24, r24
     3f6:	88 1f       	adc	r24, r24
}
     3f8:	cf 91       	pop	r28
     3fa:	08 95       	ret
void AD7195_CS(uint8_t chipNo, bool state){
	if((chipNo == 0) && (state == false)) PORTC.OUTSET = PIN3_bm;
	if((chipNo == 0) && (state == true))  PORTC.OUTCLR = PIN3_bm;
	
	if((chipNo == 1) && (state == false)) PORTC.OUTSET = PIN4_bm;
	if((chipNo == 1) && (state == true))  PORTC.OUTCLR = PIN4_bm;
     3fc:	81 30       	cpi	r24, 0x01	; 1
     3fe:	11 f4       	brne	.+4      	; 0x404 <__LOCK_REGION_LENGTH__+0x4>
     400:	c0 e1       	ldi	r28, 0x10	; 16
     402:	ee cf       	rjmp	.-36     	; 0x3e0 <AD7195_RDY+0x8>
	AD7195_CS(1, false);
}

bool AD7195_RDY(uint8_t chipNo){
	AD7195_CS(chipNo, true);
	SPI_W_Byte(0b01000000);					//Read, ID register
     404:	80 e4       	ldi	r24, 0x40	; 64
     406:	0e 94 76 3c 	call	0x78ec	; 0x78ec <SPI_W_Byte>
	char status = SPI_R_Byte();					//CHOP off, AC ex off
     40a:	0e 94 88 3c 	call	0x7910	; 0x7910 <SPI_R_Byte>
	AD7195_CS(chipNo, false);
	
	return status & 0x80;
     40e:	88 1f       	adc	r24, r24
     410:	88 27       	eor	r24, r24
     412:	88 1f       	adc	r24, r24
}
     414:	cf 91       	pop	r28
     416:	08 95       	ret

00000418 <AD7195_ReadStore>:

void AD7195_ReadStore(allData_t * allData){
     418:	8f 92       	push	r8
     41a:	9f 92       	push	r9
     41c:	af 92       	push	r10
     41e:	bf 92       	push	r11
     420:	cf 92       	push	r12
     422:	df 92       	push	r13
     424:	ef 92       	push	r14
     426:	ff 92       	push	r15
     428:	0f 93       	push	r16
     42a:	1f 93       	push	r17
     42c:	cf 93       	push	r28
     42e:	df 93       	push	r29
     430:	ec 01       	movw	r28, r24
#include "struct.h"
#include <util/delay.h>

void AD7195_CS(uint8_t chipNo, bool state){
	if((chipNo == 0) && (state == false)) PORTC.OUTSET = PIN3_bm;
	if((chipNo == 0) && (state == true))  PORTC.OUTCLR = PIN3_bm;
     432:	08 e0       	ldi	r16, 0x08	; 8
     434:	00 93 46 06 	sts	0x0646, r16	; 0x800646 <__TEXT_REGION_LENGTH__+0x700646>
	AD7195_CS(chipNo, false);
}

void AD7195_ContConvRead(uint8_t * channel1, uint8_t * channel2, uint32_t * value1, uint32_t * value2){
	AD7195_CS(0, true);
	SPI_W_Byte(0x58);
     438:	88 e5       	ldi	r24, 0x58	; 88
     43a:	0e 94 76 3c 	call	0x78ec	; 0x78ec <SPI_W_Byte>
	(*value1) = (uint32_t)SPI_R_Byte() << 16;
     43e:	0e 94 88 3c 	call	0x7910	; 0x7910 <SPI_R_Byte>
     442:	88 2e       	mov	r8, r24
     444:	91 2c       	mov	r9, r1
     446:	a1 2c       	mov	r10, r1
     448:	b1 2c       	mov	r11, r1
     44a:	54 01       	movw	r10, r8
     44c:	99 24       	eor	r9, r9
     44e:	88 24       	eor	r8, r8
	(*value1) |= (uint32_t)SPI_R_Byte() << 8;
     450:	0e 94 88 3c 	call	0x7910	; 0x7910 <SPI_R_Byte>
     454:	98 2a       	or	r9, r24
	(*value1) |= (uint32_t)SPI_R_Byte();
     456:	0e 94 88 3c 	call	0x7910	; 0x7910 <SPI_R_Byte>
     45a:	88 2a       	or	r8, r24
	(*channel1) = SPI_R_Byte() & 0x0F;
     45c:	0e 94 88 3c 	call	0x7910	; 0x7910 <SPI_R_Byte>
     460:	18 2f       	mov	r17, r24
#include "AD7195.h"
#include "struct.h"
#include <util/delay.h>

void AD7195_CS(uint8_t chipNo, bool state){
	if((chipNo == 0) && (state == false)) PORTC.OUTSET = PIN3_bm;
     462:	00 93 45 06 	sts	0x0645, r16	; 0x800645 <__TEXT_REGION_LENGTH__+0x700645>
	if((chipNo == 0) && (state == true))  PORTC.OUTCLR = PIN3_bm;
	
	if((chipNo == 1) && (state == false)) PORTC.OUTSET = PIN4_bm;
	if((chipNo == 1) && (state == true))  PORTC.OUTCLR = PIN4_bm;
     466:	00 e1       	ldi	r16, 0x10	; 16
     468:	00 93 46 06 	sts	0x0646, r16	; 0x800646 <__TEXT_REGION_LENGTH__+0x700646>
	(*value1) |= (uint32_t)SPI_R_Byte();
	(*channel1) = SPI_R_Byte() & 0x0F;
	AD7195_CS(0, false);
	
	AD7195_CS(1, true);
	SPI_W_Byte(0x58);
     46c:	88 e5       	ldi	r24, 0x58	; 88
     46e:	0e 94 76 3c 	call	0x78ec	; 0x78ec <SPI_W_Byte>
	(*value2) = (uint32_t)SPI_R_Byte() << 16;
     472:	0e 94 88 3c 	call	0x7910	; 0x7910 <SPI_R_Byte>
     476:	c8 2e       	mov	r12, r24
     478:	d1 2c       	mov	r13, r1
     47a:	e1 2c       	mov	r14, r1
     47c:	f1 2c       	mov	r15, r1
     47e:	76 01       	movw	r14, r12
     480:	dd 24       	eor	r13, r13
     482:	cc 24       	eor	r12, r12
	(*value2) |= (uint32_t)SPI_R_Byte() << 8;
     484:	0e 94 88 3c 	call	0x7910	; 0x7910 <SPI_R_Byte>
     488:	d8 2a       	or	r13, r24
	(*value2) |= (uint32_t)SPI_R_Byte();
     48a:	0e 94 88 3c 	call	0x7910	; 0x7910 <SPI_R_Byte>
     48e:	c8 2a       	or	r12, r24
	(*channel2) = SPI_R_Byte() & 0x0F;
     490:	0e 94 88 3c 	call	0x7910	; 0x7910 <SPI_R_Byte>
     494:	8f 70       	andi	r24, 0x0F	; 15

void AD7195_CS(uint8_t chipNo, bool state){
	if((chipNo == 0) && (state == false)) PORTC.OUTSET = PIN3_bm;
	if((chipNo == 0) && (state == true))  PORTC.OUTCLR = PIN3_bm;
	
	if((chipNo == 1) && (state == false)) PORTC.OUTSET = PIN4_bm;
     496:	00 93 45 06 	sts	0x0645, r16	; 0x800645 <__TEXT_REGION_LENGTH__+0x700645>
	AD7195_CS(0, true);
	SPI_W_Byte(0x58);
	(*value1) = (uint32_t)SPI_R_Byte() << 16;
	(*value1) |= (uint32_t)SPI_R_Byte() << 8;
	(*value1) |= (uint32_t)SPI_R_Byte();
	(*channel1) = SPI_R_Byte() & 0x0F;
     49a:	91 2f       	mov	r25, r17
     49c:	9f 70       	andi	r25, 0x0F	; 15

void AD7195_ReadStore(allData_t * allData){
	uint8_t channel1, channel2;
	uint32_t value1, value2;
	AD7195_ContConvRead(&channel1, &channel2, &value1, &value2);
	switch(channel1){
     49e:	94 30       	cpi	r25, 0x04	; 4
     4a0:	09 f4       	brne	.+2      	; 0x4a4 <AD7195_ReadStore+0x8c>
     4a2:	7c c0       	rjmp	.+248    	; 0x59c <AD7195_ReadStore+0x184>
     4a4:	c0 f1       	brcs	.+112    	; 0x516 <AD7195_ReadStore+0xfe>
     4a6:	96 30       	cpi	r25, 0x06	; 6
     4a8:	09 f4       	brne	.+2      	; 0x4ac <AD7195_ReadStore+0x94>
     4aa:	4a c0       	rjmp	.+148    	; 0x540 <AD7195_ReadStore+0x128>
     4ac:	08 f4       	brcc	.+2      	; 0x4b0 <AD7195_ReadStore+0x98>
     4ae:	6f c0       	rjmp	.+222    	; 0x58e <AD7195_ReadStore+0x176>
     4b0:	97 30       	cpi	r25, 0x07	; 7
     4b2:	31 f4       	brne	.+12     	; 0x4c0 <AD7195_ReadStore+0xa8>
		case 0: allData->AD7195->raw_tenso1 = value1; break;
		case 1: allData->AD7195->raw_tenso2 = value1; break;
		case 4: allData->AD7195->raw_press1 = value1; break;
		case 5: allData->AD7195->raw_press2 = value1; break;
		case 6: allData->AD7195->raw_press3 = value1; break;
		case 7: allData->AD7195->raw_press4 = value1; break;
     4b4:	ec 85       	ldd	r30, Y+12	; 0x0c
     4b6:	fd 85       	ldd	r31, Y+13	; 0x0d
     4b8:	84 a6       	std	Z+44, r8	; 0x2c
     4ba:	95 a6       	std	Z+45, r9	; 0x2d
     4bc:	a6 a6       	std	Z+46, r10	; 0x2e
     4be:	b7 a6       	std	Z+47, r11	; 0x2f
	}
	switch(channel2){
     4c0:	84 30       	cpi	r24, 0x04	; 4
     4c2:	b9 f1       	breq	.+110    	; 0x532 <AD7195_ReadStore+0x11a>
     4c4:	85 30       	cpi	r24, 0x05	; 5
     4c6:	d0 f0       	brcs	.+52     	; 0x4fc <AD7195_ReadStore+0xe4>
     4c8:	86 30       	cpi	r24, 0x06	; 6
     4ca:	09 f4       	brne	.+2      	; 0x4ce <AD7195_ReadStore+0xb6>
     4cc:	50 c0       	rjmp	.+160    	; 0x56e <AD7195_ReadStore+0x156>
     4ce:	08 f4       	brcc	.+2      	; 0x4d2 <AD7195_ReadStore+0xba>
     4d0:	47 c0       	rjmp	.+142    	; 0x560 <AD7195_ReadStore+0x148>
     4d2:	87 30       	cpi	r24, 0x07	; 7
     4d4:	31 f4       	brne	.+12     	; 0x4e2 <AD7195_ReadStore+0xca>
		case 0: allData->AD7195->raw_tenso1 = value2; break;
		case 1: allData->AD7195->raw_tenso2 = value2; break;
		case 4: allData->AD7195->raw_press5 = value2; break;
		case 5: allData->AD7195->raw_press6 = value2; break;
		case 6: allData->AD7195->raw_press7 = value2; break;
		case 7: allData->AD7195->raw_press8 = value2; break;
     4d6:	ec 85       	ldd	r30, Y+12	; 0x0c
     4d8:	fd 85       	ldd	r31, Y+13	; 0x0d
     4da:	c4 ae       	std	Z+60, r12	; 0x3c
     4dc:	d5 ae       	std	Z+61, r13	; 0x3d
     4de:	e6 ae       	std	Z+62, r14	; 0x3e
     4e0:	f7 ae       	std	Z+63, r15	; 0x3f
	}
}
     4e2:	df 91       	pop	r29
     4e4:	cf 91       	pop	r28
     4e6:	1f 91       	pop	r17
     4e8:	0f 91       	pop	r16
     4ea:	ff 90       	pop	r15
     4ec:	ef 90       	pop	r14
     4ee:	df 90       	pop	r13
     4f0:	cf 90       	pop	r12
     4f2:	bf 90       	pop	r11
     4f4:	af 90       	pop	r10
     4f6:	9f 90       	pop	r9
     4f8:	8f 90       	pop	r8
     4fa:	08 95       	ret
		case 4: allData->AD7195->raw_press1 = value1; break;
		case 5: allData->AD7195->raw_press2 = value1; break;
		case 6: allData->AD7195->raw_press3 = value1; break;
		case 7: allData->AD7195->raw_press4 = value1; break;
	}
	switch(channel2){
     4fc:	88 23       	and	r24, r24
     4fe:	39 f1       	breq	.+78     	; 0x54e <AD7195_ReadStore+0x136>
     500:	81 30       	cpi	r24, 0x01	; 1
     502:	79 f7       	brne	.-34     	; 0x4e2 <AD7195_ReadStore+0xca>
		case 0: allData->AD7195->raw_tenso1 = value2; break;
		case 1: allData->AD7195->raw_tenso2 = value2; break;
     504:	ec 85       	ldd	r30, Y+12	; 0x0c
     506:	fd 85       	ldd	r31, Y+13	; 0x0d
     508:	ec 5b       	subi	r30, 0xBC	; 188
     50a:	ff 4f       	sbci	r31, 0xFF	; 255
     50c:	c0 82       	st	Z, r12
     50e:	d1 82       	std	Z+1, r13	; 0x01
     510:	e2 82       	std	Z+2, r14	; 0x02
     512:	f3 82       	std	Z+3, r15	; 0x03
     514:	e6 cf       	rjmp	.-52     	; 0x4e2 <AD7195_ReadStore+0xca>

void AD7195_ReadStore(allData_t * allData){
	uint8_t channel1, channel2;
	uint32_t value1, value2;
	AD7195_ContConvRead(&channel1, &channel2, &value1, &value2);
	switch(channel1){
     516:	99 23       	and	r25, r25
     518:	89 f1       	breq	.+98     	; 0x57c <AD7195_ReadStore+0x164>
     51a:	91 30       	cpi	r25, 0x01	; 1
     51c:	89 f6       	brne	.-94     	; 0x4c0 <AD7195_ReadStore+0xa8>
		case 0: allData->AD7195->raw_tenso1 = value1; break;
		case 1: allData->AD7195->raw_tenso2 = value1; break;
     51e:	ec 85       	ldd	r30, Y+12	; 0x0c
     520:	fd 85       	ldd	r31, Y+13	; 0x0d
     522:	ec 5b       	subi	r30, 0xBC	; 188
     524:	ff 4f       	sbci	r31, 0xFF	; 255
     526:	80 82       	st	Z, r8
     528:	91 82       	std	Z+1, r9	; 0x01
     52a:	a2 82       	std	Z+2, r10	; 0x02
     52c:	b3 82       	std	Z+3, r11	; 0x03
		case 4: allData->AD7195->raw_press1 = value1; break;
		case 5: allData->AD7195->raw_press2 = value1; break;
		case 6: allData->AD7195->raw_press3 = value1; break;
		case 7: allData->AD7195->raw_press4 = value1; break;
	}
	switch(channel2){
     52e:	84 30       	cpi	r24, 0x04	; 4
     530:	49 f6       	brne	.-110    	; 0x4c4 <AD7195_ReadStore+0xac>
		case 0: allData->AD7195->raw_tenso1 = value2; break;
		case 1: allData->AD7195->raw_tenso2 = value2; break;
		case 4: allData->AD7195->raw_press5 = value2; break;
     532:	ec 85       	ldd	r30, Y+12	; 0x0c
     534:	fd 85       	ldd	r31, Y+13	; 0x0d
     536:	c0 aa       	std	Z+48, r12	; 0x30
     538:	d1 aa       	std	Z+49, r13	; 0x31
     53a:	e2 aa       	std	Z+50, r14	; 0x32
     53c:	f3 aa       	std	Z+51, r15	; 0x33
     53e:	d1 cf       	rjmp	.-94     	; 0x4e2 <AD7195_ReadStore+0xca>
	switch(channel1){
		case 0: allData->AD7195->raw_tenso1 = value1; break;
		case 1: allData->AD7195->raw_tenso2 = value1; break;
		case 4: allData->AD7195->raw_press1 = value1; break;
		case 5: allData->AD7195->raw_press2 = value1; break;
		case 6: allData->AD7195->raw_press3 = value1; break;
     540:	ec 85       	ldd	r30, Y+12	; 0x0c
     542:	fd 85       	ldd	r31, Y+13	; 0x0d
     544:	80 a6       	std	Z+40, r8	; 0x28
     546:	91 a6       	std	Z+41, r9	; 0x29
     548:	a2 a6       	std	Z+42, r10	; 0x2a
     54a:	b3 a6       	std	Z+43, r11	; 0x2b
     54c:	b9 cf       	rjmp	.-142    	; 0x4c0 <AD7195_ReadStore+0xa8>
		case 7: allData->AD7195->raw_press4 = value1; break;
	}
	switch(channel2){
		case 0: allData->AD7195->raw_tenso1 = value2; break;
     54e:	ec 85       	ldd	r30, Y+12	; 0x0c
     550:	fd 85       	ldd	r31, Y+13	; 0x0d
     552:	e0 5c       	subi	r30, 0xC0	; 192
     554:	ff 4f       	sbci	r31, 0xFF	; 255
     556:	c0 82       	st	Z, r12
     558:	d1 82       	std	Z+1, r13	; 0x01
     55a:	e2 82       	std	Z+2, r14	; 0x02
     55c:	f3 82       	std	Z+3, r15	; 0x03
     55e:	c1 cf       	rjmp	.-126    	; 0x4e2 <AD7195_ReadStore+0xca>
		case 1: allData->AD7195->raw_tenso2 = value2; break;
		case 4: allData->AD7195->raw_press5 = value2; break;
		case 5: allData->AD7195->raw_press6 = value2; break;
     560:	ec 85       	ldd	r30, Y+12	; 0x0c
     562:	fd 85       	ldd	r31, Y+13	; 0x0d
     564:	c4 aa       	std	Z+52, r12	; 0x34
     566:	d5 aa       	std	Z+53, r13	; 0x35
     568:	e6 aa       	std	Z+54, r14	; 0x36
     56a:	f7 aa       	std	Z+55, r15	; 0x37
     56c:	ba cf       	rjmp	.-140    	; 0x4e2 <AD7195_ReadStore+0xca>
		case 6: allData->AD7195->raw_press7 = value2; break;
     56e:	ec 85       	ldd	r30, Y+12	; 0x0c
     570:	fd 85       	ldd	r31, Y+13	; 0x0d
     572:	c0 ae       	std	Z+56, r12	; 0x38
     574:	d1 ae       	std	Z+57, r13	; 0x39
     576:	e2 ae       	std	Z+58, r14	; 0x3a
     578:	f3 ae       	std	Z+59, r15	; 0x3b
     57a:	b3 cf       	rjmp	.-154    	; 0x4e2 <AD7195_ReadStore+0xca>
void AD7195_ReadStore(allData_t * allData){
	uint8_t channel1, channel2;
	uint32_t value1, value2;
	AD7195_ContConvRead(&channel1, &channel2, &value1, &value2);
	switch(channel1){
		case 0: allData->AD7195->raw_tenso1 = value1; break;
     57c:	ec 85       	ldd	r30, Y+12	; 0x0c
     57e:	fd 85       	ldd	r31, Y+13	; 0x0d
     580:	e0 5c       	subi	r30, 0xC0	; 192
     582:	ff 4f       	sbci	r31, 0xFF	; 255
     584:	80 82       	st	Z, r8
     586:	91 82       	std	Z+1, r9	; 0x01
     588:	a2 82       	std	Z+2, r10	; 0x02
     58a:	b3 82       	std	Z+3, r11	; 0x03
     58c:	99 cf       	rjmp	.-206    	; 0x4c0 <AD7195_ReadStore+0xa8>
		case 1: allData->AD7195->raw_tenso2 = value1; break;
		case 4: allData->AD7195->raw_press1 = value1; break;
		case 5: allData->AD7195->raw_press2 = value1; break;
     58e:	ec 85       	ldd	r30, Y+12	; 0x0c
     590:	fd 85       	ldd	r31, Y+13	; 0x0d
     592:	84 a2       	std	Z+36, r8	; 0x24
     594:	95 a2       	std	Z+37, r9	; 0x25
     596:	a6 a2       	std	Z+38, r10	; 0x26
     598:	b7 a2       	std	Z+39, r11	; 0x27
     59a:	92 cf       	rjmp	.-220    	; 0x4c0 <AD7195_ReadStore+0xa8>
	uint32_t value1, value2;
	AD7195_ContConvRead(&channel1, &channel2, &value1, &value2);
	switch(channel1){
		case 0: allData->AD7195->raw_tenso1 = value1; break;
		case 1: allData->AD7195->raw_tenso2 = value1; break;
		case 4: allData->AD7195->raw_press1 = value1; break;
     59c:	ec 85       	ldd	r30, Y+12	; 0x0c
     59e:	fd 85       	ldd	r31, Y+13	; 0x0d
     5a0:	80 a2       	std	Z+32, r8	; 0x20
     5a2:	91 a2       	std	Z+33, r9	; 0x21
     5a4:	a2 a2       	std	Z+34, r10	; 0x22
     5a6:	b3 a2       	std	Z+35, r11	; 0x23
     5a8:	8b cf       	rjmp	.-234    	; 0x4c0 <AD7195_ReadStore+0xa8>

000005aa <__vector_default>:
	#else
		//round up by default
		__ticks_dc = (uint32_t)(ceil(fabs(__tmp)));
	#endif

	__builtin_avr_delay_cycles(__ticks_dc);
     5aa:	1f 92       	push	r1
     5ac:	0f 92       	push	r0
     5ae:	0f b6       	in	r0, 0x3f	; 63
     5b0:	0f 92       	push	r0
     5b2:	11 24       	eor	r1, r1
     5b4:	8f 93       	push	r24
     5b6:	81 e0       	ldi	r24, 0x01	; 1
     5b8:	80 93 a7 06 	sts	0x06A7, r24	; 0x8006a7 <__TEXT_REGION_LENGTH__+0x7006a7>
     5bc:	8f 91       	pop	r24
     5be:	0f 90       	pop	r0
     5c0:	0f be       	out	0x3f, r0	; 63
     5c2:	0f 90       	pop	r0
     5c4:	1f 90       	pop	r1
     5c6:	18 95       	reti

000005c8 <__vector_42>:
     5c8:	1f 92       	push	r1
     5ca:	0f 92       	push	r0
     5cc:	0f b6       	in	r0, 0x3f	; 63
     5ce:	0f 92       	push	r0
     5d0:	11 24       	eor	r1, r1
     5d2:	0b b6       	in	r0, 0x3b	; 59
     5d4:	0f 92       	push	r0
     5d6:	8f 93       	push	r24
     5d8:	9f 93       	push	r25
     5da:	af 93       	push	r26
     5dc:	bf 93       	push	r27
     5de:	ef 93       	push	r30
     5e0:	ff 93       	push	r31
     5e2:	a0 e4       	ldi	r26, 0x40	; 64
     5e4:	b2 e0       	ldi	r27, 0x02	; 2
     5e6:	50 96       	adiw	r26, 0x10	; 16
     5e8:	8d 91       	ld	r24, X+
     5ea:	9c 91       	ld	r25, X
     5ec:	51 97       	sbiw	r26, 0x11	; 17
     5ee:	e0 ec       	ldi	r30, 0xC0	; 192
     5f0:	f8 e2       	ldi	r31, 0x28	; 40
     5f2:	84 83       	std	Z+4, r24	; 0x04
     5f4:	95 83       	std	Z+5, r25	; 0x05
     5f6:	52 96       	adiw	r26, 0x12	; 18
     5f8:	8d 91       	ld	r24, X+
     5fa:	9c 91       	ld	r25, X
     5fc:	53 97       	sbiw	r26, 0x13	; 19
     5fe:	86 83       	std	Z+6, r24	; 0x06
     600:	97 83       	std	Z+7, r25	; 0x07
     602:	54 96       	adiw	r26, 0x14	; 20
     604:	8d 91       	ld	r24, X+
     606:	9c 91       	ld	r25, X
     608:	55 97       	sbiw	r26, 0x15	; 21
     60a:	80 87       	std	Z+8, r24	; 0x08
     60c:	91 87       	std	Z+9, r25	; 0x09
     60e:	56 96       	adiw	r26, 0x16	; 22
     610:	8d 91       	ld	r24, X+
     612:	9c 91       	ld	r25, X
     614:	57 97       	sbiw	r26, 0x17	; 23
     616:	82 87       	std	Z+10, r24	; 0x0a
     618:	93 87       	std	Z+11, r25	; 0x0b
     61a:	ff 91       	pop	r31
     61c:	ef 91       	pop	r30
     61e:	bf 91       	pop	r27
     620:	af 91       	pop	r26
     622:	9f 91       	pop	r25
     624:	8f 91       	pop	r24
     626:	0f 90       	pop	r0
     628:	0b be       	out	0x3b, r0	; 59
     62a:	0f 90       	pop	r0
     62c:	0f be       	out	0x3f, r0	; 63
     62e:	0f 90       	pop	r0
     630:	1f 90       	pop	r1
     632:	18 95       	reti

00000634 <__vector_90>:
     634:	1f 92       	push	r1
     636:	0f 92       	push	r0
     638:	0f b6       	in	r0, 0x3f	; 63
     63a:	0f 92       	push	r0
     63c:	11 24       	eor	r1, r1
     63e:	0b b6       	in	r0, 0x3b	; 59
     640:	0f 92       	push	r0
     642:	2f 93       	push	r18
     644:	3f 93       	push	r19
     646:	8f 93       	push	r24
     648:	9f 93       	push	r25
     64a:	ef 93       	push	r30
     64c:	ff 93       	push	r31
     64e:	80 91 0b 26 	lds	r24, 0x260B	; 0x80260b <frame_d+0x190>
     652:	90 91 0c 26 	lds	r25, 0x260C	; 0x80260c <frame_d+0x191>
     656:	fc 01       	movw	r30, r24
     658:	e5 58       	subi	r30, 0x85	; 133
     65a:	fb 4d       	sbci	r31, 0xDB	; 219
     65c:	20 81       	ld	r18, Z
     65e:	22 23       	and	r18, r18
     660:	71 f0       	breq	.+28     	; 0x67e <__vector_90+0x4a>
     662:	31 e0       	ldi	r19, 0x01	; 1
     664:	30 93 0d 26 	sts	0x260D, r19	; 0x80260d <frame_d+0x192>
     668:	20 93 a0 09 	sts	0x09A0, r18	; 0x8009a0 <__TEXT_REGION_LENGTH__+0x7009a0>
     66c:	87 39       	cpi	r24, 0x97	; 151
     66e:	91 05       	cpc	r25, r1
     670:	a8 f4       	brcc	.+42     	; 0x69c <__vector_90+0x68>
     672:	01 96       	adiw	r24, 0x01	; 1
     674:	80 93 0b 26 	sts	0x260B, r24	; 0x80260b <frame_d+0x190>
     678:	90 93 0c 26 	sts	0x260C, r25	; 0x80260c <frame_d+0x191>
     67c:	02 c0       	rjmp	.+4      	; 0x682 <__vector_90+0x4e>
     67e:	10 92 0d 26 	sts	0x260D, r1	; 0x80260d <frame_d+0x192>
     682:	ff 91       	pop	r31
     684:	ef 91       	pop	r30
     686:	9f 91       	pop	r25
     688:	8f 91       	pop	r24
     68a:	3f 91       	pop	r19
     68c:	2f 91       	pop	r18
     68e:	0f 90       	pop	r0
     690:	0b be       	out	0x3b, r0	; 59
     692:	0f 90       	pop	r0
     694:	0f be       	out	0x3f, r0	; 63
     696:	0f 90       	pop	r0
     698:	1f 90       	pop	r1
     69a:	18 95       	reti
     69c:	10 82       	st	Z, r1
     69e:	f1 cf       	rjmp	.-30     	; 0x682 <__vector_90+0x4e>

000006a0 <__vector_88>:
     6a0:	1f 92       	push	r1
     6a2:	0f 92       	push	r0
     6a4:	0f b6       	in	r0, 0x3f	; 63
     6a6:	0f 92       	push	r0
     6a8:	11 24       	eor	r1, r1
     6aa:	0b b6       	in	r0, 0x3b	; 59
     6ac:	0f 92       	push	r0
     6ae:	2f 93       	push	r18
     6b0:	3f 93       	push	r19
     6b2:	4f 93       	push	r20
     6b4:	5f 93       	push	r21
     6b6:	6f 93       	push	r22
     6b8:	7f 93       	push	r23
     6ba:	8f 93       	push	r24
     6bc:	9f 93       	push	r25
     6be:	af 93       	push	r26
     6c0:	bf 93       	push	r27
     6c2:	ef 93       	push	r30
     6c4:	ff 93       	push	r31
     6c6:	cf 93       	push	r28
     6c8:	df 93       	push	r29
     6ca:	1f 92       	push	r1
     6cc:	cd b7       	in	r28, 0x3d	; 61
     6ce:	de b7       	in	r29, 0x3e	; 62
     6d0:	80 91 a0 09 	lds	r24, 0x09A0	; 0x8009a0 <__TEXT_REGION_LENGTH__+0x7009a0>
     6d4:	89 83       	std	Y+1, r24	; 0x01
     6d6:	89 81       	ldd	r24, Y+1	; 0x01
     6d8:	84 32       	cpi	r24, 0x24	; 36
     6da:	09 f4       	brne	.+2      	; 0x6de <__vector_88+0x3e>
     6dc:	f7 c0       	rjmp	.+494    	; 0x8cc <__vector_88+0x22c>
     6de:	89 81       	ldd	r24, Y+1	; 0x01
     6e0:	82 35       	cpi	r24, 0x52	; 82
     6e2:	09 f4       	brne	.+2      	; 0x6e6 <__vector_88+0x46>
     6e4:	44 c0       	rjmp	.+136    	; 0x76e <__vector_88+0xce>
     6e6:	89 81       	ldd	r24, Y+1	; 0x01
     6e8:	81 33       	cpi	r24, 0x31	; 49
     6ea:	09 f4       	brne	.+2      	; 0x6ee <__vector_88+0x4e>
     6ec:	53 c0       	rjmp	.+166    	; 0x794 <__vector_88+0xf4>
     6ee:	89 81       	ldd	r24, Y+1	; 0x01
     6f0:	82 33       	cpi	r24, 0x32	; 50
     6f2:	09 f4       	brne	.+2      	; 0x6f6 <__vector_88+0x56>
     6f4:	5c c0       	rjmp	.+184    	; 0x7ae <__vector_88+0x10e>
     6f6:	89 81       	ldd	r24, Y+1	; 0x01
     6f8:	83 33       	cpi	r24, 0x33	; 51
     6fa:	09 f4       	brne	.+2      	; 0x6fe <__vector_88+0x5e>
     6fc:	6c c0       	rjmp	.+216    	; 0x7d6 <__vector_88+0x136>
     6fe:	89 81       	ldd	r24, Y+1	; 0x01
     700:	84 33       	cpi	r24, 0x34	; 52
     702:	09 f4       	brne	.+2      	; 0x706 <__vector_88+0x66>
     704:	7d c0       	rjmp	.+250    	; 0x800 <__vector_88+0x160>
     706:	89 81       	ldd	r24, Y+1	; 0x01
     708:	8b 32       	cpi	r24, 0x2B	; 43
     70a:	09 f4       	brne	.+2      	; 0x70e <__vector_88+0x6e>
     70c:	8a c0       	rjmp	.+276    	; 0x822 <__vector_88+0x182>
     70e:	89 81       	ldd	r24, Y+1	; 0x01
     710:	8d 32       	cpi	r24, 0x2D	; 45
     712:	09 f4       	brne	.+2      	; 0x716 <__vector_88+0x76>
     714:	a5 c0       	rjmp	.+330    	; 0x860 <__vector_88+0x1c0>
     716:	89 81       	ldd	r24, Y+1	; 0x01
     718:	8f 32       	cpi	r24, 0x2F	; 47
     71a:	09 f4       	brne	.+2      	; 0x71e <__vector_88+0x7e>
     71c:	db c0       	rjmp	.+438    	; 0x8d4 <__vector_88+0x234>
     71e:	89 81       	ldd	r24, Y+1	; 0x01
     720:	8a 32       	cpi	r24, 0x2A	; 42
     722:	09 f4       	brne	.+2      	; 0x726 <__vector_88+0x86>
     724:	f7 c0       	rjmp	.+494    	; 0x914 <__vector_88+0x274>
     726:	89 81       	ldd	r24, Y+1	; 0x01
     728:	81 34       	cpi	r24, 0x41	; 65
     72a:	09 f4       	brne	.+2      	; 0x72e <__vector_88+0x8e>
     72c:	12 c1       	rjmp	.+548    	; 0x952 <__vector_88+0x2b2>
     72e:	89 81       	ldd	r24, Y+1	; 0x01
     730:	80 35       	cpi	r24, 0x50	; 80
     732:	09 f4       	brne	.+2      	; 0x736 <__vector_88+0x96>
     734:	1d c1       	rjmp	.+570    	; 0x970 <__vector_88+0x2d0>
     736:	89 81       	ldd	r24, Y+1	; 0x01
     738:	83 35       	cpi	r24, 0x53	; 83
     73a:	09 f4       	brne	.+2      	; 0x73e <__vector_88+0x9e>
     73c:	af c0       	rjmp	.+350    	; 0x89c <__vector_88+0x1fc>
     73e:	10 92 11 26 	sts	0x2611, r1	; 0x802611 <stan_d+0x2>
     742:	0f 90       	pop	r0
     744:	df 91       	pop	r29
     746:	cf 91       	pop	r28
     748:	ff 91       	pop	r31
     74a:	ef 91       	pop	r30
     74c:	bf 91       	pop	r27
     74e:	af 91       	pop	r26
     750:	9f 91       	pop	r25
     752:	8f 91       	pop	r24
     754:	7f 91       	pop	r23
     756:	6f 91       	pop	r22
     758:	5f 91       	pop	r21
     75a:	4f 91       	pop	r20
     75c:	3f 91       	pop	r19
     75e:	2f 91       	pop	r18
     760:	0f 90       	pop	r0
     762:	0b be       	out	0x3b, r0	; 59
     764:	0f 90       	pop	r0
     766:	0f be       	out	0x3f, r0	; 63
     768:	0f 90       	pop	r0
     76a:	1f 90       	pop	r1
     76c:	18 95       	reti
     76e:	80 91 11 26 	lds	r24, 0x2611	; 0x802611 <stan_d+0x2>
     772:	81 11       	cpse	r24, r1
     774:	36 c1       	rjmp	.+620    	; 0x9e2 <__vector_88+0x342>
     776:	89 81       	ldd	r24, Y+1	; 0x01
     778:	89 81       	ldd	r24, Y+1	; 0x01
     77a:	82 33       	cpi	r24, 0x32	; 50
     77c:	09 f0       	breq	.+2      	; 0x780 <__vector_88+0xe0>
     77e:	bb cf       	rjmp	.-138    	; 0x6f6 <__vector_88+0x56>
     780:	89 81       	ldd	r24, Y+1	; 0x01
     782:	89 81       	ldd	r24, Y+1	; 0x01
     784:	84 33       	cpi	r24, 0x34	; 52
     786:	09 f4       	brne	.+2      	; 0x78a <__vector_88+0xea>
     788:	3f c0       	rjmp	.+126    	; 0x808 <__vector_88+0x168>
     78a:	89 81       	ldd	r24, Y+1	; 0x01
     78c:	8b 32       	cpi	r24, 0x2B	; 43
     78e:	09 f0       	breq	.+2      	; 0x792 <__vector_88+0xf2>
     790:	be cf       	rjmp	.-132    	; 0x70e <__vector_88+0x6e>
     792:	47 c0       	rjmp	.+142    	; 0x822 <__vector_88+0x182>
     794:	80 91 11 26 	lds	r24, 0x2611	; 0x802611 <stan_d+0x2>
     798:	81 11       	cpse	r24, r1
     79a:	f3 c0       	rjmp	.+486    	; 0x982 <__vector_88+0x2e2>
     79c:	89 81       	ldd	r24, Y+1	; 0x01
     79e:	89 81       	ldd	r24, Y+1	; 0x01
     7a0:	83 33       	cpi	r24, 0x33	; 51
     7a2:	e9 f0       	breq	.+58     	; 0x7de <__vector_88+0x13e>
     7a4:	89 81       	ldd	r24, Y+1	; 0x01
     7a6:	84 33       	cpi	r24, 0x34	; 52
     7a8:	09 f0       	breq	.+2      	; 0x7ac <__vector_88+0x10c>
     7aa:	ad cf       	rjmp	.-166    	; 0x706 <__vector_88+0x66>
     7ac:	29 c0       	rjmp	.+82     	; 0x800 <__vector_88+0x160>
     7ae:	80 91 11 26 	lds	r24, 0x2611	; 0x802611 <stan_d+0x2>
     7b2:	88 23       	and	r24, r24
     7b4:	29 f3       	breq	.-54     	; 0x780 <__vector_88+0xe0>
     7b6:	0e 94 f9 3f 	call	0x7ff2	; 0x7ff2 <MFV_valve_open>
     7ba:	2f ef       	ldi	r18, 0xFF	; 255
     7bc:	87 ea       	ldi	r24, 0xA7	; 167
     7be:	91 e6       	ldi	r25, 0x61	; 97
     7c0:	21 50       	subi	r18, 0x01	; 1
     7c2:	80 40       	sbci	r24, 0x00	; 0
     7c4:	90 40       	sbci	r25, 0x00	; 0
     7c6:	e1 f7       	brne	.-8      	; 0x7c0 <__vector_88+0x120>
     7c8:	00 c0       	rjmp	.+0      	; 0x7ca <__vector_88+0x12a>
     7ca:	00 00       	nop
     7cc:	0e 94 fd 3f 	call	0x7ffa	; 0x7ffa <MFV_valve_close>
     7d0:	10 92 11 26 	sts	0x2611, r1	; 0x802611 <stan_d+0x2>
     7d4:	b6 cf       	rjmp	.-148    	; 0x742 <__vector_88+0xa2>
     7d6:	80 91 11 26 	lds	r24, 0x2611	; 0x802611 <stan_d+0x2>
     7da:	81 11       	cpse	r24, r1
     7dc:	e2 c0       	rjmp	.+452    	; 0x9a2 <__vector_88+0x302>
     7de:	89 81       	ldd	r24, Y+1	; 0x01
     7e0:	89 81       	ldd	r24, Y+1	; 0x01
     7e2:	8b 32       	cpi	r24, 0x2B	; 43
     7e4:	09 f0       	breq	.+2      	; 0x7e8 <__vector_88+0x148>
     7e6:	93 cf       	rjmp	.-218    	; 0x70e <__vector_88+0x6e>
     7e8:	89 81       	ldd	r24, Y+1	; 0x01
     7ea:	89 81       	ldd	r24, Y+1	; 0x01
     7ec:	8f 32       	cpi	r24, 0x2F	; 47
     7ee:	09 f0       	breq	.+2      	; 0x7f2 <__vector_88+0x152>
     7f0:	96 cf       	rjmp	.-212    	; 0x71e <__vector_88+0x7e>
     7f2:	89 81       	ldd	r24, Y+1	; 0x01
     7f4:	89 81       	ldd	r24, Y+1	; 0x01
     7f6:	81 34       	cpi	r24, 0x41	; 65
     7f8:	09 f0       	breq	.+2      	; 0x7fc <__vector_88+0x15c>
     7fa:	99 cf       	rjmp	.-206    	; 0x72e <__vector_88+0x8e>
     7fc:	89 81       	ldd	r24, Y+1	; 0x01
     7fe:	9b cf       	rjmp	.-202    	; 0x736 <__vector_88+0x96>
     800:	80 91 11 26 	lds	r24, 0x2611	; 0x802611 <stan_d+0x2>
     804:	81 11       	cpse	r24, r1
     806:	dd c0       	rjmp	.+442    	; 0x9c2 <__vector_88+0x322>
     808:	89 81       	ldd	r24, Y+1	; 0x01
     80a:	89 81       	ldd	r24, Y+1	; 0x01
     80c:	8d 32       	cpi	r24, 0x2D	; 45
     80e:	09 f0       	breq	.+2      	; 0x812 <__vector_88+0x172>
     810:	82 cf       	rjmp	.-252    	; 0x716 <__vector_88+0x76>
     812:	89 81       	ldd	r24, Y+1	; 0x01
     814:	89 81       	ldd	r24, Y+1	; 0x01
     816:	8a 32       	cpi	r24, 0x2A	; 42
     818:	09 f0       	breq	.+2      	; 0x81c <__vector_88+0x17c>
     81a:	85 cf       	rjmp	.-246    	; 0x726 <__vector_88+0x86>
     81c:	89 81       	ldd	r24, Y+1	; 0x01
     81e:	89 81       	ldd	r24, Y+1	; 0x01
     820:	8a cf       	rjmp	.-236    	; 0x736 <__vector_88+0x96>
     822:	80 91 11 26 	lds	r24, 0x2611	; 0x802611 <stan_d+0x2>
     826:	88 23       	and	r24, r24
     828:	f9 f2       	breq	.-66     	; 0x7e8 <__vector_88+0x148>
     82a:	80 91 18 26 	lds	r24, 0x2618	; 0x802618 <stan_d+0x9>
     82e:	90 91 19 26 	lds	r25, 0x2619	; 0x802619 <stan_d+0xa>
     832:	a0 91 1a 26 	lds	r26, 0x261A	; 0x80261a <stan_d+0xb>
     836:	b0 91 1b 26 	lds	r27, 0x261B	; 0x80261b <stan_d+0xc>
     83a:	88 35       	cpi	r24, 0x58	; 88
     83c:	22 e0       	ldi	r18, 0x02	; 2
     83e:	92 07       	cpc	r25, r18
     840:	a1 05       	cpc	r26, r1
     842:	b1 05       	cpc	r27, r1
     844:	08 f0       	brcs	.+2      	; 0x848 <__vector_88+0x1a8>
     846:	7b cf       	rjmp	.-266    	; 0x73e <__vector_88+0x9e>
     848:	c2 96       	adiw	r24, 0x32	; 50
     84a:	a1 1d       	adc	r26, r1
     84c:	b1 1d       	adc	r27, r1
     84e:	80 93 18 26 	sts	0x2618, r24	; 0x802618 <stan_d+0x9>
     852:	90 93 19 26 	sts	0x2619, r25	; 0x802619 <stan_d+0xa>
     856:	a0 93 1a 26 	sts	0x261A, r26	; 0x80261a <stan_d+0xb>
     85a:	b0 93 1b 26 	sts	0x261B, r27	; 0x80261b <stan_d+0xc>
     85e:	6f cf       	rjmp	.-290    	; 0x73e <__vector_88+0x9e>
     860:	80 91 11 26 	lds	r24, 0x2611	; 0x802611 <stan_d+0x2>
     864:	88 23       	and	r24, r24
     866:	a9 f2       	breq	.-86     	; 0x812 <__vector_88+0x172>
     868:	80 91 18 26 	lds	r24, 0x2618	; 0x802618 <stan_d+0x9>
     86c:	90 91 19 26 	lds	r25, 0x2619	; 0x802619 <stan_d+0xa>
     870:	a0 91 1a 26 	lds	r26, 0x261A	; 0x80261a <stan_d+0xb>
     874:	b0 91 1b 26 	lds	r27, 0x261B	; 0x80261b <stan_d+0xc>
     878:	86 39       	cpi	r24, 0x96	; 150
     87a:	91 05       	cpc	r25, r1
     87c:	a1 05       	cpc	r26, r1
     87e:	b1 05       	cpc	r27, r1
     880:	08 f4       	brcc	.+2      	; 0x884 <__vector_88+0x1e4>
     882:	5d cf       	rjmp	.-326    	; 0x73e <__vector_88+0x9e>
     884:	c2 97       	sbiw	r24, 0x32	; 50
     886:	a1 09       	sbc	r26, r1
     888:	b1 09       	sbc	r27, r1
     88a:	80 93 18 26 	sts	0x2618, r24	; 0x802618 <stan_d+0x9>
     88e:	90 93 19 26 	sts	0x2619, r25	; 0x802619 <stan_d+0xa>
     892:	a0 93 1a 26 	sts	0x261A, r26	; 0x80261a <stan_d+0xb>
     896:	b0 93 1b 26 	sts	0x261B, r27	; 0x80261b <stan_d+0xc>
     89a:	51 cf       	rjmp	.-350    	; 0x73e <__vector_88+0x9e>
     89c:	80 91 1c 26 	lds	r24, 0x261C	; 0x80261c <stan_d+0xd>
     8a0:	90 91 1d 26 	lds	r25, 0x261D	; 0x80261d <stan_d+0xe>
     8a4:	a0 91 1e 26 	lds	r26, 0x261E	; 0x80261e <stan_d+0xf>
     8a8:	b0 91 1f 26 	lds	r27, 0x261F	; 0x80261f <stan_d+0x10>
     8ac:	89 2b       	or	r24, r25
     8ae:	8a 2b       	or	r24, r26
     8b0:	8b 2b       	or	r24, r27
     8b2:	09 f4       	brne	.+2      	; 0x8b6 <__vector_88+0x216>
     8b4:	44 cf       	rjmp	.-376    	; 0x73e <__vector_88+0x9e>
     8b6:	80 91 11 26 	lds	r24, 0x2611	; 0x802611 <stan_d+0x2>
     8ba:	88 23       	and	r24, r24
     8bc:	09 f4       	brne	.+2      	; 0x8c0 <__vector_88+0x220>
     8be:	3f cf       	rjmp	.-386    	; 0x73e <__vector_88+0x9e>
     8c0:	81 e0       	ldi	r24, 0x01	; 1
     8c2:	80 93 15 26 	sts	0x2615, r24	; 0x802615 <stan_d+0x6>
     8c6:	10 92 11 26 	sts	0x2611, r1	; 0x802611 <stan_d+0x2>
     8ca:	3b cf       	rjmp	.-394    	; 0x742 <__vector_88+0xa2>
     8cc:	81 e0       	ldi	r24, 0x01	; 1
     8ce:	80 93 11 26 	sts	0x2611, r24	; 0x802611 <stan_d+0x2>
     8d2:	37 cf       	rjmp	.-402    	; 0x742 <__vector_88+0xa2>
     8d4:	80 91 11 26 	lds	r24, 0x2611	; 0x802611 <stan_d+0x2>
     8d8:	88 23       	and	r24, r24
     8da:	09 f4       	brne	.+2      	; 0x8de <__vector_88+0x23e>
     8dc:	8a cf       	rjmp	.-236    	; 0x7f2 <__vector_88+0x152>
     8de:	80 91 1c 26 	lds	r24, 0x261C	; 0x80261c <stan_d+0xd>
     8e2:	90 91 1d 26 	lds	r25, 0x261D	; 0x80261d <stan_d+0xe>
     8e6:	a0 91 1e 26 	lds	r26, 0x261E	; 0x80261e <stan_d+0xf>
     8ea:	b0 91 1f 26 	lds	r27, 0x261F	; 0x80261f <stan_d+0x10>
     8ee:	88 3e       	cpi	r24, 0xE8	; 232
     8f0:	23 e0       	ldi	r18, 0x03	; 3
     8f2:	92 07       	cpc	r25, r18
     8f4:	a1 05       	cpc	r26, r1
     8f6:	b1 05       	cpc	r27, r1
     8f8:	08 f0       	brcs	.+2      	; 0x8fc <__vector_88+0x25c>
     8fa:	21 cf       	rjmp	.-446    	; 0x73e <__vector_88+0x9e>
     8fc:	c2 96       	adiw	r24, 0x32	; 50
     8fe:	a1 1d       	adc	r26, r1
     900:	b1 1d       	adc	r27, r1
     902:	80 93 1c 26 	sts	0x261C, r24	; 0x80261c <stan_d+0xd>
     906:	90 93 1d 26 	sts	0x261D, r25	; 0x80261d <stan_d+0xe>
     90a:	a0 93 1e 26 	sts	0x261E, r26	; 0x80261e <stan_d+0xf>
     90e:	b0 93 1f 26 	sts	0x261F, r27	; 0x80261f <stan_d+0x10>
     912:	15 cf       	rjmp	.-470    	; 0x73e <__vector_88+0x9e>
     914:	80 91 11 26 	lds	r24, 0x2611	; 0x802611 <stan_d+0x2>
     918:	88 23       	and	r24, r24
     91a:	09 f4       	brne	.+2      	; 0x91e <__vector_88+0x27e>
     91c:	7f cf       	rjmp	.-258    	; 0x81c <__vector_88+0x17c>
     91e:	80 91 1c 26 	lds	r24, 0x261C	; 0x80261c <stan_d+0xd>
     922:	90 91 1d 26 	lds	r25, 0x261D	; 0x80261d <stan_d+0xe>
     926:	a0 91 1e 26 	lds	r26, 0x261E	; 0x80261e <stan_d+0xf>
     92a:	b0 91 1f 26 	lds	r27, 0x261F	; 0x80261f <stan_d+0x10>
     92e:	84 36       	cpi	r24, 0x64	; 100
     930:	91 05       	cpc	r25, r1
     932:	a1 05       	cpc	r26, r1
     934:	b1 05       	cpc	r27, r1
     936:	08 f4       	brcc	.+2      	; 0x93a <__vector_88+0x29a>
     938:	02 cf       	rjmp	.-508    	; 0x73e <__vector_88+0x9e>
     93a:	c2 97       	sbiw	r24, 0x32	; 50
     93c:	a1 09       	sbc	r26, r1
     93e:	b1 09       	sbc	r27, r1
     940:	80 93 1c 26 	sts	0x261C, r24	; 0x80261c <stan_d+0xd>
     944:	90 93 1d 26 	sts	0x261D, r25	; 0x80261d <stan_d+0xe>
     948:	a0 93 1e 26 	sts	0x261E, r26	; 0x80261e <stan_d+0xf>
     94c:	b0 93 1f 26 	sts	0x261F, r27	; 0x80261f <stan_d+0x10>
     950:	f6 ce       	rjmp	.-532    	; 0x73e <__vector_88+0x9e>
     952:	80 91 11 26 	lds	r24, 0x2611	; 0x802611 <stan_d+0x2>
     956:	88 23       	and	r24, r24
     958:	09 f4       	brne	.+2      	; 0x95c <__vector_88+0x2bc>
     95a:	50 cf       	rjmp	.-352    	; 0x7fc <__vector_88+0x15c>
     95c:	81 e0       	ldi	r24, 0x01	; 1
     95e:	80 93 16 26 	sts	0x2616, r24	; 0x802616 <stan_d+0x7>
     962:	10 92 15 26 	sts	0x2615, r1	; 0x802615 <stan_d+0x6>
     966:	10 92 14 26 	sts	0x2614, r1	; 0x802614 <stan_d+0x5>
     96a:	10 92 11 26 	sts	0x2611, r1	; 0x802611 <stan_d+0x2>
     96e:	e9 ce       	rjmp	.-558    	; 0x742 <__vector_88+0xa2>
     970:	80 91 11 26 	lds	r24, 0x2611	; 0x802611 <stan_d+0x2>
     974:	88 23       	and	r24, r24
     976:	09 f4       	brne	.+2      	; 0x97a <__vector_88+0x2da>
     978:	de ce       	rjmp	.-580    	; 0x736 <__vector_88+0x96>
     97a:	81 e0       	ldi	r24, 0x01	; 1
     97c:	80 93 14 26 	sts	0x2614, r24	; 0x802614 <stan_d+0x5>
     980:	de ce       	rjmp	.-580    	; 0x73e <__vector_88+0x9e>
     982:	0e 94 01 40 	call	0x8002	; 0x8002 <MOV_valve_open>
     986:	2f ef       	ldi	r18, 0xFF	; 255
     988:	87 ea       	ldi	r24, 0xA7	; 167
     98a:	91 e6       	ldi	r25, 0x61	; 97
     98c:	21 50       	subi	r18, 0x01	; 1
     98e:	80 40       	sbci	r24, 0x00	; 0
     990:	90 40       	sbci	r25, 0x00	; 0
     992:	e1 f7       	brne	.-8      	; 0x98c <__vector_88+0x2ec>
     994:	00 c0       	rjmp	.+0      	; 0x996 <__vector_88+0x2f6>
     996:	00 00       	nop
     998:	0e 94 05 40 	call	0x800a	; 0x800a <MOV_valve_close>
     99c:	10 92 11 26 	sts	0x2611, r1	; 0x802611 <stan_d+0x2>
     9a0:	d0 ce       	rjmp	.-608    	; 0x742 <__vector_88+0xa2>
     9a2:	0e 94 09 40 	call	0x8012	; 0x8012 <MPV_valve_open>
     9a6:	2f ef       	ldi	r18, 0xFF	; 255
     9a8:	87 ea       	ldi	r24, 0xA7	; 167
     9aa:	91 e6       	ldi	r25, 0x61	; 97
     9ac:	21 50       	subi	r18, 0x01	; 1
     9ae:	80 40       	sbci	r24, 0x00	; 0
     9b0:	90 40       	sbci	r25, 0x00	; 0
     9b2:	e1 f7       	brne	.-8      	; 0x9ac <__vector_88+0x30c>
     9b4:	00 c0       	rjmp	.+0      	; 0x9b6 <__vector_88+0x316>
     9b6:	00 00       	nop
     9b8:	0e 94 0d 40 	call	0x801a	; 0x801a <MPV_valve_close>
     9bc:	10 92 11 26 	sts	0x2611, r1	; 0x802611 <stan_d+0x2>
     9c0:	c0 ce       	rjmp	.-640    	; 0x742 <__vector_88+0xa2>
     9c2:	0e 94 11 40 	call	0x8022	; 0x8022 <FPV_valve_open>
     9c6:	2f ef       	ldi	r18, 0xFF	; 255
     9c8:	87 ea       	ldi	r24, 0xA7	; 167
     9ca:	91 e6       	ldi	r25, 0x61	; 97
     9cc:	21 50       	subi	r18, 0x01	; 1
     9ce:	80 40       	sbci	r24, 0x00	; 0
     9d0:	90 40       	sbci	r25, 0x00	; 0
     9d2:	e1 f7       	brne	.-8      	; 0x9cc <__vector_88+0x32c>
     9d4:	00 c0       	rjmp	.+0      	; 0x9d6 <__vector_88+0x336>
     9d6:	00 00       	nop
     9d8:	0e 94 15 40 	call	0x802a	; 0x802a <FPV_valve_close>
     9dc:	10 92 11 26 	sts	0x2611, r1	; 0x802611 <stan_d+0x2>
     9e0:	b0 ce       	rjmp	.-672    	; 0x742 <__vector_88+0xa2>
     9e2:	8f b7       	in	r24, 0x3f	; 63
     9e4:	f8 94       	cli
     9e6:	10 92 11 26 	sts	0x2611, r1	; 0x802611 <stan_d+0x2>
     9ea:	98 ed       	ldi	r25, 0xD8	; 216
     9ec:	94 bf       	out	0x34, r25	; 52
     9ee:	91 e0       	ldi	r25, 0x01	; 1
     9f0:	90 93 79 00 	sts	0x0079, r25	; 0x800079 <__TEXT_REGION_LENGTH__+0x700079>
     9f4:	8f bf       	out	0x3f, r24	; 63
     9f6:	a5 ce       	rjmp	.-694    	; 0x742 <__vector_88+0xa2>

000009f8 <__vector_14>:
     9f8:	1f 92       	push	r1
     9fa:	0f 92       	push	r0
     9fc:	0f b6       	in	r0, 0x3f	; 63
     9fe:	0f 92       	push	r0
     a00:	11 24       	eor	r1, r1
     a02:	0f 90       	pop	r0
     a04:	0f be       	out	0x3f, r0	; 63
     a06:	0f 90       	pop	r0
     a08:	1f 90       	pop	r1
     a0a:	18 95       	reti

00000a0c <__vector_77>:
     a0c:	1f 92       	push	r1
     a0e:	0f 92       	push	r0
     a10:	0f b6       	in	r0, 0x3f	; 63
     a12:	0f 92       	push	r0
     a14:	11 24       	eor	r1, r1
     a16:	8f 93       	push	r24
     a18:	9f 93       	push	r25
     a1a:	80 91 e3 22 	lds	r24, 0x22E3	; 0x8022e3 <buzzer_d>
     a1e:	88 23       	and	r24, r24
     a20:	99 f0       	breq	.+38     	; 0xa48 <__vector_77+0x3c>
     a22:	80 91 e4 22 	lds	r24, 0x22E4	; 0x8022e4 <buzzer_d+0x1>
     a26:	81 30       	cpi	r24, 0x01	; 1
     a28:	d9 f0       	breq	.+54     	; 0xa60 <__vector_77+0x54>
     a2a:	78 f1       	brcs	.+94     	; 0xa8a <__vector_77+0x7e>
     a2c:	82 30       	cpi	r24, 0x02	; 2
     a2e:	19 f1       	breq	.+70     	; 0xa76 <__vector_77+0x6a>
     a30:	83 30       	cpi	r24, 0x03	; 3
     a32:	79 f4       	brne	.+30     	; 0xa52 <__vector_77+0x46>
     a34:	80 e4       	ldi	r24, 0x40	; 64
     a36:	80 93 a5 06 	sts	0x06A5, r24	; 0x8006a5 <__TEXT_REGION_LENGTH__+0x7006a5>
     a3a:	9f 91       	pop	r25
     a3c:	8f 91       	pop	r24
     a3e:	0f 90       	pop	r0
     a40:	0f be       	out	0x3f, r0	; 63
     a42:	0f 90       	pop	r0
     a44:	1f 90       	pop	r1
     a46:	18 95       	reti
     a48:	10 92 e4 22 	sts	0x22E4, r1	; 0x8022e4 <buzzer_d+0x1>
     a4c:	80 e4       	ldi	r24, 0x40	; 64
     a4e:	80 93 a6 06 	sts	0x06A6, r24	; 0x8006a6 <__TEXT_REGION_LENGTH__+0x7006a6>
     a52:	9f 91       	pop	r25
     a54:	8f 91       	pop	r24
     a56:	0f 90       	pop	r0
     a58:	0f be       	out	0x3f, r0	; 63
     a5a:	0f 90       	pop	r0
     a5c:	1f 90       	pop	r1
     a5e:	18 95       	reti
     a60:	80 91 e6 22 	lds	r24, 0x22E6	; 0x8022e6 <buzzer_d+0x3>
     a64:	87 30       	cpi	r24, 0x07	; 7
     a66:	08 f5       	brcc	.+66     	; 0xaaa <__vector_77+0x9e>
     a68:	90 e4       	ldi	r25, 0x40	; 64
     a6a:	90 93 a7 06 	sts	0x06A7, r25	; 0x8006a7 <__TEXT_REGION_LENGTH__+0x7006a7>
     a6e:	8f 5f       	subi	r24, 0xFF	; 255
     a70:	80 93 e6 22 	sts	0x22E6, r24	; 0x8022e6 <buzzer_d+0x3>
     a74:	ee cf       	rjmp	.-36     	; 0xa52 <__vector_77+0x46>
     a76:	80 e4       	ldi	r24, 0x40	; 64
     a78:	80 93 a7 06 	sts	0x06A7, r24	; 0x8006a7 <__TEXT_REGION_LENGTH__+0x7006a7>
     a7c:	9f 91       	pop	r25
     a7e:	8f 91       	pop	r24
     a80:	0f 90       	pop	r0
     a82:	0f be       	out	0x3f, r0	; 63
     a84:	0f 90       	pop	r0
     a86:	1f 90       	pop	r1
     a88:	18 95       	reti
     a8a:	10 92 e3 22 	sts	0x22E3, r1	; 0x8022e3 <buzzer_d>
     a8e:	10 92 e6 22 	sts	0x22E6, r1	; 0x8022e6 <buzzer_d+0x3>
     a92:	10 92 e5 22 	sts	0x22E5, r1	; 0x8022e5 <buzzer_d+0x2>
     a96:	80 e4       	ldi	r24, 0x40	; 64
     a98:	80 93 a6 06 	sts	0x06A6, r24	; 0x8006a6 <__TEXT_REGION_LENGTH__+0x7006a6>
     a9c:	9f 91       	pop	r25
     a9e:	8f 91       	pop	r24
     aa0:	0f 90       	pop	r0
     aa2:	0f be       	out	0x3f, r0	; 63
     aa4:	0f 90       	pop	r0
     aa6:	1f 90       	pop	r1
     aa8:	18 95       	reti
     aaa:	10 92 e4 22 	sts	0x22E4, r1	; 0x8022e4 <buzzer_d+0x1>
     aae:	d1 cf       	rjmp	.-94     	; 0xa52 <__vector_77+0x46>

00000ab0 <__vector_47>:
     ab0:	1f 92       	push	r1
     ab2:	0f 92       	push	r0
     ab4:	0f b6       	in	r0, 0x3f	; 63
     ab6:	0f 92       	push	r0
     ab8:	11 24       	eor	r1, r1
     aba:	0b b6       	in	r0, 0x3b	; 59
     abc:	0f 92       	push	r0
     abe:	8f 93       	push	r24
     ac0:	9f 93       	push	r25
     ac2:	af 93       	push	r26
     ac4:	bf 93       	push	r27
     ac6:	ef 93       	push	r30
     ac8:	ff 93       	push	r31
     aca:	10 92 11 26 	sts	0x2611, r1	; 0x802611 <stan_d+0x2>
     ace:	e7 e2       	ldi	r30, 0x27	; 39
     ad0:	f6 e2       	ldi	r31, 0x26	; 38
     ad2:	80 81       	ld	r24, Z
     ad4:	91 81       	ldd	r25, Z+1	; 0x01
     ad6:	a2 81       	ldd	r26, Z+2	; 0x02
     ad8:	b3 81       	ldd	r27, Z+3	; 0x03
     ada:	01 96       	adiw	r24, 0x01	; 1
     adc:	a1 1d       	adc	r26, r1
     ade:	b1 1d       	adc	r27, r1
     ae0:	80 83       	st	Z, r24
     ae2:	91 83       	std	Z+1, r25	; 0x01
     ae4:	a2 83       	std	Z+2, r26	; 0x02
     ae6:	b3 83       	std	Z+3, r27	; 0x03
     ae8:	ff 91       	pop	r31
     aea:	ef 91       	pop	r30
     aec:	bf 91       	pop	r27
     aee:	af 91       	pop	r26
     af0:	9f 91       	pop	r25
     af2:	8f 91       	pop	r24
     af4:	0f 90       	pop	r0
     af6:	0b be       	out	0x3b, r0	; 59
     af8:	0f 90       	pop	r0
     afa:	0f be       	out	0x3f, r0	; 63
     afc:	0f 90       	pop	r0
     afe:	1f 90       	pop	r1
     b00:	18 95       	reti

00000b02 <__vector_108>:
     b02:	1f 92       	push	r1
     b04:	0f 92       	push	r0
     b06:	0f b6       	in	r0, 0x3f	; 63
     b08:	0f 92       	push	r0
     b0a:	11 24       	eor	r1, r1
     b0c:	0b b6       	in	r0, 0x3b	; 59
     b0e:	0f 92       	push	r0
     b10:	2f 93       	push	r18
     b12:	3f 93       	push	r19
     b14:	4f 93       	push	r20
     b16:	5f 93       	push	r21
     b18:	6f 93       	push	r22
     b1a:	7f 93       	push	r23
     b1c:	8f 93       	push	r24
     b1e:	9f 93       	push	r25
     b20:	af 93       	push	r26
     b22:	bf 93       	push	r27
     b24:	ef 93       	push	r30
     b26:	ff 93       	push	r31
     b28:	88 e0       	ldi	r24, 0x08	; 8
     b2a:	80 93 a7 06 	sts	0x06A7, r24	; 0x8006a7 <__TEXT_REGION_LENGTH__+0x7006a7>
     b2e:	10 92 0e 26 	sts	0x260E, r1	; 0x80260e <frame_d+0x193>
     b32:	80 91 12 26 	lds	r24, 0x2612	; 0x802612 <stan_d+0x3>
     b36:	88 23       	and	r24, r24
     b38:	e1 f0       	breq	.+56     	; 0xb72 <__vector_108+0x70>
     b3a:	80 91 2f 26 	lds	r24, 0x262F	; 0x80262f <Clock_d+0x8>
     b3e:	90 91 30 26 	lds	r25, 0x2630	; 0x802630 <Clock_d+0x9>
     b42:	a0 91 31 26 	lds	r26, 0x2631	; 0x802631 <Clock_d+0xa>
     b46:	b0 91 32 26 	lds	r27, 0x2632	; 0x802632 <Clock_d+0xb>
     b4a:	8f 39       	cpi	r24, 0x9F	; 159
     b4c:	26 e8       	ldi	r18, 0x86	; 134
     b4e:	92 07       	cpc	r25, r18
     b50:	21 e0       	ldi	r18, 0x01	; 1
     b52:	a2 07       	cpc	r26, r18
     b54:	b1 05       	cpc	r27, r1
     b56:	00 f1       	brcs	.+64     	; 0xb98 <__vector_108+0x96>
     b58:	10 92 2f 26 	sts	0x262F, r1	; 0x80262f <Clock_d+0x8>
     b5c:	10 92 30 26 	sts	0x2630, r1	; 0x802630 <Clock_d+0x9>
     b60:	10 92 31 26 	sts	0x2631, r1	; 0x802631 <Clock_d+0xa>
     b64:	10 92 32 26 	sts	0x2632, r1	; 0x802632 <Clock_d+0xb>
     b68:	10 92 77 24 	sts	0x2477, r1	; 0x802477 <frame_b+0x190>
     b6c:	10 92 78 24 	sts	0x2478, r1	; 0x802478 <frame_b+0x191>
     b70:	61 dd       	rcall	.-1342   	; 0x634 <__vector_90>
     b72:	ff 91       	pop	r31
     b74:	ef 91       	pop	r30
     b76:	bf 91       	pop	r27
     b78:	af 91       	pop	r26
     b7a:	9f 91       	pop	r25
     b7c:	8f 91       	pop	r24
     b7e:	7f 91       	pop	r23
     b80:	6f 91       	pop	r22
     b82:	5f 91       	pop	r21
     b84:	4f 91       	pop	r20
     b86:	3f 91       	pop	r19
     b88:	2f 91       	pop	r18
     b8a:	0f 90       	pop	r0
     b8c:	0b be       	out	0x3b, r0	; 59
     b8e:	0f 90       	pop	r0
     b90:	0f be       	out	0x3f, r0	; 63
     b92:	0f 90       	pop	r0
     b94:	1f 90       	pop	r1
     b96:	18 95       	reti
     b98:	01 96       	adiw	r24, 0x01	; 1
     b9a:	a1 1d       	adc	r26, r1
     b9c:	b1 1d       	adc	r27, r1
     b9e:	80 93 2f 26 	sts	0x262F, r24	; 0x80262f <Clock_d+0x8>
     ba2:	90 93 30 26 	sts	0x2630, r25	; 0x802630 <Clock_d+0x9>
     ba6:	a0 93 31 26 	sts	0x2631, r26	; 0x802631 <Clock_d+0xa>
     baa:	b0 93 32 26 	sts	0x2632, r27	; 0x802632 <Clock_d+0xb>
     bae:	dc cf       	rjmp	.-72     	; 0xb68 <__vector_108+0x66>

00000bb0 <Initialization>:
     bb0:	80 e2       	ldi	r24, 0x20	; 32
     bb2:	0e 94 f8 3d 	call	0x7bf0	; 0x7bf0 <CPU_clk>
     bb6:	0e 94 33 3e 	call	0x7c66	; 0x7c66 <OscRTC>
     bba:	0e 94 34 3e 	call	0x7c68	; 0x7c68 <RTC_Init>
     bbe:	0e 94 95 3e 	call	0x7d2a	; 0x7d2a <ADC_Init>
     bc2:	0e 94 b3 3e 	call	0x7d66	; 0x7d66 <USART_Init>
     bc6:	0e 94 c8 3e 	call	0x7d90	; 0x7d90 <IO_Init>
     bca:	8a ef       	ldi	r24, 0xFA	; 250
     bcc:	90 e0       	ldi	r25, 0x00	; 0
     bce:	0e 94 35 3e 	call	0x7c6a	; 0x7c6a <TimerDInit>
     bd2:	8a e0       	ldi	r24, 0x0A	; 10
     bd4:	90 e0       	ldi	r25, 0x00	; 0
     bd6:	0e 94 53 3e 	call	0x7ca6	; 0x7ca6 <TimerEInit>
     bda:	8a ef       	ldi	r24, 0xFA	; 250
     bdc:	90 e0       	ldi	r25, 0x00	; 0
     bde:	0e 94 71 3e 	call	0x7ce2	; 0x7ce2 <TimerFInit>
     be2:	0e 94 f7 36 	call	0x6dee	; 0x6dee <initRTC>
     be6:	10 92 0b 26 	sts	0x260B, r1	; 0x80260b <frame_d+0x190>
     bea:	10 92 0c 26 	sts	0x260C, r1	; 0x80260c <frame_d+0x191>
     bee:	af e0       	ldi	r26, 0x0F	; 15
     bf0:	b6 e2       	ldi	r27, 0x26	; 38
     bf2:	1c 92       	st	X, r1
     bf4:	11 96       	adiw	r26, 0x01	; 1
     bf6:	1c 92       	st	X, r1
     bf8:	11 97       	sbiw	r26, 0x01	; 1
     bfa:	ef e7       	ldi	r30, 0x7F	; 127
     bfc:	f6 e2       	ldi	r31, 0x26	; 38
     bfe:	80 ec       	ldi	r24, 0xC0	; 192
     c00:	98 e2       	ldi	r25, 0x28	; 40
     c02:	80 83       	st	Z, r24
     c04:	91 83       	std	Z+1, r25	; 0x01
     c06:	a2 83       	std	Z+2, r26	; 0x02
     c08:	b3 83       	std	Z+3, r27	; 0x03
     c0a:	8b e7       	ldi	r24, 0x7B	; 123
     c0c:	94 e2       	ldi	r25, 0x24	; 36
     c0e:	84 83       	std	Z+4, r24	; 0x04
     c10:	95 83       	std	Z+5, r25	; 0x05
     c12:	87 ee       	ldi	r24, 0xE7	; 231
     c14:	92 e2       	ldi	r25, 0x22	; 34
     c16:	86 83       	std	Z+6, r24	; 0x06
     c18:	97 83       	std	Z+7, r25	; 0x07
     c1a:	87 e2       	ldi	r24, 0x27	; 39
     c1c:	96 e2       	ldi	r25, 0x26	; 38
     c1e:	80 87       	std	Z+8, r24	; 0x08
     c20:	91 87       	std	Z+9, r25	; 0x09
     c22:	8f e8       	ldi	r24, 0x8F	; 143
     c24:	96 e2       	ldi	r25, 0x26	; 38
     c26:	82 87       	std	Z+10, r24	; 0x0a
     c28:	93 87       	std	Z+11, r25	; 0x0b
     c2a:	87 e3       	ldi	r24, 0x37	; 55
     c2c:	96 e2       	ldi	r25, 0x26	; 38
     c2e:	84 87       	std	Z+12, r24	; 0x0c
     c30:	95 87       	std	Z+13, r25	; 0x0d
     c32:	80 ee       	ldi	r24, 0xE0	; 224
     c34:	90 e2       	ldi	r25, 0x20	; 32
     c36:	86 87       	std	Z+14, r24	; 0x0e
     c38:	97 87       	std	Z+15, r25	; 0x0f
     c3a:	0e 94 23 3f 	call	0x7e46	; 0x7e46 <I2C_Init>
     c3e:	0e 94 2f 3f 	call	0x7e5e	; 0x7e5e <SPI_Init>
     c42:	80 e0       	ldi	r24, 0x00	; 0
     c44:	6a db       	rcall	.-2348   	; 0x31a <AD7195_Reset>
     c46:	80 e0       	ldi	r24, 0x00	; 0
     c48:	04 db       	rcall	.-2552   	; 0x252 <AD7195_Init>
     c4a:	81 e0       	ldi	r24, 0x01	; 1
     c4c:	66 db       	rcall	.-2356   	; 0x31a <AD7195_Reset>
     c4e:	81 e0       	ldi	r24, 0x01	; 1
     c50:	00 db       	rcall	.-2560   	; 0x252 <AD7195_Init>
     c52:	54 db       	rcall	.-2392   	; 0x2fc <AD7195_Sync>
     c54:	0e 94 16 37 	call	0x6e2c	; 0x6e2c <MemorySPIInit>
     c58:	0e 94 c6 3a 	call	0x758c	; 0x758c <SD_CardInit>
     c5c:	0e 94 4c 3d 	call	0x7a98	; 0x7a98 <FLASH_setup>
     c60:	87 e0       	ldi	r24, 0x07	; 7
     c62:	80 93 a2 00 	sts	0x00A2, r24	; 0x8000a2 <__TEXT_REGION_LENGTH__+0x7000a2>
     c66:	08 95       	ret

00000c68 <main>:
	_delay_ms(200);
	LED_PORT.OUTCLR = LED3;
	_delay_ms(100);
}

int main(void) {
     c68:	cf 93       	push	r28
     c6a:	df 93       	push	r29
     c6c:	cd b7       	in	r28, 0x3d	; 61
     c6e:	de b7       	in	r29, 0x3e	; 62
     c70:	c2 5d       	subi	r28, 0xD2	; 210
     c72:	d1 09       	sbc	r29, r1
     c74:	cd bf       	out	0x3d, r28	; 61
     c76:	de bf       	out	0x3e, r29	; 62
	stan_d.telemetry_trigger = STARTUP_tele;
     c78:	81 e0       	ldi	r24, 0x01	; 1
     c7a:	80 93 12 26 	sts	0x2612, r24	; 0x802612 <stan_d+0x3>
	Initialization();
     c7e:	98 df       	rcall	.-208    	; 0xbb0 <Initialization>
	sei();
     c80:	78 94       	sei
	PMIC.CTRL = PMIC_LOLVLEN_bm | PMIC_MEDLVLEN_bm | PMIC_HILVLEN_bm;
}

void WarmUp() {
	//------Hello blink
	LED_PORT.OUTSET = LED3;
     c82:	84 e0       	ldi	r24, 0x04	; 4
     c84:	80 93 a5 06 	sts	0x06A5, r24	; 0x8006a5 <__TEXT_REGION_LENGTH__+0x7006a5>
     c88:	2f ef       	ldi	r18, 0xFF	; 255
     c8a:	37 e8       	ldi	r19, 0x87	; 135
     c8c:	43 e1       	ldi	r20, 0x13	; 19
     c8e:	21 50       	subi	r18, 0x01	; 1
     c90:	30 40       	sbci	r19, 0x00	; 0
     c92:	40 40       	sbci	r20, 0x00	; 0
     c94:	e1 f7       	brne	.-8      	; 0xc8e <main+0x26>
     c96:	00 c0       	rjmp	.+0      	; 0xc98 <main+0x30>
     c98:	00 00       	nop
	_delay_ms(200);
	LED_PORT.OUTCLR = LED3;
     c9a:	80 93 a6 06 	sts	0x06A6, r24	; 0x8006a6 <__TEXT_REGION_LENGTH__+0x7006a6>
     c9e:	5f ef       	ldi	r21, 0xFF	; 255
     ca0:	93 ec       	ldi	r25, 0xC3	; 195
     ca2:	a9 e0       	ldi	r26, 0x09	; 9
     ca4:	51 50       	subi	r21, 0x01	; 1
     ca6:	90 40       	sbci	r25, 0x00	; 0
     ca8:	a0 40       	sbci	r26, 0x00	; 0
     caa:	e1 f7       	brne	.-8      	; 0xca4 <main+0x3c>
     cac:	00 c0       	rjmp	.+0      	; 0xcae <main+0x46>
     cae:	00 00       	nop
	_delay_ms(100);
	LED_PORT.OUTSET = LED3;
     cb0:	80 93 a5 06 	sts	0x06A5, r24	; 0x8006a5 <__TEXT_REGION_LENGTH__+0x7006a5>
     cb4:	bf ef       	ldi	r27, 0xFF	; 255
     cb6:	e7 e8       	ldi	r30, 0x87	; 135
     cb8:	f3 e1       	ldi	r31, 0x13	; 19
     cba:	b1 50       	subi	r27, 0x01	; 1
     cbc:	e0 40       	sbci	r30, 0x00	; 0
     cbe:	f0 40       	sbci	r31, 0x00	; 0
     cc0:	e1 f7       	brne	.-8      	; 0xcba <main+0x52>
     cc2:	00 c0       	rjmp	.+0      	; 0xcc4 <main+0x5c>
     cc4:	00 00       	nop
	_delay_ms(200);
	LED_PORT.OUTCLR = LED3;
     cc6:	80 93 a6 06 	sts	0x06A6, r24	; 0x8006a6 <__TEXT_REGION_LENGTH__+0x7006a6>
     cca:	2f ef       	ldi	r18, 0xFF	; 255
     ccc:	33 ec       	ldi	r19, 0xC3	; 195
     cce:	49 e0       	ldi	r20, 0x09	; 9
     cd0:	21 50       	subi	r18, 0x01	; 1
     cd2:	30 40       	sbci	r19, 0x00	; 0
     cd4:	40 40       	sbci	r20, 0x00	; 0
     cd6:	e1 f7       	brne	.-8      	; 0xcd0 <main+0x68>
     cd8:	00 c0       	rjmp	.+0      	; 0xcda <main+0x72>
     cda:	00 00       	nop
int main(void) {
	stan_d.telemetry_trigger = STARTUP_tele;
	Initialization();
	sei();
	WarmUp();					//odmiganie startu
	stan_d.IgnTime = 100;
     cdc:	84 e6       	ldi	r24, 0x64	; 100
     cde:	90 e0       	ldi	r25, 0x00	; 0
     ce0:	a0 e0       	ldi	r26, 0x00	; 0
     ce2:	b0 e0       	ldi	r27, 0x00	; 0
     ce4:	80 93 18 26 	sts	0x2618, r24	; 0x802618 <stan_d+0x9>
     ce8:	90 93 19 26 	sts	0x2619, r25	; 0x802619 <stan_d+0xa>
     cec:	a0 93 1a 26 	sts	0x261A, r26	; 0x80261a <stan_d+0xb>
     cf0:	b0 93 1b 26 	sts	0x261B, r27	; 0x80261b <stan_d+0xc>
	stan_d.FireTime = 0;
     cf4:	10 92 1c 26 	sts	0x261C, r1	; 0x80261c <stan_d+0xd>
     cf8:	10 92 1d 26 	sts	0x261D, r1	; 0x80261d <stan_d+0xe>
     cfc:	10 92 1e 26 	sts	0x261E, r1	; 0x80261e <stan_d+0xf>
     d00:	10 92 1f 26 	sts	0x261F, r1	; 0x80261f <stan_d+0x10>
	uint32_t timer_buffer = 0;
	uint8_t counter = 0;
	
	f_mount(&fatfs,"0",1);  //Dostp do systemu plikw
     d04:	41 e0       	ldi	r20, 0x01	; 1
     d06:	60 e6       	ldi	r22, 0x60	; 96
     d08:	70 e2       	ldi	r23, 0x20	; 32
     d0a:	8c ee       	ldi	r24, 0xEC	; 236
     d0c:	98 e2       	ldi	r25, 0x28	; 40
     d0e:	0e 94 17 2a 	call	0x542e	; 0x542e <f_mount>
	Light_Green();
     d12:	0e 94 2f 40 	call	0x805e	; 0x805e <Light_Green>
	sei();
	WarmUp();					//odmiganie startu
	stan_d.IgnTime = 100;
	stan_d.FireTime = 0;
	uint32_t timer_buffer = 0;
	uint8_t counter = 0;
     d16:	f1 2c       	mov	r15, r1
	Initialization();
	sei();
	WarmUp();					//odmiganie startu
	stan_d.IgnTime = 100;
	stan_d.FireTime = 0;
	uint32_t timer_buffer = 0;
     d18:	41 2c       	mov	r4, r1
     d1a:	51 2c       	mov	r5, r1
     d1c:	32 01       	movw	r6, r4
	Light_Green();
	while(1){
		_delay_us(1);
		//============================== Sekcja pomiarw ============================================
		if(!AD7195_RDY(1)){
			LED_PORT.OUTSET = LED5;
     d1e:	80 e1       	ldi	r24, 0x10	; 16
     d20:	e8 2e       	mov	r14, r24
			ADC_tempCalc(&Analog_d);
			AD7195_ReadStore(&allData_d);
			LED_PORT.OUTCLR = LED6;
     d22:	90 e2       	ldi	r25, 0x20	; 32
     d24:	29 2e       	mov	r2, r25
					MPV_valve_close();
					Light_Green();
					stan_d.run_trigger = false;
					stan_d.armed_trigger = false;
					stan_d.State = 0;
					LED_PORT.OUTCLR = LED3;
     d26:	24 e0       	ldi	r18, 0x04	; 4
     d28:	32 2e       	mov	r3, r18
	#else
		//round up by default
		__ticks_dc = (uint32_t)(ceil(fabs(__tmp)));
	#endif

	__builtin_avr_delay_cycles(__ticks_dc);
     d2a:	5a e0       	ldi	r21, 0x0A	; 10
     d2c:	5a 95       	dec	r21
     d2e:	f1 f7       	brne	.-4      	; 0xd2c <main+0xc4>
     d30:	00 c0       	rjmp	.+0      	; 0xd32 <main+0xca>
	f_mount(&fatfs,"0",1);  //Dostp do systemu plikw
	Light_Green();
	while(1){
		_delay_us(1);
		//============================== Sekcja pomiarw ============================================
		if(!AD7195_RDY(1)){
     d32:	81 e0       	ldi	r24, 0x01	; 1
     d34:	51 db       	rcall	.-2398   	; 0x3d8 <AD7195_RDY>
     d36:	88 23       	and	r24, r24
     d38:	09 f4       	brne	.+2      	; 0xd3c <main+0xd4>
     d3a:	41 c0       	rjmp	.+130    	; 0xdbe <main+0x156>
				}
			}
		}

		//=========================== Sekcja maszyny stanw =========================================
		CheckOutputState(&stan_d);
     d3c:	8f e0       	ldi	r24, 0x0F	; 15
     d3e:	96 e2       	ldi	r25, 0x26	; 38
     d40:	0e 94 37 40 	call	0x806e	; 0x806e <CheckOutputState>
		if(stan_d.Abort == true){
     d44:	80 91 16 26 	lds	r24, 0x2616	; 0x802616 <stan_d+0x7>
     d48:	81 11       	cpse	r24, r1
     d4a:	57 c0       	rjmp	.+174    	; 0xdfa <main+0x192>
			stan_d.IgnTime = 0;
			stan_d.FireTime = 0;
			PORTF.OUTSET = PIN0_bm;
			LED_PORT.OUTCLR = LED3;
		}
		else if((stan_d.armed_trigger == true) && (stan_d.run_trigger == false)) FPV_valve_open();	//wczenie doprania
     d4c:	80 91 14 26 	lds	r24, 0x2614	; 0x802614 <stan_d+0x5>
     d50:	88 23       	and	r24, r24
     d52:	59 f3       	breq	.-42     	; 0xd2a <main+0xc2>
     d54:	80 91 15 26 	lds	r24, 0x2615	; 0x802615 <stan_d+0x6>
     d58:	88 23       	and	r24, r24
     d5a:	09 f4       	brne	.+2      	; 0xd5e <main+0xf6>
     d5c:	76 c0       	rjmp	.+236    	; 0xe4a <main+0x1e2>
		else if((stan_d.armed_trigger == true) && (stan_d.run_trigger == true) && (stan_d.IgnTime != 0)) {
     d5e:	80 91 18 26 	lds	r24, 0x2618	; 0x802618 <stan_d+0x9>
     d62:	90 91 19 26 	lds	r25, 0x2619	; 0x802619 <stan_d+0xa>
     d66:	a0 91 1a 26 	lds	r26, 0x261A	; 0x80261a <stan_d+0xb>
     d6a:	b0 91 1b 26 	lds	r27, 0x261B	; 0x80261b <stan_d+0xc>
     d6e:	89 2b       	or	r24, r25
     d70:	8a 2b       	or	r24, r26
     d72:	8b 2b       	or	r24, r27
     d74:	d1 f2       	breq	.-76     	; 0xd2a <main+0xc2>
			if(timer_buffer <= Clock_d.time){
     d76:	80 91 27 26 	lds	r24, 0x2627	; 0x802627 <Clock_d>
     d7a:	90 91 28 26 	lds	r25, 0x2628	; 0x802628 <Clock_d+0x1>
     d7e:	a0 91 29 26 	lds	r26, 0x2629	; 0x802629 <Clock_d+0x2>
     d82:	b0 91 2a 26 	lds	r27, 0x262A	; 0x80262a <Clock_d+0x3>
     d86:	84 15       	cp	r24, r4
     d88:	95 05       	cpc	r25, r5
     d8a:	a6 05       	cpc	r26, r6
     d8c:	b7 05       	cpc	r27, r7
     d8e:	68 f2       	brcs	.-102    	; 0xd2a <main+0xc2>
				stan_d.State++;
     d90:	80 91 17 26 	lds	r24, 0x2617	; 0x802617 <stan_d+0x8>
     d94:	8f 5f       	subi	r24, 0xFF	; 255
     d96:	80 93 17 26 	sts	0x2617, r24	; 0x802617 <stan_d+0x8>
				switch(stan_d.State){
     d9a:	90 e0       	ldi	r25, 0x00	; 0
     d9c:	8a 30       	cpi	r24, 0x0A	; 10
     d9e:	91 05       	cpc	r25, r1
     da0:	08 f4       	brcc	.+2      	; 0xda4 <main+0x13c>
     da2:	bb c1       	rjmp	.+886    	; 0x111a <main+0x4b2>
					timer_buffer = Clock_d.time+500;
					break;
					//-----Step 8------------------
					case 8:
					default:
					MPV_valve_close();
     da4:	0e 94 0d 40 	call	0x801a	; 0x801a <MPV_valve_close>
					Light_Green();
     da8:	0e 94 2f 40 	call	0x805e	; 0x805e <Light_Green>
					stan_d.run_trigger = false;
     dac:	10 92 15 26 	sts	0x2615, r1	; 0x802615 <stan_d+0x6>
					stan_d.armed_trigger = false;
     db0:	10 92 14 26 	sts	0x2614, r1	; 0x802614 <stan_d+0x5>
					stan_d.State = 0;
     db4:	10 92 17 26 	sts	0x2617, r1	; 0x802617 <stan_d+0x8>
					LED_PORT.OUTCLR = LED3;
     db8:	30 92 a6 06 	sts	0x06A6, r3	; 0x8006a6 <__TEXT_REGION_LENGTH__+0x7006a6>
					break;
     dbc:	b6 cf       	rjmp	.-148    	; 0xd2a <main+0xc2>
	Light_Green();
	while(1){
		_delay_us(1);
		//============================== Sekcja pomiarw ============================================
		if(!AD7195_RDY(1)){
			LED_PORT.OUTSET = LED5;
     dbe:	e0 92 a5 06 	sts	0x06A5, r14	; 0x8006a5 <__TEXT_REGION_LENGTH__+0x7006a5>
			ADC_tempCalc(&Analog_d);
     dc2:	80 ec       	ldi	r24, 0xC0	; 192
     dc4:	98 e2       	ldi	r25, 0x28	; 40
     dc6:	0e 94 67 40 	call	0x80ce	; 0x80ce <ADC_tempCalc>
			AD7195_ReadStore(&allData_d);
     dca:	8f e7       	ldi	r24, 0x7F	; 127
     dcc:	96 e2       	ldi	r25, 0x26	; 38
     dce:	24 db       	rcall	.-2488   	; 0x418 <AD7195_ReadStore>
			LED_PORT.OUTCLR = LED6;
     dd0:	20 92 a6 06 	sts	0x06A6, r2	; 0x8006a6 <__TEXT_REGION_LENGTH__+0x7006a6>
			counter++;
     dd4:	f3 94       	inc	r15
			if (counter >= 4){
     dd6:	83 e0       	ldi	r24, 0x03	; 3
     dd8:	8f 15       	cp	r24, r15
     dda:	08 f0       	brcs	.+2      	; 0xdde <main+0x176>
     ddc:	af cf       	rjmp	.-162    	; 0xd3c <main+0xd4>
				counter = 0;
				if(stan_d.armed_trigger){
     dde:	80 91 14 26 	lds	r24, 0x2614	; 0x802614 <stan_d+0x5>
     de2:	81 11       	cpse	r24, r1
     de4:	35 c0       	rjmp	.+106    	; 0xe50 <main+0x1e8>
			ADC_tempCalc(&Analog_d);
			AD7195_ReadStore(&allData_d);
			LED_PORT.OUTCLR = LED6;
			counter++;
			if (counter >= 4){
				counter = 0;
     de6:	f1 2c       	mov	r15, r1
				}
			}
		}

		//=========================== Sekcja maszyny stanw =========================================
		CheckOutputState(&stan_d);
     de8:	8f e0       	ldi	r24, 0x0F	; 15
     dea:	96 e2       	ldi	r25, 0x26	; 38
     dec:	0e 94 37 40 	call	0x806e	; 0x806e <CheckOutputState>
		if(stan_d.Abort == true){
     df0:	80 91 16 26 	lds	r24, 0x2616	; 0x802616 <stan_d+0x7>
     df4:	88 23       	and	r24, r24
     df6:	09 f4       	brne	.+2      	; 0xdfa <main+0x192>
     df8:	a9 cf       	rjmp	.-174    	; 0xd4c <main+0xe4>
			SERVO_close();
     dfa:	0e 94 20 40 	call	0x8040	; 0x8040 <SERVO_close>
			FPV_valve_close();
     dfe:	0e 94 15 40 	call	0x802a	; 0x802a <FPV_valve_close>
			MFV_valve_close();
     e02:	0e 94 fd 3f 	call	0x7ffa	; 0x7ffa <MFV_valve_close>
			MOV_valve_close();
     e06:	0e 94 05 40 	call	0x800a	; 0x800a <MOV_valve_close>
			MPV_valve_open();
     e0a:	0e 94 09 40 	call	0x8012	; 0x8012 <MPV_valve_open>
			Buzzer_active();
     e0e:	0e 94 27 40 	call	0x804e	; 0x804e <Buzzer_active>
			Light_Red();
     e12:	0e 94 33 40 	call	0x8066	; 0x8066 <Light_Red>
			f_close(&pomiar);
     e16:	8c e9       	ldi	r24, 0x9C	; 156
     e18:	96 e2       	ldi	r25, 0x26	; 38
     e1a:	0e 94 ed 2e 	call	0x5dda	; 0x5dda <f_close>
			stan_d.IgnTime = 0;
     e1e:	10 92 18 26 	sts	0x2618, r1	; 0x802618 <stan_d+0x9>
     e22:	10 92 19 26 	sts	0x2619, r1	; 0x802619 <stan_d+0xa>
     e26:	10 92 1a 26 	sts	0x261A, r1	; 0x80261a <stan_d+0xb>
     e2a:	10 92 1b 26 	sts	0x261B, r1	; 0x80261b <stan_d+0xc>
			stan_d.FireTime = 0;
     e2e:	10 92 1c 26 	sts	0x261C, r1	; 0x80261c <stan_d+0xd>
     e32:	10 92 1d 26 	sts	0x261D, r1	; 0x80261d <stan_d+0xe>
     e36:	10 92 1e 26 	sts	0x261E, r1	; 0x80261e <stan_d+0xf>
     e3a:	10 92 1f 26 	sts	0x261F, r1	; 0x80261f <stan_d+0x10>
			PORTF.OUTSET = PIN0_bm;
     e3e:	81 e0       	ldi	r24, 0x01	; 1
     e40:	80 93 a5 06 	sts	0x06A5, r24	; 0x8006a5 <__TEXT_REGION_LENGTH__+0x7006a5>
			LED_PORT.OUTCLR = LED3;
     e44:	30 92 a6 06 	sts	0x06A6, r3	; 0x8006a6 <__TEXT_REGION_LENGTH__+0x7006a6>
     e48:	70 cf       	rjmp	.-288    	; 0xd2a <main+0xc2>
		}
		else if((stan_d.armed_trigger == true) && (stan_d.run_trigger == false)) FPV_valve_open();	//wczenie doprania
     e4a:	0e 94 11 40 	call	0x8022	; 0x8022 <FPV_valve_open>
     e4e:	6d cf       	rjmp	.-294    	; 0xd2a <main+0xc2>
			LED_PORT.OUTCLR = LED6;
			counter++;
			if (counter >= 4){
				counter = 0;
				if(stan_d.armed_trigger){
					Clock_d.RealTime = getRTC_us();
     e50:	0e 94 f0 36 	call	0x6de0	; 0x6de0 <getRTC_us>
     e54:	60 93 2b 26 	sts	0x262B, r22	; 0x80262b <Clock_d+0x4>
     e58:	70 93 2c 26 	sts	0x262C, r23	; 0x80262c <Clock_d+0x5>
     e5c:	80 93 2d 26 	sts	0x262D, r24	; 0x80262d <Clock_d+0x6>
     e60:	90 93 2e 26 	sts	0x262E, r25	; 0x80262e <Clock_d+0x7>
					LED_PORT.OUTSET = LED6;
     e64:	20 92 a5 06 	sts	0x06A5, r2	; 0x8006a5 <__TEXT_REGION_LENGTH__+0x7006a5>

void FLASH_saveData(allData_t * allData_d){
	FLASH_dataStruct_t FLASH_struct_d;
	FLASH_struct_d.marker = 0xAA;
	
	FLASH_struct_d.IGN = allData_d->stan->IGN;
     e68:	e0 91 81 26 	lds	r30, 0x2681	; 0x802681 <allData_d+0x2>
     e6c:	f0 91 82 26 	lds	r31, 0x2682	; 0x802682 <allData_d+0x3>
     e70:	65 89       	ldd	r22, Z+21	; 0x15
	FLASH_struct_d.MFV = allData_d->stan->MFV;
     e72:	f1 88       	ldd	r15, Z+17	; 0x11
	FLASH_struct_d.MOV = allData_d->stan->MOV;
     e74:	72 89       	ldd	r23, Z+18	; 0x12
	FLASH_struct_d.WPV = allData_d->stan->MFV;
	FLASH_struct_d.FPV = allData_d->stan->FPV;
     e76:	93 89       	ldd	r25, Z+19	; 0x13
     e78:	c1 55       	subi	r28, 0x51	; 81
     e7a:	df 4f       	sbci	r29, 0xFF	; 255
     e7c:	98 83       	st	Y, r25
     e7e:	cf 5a       	subi	r28, 0xAF	; 175
     e80:	d0 40       	sbci	r29, 0x00	; 0
	
	FLASH_struct_d.press1 = allData_d->AD7195->raw_press1;
     e82:	e0 91 8b 26 	lds	r30, 0x268B	; 0x80268b <allData_d+0xc>
     e86:	f0 91 8c 26 	lds	r31, 0x268C	; 0x80268c <allData_d+0xd>
     e8a:	80 a0       	ldd	r8, Z+32	; 0x20
     e8c:	91 a0       	ldd	r9, Z+33	; 0x21
     e8e:	a2 a0       	ldd	r10, Z+34	; 0x22
     e90:	b3 a0       	ldd	r11, Z+35	; 0x23
	FLASH_struct_d.press2 = allData_d->AD7195->raw_press2;
     e92:	04 a1       	ldd	r16, Z+36	; 0x24
     e94:	15 a1       	ldd	r17, Z+37	; 0x25
     e96:	26 a1       	ldd	r18, Z+38	; 0x26
     e98:	37 a1       	ldd	r19, Z+39	; 0x27
	FLASH_struct_d.press3 = allData_d->AD7195->raw_press3;
     e9a:	80 a5       	ldd	r24, Z+40	; 0x28
     e9c:	91 a5       	ldd	r25, Z+41	; 0x29
     e9e:	a2 a5       	ldd	r26, Z+42	; 0x2a
     ea0:	b3 a5       	ldd	r27, Z+43	; 0x2b
     ea2:	c1 53       	subi	r28, 0x31	; 49
     ea4:	df 4f       	sbci	r29, 0xFF	; 255
     ea6:	88 83       	st	Y, r24
     ea8:	99 83       	std	Y+1, r25	; 0x01
     eaa:	aa 83       	std	Y+2, r26	; 0x02
     eac:	bb 83       	std	Y+3, r27	; 0x03
     eae:	cf 5c       	subi	r28, 0xCF	; 207
     eb0:	d0 40       	sbci	r29, 0x00	; 0
	FLASH_struct_d.press4 = allData_d->AD7195->raw_press4;
     eb2:	84 a5       	ldd	r24, Z+44	; 0x2c
     eb4:	95 a5       	ldd	r25, Z+45	; 0x2d
     eb6:	a6 a5       	ldd	r26, Z+46	; 0x2e
     eb8:	b7 a5       	ldd	r27, Z+47	; 0x2f
     eba:	c0 55       	subi	r28, 0x50	; 80
     ebc:	df 4f       	sbci	r29, 0xFF	; 255
     ebe:	88 83       	st	Y, r24
     ec0:	99 83       	std	Y+1, r25	; 0x01
     ec2:	aa 83       	std	Y+2, r26	; 0x02
     ec4:	bb 83       	std	Y+3, r27	; 0x03
     ec6:	c0 5b       	subi	r28, 0xB0	; 176
     ec8:	d0 40       	sbci	r29, 0x00	; 0
	FLASH_struct_d.press5 = allData_d->AD7195->raw_press5;
     eca:	80 a9       	ldd	r24, Z+48	; 0x30
     ecc:	91 a9       	ldd	r25, Z+49	; 0x31
     ece:	a2 a9       	ldd	r26, Z+50	; 0x32
     ed0:	b3 a9       	ldd	r27, Z+51	; 0x33
     ed2:	cc 54       	subi	r28, 0x4C	; 76
     ed4:	df 4f       	sbci	r29, 0xFF	; 255
     ed6:	88 83       	st	Y, r24
     ed8:	99 83       	std	Y+1, r25	; 0x01
     eda:	aa 83       	std	Y+2, r26	; 0x02
     edc:	bb 83       	std	Y+3, r27	; 0x03
     ede:	c4 5b       	subi	r28, 0xB4	; 180
     ee0:	d0 40       	sbci	r29, 0x00	; 0
	FLASH_struct_d.press6 = allData_d->AD7195->raw_press6;
     ee2:	84 a9       	ldd	r24, Z+52	; 0x34
     ee4:	95 a9       	ldd	r25, Z+53	; 0x35
     ee6:	a6 a9       	ldd	r26, Z+54	; 0x36
     ee8:	b7 a9       	ldd	r27, Z+55	; 0x37
     eea:	c8 54       	subi	r28, 0x48	; 72
     eec:	df 4f       	sbci	r29, 0xFF	; 255
     eee:	88 83       	st	Y, r24
     ef0:	99 83       	std	Y+1, r25	; 0x01
     ef2:	aa 83       	std	Y+2, r26	; 0x02
     ef4:	bb 83       	std	Y+3, r27	; 0x03
     ef6:	c8 5b       	subi	r28, 0xB8	; 184
     ef8:	d0 40       	sbci	r29, 0x00	; 0
	FLASH_struct_d.press7 = allData_d->AD7195->raw_press7;
     efa:	80 ad       	ldd	r24, Z+56	; 0x38
     efc:	91 ad       	ldd	r25, Z+57	; 0x39
     efe:	a2 ad       	ldd	r26, Z+58	; 0x3a
     f00:	b3 ad       	ldd	r27, Z+59	; 0x3b
     f02:	c4 54       	subi	r28, 0x44	; 68
     f04:	df 4f       	sbci	r29, 0xFF	; 255
     f06:	88 83       	st	Y, r24
     f08:	99 83       	std	Y+1, r25	; 0x01
     f0a:	aa 83       	std	Y+2, r26	; 0x02
     f0c:	bb 83       	std	Y+3, r27	; 0x03
     f0e:	cc 5b       	subi	r28, 0xBC	; 188
     f10:	d0 40       	sbci	r29, 0x00	; 0
	FLASH_struct_d.press8 = allData_d->AD7195->raw_press8;
     f12:	84 ad       	ldd	r24, Z+60	; 0x3c
     f14:	95 ad       	ldd	r25, Z+61	; 0x3d
     f16:	a6 ad       	ldd	r26, Z+62	; 0x3e
     f18:	b7 ad       	ldd	r27, Z+63	; 0x3f
     f1a:	c0 54       	subi	r28, 0x40	; 64
     f1c:	df 4f       	sbci	r29, 0xFF	; 255
     f1e:	88 83       	st	Y, r24
     f20:	99 83       	std	Y+1, r25	; 0x01
     f22:	aa 83       	std	Y+2, r26	; 0x02
     f24:	bb 83       	std	Y+3, r27	; 0x03
     f26:	c0 5c       	subi	r28, 0xC0	; 192
     f28:	d0 40       	sbci	r29, 0x00	; 0
	
	FLASH_struct_d.temp1 = allData_d->Analog->Temp1;
     f2a:	e0 91 7f 26 	lds	r30, 0x267F	; 0x80267f <allData_d>
     f2e:	f0 91 80 26 	lds	r31, 0x2680	; 0x802680 <allData_d+0x1>
     f32:	a4 89       	ldd	r26, Z+20	; 0x14
     f34:	b5 89       	ldd	r27, Z+21	; 0x15
     f36:	cc 53       	subi	r28, 0x3C	; 60
     f38:	df 4f       	sbci	r29, 0xFF	; 255
     f3a:	a8 83       	st	Y, r26
     f3c:	b9 83       	std	Y+1, r27	; 0x01
     f3e:	c4 5c       	subi	r28, 0xC4	; 196
     f40:	d0 40       	sbci	r29, 0x00	; 0
	FLASH_struct_d.temp2 = allData_d->Analog->Temp2;
     f42:	c6 88       	ldd	r12, Z+22	; 0x16
     f44:	d7 88       	ldd	r13, Z+23	; 0x17
     f46:	ca 53       	subi	r28, 0x3A	; 58
     f48:	df 4f       	sbci	r29, 0xFF	; 255
     f4a:	c8 82       	st	Y, r12
     f4c:	d9 82       	std	Y+1, r13	; 0x01
     f4e:	c6 5c       	subi	r28, 0xC6	; 198
     f50:	d0 40       	sbci	r29, 0x00	; 0
	FLASH_struct_d.temp3 = allData_d->Analog->Temp3;
     f52:	40 8d       	ldd	r20, Z+24	; 0x18
     f54:	51 8d       	ldd	r21, Z+25	; 0x19
     f56:	c8 53       	subi	r28, 0x38	; 56
     f58:	df 4f       	sbci	r29, 0xFF	; 255
     f5a:	48 83       	st	Y, r20
     f5c:	59 83       	std	Y+1, r21	; 0x01
     f5e:	c8 5c       	subi	r28, 0xC8	; 200
     f60:	d0 40       	sbci	r29, 0x00	; 0
	FLASH_struct_d.temp4 = allData_d->Analog->Temp4;
     f62:	82 8d       	ldd	r24, Z+26	; 0x1a
     f64:	93 8d       	ldd	r25, Z+27	; 0x1b
     f66:	c6 53       	subi	r28, 0x36	; 54
     f68:	df 4f       	sbci	r29, 0xFF	; 255
     f6a:	88 83       	st	Y, r24
     f6c:	99 83       	std	Y+1, r25	; 0x01
     f6e:	ca 5c       	subi	r28, 0xCA	; 202
     f70:	d0 40       	sbci	r29, 0x00	; 0
	
	FLASH_struct_d.Clock = allData_d->Clock->RealTime;
     f72:	e0 91 87 26 	lds	r30, 0x2687	; 0x802687 <allData_d+0x8>
     f76:	f0 91 88 26 	lds	r31, 0x2688	; 0x802688 <allData_d+0x9>
     f7a:	84 81       	ldd	r24, Z+4	; 0x04
     f7c:	95 81       	ldd	r25, Z+5	; 0x05
     f7e:	a6 81       	ldd	r26, Z+6	; 0x06
     f80:	b7 81       	ldd	r27, Z+7	; 0x07
	
	uint8_t pagePosition = allData_d->FLASH_pageStruct->position;
     f82:	e0 91 8d 26 	lds	r30, 0x268D	; 0x80268d <allData_d+0xe>
     f86:	f0 91 8e 26 	lds	r31, 0x268E	; 0x80268e <allData_d+0xf>
     f8a:	c3 53       	subi	r28, 0x33	; 51
     f8c:	df 4f       	sbci	r29, 0xFF	; 255
     f8e:	e8 83       	st	Y, r30
     f90:	f9 83       	std	Y+1, r31	; 0x01
     f92:	cd 5c       	subi	r28, 0xCD	; 205
     f94:	d0 40       	sbci	r29, 0x00	; 0
     f96:	d2 80       	ldd	r13, Z+2	; 0x02
	if (pagePosition < 8){
     f98:	f7 e0       	ldi	r31, 0x07	; 7
     f9a:	fd 15       	cp	r31, r13
     f9c:	08 f4       	brcc	.+2      	; 0xfa0 <main+0x338>
     f9e:	9e c0       	rjmp	.+316    	; 0x10dc <main+0x474>
		allData_d->FLASH_pageStruct->FLASH_dataStruct[pagePosition] = FLASH_struct_d;
     fa0:	c3 53       	subi	r28, 0x33	; 51
     fa2:	df 4f       	sbci	r29, 0xFF	; 255
     fa4:	e8 81       	ld	r30, Y
     fa6:	f9 81       	ldd	r31, Y+1	; 0x01
     fa8:	cd 5c       	subi	r28, 0xCD	; 205
     faa:	d0 40       	sbci	r29, 0x00	; 0
     fac:	40 e4       	ldi	r20, 0x40	; 64
     fae:	d4 9e       	mul	r13, r20
     fb0:	e0 0d       	add	r30, r0
     fb2:	f1 1d       	adc	r31, r1
     fb4:	11 24       	eor	r1, r1
     fb6:	33 96       	adiw	r30, 0x03	; 3
     fb8:	5a ea       	ldi	r21, 0xAA	; 170
     fba:	50 83       	st	Z, r21
     fbc:	81 82       	std	Z+1, r8	; 0x01
     fbe:	92 82       	std	Z+2, r9	; 0x02
     fc0:	a3 82       	std	Z+3, r10	; 0x03
     fc2:	b4 82       	std	Z+4, r11	; 0x04
     fc4:	05 83       	std	Z+5, r16	; 0x05
     fc6:	16 83       	std	Z+6, r17	; 0x06
     fc8:	27 83       	std	Z+7, r18	; 0x07
     fca:	30 87       	std	Z+8, r19	; 0x08
     fcc:	c1 53       	subi	r28, 0x31	; 49
     fce:	df 4f       	sbci	r29, 0xFF	; 255
     fd0:	28 81       	ld	r18, Y
     fd2:	39 81       	ldd	r19, Y+1	; 0x01
     fd4:	4a 81       	ldd	r20, Y+2	; 0x02
     fd6:	5b 81       	ldd	r21, Y+3	; 0x03
     fd8:	cf 5c       	subi	r28, 0xCF	; 207
     fda:	d0 40       	sbci	r29, 0x00	; 0
     fdc:	21 87       	std	Z+9, r18	; 0x09
     fde:	32 87       	std	Z+10, r19	; 0x0a
     fe0:	43 87       	std	Z+11, r20	; 0x0b
     fe2:	54 87       	std	Z+12, r21	; 0x0c
     fe4:	c0 55       	subi	r28, 0x50	; 80
     fe6:	df 4f       	sbci	r29, 0xFF	; 255
     fe8:	28 81       	ld	r18, Y
     fea:	39 81       	ldd	r19, Y+1	; 0x01
     fec:	4a 81       	ldd	r20, Y+2	; 0x02
     fee:	5b 81       	ldd	r21, Y+3	; 0x03
     ff0:	c0 5b       	subi	r28, 0xB0	; 176
     ff2:	d0 40       	sbci	r29, 0x00	; 0
     ff4:	25 87       	std	Z+13, r18	; 0x0d
     ff6:	36 87       	std	Z+14, r19	; 0x0e
     ff8:	47 87       	std	Z+15, r20	; 0x0f
     ffa:	50 8b       	std	Z+16, r21	; 0x10
     ffc:	cc 54       	subi	r28, 0x4C	; 76
     ffe:	df 4f       	sbci	r29, 0xFF	; 255
    1000:	28 81       	ld	r18, Y
    1002:	39 81       	ldd	r19, Y+1	; 0x01
    1004:	4a 81       	ldd	r20, Y+2	; 0x02
    1006:	5b 81       	ldd	r21, Y+3	; 0x03
    1008:	c4 5b       	subi	r28, 0xB4	; 180
    100a:	d0 40       	sbci	r29, 0x00	; 0
    100c:	21 8b       	std	Z+17, r18	; 0x11
    100e:	32 8b       	std	Z+18, r19	; 0x12
    1010:	43 8b       	std	Z+19, r20	; 0x13
    1012:	54 8b       	std	Z+20, r21	; 0x14
    1014:	c8 54       	subi	r28, 0x48	; 72
    1016:	df 4f       	sbci	r29, 0xFF	; 255
    1018:	28 81       	ld	r18, Y
    101a:	39 81       	ldd	r19, Y+1	; 0x01
    101c:	4a 81       	ldd	r20, Y+2	; 0x02
    101e:	5b 81       	ldd	r21, Y+3	; 0x03
    1020:	c8 5b       	subi	r28, 0xB8	; 184
    1022:	d0 40       	sbci	r29, 0x00	; 0
    1024:	25 8b       	std	Z+21, r18	; 0x15
    1026:	36 8b       	std	Z+22, r19	; 0x16
    1028:	47 8b       	std	Z+23, r20	; 0x17
    102a:	50 8f       	std	Z+24, r21	; 0x18
    102c:	c4 54       	subi	r28, 0x44	; 68
    102e:	df 4f       	sbci	r29, 0xFF	; 255
    1030:	28 81       	ld	r18, Y
    1032:	39 81       	ldd	r19, Y+1	; 0x01
    1034:	4a 81       	ldd	r20, Y+2	; 0x02
    1036:	5b 81       	ldd	r21, Y+3	; 0x03
    1038:	cc 5b       	subi	r28, 0xBC	; 188
    103a:	d0 40       	sbci	r29, 0x00	; 0
    103c:	21 8f       	std	Z+25, r18	; 0x19
    103e:	32 8f       	std	Z+26, r19	; 0x1a
    1040:	43 8f       	std	Z+27, r20	; 0x1b
    1042:	54 8f       	std	Z+28, r21	; 0x1c
    1044:	c0 54       	subi	r28, 0x40	; 64
    1046:	df 4f       	sbci	r29, 0xFF	; 255
    1048:	28 81       	ld	r18, Y
    104a:	39 81       	ldd	r19, Y+1	; 0x01
    104c:	4a 81       	ldd	r20, Y+2	; 0x02
    104e:	5b 81       	ldd	r21, Y+3	; 0x03
    1050:	c0 5c       	subi	r28, 0xC0	; 192
    1052:	d0 40       	sbci	r29, 0x00	; 0
    1054:	25 8f       	std	Z+29, r18	; 0x1d
    1056:	36 8f       	std	Z+30, r19	; 0x1e
    1058:	47 8f       	std	Z+31, r20	; 0x1f
    105a:	50 a3       	std	Z+32, r21	; 0x20
    105c:	cc 53       	subi	r28, 0x3C	; 60
    105e:	df 4f       	sbci	r29, 0xFF	; 255
    1060:	48 81       	ld	r20, Y
    1062:	59 81       	ldd	r21, Y+1	; 0x01
    1064:	c4 5c       	subi	r28, 0xC4	; 196
    1066:	d0 40       	sbci	r29, 0x00	; 0
    1068:	41 a3       	std	Z+33, r20	; 0x21
    106a:	52 a3       	std	Z+34, r21	; 0x22
    106c:	ca 53       	subi	r28, 0x3A	; 58
    106e:	df 4f       	sbci	r29, 0xFF	; 255
    1070:	c8 80       	ld	r12, Y
    1072:	d9 80       	ldd	r13, Y+1	; 0x01
    1074:	c6 5c       	subi	r28, 0xC6	; 198
    1076:	d0 40       	sbci	r29, 0x00	; 0
    1078:	c3 a2       	std	Z+35, r12	; 0x23
    107a:	d4 a2       	std	Z+36, r13	; 0x24
    107c:	c8 53       	subi	r28, 0x38	; 56
    107e:	df 4f       	sbci	r29, 0xFF	; 255
    1080:	28 81       	ld	r18, Y
    1082:	39 81       	ldd	r19, Y+1	; 0x01
    1084:	c8 5c       	subi	r28, 0xC8	; 200
    1086:	d0 40       	sbci	r29, 0x00	; 0
    1088:	25 a3       	std	Z+37, r18	; 0x25
    108a:	36 a3       	std	Z+38, r19	; 0x26
    108c:	c6 53       	subi	r28, 0x36	; 54
    108e:	df 4f       	sbci	r29, 0xFF	; 255
    1090:	48 81       	ld	r20, Y
    1092:	59 81       	ldd	r21, Y+1	; 0x01
    1094:	ca 5c       	subi	r28, 0xCA	; 202
    1096:	d0 40       	sbci	r29, 0x00	; 0
    1098:	47 a3       	std	Z+39, r20	; 0x27
    109a:	50 a7       	std	Z+40, r21	; 0x28
    109c:	21 a5       	ldd	r18, Z+41	; 0x29
    109e:	60 fb       	bst	r22, 0
    10a0:	20 f9       	bld	r18, 0
    10a2:	f0 fa       	bst	r15, 0
    10a4:	21 f9       	bld	r18, 1
    10a6:	70 fb       	bst	r23, 0
    10a8:	22 f9       	bld	r18, 2
    10aa:	f0 fa       	bst	r15, 0
    10ac:	23 f9       	bld	r18, 3
    10ae:	c1 55       	subi	r28, 0x51	; 81
    10b0:	df 4f       	sbci	r29, 0xFF	; 255
    10b2:	58 81       	ld	r21, Y
    10b4:	cf 5a       	subi	r28, 0xAF	; 175
    10b6:	d0 40       	sbci	r29, 0x00	; 0
    10b8:	50 fb       	bst	r21, 0
    10ba:	24 f9       	bld	r18, 4
    10bc:	21 a7       	std	Z+41, r18	; 0x29
    10be:	82 a7       	std	Z+42, r24	; 0x2a
    10c0:	93 a7       	std	Z+43, r25	; 0x2b
    10c2:	a4 a7       	std	Z+44, r26	; 0x2c
    10c4:	b5 a7       	std	Z+45, r27	; 0x2d
		allData_d->FLASH_pageStruct->position++;
    10c6:	e0 91 8d 26 	lds	r30, 0x268D	; 0x80268d <allData_d+0xe>
    10ca:	f0 91 8e 26 	lds	r31, 0x268E	; 0x80268e <allData_d+0xf>
    10ce:	82 81       	ldd	r24, Z+2	; 0x02
    10d0:	8f 5f       	subi	r24, 0xFF	; 255
    10d2:	82 83       	std	Z+2, r24	; 0x02
				counter = 0;
				if(stan_d.armed_trigger){
					Clock_d.RealTime = getRTC_us();
					LED_PORT.OUTSET = LED6;
					FLASH_saveData(&allData_d);
					LED_PORT.OUTCLR = LED6;
    10d4:	20 92 a6 06 	sts	0x06A6, r2	; 0x8006a6 <__TEXT_REGION_LENGTH__+0x7006a6>
			ADC_tempCalc(&Analog_d);
			AD7195_ReadStore(&allData_d);
			LED_PORT.OUTCLR = LED6;
			counter++;
			if (counter >= 4){
				counter = 0;
    10d8:	f1 2c       	mov	r15, r1
    10da:	30 ce       	rjmp	.-928    	; 0xd3c <main+0xd4>
	if (pagePosition < 8){
		allData_d->FLASH_pageStruct->FLASH_dataStruct[pagePosition] = FLASH_struct_d;
		allData_d->FLASH_pageStruct->position++;
	}
	if(pagePosition >=8){
		FLASH_pageWrite(allData_d->FLASH_pageStruct->pageNo, allData_d->FLASH_pageStruct->data, 512);
    10dc:	c3 53       	subi	r28, 0x33	; 51
    10de:	df 4f       	sbci	r29, 0xFF	; 255
    10e0:	68 81       	ld	r22, Y
    10e2:	79 81       	ldd	r23, Y+1	; 0x01
    10e4:	cd 5c       	subi	r28, 0xCD	; 205
    10e6:	d0 40       	sbci	r29, 0x00	; 0
    10e8:	6d 5f       	subi	r22, 0xFD	; 253
    10ea:	7f 4f       	sbci	r23, 0xFF	; 255
    10ec:	40 e0       	ldi	r20, 0x00	; 0
    10ee:	52 e0       	ldi	r21, 0x02	; 2
    10f0:	c3 53       	subi	r28, 0x33	; 51
    10f2:	df 4f       	sbci	r29, 0xFF	; 255
    10f4:	a8 81       	ld	r26, Y
    10f6:	b9 81       	ldd	r27, Y+1	; 0x01
    10f8:	cd 5c       	subi	r28, 0xCD	; 205
    10fa:	d0 40       	sbci	r29, 0x00	; 0
    10fc:	8d 91       	ld	r24, X+
    10fe:	9c 91       	ld	r25, X
    1100:	0e 94 4d 3d 	call	0x7a9a	; 0x7a9a <FLASH_pageWrite>
		allData_d->FLASH_pageStruct->pageNo++;
    1104:	e0 91 8d 26 	lds	r30, 0x268D	; 0x80268d <allData_d+0xe>
    1108:	f0 91 8e 26 	lds	r31, 0x268E	; 0x80268e <allData_d+0xf>
    110c:	80 81       	ld	r24, Z
    110e:	91 81       	ldd	r25, Z+1	; 0x01
    1110:	01 96       	adiw	r24, 0x01	; 1
    1112:	80 83       	st	Z, r24
    1114:	91 83       	std	Z+1, r25	; 0x01
		allData_d->FLASH_pageStruct->position = 0;
    1116:	12 82       	std	Z+2, r1	; 0x02
    1118:	dd cf       	rjmp	.-70     	; 0x10d4 <main+0x46c>
		}
		else if((stan_d.armed_trigger == true) && (stan_d.run_trigger == false)) FPV_valve_open();	//wczenie doprania
		else if((stan_d.armed_trigger == true) && (stan_d.run_trigger == true) && (stan_d.IgnTime != 0)) {
			if(timer_buffer <= Clock_d.time){
				stan_d.State++;
				switch(stan_d.State){
    111a:	fc 01       	movw	r30, r24
    111c:	88 27       	eor	r24, r24
    111e:	e2 50       	subi	r30, 0x02	; 2
    1120:	ff 4f       	sbci	r31, 0xFF	; 255
    1122:	8f 4f       	sbci	r24, 0xFF	; 255
    1124:	0c 94 06 44 	jmp	0x880c	; 0x880c <__tablejump2__>
	}
}

void FLASH_move2SD(void){
	char filename[9];
	FindNextFilename(filename);
    1128:	ce 01       	movw	r24, r28
    112a:	8b 55       	subi	r24, 0x5B	; 91
    112c:	9f 4f       	sbci	r25, 0xFF	; 255
    112e:	0e 94 9d 41 	call	0x833a	; 0x833a <FindNextFilename>
	if (f_open(&pomiar, filename, FA_WRITE | FA_CREATE_ALWAYS) == FR_OK){
    1132:	4a e0       	ldi	r20, 0x0A	; 10
    1134:	be 01       	movw	r22, r28
    1136:	6b 55       	subi	r22, 0x5B	; 91
    1138:	7f 4f       	sbci	r23, 0xFF	; 255
    113a:	8c e9       	ldi	r24, 0x9C	; 156
    113c:	96 e2       	ldi	r25, 0x26	; 38
    113e:	0e 94 6e 2a 	call	0x54dc	; 0x54dc <f_open>
    1142:	88 23       	and	r24, r24
    1144:	09 f4       	brne	.+2      	; 0x1148 <main+0x4e0>
    1146:	d5 c0       	rjmp	.+426    	; 0x12f2 <main+0x68a>
			ADC_tempCalc(&Analog_d);
			AD7195_ReadStore(&allData_d);
			LED_PORT.OUTCLR = LED6;
			counter++;
			if (counter >= 4){
				counter = 0;
    1148:	81 2c       	mov	r8, r1
    114a:	91 2c       	mov	r9, r1
    114c:	54 01       	movw	r10, r8
    114e:	1d c0       	rjmp	.+58     	; 0x118a <main+0x522>
	char string[100];
	uint32_t position = 0;
	do{
		FLASH_arrayRead(position, FLASH_dataStruct.array, 64);
		if(FLASH_dataStruct.array[0] != 0xAA) break;	//jeli brak zapisanych danych, zakocz przepisywanie
		position += 64;
    1150:	20 e4       	ldi	r18, 0x40	; 64
    1152:	82 0e       	add	r8, r18
    1154:	91 1c       	adc	r9, r1
    1156:	a1 1c       	adc	r10, r1
    1158:	b1 1c       	adc	r11, r1
		prepareFrameFlash(&FLASH_dataStruct, string);
    115a:	be 01       	movw	r22, r28
    115c:	6f 5f       	subi	r22, 0xFF	; 255
    115e:	7f 4f       	sbci	r23, 0xFF	; 255
    1160:	ce 01       	movw	r24, r28
    1162:	8b 59       	subi	r24, 0x9B	; 155
    1164:	9f 4f       	sbci	r25, 0xFF	; 255
    1166:	0e 94 3d 3f 	call	0x7e7a	; 0x7e7a <prepareFrameFlash>
		f_write(&pomiar, string, 94, &bw);
    116a:	2e eb       	ldi	r18, 0xBE	; 190
    116c:	38 e2       	ldi	r19, 0x28	; 40
    116e:	4e e5       	ldi	r20, 0x5E	; 94
    1170:	50 e0       	ldi	r21, 0x00	; 0
    1172:	be 01       	movw	r22, r28
    1174:	6f 5f       	subi	r22, 0xFF	; 255
    1176:	7f 4f       	sbci	r23, 0xFF	; 255
    1178:	8c e9       	ldi	r24, 0x9C	; 156
    117a:	96 e2       	ldi	r25, 0x26	; 38
    117c:	0e 94 bf 2c 	call	0x597e	; 0x597e <f_write>
		
	} while(FLASH_dataStruct.array[0] == 0xAA);
    1180:	a6 96       	adiw	r28, 0x26	; 38
    1182:	8f ad       	ldd	r24, Y+63	; 0x3f
    1184:	a6 97       	sbiw	r28, 0x26	; 38
    1186:	8a 3a       	cpi	r24, 0xAA	; 170
    1188:	81 f4       	brne	.+32     	; 0x11aa <main+0x542>
	
	FLASH_dataStruct_t FLASH_dataStruct;
	char string[100];
	uint32_t position = 0;
	do{
		FLASH_arrayRead(position, FLASH_dataStruct.array, 64);
    118a:	00 e4       	ldi	r16, 0x40	; 64
    118c:	10 e0       	ldi	r17, 0x00	; 0
    118e:	20 e0       	ldi	r18, 0x00	; 0
    1190:	30 e0       	ldi	r19, 0x00	; 0
    1192:	ae 01       	movw	r20, r28
    1194:	4b 59       	subi	r20, 0x9B	; 155
    1196:	5f 4f       	sbci	r21, 0xFF	; 255
    1198:	c5 01       	movw	r24, r10
    119a:	b4 01       	movw	r22, r8
    119c:	0e 94 91 3c 	call	0x7922	; 0x7922 <FLASH_arrayRead>
		if(FLASH_dataStruct.array[0] != 0xAA) break;	//jeli brak zapisanych danych, zakocz przepisywanie
    11a0:	a6 96       	adiw	r28, 0x26	; 38
    11a2:	8f ad       	ldd	r24, Y+63	; 0x3f
    11a4:	a6 97       	sbiw	r28, 0x26	; 38
    11a6:	8a 3a       	cpi	r24, 0xAA	; 170
    11a8:	99 f2       	breq	.-90     	; 0x1150 <main+0x4e8>
		position += 64;
		prepareFrameFlash(&FLASH_dataStruct, string);
		f_write(&pomiar, string, 94, &bw);
		
	} while(FLASH_dataStruct.array[0] == 0xAA);
	f_close(&pomiar);
    11aa:	8c e9       	ldi	r24, 0x9C	; 156
    11ac:	96 e2       	ldi	r25, 0x26	; 38
    11ae:	0e 94 ed 2e 	call	0x5dda	; 0x5dda <f_close>
    11b2:	bb cd       	rjmp	.-1162   	; 0xd2a <main+0xc2>
					MOV_valve_close();
					timer_buffer = Clock_d.time+10;
					break;
					//-----Step 7---------------- zamknicie paliwa
					case 7:
					MFV_valve_close();
    11b4:	0e 94 fd 3f 	call	0x7ffa	; 0x7ffa <MFV_valve_close>
					FPV_valve_close();
    11b8:	0e 94 15 40 	call	0x802a	; 0x802a <FPV_valve_close>
					SERVO_close();
    11bc:	0e 94 20 40 	call	0x8040	; 0x8040 <SERVO_close>
					MPV_valve_open();	//gaszenie
    11c0:	0e 94 09 40 	call	0x8012	; 0x8012 <MPV_valve_open>
					timer_buffer = Clock_d.time+500;
    11c4:	40 90 27 26 	lds	r4, 0x2627	; 0x802627 <Clock_d>
    11c8:	50 90 28 26 	lds	r5, 0x2628	; 0x802628 <Clock_d+0x1>
    11cc:	60 90 29 26 	lds	r6, 0x2629	; 0x802629 <Clock_d+0x2>
    11d0:	70 90 2a 26 	lds	r7, 0x262A	; 0x80262a <Clock_d+0x3>
    11d4:	f4 ef       	ldi	r31, 0xF4	; 244
    11d6:	4f 0e       	add	r4, r31
    11d8:	f1 e0       	ldi	r31, 0x01	; 1
    11da:	5f 1e       	adc	r5, r31
    11dc:	61 1c       	adc	r6, r1
    11de:	71 1c       	adc	r7, r1
					break;
    11e0:	a4 cd       	rjmp	.-1208   	; 0xd2a <main+0xc2>
					SERVO_open();
					timer_buffer = Clock_d.time+stan_d.FireTime;
					break;
					//-----Step 6---------------- zamknicie n2o
					case 6:
					MOV_valve_close();
    11e2:	0e 94 05 40 	call	0x800a	; 0x800a <MOV_valve_close>
					timer_buffer = Clock_d.time+10;
    11e6:	40 90 27 26 	lds	r4, 0x2627	; 0x802627 <Clock_d>
    11ea:	50 90 28 26 	lds	r5, 0x2628	; 0x802628 <Clock_d+0x1>
    11ee:	60 90 29 26 	lds	r6, 0x2629	; 0x802629 <Clock_d+0x2>
    11f2:	70 90 2a 26 	lds	r7, 0x262A	; 0x80262a <Clock_d+0x3>
    11f6:	ea e0       	ldi	r30, 0x0A	; 10
    11f8:	4e 0e       	add	r4, r30
    11fa:	51 1c       	adc	r5, r1
    11fc:	61 1c       	adc	r6, r1
    11fe:	71 1c       	adc	r7, r1
					break;
    1200:	94 cd       	rjmp	.-1240   	; 0xd2a <main+0xc2>
					Ignition_active();
					timer_buffer = Clock_d.time+100;  //!!!!!!!!!!!!!!!!!!!!!!!!!!!!!!!!!!!!!!!!!!!!!!!!!!!!!!!!!!!! 5s
					break;
					//----- Step 3---------------- zapalnik off
					case 3:
					Ignition_inactive();
    1202:	0e 94 f5 3f 	call	0x7fea	; 0x7fea <Ignition_inactive>
					timer_buffer = Clock_d.time+stan_d.IgnTime-100;  //!!!!!!!!!!!!!!!!!!!!!!!!!!!!!!!!!!!!!!!!!!!!!!!!!!!!!!!!!!!! 5s
    1206:	40 90 27 26 	lds	r4, 0x2627	; 0x802627 <Clock_d>
    120a:	50 90 28 26 	lds	r5, 0x2628	; 0x802628 <Clock_d+0x1>
    120e:	60 90 29 26 	lds	r6, 0x2629	; 0x802629 <Clock_d+0x2>
    1212:	70 90 2a 26 	lds	r7, 0x262A	; 0x80262a <Clock_d+0x3>
    1216:	80 91 18 26 	lds	r24, 0x2618	; 0x802618 <stan_d+0x9>
    121a:	90 91 19 26 	lds	r25, 0x2619	; 0x802619 <stan_d+0xa>
    121e:	a0 91 1a 26 	lds	r26, 0x261A	; 0x80261a <stan_d+0xb>
    1222:	b0 91 1b 26 	lds	r27, 0x261B	; 0x80261b <stan_d+0xc>
    1226:	48 0e       	add	r4, r24
    1228:	59 1e       	adc	r5, r25
    122a:	6a 1e       	adc	r6, r26
    122c:	7b 1e       	adc	r7, r27
    122e:	a4 e6       	ldi	r26, 0x64	; 100
    1230:	4a 1a       	sub	r4, r26
    1232:	51 08       	sbc	r5, r1
    1234:	61 08       	sbc	r6, r1
    1236:	71 08       	sbc	r7, r1
					break;
    1238:	78 cd       	rjmp	.-1296   	; 0xd2a <main+0xc2>
					Light_Red();
					timer_buffer = Clock_d.time+1000;
					break;
					//----- Step 2---------------- zapalnik
					case 2:
					Buzzer_inactive();
    123a:	0e 94 2b 40 	call	0x8056	; 0x8056 <Buzzer_inactive>
					Ignition_active();
    123e:	0e 94 f1 3f 	call	0x7fe2	; 0x7fe2 <Ignition_active>
					timer_buffer = Clock_d.time+100;  //!!!!!!!!!!!!!!!!!!!!!!!!!!!!!!!!!!!!!!!!!!!!!!!!!!!!!!!!!!!! 5s
    1242:	40 90 27 26 	lds	r4, 0x2627	; 0x802627 <Clock_d>
    1246:	50 90 28 26 	lds	r5, 0x2628	; 0x802628 <Clock_d+0x1>
    124a:	60 90 29 26 	lds	r6, 0x2629	; 0x802629 <Clock_d+0x2>
    124e:	70 90 2a 26 	lds	r7, 0x262A	; 0x80262a <Clock_d+0x3>
    1252:	94 e6       	ldi	r25, 0x64	; 100
    1254:	49 0e       	add	r4, r25
    1256:	51 1c       	adc	r5, r1
    1258:	61 1c       	adc	r6, r1
    125a:	71 1c       	adc	r7, r1
					break;
    125c:	66 cd       	rjmp	.-1332   	; 0xd2a <main+0xc2>
					LED_PORT.OUTSET = LED3;
					stan_d.State = 1;
					break;
					//----- Step 1---------------- rozruch
					case 1:
					Buzzer_active();
    125e:	0e 94 27 40 	call	0x804e	; 0x804e <Buzzer_active>
					SERVO_close();
    1262:	0e 94 20 40 	call	0x8040	; 0x8040 <SERVO_close>
					Light_Red();
    1266:	0e 94 33 40 	call	0x8066	; 0x8066 <Light_Red>
					timer_buffer = Clock_d.time+1000;
    126a:	40 90 27 26 	lds	r4, 0x2627	; 0x802627 <Clock_d>
    126e:	50 90 28 26 	lds	r5, 0x2628	; 0x802628 <Clock_d+0x1>
    1272:	60 90 29 26 	lds	r6, 0x2629	; 0x802629 <Clock_d+0x2>
    1276:	70 90 2a 26 	lds	r7, 0x262A	; 0x80262a <Clock_d+0x3>
    127a:	88 ee       	ldi	r24, 0xE8	; 232
    127c:	48 0e       	add	r4, r24
    127e:	83 e0       	ldi	r24, 0x03	; 3
    1280:	58 1e       	adc	r5, r24
    1282:	61 1c       	adc	r6, r1
    1284:	71 1c       	adc	r7, r1
					break;
    1286:	51 cd       	rjmp	.-1374   	; 0xd2a <main+0xc2>
		else if((stan_d.armed_trigger == true) && (stan_d.run_trigger == true) && (stan_d.IgnTime != 0)) {
			if(timer_buffer <= Clock_d.time){
				stan_d.State++;
				switch(stan_d.State){
					case 0:
					LED_PORT.OUTSET = LED3;
    1288:	30 92 a5 06 	sts	0x06A5, r3	; 0x8006a5 <__TEXT_REGION_LENGTH__+0x7006a5>
					stan_d.State = 1;
    128c:	81 e0       	ldi	r24, 0x01	; 1
    128e:	80 93 17 26 	sts	0x2617, r24	; 0x802617 <stan_d+0x8>
					break;
    1292:	4b cd       	rjmp	.-1386   	; 0xd2a <main+0xc2>
					SERVO_open();
					timer_buffer = Clock_d.time+50;	//500ms opnienia
					break;
					//-----Step 5---------------- otwarcie paliwa
					case 5:
					Ignition_inactive();
    1294:	0e 94 f5 3f 	call	0x7fea	; 0x7fea <Ignition_inactive>
					MFV_valve_open();
    1298:	0e 94 f9 3f 	call	0x7ff2	; 0x7ff2 <MFV_valve_open>
					SERVO_open();
    129c:	0e 94 19 40 	call	0x8032	; 0x8032 <SERVO_open>
					timer_buffer = Clock_d.time+stan_d.FireTime;
    12a0:	40 90 1c 26 	lds	r4, 0x261C	; 0x80261c <stan_d+0xd>
    12a4:	50 90 1d 26 	lds	r5, 0x261D	; 0x80261d <stan_d+0xe>
    12a8:	60 90 1e 26 	lds	r6, 0x261E	; 0x80261e <stan_d+0xf>
    12ac:	70 90 1f 26 	lds	r7, 0x261F	; 0x80261f <stan_d+0x10>
    12b0:	80 91 27 26 	lds	r24, 0x2627	; 0x802627 <Clock_d>
    12b4:	90 91 28 26 	lds	r25, 0x2628	; 0x802628 <Clock_d+0x1>
    12b8:	a0 91 29 26 	lds	r26, 0x2629	; 0x802629 <Clock_d+0x2>
    12bc:	b0 91 2a 26 	lds	r27, 0x262A	; 0x80262a <Clock_d+0x3>
    12c0:	48 0e       	add	r4, r24
    12c2:	59 1e       	adc	r5, r25
    12c4:	6a 1e       	adc	r6, r26
    12c6:	7b 1e       	adc	r7, r27
					break;
    12c8:	30 cd       	rjmp	.-1440   	; 0xd2a <main+0xc2>
					Ignition_inactive();
					timer_buffer = Clock_d.time+stan_d.IgnTime-100;  //!!!!!!!!!!!!!!!!!!!!!!!!!!!!!!!!!!!!!!!!!!!!!!!!!!!!!!!!!!!! 5s
					break;
					//-----Step 4----------------- otwarcie n2o
					case 4:
					Ignition_inactive();
    12ca:	0e 94 f5 3f 	call	0x7fea	; 0x7fea <Ignition_inactive>
					MOV_valve_open();
    12ce:	0e 94 01 40 	call	0x8002	; 0x8002 <MOV_valve_open>
					SERVO_open();
    12d2:	0e 94 19 40 	call	0x8032	; 0x8032 <SERVO_open>
					timer_buffer = Clock_d.time+50;	//500ms opnienia
    12d6:	40 90 27 26 	lds	r4, 0x2627	; 0x802627 <Clock_d>
    12da:	50 90 28 26 	lds	r5, 0x2628	; 0x802628 <Clock_d+0x1>
    12de:	60 90 29 26 	lds	r6, 0x2629	; 0x802629 <Clock_d+0x2>
    12e2:	70 90 2a 26 	lds	r7, 0x262A	; 0x80262a <Clock_d+0x3>
    12e6:	b2 e3       	ldi	r27, 0x32	; 50
    12e8:	4b 0e       	add	r4, r27
    12ea:	51 1c       	adc	r5, r1
    12ec:	61 1c       	adc	r6, r1
    12ee:	71 1c       	adc	r7, r1
					break;
    12f0:	1c cd       	rjmp	.-1480   	; 0xd2a <main+0xc2>

void FLASH_move2SD(void){
	char filename[9];
	FindNextFilename(filename);
	if (f_open(&pomiar, filename, FA_WRITE | FA_CREATE_ALWAYS) == FR_OK){
		f_write(&pomiar, "IGN, MFV, MOV, WPV, FPV, Press3, Press4, Press 5, Press 6, Temp 1, Temp 2, Temp3, Temp4, Count\r", 95, &bw);
    12f2:	2e eb       	ldi	r18, 0xBE	; 190
    12f4:	38 e2       	ldi	r19, 0x28	; 40
    12f6:	4f e5       	ldi	r20, 0x5F	; 95
    12f8:	50 e0       	ldi	r21, 0x00	; 0
    12fa:	60 e0       	ldi	r22, 0x00	; 0
    12fc:	70 e2       	ldi	r23, 0x20	; 32
    12fe:	8c e9       	ldi	r24, 0x9C	; 156
    1300:	96 e2       	ldi	r25, 0x26	; 38
    1302:	0e 94 bf 2c 	call	0x597e	; 0x597e <f_write>
    1306:	20 cf       	rjmp	.-448    	; 0x1148 <main+0x4e0>

00001308 <sync_window.part.5>:
		}
		else {					/* Dynamic table */
			if ((ofs / SS(fs) & (fs->csize - 1)) == 0) {		/* Cluster changed? */
				clst = get_fat(&dp->obj, dp->clust);			/* Get next cluster */
				if (clst <= 1) return FR_INT_ERR;				/* Internal error */
				if (clst == 0xFFFFFFFF) return FR_DISK_ERR;		/* Disk error */
    1308:	8f 92       	push	r8
    130a:	9f 92       	push	r9
    130c:	af 92       	push	r10
    130e:	bf 92       	push	r11
    1310:	cf 92       	push	r12
    1312:	df 92       	push	r13
    1314:	ef 92       	push	r14
    1316:	ff 92       	push	r15
    1318:	0f 93       	push	r16
    131a:	1f 93       	push	r17
    131c:	cf 93       	push	r28
    131e:	df 93       	push	r29
    1320:	ec 01       	movw	r28, r24
    1322:	cf a4       	ldd	r12, Y+47	; 0x2f
    1324:	d8 a8       	ldd	r13, Y+48	; 0x30
    1326:	e9 a8       	ldd	r14, Y+49	; 0x31
    1328:	fa a8       	ldd	r15, Y+50	; 0x32
    132a:	5c 01       	movw	r10, r24
    132c:	03 e3       	ldi	r16, 0x33	; 51
    132e:	a0 0e       	add	r10, r16
    1330:	b1 1c       	adc	r11, r1
    1332:	01 e0       	ldi	r16, 0x01	; 1
    1334:	10 e0       	ldi	r17, 0x00	; 0
    1336:	a7 01       	movw	r20, r14
    1338:	96 01       	movw	r18, r12
    133a:	b5 01       	movw	r22, r10
    133c:	89 81       	ldd	r24, Y+1	; 0x01
    133e:	0e 94 6d 3b 	call	0x76da	; 0x76da <disk_write>
    1342:	81 11       	cpse	r24, r1
    1344:	40 c0       	rjmp	.+128    	; 0x13c6 <sync_window.part.5+0xbe>
    1346:	1b 82       	std	Y+3, r1	; 0x03
    1348:	8b 8d       	ldd	r24, Y+27	; 0x1b
    134a:	9c 8d       	ldd	r25, Y+28	; 0x1c
    134c:	ad 8d       	ldd	r26, Y+29	; 0x1d
    134e:	be 8d       	ldd	r27, Y+30	; 0x1e
    1350:	4b a1       	ldd	r20, Y+35	; 0x23
    1352:	5c a1       	ldd	r21, Y+36	; 0x24
    1354:	6d a1       	ldd	r22, Y+37	; 0x25
    1356:	7e a1       	ldd	r23, Y+38	; 0x26
    1358:	97 01       	movw	r18, r14
    135a:	86 01       	movw	r16, r12
    135c:	04 1b       	sub	r16, r20
    135e:	15 0b       	sbc	r17, r21
    1360:	26 0b       	sbc	r18, r22
    1362:	37 0b       	sbc	r19, r23
    1364:	08 17       	cp	r16, r24
    1366:	19 07       	cpc	r17, r25
    1368:	2a 07       	cpc	r18, r26
    136a:	3b 07       	cpc	r19, r27
    136c:	f0 f4       	brcc	.+60     	; 0x13aa <sync_window.part.5+0xa2>
    136e:	8a 80       	ldd	r8, Y+2	; 0x02
    1370:	91 2c       	mov	r9, r1
    1372:	12 e0       	ldi	r17, 0x02	; 2
    1374:	81 16       	cp	r8, r17
    1376:	91 04       	cpc	r9, r1
    1378:	28 f4       	brcc	.+10     	; 0x1384 <sync_window.part.5+0x7c>
    137a:	17 c0       	rjmp	.+46     	; 0x13aa <sync_window.part.5+0xa2>
    137c:	8b 8d       	ldd	r24, Y+27	; 0x1b
    137e:	9c 8d       	ldd	r25, Y+28	; 0x1c
    1380:	ad 8d       	ldd	r26, Y+29	; 0x1d
    1382:	be 8d       	ldd	r27, Y+30	; 0x1e
    1384:	c8 0e       	add	r12, r24
    1386:	d9 1e       	adc	r13, r25
    1388:	ea 1e       	adc	r14, r26
    138a:	fb 1e       	adc	r15, r27
    138c:	01 e0       	ldi	r16, 0x01	; 1
    138e:	10 e0       	ldi	r17, 0x00	; 0
    1390:	a7 01       	movw	r20, r14
    1392:	96 01       	movw	r18, r12
    1394:	b5 01       	movw	r22, r10
    1396:	89 81       	ldd	r24, Y+1	; 0x01
    1398:	0e 94 6d 3b 	call	0x76da	; 0x76da <disk_write>
    139c:	21 e0       	ldi	r18, 0x01	; 1
    139e:	82 1a       	sub	r8, r18
    13a0:	91 08       	sbc	r9, r1
    13a2:	31 e0       	ldi	r19, 0x01	; 1
    13a4:	83 16       	cp	r8, r19
    13a6:	91 04       	cpc	r9, r1
    13a8:	49 f7       	brne	.-46     	; 0x137c <sync_window.part.5+0x74>
    13aa:	80 e0       	ldi	r24, 0x00	; 0
    13ac:	df 91       	pop	r29
    13ae:	cf 91       	pop	r28
    13b0:	1f 91       	pop	r17
    13b2:	0f 91       	pop	r16
    13b4:	ff 90       	pop	r15
    13b6:	ef 90       	pop	r14
    13b8:	df 90       	pop	r13
    13ba:	cf 90       	pop	r12
    13bc:	bf 90       	pop	r11
    13be:	af 90       	pop	r10
    13c0:	9f 90       	pop	r9
    13c2:	8f 90       	pop	r8
    13c4:	08 95       	ret
    13c6:	81 e0       	ldi	r24, 0x01	; 1
    13c8:	f1 cf       	rjmp	.-30     	; 0x13ac <sync_window.part.5+0xa4>

000013ca <check_fs>:
    13ca:	8f 92       	push	r8
    13cc:	9f 92       	push	r9
    13ce:	af 92       	push	r10
    13d0:	bf 92       	push	r11
    13d2:	cf 92       	push	r12
    13d4:	df 92       	push	r13
    13d6:	ef 92       	push	r14
    13d8:	ff 92       	push	r15
    13da:	0f 93       	push	r16
    13dc:	1f 93       	push	r17
    13de:	cf 93       	push	r28
    13e0:	df 93       	push	r29
    13e2:	ec 01       	movw	r28, r24
    13e4:	6a 01       	movw	r12, r20
    13e6:	7b 01       	movw	r14, r22
    13e8:	1b 82       	std	Y+3, r1	; 0x03
    13ea:	88 24       	eor	r8, r8
    13ec:	8a 94       	dec	r8
    13ee:	98 2c       	mov	r9, r8
    13f0:	54 01       	movw	r10, r8
    13f2:	8f a6       	std	Y+47, r8	; 0x2f
    13f4:	98 aa       	std	Y+48, r9	; 0x30
    13f6:	a9 aa       	std	Y+49, r10	; 0x31
    13f8:	ba aa       	std	Y+50, r11	; 0x32
    13fa:	4f 3f       	cpi	r20, 0xFF	; 255
    13fc:	2f ef       	ldi	r18, 0xFF	; 255
    13fe:	52 07       	cpc	r21, r18
    1400:	62 07       	cpc	r22, r18
    1402:	72 07       	cpc	r23, r18
    1404:	81 f0       	breq	.+32     	; 0x1426 <check_fs+0x5c>
    1406:	01 e0       	ldi	r16, 0x01	; 1
    1408:	10 e0       	ldi	r17, 0x00	; 0
    140a:	9a 01       	movw	r18, r20
    140c:	ab 01       	movw	r20, r22
    140e:	bc 01       	movw	r22, r24
    1410:	6d 5c       	subi	r22, 0xCD	; 205
    1412:	7f 4f       	sbci	r23, 0xFF	; 255
    1414:	89 81       	ldd	r24, Y+1	; 0x01
    1416:	0e 94 59 3b 	call	0x76b2	; 0x76b2 <disk_read>
    141a:	81 11       	cpse	r24, r1
    141c:	1f c0       	rjmp	.+62     	; 0x145c <check_fs+0x92>
    141e:	cf a6       	std	Y+47, r12	; 0x2f
    1420:	d8 aa       	std	Y+48, r13	; 0x30
    1422:	e9 aa       	std	Y+49, r14	; 0x31
    1424:	fa aa       	std	Y+50, r15	; 0x32
    1426:	fe 01       	movw	r30, r28
    1428:	ee 5c       	subi	r30, 0xCE	; 206
    142a:	fd 4f       	sbci	r31, 0xFD	; 253
    142c:	80 81       	ld	r24, Z
    142e:	90 e0       	ldi	r25, 0x00	; 0
    1430:	98 2f       	mov	r25, r24
    1432:	88 27       	eor	r24, r24
    1434:	31 97       	sbiw	r30, 0x01	; 1
    1436:	20 81       	ld	r18, Z
    1438:	82 2b       	or	r24, r18
    143a:	85 35       	cpi	r24, 0x55	; 85
    143c:	9a 4a       	sbci	r25, 0xAA	; 170
    143e:	a1 f0       	breq	.+40     	; 0x1468 <check_fs+0x9e>
    1440:	83 e0       	ldi	r24, 0x03	; 3
    1442:	df 91       	pop	r29
    1444:	cf 91       	pop	r28
    1446:	1f 91       	pop	r17
    1448:	0f 91       	pop	r16
    144a:	ff 90       	pop	r15
    144c:	ef 90       	pop	r14
    144e:	df 90       	pop	r13
    1450:	cf 90       	pop	r12
    1452:	bf 90       	pop	r11
    1454:	af 90       	pop	r10
    1456:	9f 90       	pop	r9
    1458:	8f 90       	pop	r8
    145a:	08 95       	ret
    145c:	8f a6       	std	Y+47, r8	; 0x2f
    145e:	98 aa       	std	Y+48, r9	; 0x30
    1460:	a9 aa       	std	Y+49, r10	; 0x31
    1462:	ba aa       	std	Y+50, r11	; 0x32
    1464:	84 e0       	ldi	r24, 0x04	; 4
    1466:	ed cf       	rjmp	.-38     	; 0x1442 <check_fs+0x78>
    1468:	8b a9       	ldd	r24, Y+51	; 0x33
    146a:	89 3e       	cpi	r24, 0xE9	; 233
    146c:	39 f0       	breq	.+14     	; 0x147c <check_fs+0xb2>
    146e:	8b 3e       	cpi	r24, 0xEB	; 235
    1470:	11 f0       	breq	.+4      	; 0x1476 <check_fs+0xac>
    1472:	82 e0       	ldi	r24, 0x02	; 2
    1474:	e6 cf       	rjmp	.-52     	; 0x1442 <check_fs+0x78>
    1476:	8d a9       	ldd	r24, Y+53	; 0x35
    1478:	80 39       	cpi	r24, 0x90	; 144
    147a:	d9 f7       	brne	.-10     	; 0x1472 <check_fs+0xa8>
    147c:	fe 01       	movw	r30, r28
    147e:	e4 59       	subi	r30, 0x94	; 148
    1480:	ff 4f       	sbci	r31, 0xFF	; 255
    1482:	80 81       	ld	r24, Z
    1484:	90 e0       	ldi	r25, 0x00	; 0
    1486:	a0 e0       	ldi	r26, 0x00	; 0
    1488:	b0 e0       	ldi	r27, 0x00	; 0
    148a:	ba 2f       	mov	r27, r26
    148c:	a9 2f       	mov	r26, r25
    148e:	98 2f       	mov	r25, r24
    1490:	88 27       	eor	r24, r24
    1492:	31 97       	sbiw	r30, 0x01	; 1
    1494:	20 81       	ld	r18, Z
    1496:	82 2b       	or	r24, r18
    1498:	ba 2f       	mov	r27, r26
    149a:	a9 2f       	mov	r26, r25
    149c:	98 2f       	mov	r25, r24
    149e:	88 27       	eor	r24, r24
    14a0:	31 97       	sbiw	r30, 0x01	; 1
    14a2:	20 81       	ld	r18, Z
    14a4:	82 2b       	or	r24, r18
    14a6:	ba 2f       	mov	r27, r26
    14a8:	a9 2f       	mov	r26, r25
    14aa:	98 2f       	mov	r25, r24
    14ac:	88 27       	eor	r24, r24
    14ae:	31 97       	sbiw	r30, 0x01	; 1
    14b0:	20 81       	ld	r18, Z
    14b2:	82 2b       	or	r24, r18
    14b4:	bb 27       	eor	r27, r27
    14b6:	86 34       	cpi	r24, 0x46	; 70
    14b8:	91 44       	sbci	r25, 0x41	; 65
    14ba:	a4 45       	sbci	r26, 0x54	; 84
    14bc:	b1 05       	cpc	r27, r1
    14be:	09 f1       	breq	.+66     	; 0x1502 <check_fs+0x138>
    14c0:	7f 96       	adiw	r30, 0x1f	; 31
    14c2:	80 81       	ld	r24, Z
    14c4:	90 e0       	ldi	r25, 0x00	; 0
    14c6:	a0 e0       	ldi	r26, 0x00	; 0
    14c8:	b0 e0       	ldi	r27, 0x00	; 0
    14ca:	ba 2f       	mov	r27, r26
    14cc:	a9 2f       	mov	r26, r25
    14ce:	98 2f       	mov	r25, r24
    14d0:	88 27       	eor	r24, r24
    14d2:	31 97       	sbiw	r30, 0x01	; 1
    14d4:	20 81       	ld	r18, Z
    14d6:	82 2b       	or	r24, r18
    14d8:	ba 2f       	mov	r27, r26
    14da:	a9 2f       	mov	r26, r25
    14dc:	98 2f       	mov	r25, r24
    14de:	88 27       	eor	r24, r24
    14e0:	31 97       	sbiw	r30, 0x01	; 1
    14e2:	20 81       	ld	r18, Z
    14e4:	82 2b       	or	r24, r18
    14e6:	ba 2f       	mov	r27, r26
    14e8:	a9 2f       	mov	r26, r25
    14ea:	98 2f       	mov	r25, r24
    14ec:	88 27       	eor	r24, r24
    14ee:	cb 57       	subi	r28, 0x7B	; 123
    14f0:	df 4f       	sbci	r29, 0xFF	; 255
    14f2:	28 81       	ld	r18, Y
    14f4:	82 2b       	or	r24, r18
    14f6:	86 34       	cpi	r24, 0x46	; 70
    14f8:	91 44       	sbci	r25, 0x41	; 65
    14fa:	a4 45       	sbci	r26, 0x54	; 84
    14fc:	b3 43       	sbci	r27, 0x33	; 51
    14fe:	09 f0       	breq	.+2      	; 0x1502 <check_fs+0x138>
    1500:	b8 cf       	rjmp	.-144    	; 0x1472 <check_fs+0xa8>
    1502:	80 e0       	ldi	r24, 0x00	; 0
    1504:	9e cf       	rjmp	.-196    	; 0x1442 <check_fs+0x78>

00001506 <move_window>:
    1506:	4f 92       	push	r4
    1508:	5f 92       	push	r5
    150a:	6f 92       	push	r6
    150c:	7f 92       	push	r7
    150e:	8f 92       	push	r8
    1510:	9f 92       	push	r9
    1512:	af 92       	push	r10
    1514:	bf 92       	push	r11
    1516:	cf 92       	push	r12
    1518:	df 92       	push	r13
    151a:	ef 92       	push	r14
    151c:	ff 92       	push	r15
    151e:	0f 93       	push	r16
    1520:	1f 93       	push	r17
    1522:	cf 93       	push	r28
    1524:	df 93       	push	r29
    1526:	ec 01       	movw	r28, r24
    1528:	2a 01       	movw	r4, r20
    152a:	3b 01       	movw	r6, r22
    152c:	cf a4       	ldd	r12, Y+47	; 0x2f
    152e:	d8 a8       	ldd	r13, Y+48	; 0x30
    1530:	e9 a8       	ldd	r14, Y+49	; 0x31
    1532:	fa a8       	ldd	r15, Y+50	; 0x32
    1534:	c4 16       	cp	r12, r20
    1536:	d5 06       	cpc	r13, r21
    1538:	e6 06       	cpc	r14, r22
    153a:	f7 06       	cpc	r15, r23
    153c:	09 f4       	brne	.+2      	; 0x1540 <move_window+0x3a>
    153e:	6f c0       	rjmp	.+222    	; 0x161e <move_window+0x118>
    1540:	8b 81       	ldd	r24, Y+3	; 0x03
    1542:	81 11       	cpse	r24, r1
    1544:	28 c0       	rjmp	.+80     	; 0x1596 <move_window+0x90>
    1546:	8e 01       	movw	r16, r28
    1548:	0d 5c       	subi	r16, 0xCD	; 205
    154a:	1f 4f       	sbci	r17, 0xFF	; 255
    154c:	58 01       	movw	r10, r16
    154e:	01 e0       	ldi	r16, 0x01	; 1
    1550:	10 e0       	ldi	r17, 0x00	; 0
    1552:	a3 01       	movw	r20, r6
    1554:	92 01       	movw	r18, r4
    1556:	b5 01       	movw	r22, r10
    1558:	89 81       	ldd	r24, Y+1	; 0x01
    155a:	0e 94 59 3b 	call	0x76b2	; 0x76b2 <disk_read>
    155e:	88 23       	and	r24, r24
    1560:	29 f0       	breq	.+10     	; 0x156c <move_window+0x66>
    1562:	81 e0       	ldi	r24, 0x01	; 1
    1564:	44 24       	eor	r4, r4
    1566:	4a 94       	dec	r4
    1568:	54 2c       	mov	r5, r4
    156a:	32 01       	movw	r6, r4
    156c:	4f a6       	std	Y+47, r4	; 0x2f
    156e:	58 aa       	std	Y+48, r5	; 0x30
    1570:	69 aa       	std	Y+49, r6	; 0x31
    1572:	7a aa       	std	Y+50, r7	; 0x32
    1574:	df 91       	pop	r29
    1576:	cf 91       	pop	r28
    1578:	1f 91       	pop	r17
    157a:	0f 91       	pop	r16
    157c:	ff 90       	pop	r15
    157e:	ef 90       	pop	r14
    1580:	df 90       	pop	r13
    1582:	cf 90       	pop	r12
    1584:	bf 90       	pop	r11
    1586:	af 90       	pop	r10
    1588:	9f 90       	pop	r9
    158a:	8f 90       	pop	r8
    158c:	7f 90       	pop	r7
    158e:	6f 90       	pop	r6
    1590:	5f 90       	pop	r5
    1592:	4f 90       	pop	r4
    1594:	08 95       	ret
    1596:	5e 01       	movw	r10, r28
    1598:	13 e3       	ldi	r17, 0x33	; 51
    159a:	a1 0e       	add	r10, r17
    159c:	b1 1c       	adc	r11, r1
    159e:	01 e0       	ldi	r16, 0x01	; 1
    15a0:	10 e0       	ldi	r17, 0x00	; 0
    15a2:	a7 01       	movw	r20, r14
    15a4:	96 01       	movw	r18, r12
    15a6:	b5 01       	movw	r22, r10
    15a8:	89 81       	ldd	r24, Y+1	; 0x01
    15aa:	0e 94 6d 3b 	call	0x76da	; 0x76da <disk_write>
    15ae:	81 11       	cpse	r24, r1
    15b0:	34 c0       	rjmp	.+104    	; 0x161a <move_window+0x114>
    15b2:	1b 82       	std	Y+3, r1	; 0x03
    15b4:	8b 8d       	ldd	r24, Y+27	; 0x1b
    15b6:	9c 8d       	ldd	r25, Y+28	; 0x1c
    15b8:	ad 8d       	ldd	r26, Y+29	; 0x1d
    15ba:	be 8d       	ldd	r27, Y+30	; 0x1e
    15bc:	4b a1       	ldd	r20, Y+35	; 0x23
    15be:	5c a1       	ldd	r21, Y+36	; 0x24
    15c0:	6d a1       	ldd	r22, Y+37	; 0x25
    15c2:	7e a1       	ldd	r23, Y+38	; 0x26
    15c4:	97 01       	movw	r18, r14
    15c6:	86 01       	movw	r16, r12
    15c8:	04 1b       	sub	r16, r20
    15ca:	15 0b       	sbc	r17, r21
    15cc:	26 0b       	sbc	r18, r22
    15ce:	37 0b       	sbc	r19, r23
    15d0:	08 17       	cp	r16, r24
    15d2:	19 07       	cpc	r17, r25
    15d4:	2a 07       	cpc	r18, r26
    15d6:	3b 07       	cpc	r19, r27
    15d8:	08 f0       	brcs	.+2      	; 0x15dc <move_window+0xd6>
    15da:	b9 cf       	rjmp	.-142    	; 0x154e <move_window+0x48>
    15dc:	8a 80       	ldd	r8, Y+2	; 0x02
    15de:	91 2c       	mov	r9, r1
    15e0:	12 e0       	ldi	r17, 0x02	; 2
    15e2:	81 16       	cp	r8, r17
    15e4:	91 04       	cpc	r9, r1
    15e6:	28 f4       	brcc	.+10     	; 0x15f2 <move_window+0xec>
    15e8:	b2 cf       	rjmp	.-156    	; 0x154e <move_window+0x48>
    15ea:	8b 8d       	ldd	r24, Y+27	; 0x1b
    15ec:	9c 8d       	ldd	r25, Y+28	; 0x1c
    15ee:	ad 8d       	ldd	r26, Y+29	; 0x1d
    15f0:	be 8d       	ldd	r27, Y+30	; 0x1e
    15f2:	c8 0e       	add	r12, r24
    15f4:	d9 1e       	adc	r13, r25
    15f6:	ea 1e       	adc	r14, r26
    15f8:	fb 1e       	adc	r15, r27
    15fa:	01 e0       	ldi	r16, 0x01	; 1
    15fc:	10 e0       	ldi	r17, 0x00	; 0
    15fe:	a7 01       	movw	r20, r14
    1600:	96 01       	movw	r18, r12
    1602:	b5 01       	movw	r22, r10
    1604:	89 81       	ldd	r24, Y+1	; 0x01
    1606:	0e 94 6d 3b 	call	0x76da	; 0x76da <disk_write>
    160a:	21 e0       	ldi	r18, 0x01	; 1
    160c:	82 1a       	sub	r8, r18
    160e:	91 08       	sbc	r9, r1
    1610:	31 e0       	ldi	r19, 0x01	; 1
    1612:	83 16       	cp	r8, r19
    1614:	91 04       	cpc	r9, r1
    1616:	49 f7       	brne	.-46     	; 0x15ea <move_window+0xe4>
    1618:	9a cf       	rjmp	.-204    	; 0x154e <move_window+0x48>
    161a:	81 e0       	ldi	r24, 0x01	; 1
    161c:	ab cf       	rjmp	.-170    	; 0x1574 <move_window+0x6e>
    161e:	80 e0       	ldi	r24, 0x00	; 0
    1620:	a9 cf       	rjmp	.-174    	; 0x1574 <move_window+0x6e>

00001622 <sync_fs>:
    1622:	8f 92       	push	r8
    1624:	9f 92       	push	r9
    1626:	af 92       	push	r10
    1628:	bf 92       	push	r11
    162a:	cf 92       	push	r12
    162c:	df 92       	push	r13
    162e:	ef 92       	push	r14
    1630:	ff 92       	push	r15
    1632:	0f 93       	push	r16
    1634:	1f 93       	push	r17
    1636:	cf 93       	push	r28
    1638:	df 93       	push	r29
    163a:	ec 01       	movw	r28, r24
    163c:	8b 81       	ldd	r24, Y+3	; 0x03
    163e:	81 11       	cpse	r24, r1
    1640:	1d c0       	rjmp	.+58     	; 0x167c <sync_fs+0x5a>
    1642:	88 81       	ld	r24, Y
    1644:	83 30       	cpi	r24, 0x03	; 3
    1646:	09 f4       	brne	.+2      	; 0x164a <sync_fs+0x28>
    1648:	61 c0       	rjmp	.+194    	; 0x170c <sync_fs+0xea>
    164a:	40 e0       	ldi	r20, 0x00	; 0
    164c:	50 e0       	ldi	r21, 0x00	; 0
    164e:	60 e0       	ldi	r22, 0x00	; 0
    1650:	89 81       	ldd	r24, Y+1	; 0x01
    1652:	0e 94 81 3b 	call	0x7702	; 0x7702 <disk_ioctl>
    1656:	91 e0       	ldi	r25, 0x01	; 1
    1658:	88 23       	and	r24, r24
    165a:	71 f0       	breq	.+28     	; 0x1678 <sync_fs+0x56>
    165c:	89 2f       	mov	r24, r25
    165e:	df 91       	pop	r29
    1660:	cf 91       	pop	r28
    1662:	1f 91       	pop	r17
    1664:	0f 91       	pop	r16
    1666:	ff 90       	pop	r15
    1668:	ef 90       	pop	r14
    166a:	df 90       	pop	r13
    166c:	cf 90       	pop	r12
    166e:	bf 90       	pop	r11
    1670:	af 90       	pop	r10
    1672:	9f 90       	pop	r9
    1674:	8f 90       	pop	r8
    1676:	08 95       	ret
    1678:	90 e0       	ldi	r25, 0x00	; 0
    167a:	f0 cf       	rjmp	.-32     	; 0x165c <sync_fs+0x3a>
    167c:	cf a4       	ldd	r12, Y+47	; 0x2f
    167e:	d8 a8       	ldd	r13, Y+48	; 0x30
    1680:	e9 a8       	ldd	r14, Y+49	; 0x31
    1682:	fa a8       	ldd	r15, Y+50	; 0x32
    1684:	5e 01       	movw	r10, r28
    1686:	03 e3       	ldi	r16, 0x33	; 51
    1688:	a0 0e       	add	r10, r16
    168a:	b1 1c       	adc	r11, r1
    168c:	01 e0       	ldi	r16, 0x01	; 1
    168e:	10 e0       	ldi	r17, 0x00	; 0
    1690:	a7 01       	movw	r20, r14
    1692:	96 01       	movw	r18, r12
    1694:	b5 01       	movw	r22, r10
    1696:	89 81       	ldd	r24, Y+1	; 0x01
    1698:	0e 94 6d 3b 	call	0x76da	; 0x76da <disk_write>
    169c:	81 11       	cpse	r24, r1
    169e:	34 c0       	rjmp	.+104    	; 0x1708 <sync_fs+0xe6>
    16a0:	1b 82       	std	Y+3, r1	; 0x03
    16a2:	8b 8d       	ldd	r24, Y+27	; 0x1b
    16a4:	9c 8d       	ldd	r25, Y+28	; 0x1c
    16a6:	ad 8d       	ldd	r26, Y+29	; 0x1d
    16a8:	be 8d       	ldd	r27, Y+30	; 0x1e
    16aa:	4b a1       	ldd	r20, Y+35	; 0x23
    16ac:	5c a1       	ldd	r21, Y+36	; 0x24
    16ae:	6d a1       	ldd	r22, Y+37	; 0x25
    16b0:	7e a1       	ldd	r23, Y+38	; 0x26
    16b2:	97 01       	movw	r18, r14
    16b4:	86 01       	movw	r16, r12
    16b6:	04 1b       	sub	r16, r20
    16b8:	15 0b       	sbc	r17, r21
    16ba:	26 0b       	sbc	r18, r22
    16bc:	37 0b       	sbc	r19, r23
    16be:	08 17       	cp	r16, r24
    16c0:	19 07       	cpc	r17, r25
    16c2:	2a 07       	cpc	r18, r26
    16c4:	3b 07       	cpc	r19, r27
    16c6:	08 f0       	brcs	.+2      	; 0x16ca <sync_fs+0xa8>
    16c8:	bc cf       	rjmp	.-136    	; 0x1642 <sync_fs+0x20>
    16ca:	8a 80       	ldd	r8, Y+2	; 0x02
    16cc:	91 2c       	mov	r9, r1
    16ce:	12 e0       	ldi	r17, 0x02	; 2
    16d0:	81 16       	cp	r8, r17
    16d2:	91 04       	cpc	r9, r1
    16d4:	28 f4       	brcc	.+10     	; 0x16e0 <sync_fs+0xbe>
    16d6:	b5 cf       	rjmp	.-150    	; 0x1642 <sync_fs+0x20>
    16d8:	8b 8d       	ldd	r24, Y+27	; 0x1b
    16da:	9c 8d       	ldd	r25, Y+28	; 0x1c
    16dc:	ad 8d       	ldd	r26, Y+29	; 0x1d
    16de:	be 8d       	ldd	r27, Y+30	; 0x1e
    16e0:	c8 0e       	add	r12, r24
    16e2:	d9 1e       	adc	r13, r25
    16e4:	ea 1e       	adc	r14, r26
    16e6:	fb 1e       	adc	r15, r27
    16e8:	01 e0       	ldi	r16, 0x01	; 1
    16ea:	10 e0       	ldi	r17, 0x00	; 0
    16ec:	a7 01       	movw	r20, r14
    16ee:	96 01       	movw	r18, r12
    16f0:	b5 01       	movw	r22, r10
    16f2:	89 81       	ldd	r24, Y+1	; 0x01
    16f4:	0e 94 6d 3b 	call	0x76da	; 0x76da <disk_write>
    16f8:	21 e0       	ldi	r18, 0x01	; 1
    16fa:	82 1a       	sub	r8, r18
    16fc:	91 08       	sbc	r9, r1
    16fe:	31 e0       	ldi	r19, 0x01	; 1
    1700:	83 16       	cp	r8, r19
    1702:	91 04       	cpc	r9, r1
    1704:	49 f7       	brne	.-46     	; 0x16d8 <sync_fs+0xb6>
    1706:	9d cf       	rjmp	.-198    	; 0x1642 <sync_fs+0x20>
    1708:	91 e0       	ldi	r25, 0x01	; 1
    170a:	a8 cf       	rjmp	.-176    	; 0x165c <sync_fs+0x3a>
    170c:	8c 81       	ldd	r24, Y+4	; 0x04
    170e:	81 30       	cpi	r24, 0x01	; 1
    1710:	09 f0       	breq	.+2      	; 0x1714 <sync_fs+0xf2>
    1712:	9b cf       	rjmp	.-202    	; 0x164a <sync_fs+0x28>
    1714:	80 e0       	ldi	r24, 0x00	; 0
    1716:	92 e0       	ldi	r25, 0x02	; 2
    1718:	be 01       	movw	r22, r28
    171a:	6d 5c       	subi	r22, 0xCD	; 205
    171c:	7f 4f       	sbci	r23, 0xFF	; 255
    171e:	fb 01       	movw	r30, r22
    1720:	8c 01       	movw	r16, r24
    1722:	11 92       	st	Z+, r1
    1724:	01 50       	subi	r16, 0x01	; 1
    1726:	10 40       	sbci	r17, 0x00	; 0
    1728:	e1 f7       	brne	.-8      	; 0x1722 <sync_fs+0x100>
    172a:	85 e5       	ldi	r24, 0x55	; 85
    172c:	fe 01       	movw	r30, r28
    172e:	ef 5c       	subi	r30, 0xCF	; 207
    1730:	fd 4f       	sbci	r31, 0xFD	; 253
    1732:	80 83       	st	Z, r24
    1734:	8a ea       	ldi	r24, 0xAA	; 170
    1736:	31 96       	adiw	r30, 0x01	; 1
    1738:	80 83       	st	Z, r24
    173a:	82 e5       	ldi	r24, 0x52	; 82
    173c:	8b ab       	std	Y+51, r24	; 0x33
    173e:	8c ab       	std	Y+52, r24	; 0x34
    1740:	81 e6       	ldi	r24, 0x61	; 97
    1742:	8d ab       	std	Y+53, r24	; 0x35
    1744:	91 e4       	ldi	r25, 0x41	; 65
    1746:	9e ab       	std	Y+54, r25	; 0x36
    1748:	22 e7       	ldi	r18, 0x72	; 114
    174a:	7b 97       	sbiw	r30, 0x1b	; 27
    174c:	20 83       	st	Z, r18
    174e:	31 96       	adiw	r30, 0x01	; 1
    1750:	20 83       	st	Z, r18
    1752:	31 96       	adiw	r30, 0x01	; 1
    1754:	90 83       	st	Z, r25
    1756:	31 96       	adiw	r30, 0x01	; 1
    1758:	80 83       	st	Z, r24
    175a:	3f 85       	ldd	r19, Y+15	; 0x0f
    175c:	28 89       	ldd	r18, Y+16	; 0x10
    175e:	99 89       	ldd	r25, Y+17	; 0x11
    1760:	8a 89       	ldd	r24, Y+18	; 0x12
    1762:	31 96       	adiw	r30, 0x01	; 1
    1764:	30 83       	st	Z, r19
    1766:	31 96       	adiw	r30, 0x01	; 1
    1768:	20 83       	st	Z, r18
    176a:	31 96       	adiw	r30, 0x01	; 1
    176c:	90 83       	st	Z, r25
    176e:	31 96       	adiw	r30, 0x01	; 1
    1770:	80 83       	st	Z, r24
    1772:	3b 85       	ldd	r19, Y+11	; 0x0b
    1774:	2c 85       	ldd	r18, Y+12	; 0x0c
    1776:	9d 85       	ldd	r25, Y+13	; 0x0d
    1778:	8e 85       	ldd	r24, Y+14	; 0x0e
    177a:	31 96       	adiw	r30, 0x01	; 1
    177c:	30 83       	st	Z, r19
    177e:	31 96       	adiw	r30, 0x01	; 1
    1780:	20 83       	st	Z, r18
    1782:	31 96       	adiw	r30, 0x01	; 1
    1784:	90 83       	st	Z, r25
    1786:	31 96       	adiw	r30, 0x01	; 1
    1788:	80 83       	st	Z, r24
    178a:	8f 8d       	ldd	r24, Y+31	; 0x1f
    178c:	98 a1       	ldd	r25, Y+32	; 0x20
    178e:	a9 a1       	ldd	r26, Y+33	; 0x21
    1790:	ba a1       	ldd	r27, Y+34	; 0x22
    1792:	9c 01       	movw	r18, r24
    1794:	ad 01       	movw	r20, r26
    1796:	2f 5f       	subi	r18, 0xFF	; 255
    1798:	3f 4f       	sbci	r19, 0xFF	; 255
    179a:	4f 4f       	sbci	r20, 0xFF	; 255
    179c:	5f 4f       	sbci	r21, 0xFF	; 255
    179e:	2f a7       	std	Y+47, r18	; 0x2f
    17a0:	38 ab       	std	Y+48, r19	; 0x30
    17a2:	49 ab       	std	Y+49, r20	; 0x31
    17a4:	5a ab       	std	Y+50, r21	; 0x32
    17a6:	01 e0       	ldi	r16, 0x01	; 1
    17a8:	10 e0       	ldi	r17, 0x00	; 0
    17aa:	89 81       	ldd	r24, Y+1	; 0x01
    17ac:	0e 94 6d 3b 	call	0x76da	; 0x76da <disk_write>
    17b0:	1c 82       	std	Y+4, r1	; 0x04
    17b2:	4b cf       	rjmp	.-362    	; 0x164a <sync_fs+0x28>

000017b4 <find_volume>:
    17b4:	2f 92       	push	r2
    17b6:	3f 92       	push	r3
    17b8:	4f 92       	push	r4
    17ba:	5f 92       	push	r5
    17bc:	6f 92       	push	r6
    17be:	7f 92       	push	r7
    17c0:	8f 92       	push	r8
    17c2:	9f 92       	push	r9
    17c4:	af 92       	push	r10
    17c6:	bf 92       	push	r11
    17c8:	cf 92       	push	r12
    17ca:	df 92       	push	r13
    17cc:	ef 92       	push	r14
    17ce:	ff 92       	push	r15
    17d0:	0f 93       	push	r16
    17d2:	1f 93       	push	r17
    17d4:	cf 93       	push	r28
    17d6:	df 93       	push	r29
    17d8:	cd b7       	in	r28, 0x3d	; 61
    17da:	de b7       	in	r29, 0x3e	; 62
    17dc:	a5 97       	sbiw	r28, 0x25	; 37
    17de:	cd bf       	out	0x3d, r28	; 61
    17e0:	de bf       	out	0x3e, r29	; 62
    17e2:	8c 01       	movw	r16, r24
    17e4:	db 01       	movw	r26, r22
    17e6:	1d 92       	st	X+, r1
    17e8:	1c 92       	st	X, r1
    17ea:	dc 01       	movw	r26, r24
    17ec:	ed 91       	ld	r30, X+
    17ee:	fc 91       	ld	r31, X
    17f0:	30 97       	sbiw	r30, 0x00	; 0
    17f2:	09 f4       	brne	.+2      	; 0x17f6 <find_volume+0x42>
    17f4:	48 c0       	rjmp	.+144    	; 0x1886 <find_volume+0xd2>
    17f6:	80 81       	ld	r24, Z
    17f8:	81 32       	cpi	r24, 0x21	; 33
    17fa:	68 f0       	brcs	.+26     	; 0x1816 <find_volume+0x62>
    17fc:	8a 33       	cpi	r24, 0x3A	; 58
    17fe:	09 f4       	brne	.+2      	; 0x1802 <find_volume+0x4e>
    1800:	42 c0       	rjmp	.+132    	; 0x1886 <find_volume+0xd2>
    1802:	df 01       	movw	r26, r30
    1804:	11 96       	adiw	r26, 0x01	; 1
    1806:	fd 01       	movw	r30, r26
    1808:	02 c0       	rjmp	.+4      	; 0x180e <find_volume+0x5a>
    180a:	9a 33       	cpi	r25, 0x3A	; 58
    180c:	c9 f1       	breq	.+114    	; 0x1880 <find_volume+0xcc>
    180e:	9f 01       	movw	r18, r30
    1810:	91 91       	ld	r25, Z+
    1812:	91 32       	cpi	r25, 0x21	; 33
    1814:	d0 f7       	brcc	.-12     	; 0x180a <find_volume+0x56>
    1816:	e0 90 9a 26 	lds	r14, 0x269A	; 0x80269a <FatFs>
    181a:	f0 90 9b 26 	lds	r15, 0x269B	; 0x80269b <FatFs+0x1>
    181e:	e1 14       	cp	r14, r1
    1820:	f1 04       	cpc	r15, r1
    1822:	99 f1       	breq	.+102    	; 0x188a <find_volume+0xd6>
    1824:	fb 01       	movw	r30, r22
    1826:	e0 82       	st	Z, r14
    1828:	f1 82       	std	Z+1, r15	; 0x01
    182a:	14 2f       	mov	r17, r20
    182c:	1e 7f       	andi	r17, 0xFE	; 254
    182e:	f7 01       	movw	r30, r14
    1830:	80 81       	ld	r24, Z
    1832:	88 23       	and	r24, r24
    1834:	29 f0       	breq	.+10     	; 0x1840 <find_volume+0x8c>
    1836:	81 81       	ldd	r24, Z+1	; 0x01
    1838:	0e 94 52 3b 	call	0x76a4	; 0x76a4 <disk_status>
    183c:	80 ff       	sbrs	r24, 0
    183e:	27 c0       	rjmp	.+78     	; 0x188e <find_volume+0xda>
    1840:	d7 01       	movw	r26, r14
    1842:	1c 92       	st	X, r1
    1844:	11 96       	adiw	r26, 0x01	; 1
    1846:	1c 92       	st	X, r1
    1848:	80 e0       	ldi	r24, 0x00	; 0
    184a:	0e 94 4a 3b 	call	0x7694	; 0x7694 <disk_initialize>
    184e:	80 ff       	sbrs	r24, 0
    1850:	26 c0       	rjmp	.+76     	; 0x189e <find_volume+0xea>
    1852:	83 e0       	ldi	r24, 0x03	; 3
    1854:	a5 96       	adiw	r28, 0x25	; 37
    1856:	cd bf       	out	0x3d, r28	; 61
    1858:	de bf       	out	0x3e, r29	; 62
    185a:	df 91       	pop	r29
    185c:	cf 91       	pop	r28
    185e:	1f 91       	pop	r17
    1860:	0f 91       	pop	r16
    1862:	ff 90       	pop	r15
    1864:	ef 90       	pop	r14
    1866:	df 90       	pop	r13
    1868:	cf 90       	pop	r12
    186a:	bf 90       	pop	r11
    186c:	af 90       	pop	r10
    186e:	9f 90       	pop	r9
    1870:	8f 90       	pop	r8
    1872:	7f 90       	pop	r7
    1874:	6f 90       	pop	r6
    1876:	5f 90       	pop	r5
    1878:	4f 90       	pop	r4
    187a:	3f 90       	pop	r3
    187c:	2f 90       	pop	r2
    187e:	08 95       	ret
    1880:	2a 17       	cp	r18, r26
    1882:	3b 07       	cpc	r19, r27
    1884:	71 f1       	breq	.+92     	; 0x18e2 <find_volume+0x12e>
    1886:	8b e0       	ldi	r24, 0x0B	; 11
    1888:	e5 cf       	rjmp	.-54     	; 0x1854 <find_volume+0xa0>
    188a:	8c e0       	ldi	r24, 0x0C	; 12
    188c:	e3 cf       	rjmp	.-58     	; 0x1854 <find_volume+0xa0>
    188e:	11 23       	and	r17, r17
    1890:	21 f0       	breq	.+8      	; 0x189a <find_volume+0xe6>
    1892:	82 ff       	sbrs	r24, 2
    1894:	02 c0       	rjmp	.+4      	; 0x189a <find_volume+0xe6>
    1896:	8a e0       	ldi	r24, 0x0A	; 10
    1898:	dd cf       	rjmp	.-70     	; 0x1854 <find_volume+0xa0>
    189a:	80 e0       	ldi	r24, 0x00	; 0
    189c:	db cf       	rjmp	.-74     	; 0x1854 <find_volume+0xa0>
    189e:	11 23       	and	r17, r17
    18a0:	11 f0       	breq	.+4      	; 0x18a6 <find_volume+0xf2>
    18a2:	82 fd       	sbrc	r24, 2
    18a4:	f8 cf       	rjmp	.-16     	; 0x1896 <find_volume+0xe2>
    18a6:	f7 01       	movw	r30, r14
    18a8:	13 82       	std	Z+3, r1	; 0x03
    18aa:	88 24       	eor	r8, r8
    18ac:	8a 94       	dec	r8
    18ae:	98 2c       	mov	r9, r8
    18b0:	54 01       	movw	r10, r8
    18b2:	87 a6       	std	Z+47, r8	; 0x2f
    18b4:	90 aa       	std	Z+48, r9	; 0x30
    18b6:	a1 aa       	std	Z+49, r10	; 0x31
    18b8:	b2 aa       	std	Z+50, r11	; 0x32
    18ba:	01 e0       	ldi	r16, 0x01	; 1
    18bc:	10 e0       	ldi	r17, 0x00	; 0
    18be:	20 e0       	ldi	r18, 0x00	; 0
    18c0:	30 e0       	ldi	r19, 0x00	; 0
    18c2:	a9 01       	movw	r20, r18
    18c4:	b7 01       	movw	r22, r14
    18c6:	6d 5c       	subi	r22, 0xCD	; 205
    18c8:	7f 4f       	sbci	r23, 0xFF	; 255
    18ca:	81 81       	ldd	r24, Z+1	; 0x01
    18cc:	0e 94 59 3b 	call	0x76b2	; 0x76b2 <disk_read>
    18d0:	88 23       	and	r24, r24
    18d2:	79 f0       	breq	.+30     	; 0x18f2 <find_volume+0x13e>
    18d4:	f7 01       	movw	r30, r14
    18d6:	87 a6       	std	Z+47, r8	; 0x2f
    18d8:	90 aa       	std	Z+48, r9	; 0x30
    18da:	a1 aa       	std	Z+49, r10	; 0x31
    18dc:	b2 aa       	std	Z+50, r11	; 0x32
    18de:	81 e0       	ldi	r24, 0x01	; 1
    18e0:	b9 cf       	rjmp	.-142    	; 0x1854 <find_volume+0xa0>
    18e2:	80 33       	cpi	r24, 0x30	; 48
    18e4:	81 f6       	brne	.-96     	; 0x1886 <find_volume+0xd2>
    18e6:	fd 01       	movw	r30, r26
    18e8:	31 96       	adiw	r30, 0x01	; 1
    18ea:	d8 01       	movw	r26, r16
    18ec:	ed 93       	st	X+, r30
    18ee:	fc 93       	st	X, r31
    18f0:	92 cf       	rjmp	.-220    	; 0x1816 <find_volume+0x62>
    18f2:	d7 01       	movw	r26, r14
    18f4:	9f 96       	adiw	r26, 0x2f	; 47
    18f6:	1d 92       	st	X+, r1
    18f8:	1d 92       	st	X+, r1
    18fa:	1d 92       	st	X+, r1
    18fc:	1c 92       	st	X, r1
    18fe:	d2 97       	sbiw	r26, 0x32	; 50
    1900:	67 01       	movw	r12, r14
    1902:	be ec       	ldi	r27, 0xCE	; 206
    1904:	cb 1a       	sub	r12, r27
    1906:	bd ef       	ldi	r27, 0xFD	; 253
    1908:	db 0a       	sbc	r13, r27
    190a:	f6 01       	movw	r30, r12
    190c:	80 81       	ld	r24, Z
    190e:	90 e0       	ldi	r25, 0x00	; 0
    1910:	98 2f       	mov	r25, r24
    1912:	88 27       	eor	r24, r24
    1914:	17 01       	movw	r2, r14
    1916:	ff ec       	ldi	r31, 0xCF	; 207
    1918:	2f 1a       	sub	r2, r31
    191a:	fd ef       	ldi	r31, 0xFD	; 253
    191c:	3f 0a       	sbc	r3, r31
    191e:	d1 01       	movw	r26, r2
    1920:	2c 91       	ld	r18, X
    1922:	82 2b       	or	r24, r18
    1924:	85 35       	cpi	r24, 0x55	; 85
    1926:	9a 4a       	sbci	r25, 0xAA	; 170
    1928:	11 f0       	breq	.+4      	; 0x192e <find_volume+0x17a>
    192a:	8d e0       	ldi	r24, 0x0D	; 13
    192c:	93 cf       	rjmp	.-218    	; 0x1854 <find_volume+0xa0>
    192e:	f7 01       	movw	r30, r14
    1930:	83 a9       	ldd	r24, Z+51	; 0x33
    1932:	89 3e       	cpi	r24, 0xE9	; 233
    1934:	09 f4       	brne	.+2      	; 0x1938 <find_volume+0x184>
    1936:	f0 c0       	rjmp	.+480    	; 0x1b18 <find_volume+0x364>
    1938:	8b 3e       	cpi	r24, 0xEB	; 235
    193a:	09 f4       	brne	.+2      	; 0x193e <find_volume+0x18a>
    193c:	e9 c0       	rjmp	.+466    	; 0x1b10 <find_volume+0x35c>
    193e:	f7 01       	movw	r30, r14
    1940:	eb 50       	subi	r30, 0x0B	; 11
    1942:	fe 4f       	sbci	r31, 0xFE	; 254
    1944:	80 81       	ld	r24, Z
    1946:	88 23       	and	r24, r24
    1948:	09 f4       	brne	.+2      	; 0x194c <find_volume+0x198>
    194a:	b9 c0       	rjmp	.+370    	; 0x1abe <find_volume+0x30a>
    194c:	37 96       	adiw	r30, 0x07	; 7
    194e:	80 81       	ld	r24, Z
    1950:	90 e0       	ldi	r25, 0x00	; 0
    1952:	a0 e0       	ldi	r26, 0x00	; 0
    1954:	b0 e0       	ldi	r27, 0x00	; 0
    1956:	ba 2f       	mov	r27, r26
    1958:	a9 2f       	mov	r26, r25
    195a:	98 2f       	mov	r25, r24
    195c:	88 27       	eor	r24, r24
    195e:	31 97       	sbiw	r30, 0x01	; 1
    1960:	20 81       	ld	r18, Z
    1962:	82 2b       	or	r24, r18
    1964:	ba 2f       	mov	r27, r26
    1966:	a9 2f       	mov	r26, r25
    1968:	98 2f       	mov	r25, r24
    196a:	88 27       	eor	r24, r24
    196c:	31 97       	sbiw	r30, 0x01	; 1
    196e:	20 81       	ld	r18, Z
    1970:	82 2b       	or	r24, r18
    1972:	ba 2f       	mov	r27, r26
    1974:	a9 2f       	mov	r26, r25
    1976:	98 2f       	mov	r25, r24
    1978:	88 27       	eor	r24, r24
    197a:	31 97       	sbiw	r30, 0x01	; 1
    197c:	20 81       	ld	r18, Z
    197e:	82 2b       	or	r24, r18
    1980:	89 83       	std	Y+1, r24	; 0x01
    1982:	9a 83       	std	Y+2, r25	; 0x02
    1984:	ab 83       	std	Y+3, r26	; 0x03
    1986:	bc 83       	std	Y+4, r27	; 0x04
    1988:	f7 01       	movw	r30, r14
    198a:	eb 5f       	subi	r30, 0xFB	; 251
    198c:	fd 4f       	sbci	r31, 0xFD	; 253
    198e:	80 81       	ld	r24, Z
    1990:	88 23       	and	r24, r24
    1992:	09 f4       	brne	.+2      	; 0x1996 <find_volume+0x1e2>
    1994:	b9 c0       	rjmp	.+370    	; 0x1b08 <find_volume+0x354>
    1996:	37 96       	adiw	r30, 0x07	; 7
    1998:	80 81       	ld	r24, Z
    199a:	90 e0       	ldi	r25, 0x00	; 0
    199c:	a0 e0       	ldi	r26, 0x00	; 0
    199e:	b0 e0       	ldi	r27, 0x00	; 0
    19a0:	ba 2f       	mov	r27, r26
    19a2:	a9 2f       	mov	r26, r25
    19a4:	98 2f       	mov	r25, r24
    19a6:	88 27       	eor	r24, r24
    19a8:	31 97       	sbiw	r30, 0x01	; 1
    19aa:	20 81       	ld	r18, Z
    19ac:	82 2b       	or	r24, r18
    19ae:	ba 2f       	mov	r27, r26
    19b0:	a9 2f       	mov	r26, r25
    19b2:	98 2f       	mov	r25, r24
    19b4:	88 27       	eor	r24, r24
    19b6:	31 97       	sbiw	r30, 0x01	; 1
    19b8:	20 81       	ld	r18, Z
    19ba:	82 2b       	or	r24, r18
    19bc:	ba 2f       	mov	r27, r26
    19be:	a9 2f       	mov	r26, r25
    19c0:	98 2f       	mov	r25, r24
    19c2:	88 27       	eor	r24, r24
    19c4:	31 97       	sbiw	r30, 0x01	; 1
    19c6:	20 81       	ld	r18, Z
    19c8:	82 2b       	or	r24, r18
    19ca:	8d 83       	std	Y+5, r24	; 0x05
    19cc:	9e 83       	std	Y+6, r25	; 0x06
    19ce:	af 83       	std	Y+7, r26	; 0x07
    19d0:	b8 87       	std	Y+8, r27	; 0x08
    19d2:	f7 01       	movw	r30, r14
    19d4:	eb 5e       	subi	r30, 0xEB	; 235
    19d6:	fd 4f       	sbci	r31, 0xFD	; 253
    19d8:	80 81       	ld	r24, Z
    19da:	88 23       	and	r24, r24
    19dc:	09 f4       	brne	.+2      	; 0x19e0 <find_volume+0x22c>
    19de:	90 c0       	rjmp	.+288    	; 0x1b00 <find_volume+0x34c>
    19e0:	37 96       	adiw	r30, 0x07	; 7
    19e2:	80 81       	ld	r24, Z
    19e4:	90 e0       	ldi	r25, 0x00	; 0
    19e6:	a0 e0       	ldi	r26, 0x00	; 0
    19e8:	b0 e0       	ldi	r27, 0x00	; 0
    19ea:	ba 2f       	mov	r27, r26
    19ec:	a9 2f       	mov	r26, r25
    19ee:	98 2f       	mov	r25, r24
    19f0:	88 27       	eor	r24, r24
    19f2:	31 97       	sbiw	r30, 0x01	; 1
    19f4:	20 81       	ld	r18, Z
    19f6:	82 2b       	or	r24, r18
    19f8:	ba 2f       	mov	r27, r26
    19fa:	a9 2f       	mov	r26, r25
    19fc:	98 2f       	mov	r25, r24
    19fe:	88 27       	eor	r24, r24
    1a00:	31 97       	sbiw	r30, 0x01	; 1
    1a02:	20 81       	ld	r18, Z
    1a04:	82 2b       	or	r24, r18
    1a06:	ba 2f       	mov	r27, r26
    1a08:	a9 2f       	mov	r26, r25
    1a0a:	98 2f       	mov	r25, r24
    1a0c:	88 27       	eor	r24, r24
    1a0e:	31 97       	sbiw	r30, 0x01	; 1
    1a10:	20 81       	ld	r18, Z
    1a12:	82 2b       	or	r24, r18
    1a14:	89 87       	std	Y+9, r24	; 0x09
    1a16:	9a 87       	std	Y+10, r25	; 0x0a
    1a18:	ab 87       	std	Y+11, r26	; 0x0b
    1a1a:	bc 87       	std	Y+12, r27	; 0x0c
    1a1c:	f7 01       	movw	r30, r14
    1a1e:	eb 5d       	subi	r30, 0xDB	; 219
    1a20:	fd 4f       	sbci	r31, 0xFD	; 253
    1a22:	80 81       	ld	r24, Z
    1a24:	81 11       	cpse	r24, r1
    1a26:	4f c0       	rjmp	.+158    	; 0x1ac6 <find_volume+0x312>
    1a28:	80 e0       	ldi	r24, 0x00	; 0
    1a2a:	90 e0       	ldi	r25, 0x00	; 0
    1a2c:	dc 01       	movw	r26, r24
    1a2e:	8d 87       	std	Y+13, r24	; 0x0d
    1a30:	9e 87       	std	Y+14, r25	; 0x0e
    1a32:	af 87       	std	Y+15, r26	; 0x0f
    1a34:	b8 8b       	std	Y+16, r27	; 0x10
    1a36:	89 80       	ldd	r8, Y+1	; 0x01
    1a38:	9a 80       	ldd	r9, Y+2	; 0x02
    1a3a:	ab 80       	ldd	r10, Y+3	; 0x03
    1a3c:	bc 80       	ldd	r11, Y+4	; 0x04
    1a3e:	8d 8e       	std	Y+29, r8	; 0x1d
    1a40:	9e 8e       	std	Y+30, r9	; 0x1e
    1a42:	af 8e       	std	Y+31, r10	; 0x1f
    1a44:	b8 a2       	std	Y+32, r11	; 0x20
    1a46:	81 14       	cp	r8, r1
    1a48:	91 04       	cpc	r9, r1
    1a4a:	a1 04       	cpc	r10, r1
    1a4c:	b1 04       	cpc	r11, r1
    1a4e:	09 f0       	breq	.+2      	; 0x1a52 <find_volume+0x29e>
    1a50:	3c c2       	rjmp	.+1144   	; 0x1eca <find_volume+0x716>
    1a52:	8d 80       	ldd	r8, Y+5	; 0x05
    1a54:	9e 80       	ldd	r9, Y+6	; 0x06
    1a56:	af 80       	ldd	r10, Y+7	; 0x07
    1a58:	b8 84       	ldd	r11, Y+8	; 0x08
    1a5a:	8d 8e       	std	Y+29, r8	; 0x1d
    1a5c:	9e 8e       	std	Y+30, r9	; 0x1e
    1a5e:	af 8e       	std	Y+31, r10	; 0x1f
    1a60:	b8 a2       	std	Y+32, r11	; 0x20
    1a62:	81 14       	cp	r8, r1
    1a64:	91 04       	cpc	r9, r1
    1a66:	a1 04       	cpc	r10, r1
    1a68:	b1 04       	cpc	r11, r1
    1a6a:	09 f0       	breq	.+2      	; 0x1a6e <find_volume+0x2ba>
    1a6c:	3e c2       	rjmp	.+1148   	; 0x1eea <find_volume+0x736>
    1a6e:	89 84       	ldd	r8, Y+9	; 0x09
    1a70:	9a 84       	ldd	r9, Y+10	; 0x0a
    1a72:	ab 84       	ldd	r10, Y+11	; 0x0b
    1a74:	bc 84       	ldd	r11, Y+12	; 0x0c
    1a76:	8d 8e       	std	Y+29, r8	; 0x1d
    1a78:	9e 8e       	std	Y+30, r9	; 0x1e
    1a7a:	af 8e       	std	Y+31, r10	; 0x1f
    1a7c:	b8 a2       	std	Y+32, r11	; 0x20
    1a7e:	81 14       	cp	r8, r1
    1a80:	91 04       	cpc	r9, r1
    1a82:	a1 04       	cpc	r10, r1
    1a84:	b1 04       	cpc	r11, r1
    1a86:	09 f0       	breq	.+2      	; 0x1a8a <find_volume+0x2d6>
    1a88:	28 c2       	rjmp	.+1104   	; 0x1eda <find_volume+0x726>
    1a8a:	8d 84       	ldd	r8, Y+13	; 0x0d
    1a8c:	9e 84       	ldd	r9, Y+14	; 0x0e
    1a8e:	af 84       	ldd	r10, Y+15	; 0x0f
    1a90:	b8 88       	ldd	r11, Y+16	; 0x10
    1a92:	8d 8e       	std	Y+29, r8	; 0x1d
    1a94:	9e 8e       	std	Y+30, r9	; 0x1e
    1a96:	af 8e       	std	Y+31, r10	; 0x1f
    1a98:	b8 a2       	std	Y+32, r11	; 0x20
    1a9a:	81 14       	cp	r8, r1
    1a9c:	91 04       	cpc	r9, r1
    1a9e:	a1 04       	cpc	r10, r1
    1aa0:	b1 04       	cpc	r11, r1
    1aa2:	09 f4       	brne	.+2      	; 0x1aa6 <find_volume+0x2f2>
    1aa4:	42 cf       	rjmp	.-380    	; 0x192a <find_volume+0x176>
    1aa6:	b5 01       	movw	r22, r10
    1aa8:	a4 01       	movw	r20, r8
    1aaa:	c7 01       	movw	r24, r14
    1aac:	8e dc       	rcall	.-1764   	; 0x13ca <check_fs>
    1aae:	82 30       	cpi	r24, 0x02	; 2
    1ab0:	08 f4       	brcc	.+2      	; 0x1ab4 <find_volume+0x300>
    1ab2:	7a c0       	rjmp	.+244    	; 0x1ba8 <find_volume+0x3f4>
    1ab4:	84 30       	cpi	r24, 0x04	; 4
    1ab6:	09 f4       	brne	.+2      	; 0x1aba <find_volume+0x306>
    1ab8:	12 cf       	rjmp	.-476    	; 0x18de <find_volume+0x12a>
    1aba:	8d e0       	ldi	r24, 0x0D	; 13
    1abc:	cb ce       	rjmp	.-618    	; 0x1854 <find_volume+0xa0>
    1abe:	80 e0       	ldi	r24, 0x00	; 0
    1ac0:	90 e0       	ldi	r25, 0x00	; 0
    1ac2:	dc 01       	movw	r26, r24
    1ac4:	5d cf       	rjmp	.-326    	; 0x1980 <find_volume+0x1cc>
    1ac6:	f7 01       	movw	r30, r14
    1ac8:	e4 5d       	subi	r30, 0xD4	; 212
    1aca:	fd 4f       	sbci	r31, 0xFD	; 253
    1acc:	80 81       	ld	r24, Z
    1ace:	90 e0       	ldi	r25, 0x00	; 0
    1ad0:	a0 e0       	ldi	r26, 0x00	; 0
    1ad2:	b0 e0       	ldi	r27, 0x00	; 0
    1ad4:	ba 2f       	mov	r27, r26
    1ad6:	a9 2f       	mov	r26, r25
    1ad8:	98 2f       	mov	r25, r24
    1ada:	88 27       	eor	r24, r24
    1adc:	31 97       	sbiw	r30, 0x01	; 1
    1ade:	20 81       	ld	r18, Z
    1ae0:	82 2b       	or	r24, r18
    1ae2:	ba 2f       	mov	r27, r26
    1ae4:	a9 2f       	mov	r26, r25
    1ae6:	98 2f       	mov	r25, r24
    1ae8:	88 27       	eor	r24, r24
    1aea:	31 97       	sbiw	r30, 0x01	; 1
    1aec:	20 81       	ld	r18, Z
    1aee:	82 2b       	or	r24, r18
    1af0:	ba 2f       	mov	r27, r26
    1af2:	a9 2f       	mov	r26, r25
    1af4:	98 2f       	mov	r25, r24
    1af6:	88 27       	eor	r24, r24
    1af8:	31 97       	sbiw	r30, 0x01	; 1
    1afa:	20 81       	ld	r18, Z
    1afc:	82 2b       	or	r24, r18
    1afe:	97 cf       	rjmp	.-210    	; 0x1a2e <find_volume+0x27a>
    1b00:	80 e0       	ldi	r24, 0x00	; 0
    1b02:	90 e0       	ldi	r25, 0x00	; 0
    1b04:	dc 01       	movw	r26, r24
    1b06:	86 cf       	rjmp	.-244    	; 0x1a14 <find_volume+0x260>
    1b08:	80 e0       	ldi	r24, 0x00	; 0
    1b0a:	90 e0       	ldi	r25, 0x00	; 0
    1b0c:	dc 01       	movw	r26, r24
    1b0e:	5d cf       	rjmp	.-326    	; 0x19ca <find_volume+0x216>
    1b10:	85 a9       	ldd	r24, Z+53	; 0x35
    1b12:	80 39       	cpi	r24, 0x90	; 144
    1b14:	09 f0       	breq	.+2      	; 0x1b18 <find_volume+0x364>
    1b16:	13 cf       	rjmp	.-474    	; 0x193e <find_volume+0x18a>
    1b18:	f7 01       	movw	r30, r14
    1b1a:	e4 59       	subi	r30, 0x94	; 148
    1b1c:	ff 4f       	sbci	r31, 0xFF	; 255
    1b1e:	80 81       	ld	r24, Z
    1b20:	90 e0       	ldi	r25, 0x00	; 0
    1b22:	a0 e0       	ldi	r26, 0x00	; 0
    1b24:	b0 e0       	ldi	r27, 0x00	; 0
    1b26:	ba 2f       	mov	r27, r26
    1b28:	a9 2f       	mov	r26, r25
    1b2a:	98 2f       	mov	r25, r24
    1b2c:	88 27       	eor	r24, r24
    1b2e:	31 97       	sbiw	r30, 0x01	; 1
    1b30:	20 81       	ld	r18, Z
    1b32:	82 2b       	or	r24, r18
    1b34:	ba 2f       	mov	r27, r26
    1b36:	a9 2f       	mov	r26, r25
    1b38:	98 2f       	mov	r25, r24
    1b3a:	88 27       	eor	r24, r24
    1b3c:	31 97       	sbiw	r30, 0x01	; 1
    1b3e:	20 81       	ld	r18, Z
    1b40:	82 2b       	or	r24, r18
    1b42:	ba 2f       	mov	r27, r26
    1b44:	a9 2f       	mov	r26, r25
    1b46:	98 2f       	mov	r25, r24
    1b48:	88 27       	eor	r24, r24
    1b4a:	31 97       	sbiw	r30, 0x01	; 1
    1b4c:	20 81       	ld	r18, Z
    1b4e:	82 2b       	or	r24, r18
    1b50:	bb 27       	eor	r27, r27
    1b52:	86 34       	cpi	r24, 0x46	; 70
    1b54:	91 44       	sbci	r25, 0x41	; 65
    1b56:	a4 45       	sbci	r26, 0x54	; 84
    1b58:	b1 05       	cpc	r27, r1
    1b5a:	11 f1       	breq	.+68     	; 0x1ba0 <find_volume+0x3ec>
    1b5c:	f7 01       	movw	r30, r14
    1b5e:	e8 57       	subi	r30, 0x78	; 120
    1b60:	ff 4f       	sbci	r31, 0xFF	; 255
    1b62:	80 81       	ld	r24, Z
    1b64:	90 e0       	ldi	r25, 0x00	; 0
    1b66:	a0 e0       	ldi	r26, 0x00	; 0
    1b68:	b0 e0       	ldi	r27, 0x00	; 0
    1b6a:	ba 2f       	mov	r27, r26
    1b6c:	a9 2f       	mov	r26, r25
    1b6e:	98 2f       	mov	r25, r24
    1b70:	88 27       	eor	r24, r24
    1b72:	31 97       	sbiw	r30, 0x01	; 1
    1b74:	20 81       	ld	r18, Z
    1b76:	82 2b       	or	r24, r18
    1b78:	ba 2f       	mov	r27, r26
    1b7a:	a9 2f       	mov	r26, r25
    1b7c:	98 2f       	mov	r25, r24
    1b7e:	88 27       	eor	r24, r24
    1b80:	31 97       	sbiw	r30, 0x01	; 1
    1b82:	20 81       	ld	r18, Z
    1b84:	82 2b       	or	r24, r18
    1b86:	ba 2f       	mov	r27, r26
    1b88:	a9 2f       	mov	r26, r25
    1b8a:	98 2f       	mov	r25, r24
    1b8c:	88 27       	eor	r24, r24
    1b8e:	31 97       	sbiw	r30, 0x01	; 1
    1b90:	20 81       	ld	r18, Z
    1b92:	82 2b       	or	r24, r18
    1b94:	86 34       	cpi	r24, 0x46	; 70
    1b96:	91 44       	sbci	r25, 0x41	; 65
    1b98:	a4 45       	sbci	r26, 0x54	; 84
    1b9a:	b3 43       	sbci	r27, 0x33	; 51
    1b9c:	09 f0       	breq	.+2      	; 0x1ba0 <find_volume+0x3ec>
    1b9e:	cf ce       	rjmp	.-610    	; 0x193e <find_volume+0x18a>
    1ba0:	1d 8e       	std	Y+29, r1	; 0x1d
    1ba2:	1e 8e       	std	Y+30, r1	; 0x1e
    1ba4:	1f 8e       	std	Y+31, r1	; 0x1f
    1ba6:	18 a2       	std	Y+32, r1	; 0x20
    1ba8:	d7 01       	movw	r26, r14
    1baa:	df 96       	adiw	r26, 0x3f	; 63
    1bac:	8c 91       	ld	r24, X
    1bae:	df 97       	sbiw	r26, 0x3f	; 63
    1bb0:	90 e0       	ldi	r25, 0x00	; 0
    1bb2:	98 2f       	mov	r25, r24
    1bb4:	88 27       	eor	r24, r24
    1bb6:	de 96       	adiw	r26, 0x3e	; 62
    1bb8:	2c 91       	ld	r18, X
    1bba:	82 2b       	or	r24, r18
    1bbc:	81 15       	cp	r24, r1
    1bbe:	92 40       	sbci	r25, 0x02	; 2
    1bc0:	09 f0       	breq	.+2      	; 0x1bc4 <find_volume+0x410>
    1bc2:	b3 ce       	rjmp	.-666    	; 0x192a <find_volume+0x176>
    1bc4:	f7 01       	movw	r30, r14
    1bc6:	e6 5b       	subi	r30, 0xB6	; 182
    1bc8:	ff 4f       	sbci	r31, 0xFF	; 255
    1bca:	80 81       	ld	r24, Z
    1bcc:	90 e0       	ldi	r25, 0x00	; 0
    1bce:	98 2f       	mov	r25, r24
    1bd0:	88 27       	eor	r24, r24
    1bd2:	31 97       	sbiw	r30, 0x01	; 1
    1bd4:	20 81       	ld	r18, Z
    1bd6:	82 2b       	or	r24, r18
    1bd8:	2c 01       	movw	r4, r24
    1bda:	61 2c       	mov	r6, r1
    1bdc:	71 2c       	mov	r7, r1
    1bde:	89 2b       	or	r24, r25
    1be0:	d1 f4       	brne	.+52     	; 0x1c16 <find_volume+0x462>
    1be2:	71 96       	adiw	r30, 0x11	; 17
    1be4:	40 80       	ld	r4, Z
    1be6:	51 2c       	mov	r5, r1
    1be8:	61 2c       	mov	r6, r1
    1bea:	71 2c       	mov	r7, r1
    1bec:	76 2c       	mov	r7, r6
    1bee:	65 2c       	mov	r6, r5
    1bf0:	54 2c       	mov	r5, r4
    1bf2:	44 24       	eor	r4, r4
    1bf4:	31 97       	sbiw	r30, 0x01	; 1
    1bf6:	80 81       	ld	r24, Z
    1bf8:	48 2a       	or	r4, r24
    1bfa:	76 2c       	mov	r7, r6
    1bfc:	65 2c       	mov	r6, r5
    1bfe:	54 2c       	mov	r5, r4
    1c00:	44 24       	eor	r4, r4
    1c02:	31 97       	sbiw	r30, 0x01	; 1
    1c04:	80 81       	ld	r24, Z
    1c06:	48 2a       	or	r4, r24
    1c08:	76 2c       	mov	r7, r6
    1c0a:	65 2c       	mov	r6, r5
    1c0c:	54 2c       	mov	r5, r4
    1c0e:	44 24       	eor	r4, r4
    1c10:	31 97       	sbiw	r30, 0x01	; 1
    1c12:	80 81       	ld	r24, Z
    1c14:	48 2a       	or	r4, r24
    1c16:	f7 01       	movw	r30, r14
    1c18:	43 8e       	std	Z+27, r4	; 0x1b
    1c1a:	54 8e       	std	Z+28, r5	; 0x1c
    1c1c:	65 8e       	std	Z+29, r6	; 0x1d
    1c1e:	76 8e       	std	Z+30, r7	; 0x1e
    1c20:	ed 5b       	subi	r30, 0xBD	; 189
    1c22:	ff 4f       	sbci	r31, 0xFF	; 255
    1c24:	a0 81       	ld	r26, Z
    1c26:	f7 01       	movw	r30, r14
    1c28:	a2 83       	std	Z+2, r26	; 0x02
    1c2a:	8f ef       	ldi	r24, 0xFF	; 255
    1c2c:	8a 0f       	add	r24, r26
    1c2e:	82 30       	cpi	r24, 0x02	; 2
    1c30:	08 f0       	brcs	.+2      	; 0x1c34 <find_volume+0x480>
    1c32:	7b ce       	rjmp	.-778    	; 0x192a <find_volume+0x176>
    1c34:	b0 e0       	ldi	r27, 0x00	; 0
    1c36:	a3 01       	movw	r20, r6
    1c38:	92 01       	movw	r18, r4
    1c3a:	0e 94 1d 44 	call	0x883a	; 0x883a <__muluhisi3>
    1c3e:	69 8f       	std	Y+25, r22	; 0x19
    1c40:	7a 8f       	std	Y+26, r23	; 0x1a
    1c42:	8b 8f       	std	Y+27, r24	; 0x1b
    1c44:	9c 8f       	std	Y+28, r25	; 0x1c
    1c46:	e0 5c       	subi	r30, 0xC0	; 192
    1c48:	ff 4f       	sbci	r31, 0xFF	; 255
    1c4a:	80 80       	ld	r8, Z
    1c4c:	89 a2       	std	Y+33, r8	; 0x21
    1c4e:	88 2d       	mov	r24, r8
    1c50:	90 e0       	ldi	r25, 0x00	; 0
    1c52:	d7 01       	movw	r26, r14
    1c54:	19 96       	adiw	r26, 0x09	; 9
    1c56:	8d 93       	st	X+, r24
    1c58:	9c 93       	st	X, r25
    1c5a:	1a 97       	sbiw	r26, 0x0a	; 10
    1c5c:	00 97       	sbiw	r24, 0x00	; 0
    1c5e:	09 f4       	brne	.+2      	; 0x1c62 <find_volume+0x4ae>
    1c60:	64 ce       	rjmp	.-824    	; 0x192a <find_volume+0x176>
    1c62:	ac 01       	movw	r20, r24
    1c64:	41 50       	subi	r20, 0x01	; 1
    1c66:	51 09       	sbc	r21, r1
    1c68:	84 23       	and	r24, r20
    1c6a:	95 23       	and	r25, r21
    1c6c:	89 2b       	or	r24, r25
    1c6e:	09 f0       	breq	.+2      	; 0x1c72 <find_volume+0x4be>
    1c70:	5c ce       	rjmp	.-840    	; 0x192a <find_volume+0x176>
    1c72:	35 96       	adiw	r30, 0x05	; 5
    1c74:	00 81       	ld	r16, Z
    1c76:	10 e0       	ldi	r17, 0x00	; 0
    1c78:	10 2f       	mov	r17, r16
    1c7a:	00 27       	eor	r16, r16
    1c7c:	31 97       	sbiw	r30, 0x01	; 1
    1c7e:	80 81       	ld	r24, Z
    1c80:	08 2b       	or	r16, r24
    1c82:	f7 01       	movw	r30, r14
    1c84:	07 83       	std	Z+7, r16	; 0x07
    1c86:	10 87       	std	Z+8, r17	; 0x08
    1c88:	c8 01       	movw	r24, r16
    1c8a:	8f 70       	andi	r24, 0x0F	; 15
    1c8c:	99 27       	eor	r25, r25
    1c8e:	89 2b       	or	r24, r25
    1c90:	09 f0       	breq	.+2      	; 0x1c94 <find_volume+0x4e0>
    1c92:	4b ce       	rjmp	.-874    	; 0x192a <find_volume+0x176>
    1c94:	e9 5b       	subi	r30, 0xB9	; 185
    1c96:	ff 4f       	sbci	r31, 0xFF	; 255
    1c98:	40 81       	ld	r20, Z
    1c9a:	50 e0       	ldi	r21, 0x00	; 0
    1c9c:	54 2f       	mov	r21, r20
    1c9e:	44 27       	eor	r20, r20
    1ca0:	31 97       	sbiw	r30, 0x01	; 1
    1ca2:	80 81       	ld	r24, Z
    1ca4:	48 2b       	or	r20, r24
    1ca6:	4a 01       	movw	r8, r20
    1ca8:	a1 2c       	mov	r10, r1
    1caa:	b1 2c       	mov	r11, r1
    1cac:	8a a2       	std	Y+34, r8	; 0x22
    1cae:	9b a2       	std	Y+35, r9	; 0x23
    1cb0:	ac a2       	std	Y+36, r10	; 0x24
    1cb2:	bd a2       	std	Y+37, r11	; 0x25
    1cb4:	45 2b       	or	r20, r21
    1cb6:	01 f5       	brne	.+64     	; 0x1cf8 <find_volume+0x544>
    1cb8:	70 96       	adiw	r30, 0x10	; 16
    1cba:	80 81       	ld	r24, Z
    1cbc:	90 e0       	ldi	r25, 0x00	; 0
    1cbe:	a0 e0       	ldi	r26, 0x00	; 0
    1cc0:	b0 e0       	ldi	r27, 0x00	; 0
    1cc2:	ba 2f       	mov	r27, r26
    1cc4:	a9 2f       	mov	r26, r25
    1cc6:	98 2f       	mov	r25, r24
    1cc8:	88 27       	eor	r24, r24
    1cca:	31 97       	sbiw	r30, 0x01	; 1
    1ccc:	30 81       	ld	r19, Z
    1cce:	83 2b       	or	r24, r19
    1cd0:	ba 2f       	mov	r27, r26
    1cd2:	a9 2f       	mov	r26, r25
    1cd4:	98 2f       	mov	r25, r24
    1cd6:	88 27       	eor	r24, r24
    1cd8:	31 97       	sbiw	r30, 0x01	; 1
    1cda:	30 81       	ld	r19, Z
    1cdc:	83 2b       	or	r24, r19
    1cde:	ba 2f       	mov	r27, r26
    1ce0:	a9 2f       	mov	r26, r25
    1ce2:	98 2f       	mov	r25, r24
    1ce4:	88 27       	eor	r24, r24
    1ce6:	31 97       	sbiw	r30, 0x01	; 1
    1ce8:	30 81       	ld	r19, Z
    1cea:	ac 01       	movw	r20, r24
    1cec:	bd 01       	movw	r22, r26
    1cee:	43 2b       	or	r20, r19
    1cf0:	4a a3       	std	Y+34, r20	; 0x22
    1cf2:	5b a3       	std	Y+35, r21	; 0x23
    1cf4:	6c a3       	std	Y+36, r22	; 0x24
    1cf6:	7d a3       	std	Y+37, r23	; 0x25
    1cf8:	f7 01       	movw	r30, r14
    1cfa:	ee 5b       	subi	r30, 0xBE	; 190
    1cfc:	ff 4f       	sbci	r31, 0xFF	; 255
    1cfe:	40 81       	ld	r20, Z
    1d00:	50 e0       	ldi	r21, 0x00	; 0
    1d02:	54 2f       	mov	r21, r20
    1d04:	44 27       	eor	r20, r20
    1d06:	31 97       	sbiw	r30, 0x01	; 1
    1d08:	30 81       	ld	r19, Z
    1d0a:	4a 01       	movw	r8, r20
    1d0c:	83 2a       	or	r8, r19
    1d0e:	81 14       	cp	r8, r1
    1d10:	91 04       	cpc	r9, r1
    1d12:	09 f4       	brne	.+2      	; 0x1d16 <find_volume+0x562>
    1d14:	0a ce       	rjmp	.-1004   	; 0x192a <find_volume+0x176>
    1d16:	a1 2c       	mov	r10, r1
    1d18:	b1 2c       	mov	r11, r1
    1d1a:	98 01       	movw	r18, r16
    1d1c:	32 95       	swap	r19
    1d1e:	22 95       	swap	r18
    1d20:	2f 70       	andi	r18, 0x0F	; 15
    1d22:	23 27       	eor	r18, r19
    1d24:	3f 70       	andi	r19, 0x0F	; 15
    1d26:	23 27       	eor	r18, r19
    1d28:	c5 01       	movw	r24, r10
    1d2a:	b4 01       	movw	r22, r8
    1d2c:	62 0f       	add	r22, r18
    1d2e:	73 1f       	adc	r23, r19
    1d30:	81 1d       	adc	r24, r1
    1d32:	91 1d       	adc	r25, r1
    1d34:	29 8d       	ldd	r18, Y+25	; 0x19
    1d36:	3a 8d       	ldd	r19, Y+26	; 0x1a
    1d38:	4b 8d       	ldd	r20, Y+27	; 0x1b
    1d3a:	5c 8d       	ldd	r21, Y+28	; 0x1c
    1d3c:	26 0f       	add	r18, r22
    1d3e:	37 1f       	adc	r19, r23
    1d40:	48 1f       	adc	r20, r24
    1d42:	59 1f       	adc	r21, r25
    1d44:	29 8b       	std	Y+17, r18	; 0x11
    1d46:	3a 8b       	std	Y+18, r19	; 0x12
    1d48:	4b 8b       	std	Y+19, r20	; 0x13
    1d4a:	5c 8b       	std	Y+20, r21	; 0x14
    1d4c:	6a a1       	ldd	r22, Y+34	; 0x22
    1d4e:	7b a1       	ldd	r23, Y+35	; 0x23
    1d50:	8c a1       	ldd	r24, Y+36	; 0x24
    1d52:	9d a1       	ldd	r25, Y+37	; 0x25
    1d54:	62 17       	cp	r22, r18
    1d56:	73 07       	cpc	r23, r19
    1d58:	84 07       	cpc	r24, r20
    1d5a:	95 07       	cpc	r25, r21
    1d5c:	08 f4       	brcc	.+2      	; 0x1d60 <find_volume+0x5ac>
    1d5e:	e5 cd       	rjmp	.-1078   	; 0x192a <find_volume+0x176>
    1d60:	62 1b       	sub	r22, r18
    1d62:	73 0b       	sbc	r23, r19
    1d64:	84 0b       	sbc	r24, r20
    1d66:	95 0b       	sbc	r25, r21
    1d68:	a9 a1       	ldd	r26, Y+33	; 0x21
    1d6a:	2a 2f       	mov	r18, r26
    1d6c:	30 e0       	ldi	r19, 0x00	; 0
    1d6e:	40 e0       	ldi	r20, 0x00	; 0
    1d70:	50 e0       	ldi	r21, 0x00	; 0
    1d72:	0e 94 e4 43 	call	0x87c8	; 0x87c8 <__udivmodsi4>
    1d76:	21 15       	cp	r18, r1
    1d78:	31 05       	cpc	r19, r1
    1d7a:	41 05       	cpc	r20, r1
    1d7c:	51 05       	cpc	r21, r1
    1d7e:	09 f4       	brne	.+2      	; 0x1d82 <find_volume+0x5ce>
    1d80:	d4 cd       	rjmp	.-1112   	; 0x192a <find_volume+0x176>
    1d82:	26 3f       	cpi	r18, 0xF6	; 246
    1d84:	bf ef       	ldi	r27, 0xFF	; 255
    1d86:	3b 07       	cpc	r19, r27
    1d88:	41 05       	cpc	r20, r1
    1d8a:	51 05       	cpc	r21, r1
    1d8c:	08 f0       	brcs	.+2      	; 0x1d90 <find_volume+0x5dc>
    1d8e:	22 c1       	rjmp	.+580    	; 0x1fd4 <find_volume+0x820>
    1d90:	26 3f       	cpi	r18, 0xF6	; 246
    1d92:	ef e0       	ldi	r30, 0x0F	; 15
    1d94:	3e 07       	cpc	r19, r30
    1d96:	41 05       	cpc	r20, r1
    1d98:	51 05       	cpc	r21, r1
    1d9a:	08 f0       	brcs	.+2      	; 0x1d9e <find_volume+0x5ea>
    1d9c:	ae c0       	rjmp	.+348    	; 0x1efa <find_volume+0x746>
    1d9e:	2e 5f       	subi	r18, 0xFE	; 254
    1da0:	3f 4f       	sbci	r19, 0xFF	; 255
    1da2:	4f 4f       	sbci	r20, 0xFF	; 255
    1da4:	5f 4f       	sbci	r21, 0xFF	; 255
    1da6:	d7 01       	movw	r26, r14
    1da8:	57 96       	adiw	r26, 0x17	; 23
    1daa:	2d 93       	st	X+, r18
    1dac:	3d 93       	st	X+, r19
    1dae:	4d 93       	st	X+, r20
    1db0:	5c 93       	st	X, r21
    1db2:	5a 97       	sbiw	r26, 0x1a	; 26
    1db4:	6d 8d       	ldd	r22, Y+29	; 0x1d
    1db6:	7e 8d       	ldd	r23, Y+30	; 0x1e
    1db8:	8f 8d       	ldd	r24, Y+31	; 0x1f
    1dba:	98 a1       	ldd	r25, Y+32	; 0x20
    1dbc:	5f 96       	adiw	r26, 0x1f	; 31
    1dbe:	6d 93       	st	X+, r22
    1dc0:	7d 93       	st	X+, r23
    1dc2:	8d 93       	st	X+, r24
    1dc4:	9c 93       	st	X, r25
    1dc6:	92 97       	sbiw	r26, 0x22	; 34
    1dc8:	68 0d       	add	r22, r8
    1dca:	79 1d       	adc	r23, r9
    1dcc:	8a 1d       	adc	r24, r10
    1dce:	9b 1d       	adc	r25, r11
    1dd0:	6d 8b       	std	Y+21, r22	; 0x15
    1dd2:	7e 8b       	std	Y+22, r23	; 0x16
    1dd4:	8f 8b       	std	Y+23, r24	; 0x17
    1dd6:	98 8f       	std	Y+24, r25	; 0x18
    1dd8:	f7 01       	movw	r30, r14
    1dda:	63 a3       	std	Z+35, r22	; 0x23
    1ddc:	74 a3       	std	Z+36, r23	; 0x24
    1dde:	85 a3       	std	Z+37, r24	; 0x25
    1de0:	96 a3       	std	Z+38, r25	; 0x26
    1de2:	8d 8c       	ldd	r8, Y+29	; 0x1d
    1de4:	9e 8c       	ldd	r9, Y+30	; 0x1e
    1de6:	af 8c       	ldd	r10, Y+31	; 0x1f
    1de8:	b8 a0       	ldd	r11, Y+32	; 0x20
    1dea:	69 89       	ldd	r22, Y+17	; 0x11
    1dec:	7a 89       	ldd	r23, Y+18	; 0x12
    1dee:	8b 89       	ldd	r24, Y+19	; 0x13
    1df0:	9c 89       	ldd	r25, Y+20	; 0x14
    1df2:	86 0e       	add	r8, r22
    1df4:	97 1e       	adc	r9, r23
    1df6:	a8 1e       	adc	r10, r24
    1df8:	b9 1e       	adc	r11, r25
    1dfa:	9b 96       	adiw	r26, 0x2b	; 43
    1dfc:	8d 92       	st	X+, r8
    1dfe:	9d 92       	st	X+, r9
    1e00:	ad 92       	st	X+, r10
    1e02:	bc 92       	st	X, r11
    1e04:	9e 97       	sbiw	r26, 0x2e	; 46
    1e06:	01 2b       	or	r16, r17
    1e08:	09 f4       	brne	.+2      	; 0x1e0c <find_volume+0x658>
    1e0a:	8f cd       	rjmp	.-1250   	; 0x192a <find_volume+0x176>
    1e0c:	8d 89       	ldd	r24, Y+21	; 0x15
    1e0e:	9e 89       	ldd	r25, Y+22	; 0x16
    1e10:	af 89       	ldd	r26, Y+23	; 0x17
    1e12:	b8 8d       	ldd	r27, Y+24	; 0x18
    1e14:	89 8c       	ldd	r8, Y+25	; 0x19
    1e16:	9a 8c       	ldd	r9, Y+26	; 0x1a
    1e18:	ab 8c       	ldd	r10, Y+27	; 0x1b
    1e1a:	bc 8c       	ldd	r11, Y+28	; 0x1c
    1e1c:	88 0d       	add	r24, r8
    1e1e:	99 1d       	adc	r25, r9
    1e20:	aa 1d       	adc	r26, r10
    1e22:	bb 1d       	adc	r27, r11
    1e24:	f7 01       	movw	r30, r14
    1e26:	87 a3       	std	Z+39, r24	; 0x27
    1e28:	90 a7       	std	Z+40, r25	; 0x28
    1e2a:	a1 a7       	std	Z+41, r26	; 0x29
    1e2c:	b2 a7       	std	Z+42, r27	; 0x2a
    1e2e:	da 01       	movw	r26, r20
    1e30:	c9 01       	movw	r24, r18
    1e32:	81 70       	andi	r24, 0x01	; 1
    1e34:	99 27       	eor	r25, r25
    1e36:	aa 27       	eor	r26, r26
    1e38:	bb 27       	eor	r27, r27
    1e3a:	4c 01       	movw	r8, r24
    1e3c:	5d 01       	movw	r10, r26
    1e3e:	ff ef       	ldi	r31, 0xFF	; 255
    1e40:	8f 0e       	add	r8, r31
    1e42:	f1 e0       	ldi	r31, 0x01	; 1
    1e44:	9f 1e       	adc	r9, r31
    1e46:	a1 1c       	adc	r10, r1
    1e48:	b1 1c       	adc	r11, r1
    1e4a:	a3 e0       	ldi	r26, 0x03	; 3
    1e4c:	b0 e0       	ldi	r27, 0x00	; 0
    1e4e:	0e 94 1d 44 	call	0x883a	; 0x883a <__muluhisi3>
    1e52:	dc 01       	movw	r26, r24
    1e54:	cb 01       	movw	r24, r22
    1e56:	b6 95       	lsr	r27
    1e58:	a7 95       	ror	r26
    1e5a:	97 95       	ror	r25
    1e5c:	87 95       	ror	r24
    1e5e:	88 0d       	add	r24, r8
    1e60:	99 1d       	adc	r25, r9
    1e62:	aa 1d       	adc	r26, r10
    1e64:	bb 1d       	adc	r27, r11
    1e66:	49 e0       	ldi	r20, 0x09	; 9
    1e68:	b6 95       	lsr	r27
    1e6a:	a7 95       	ror	r26
    1e6c:	97 95       	ror	r25
    1e6e:	87 95       	ror	r24
    1e70:	4a 95       	dec	r20
    1e72:	d1 f7       	brne	.-12     	; 0x1e68 <find_volume+0x6b4>
    1e74:	48 16       	cp	r4, r24
    1e76:	59 06       	cpc	r5, r25
    1e78:	6a 06       	cpc	r6, r26
    1e7a:	7b 06       	cpc	r7, r27
    1e7c:	08 f4       	brcc	.+2      	; 0x1e80 <find_volume+0x6cc>
    1e7e:	55 cd       	rjmp	.-1366   	; 0x192a <find_volume+0x176>
    1e80:	8f ef       	ldi	r24, 0xFF	; 255
    1e82:	9f ef       	ldi	r25, 0xFF	; 255
    1e84:	dc 01       	movw	r26, r24
    1e86:	f7 01       	movw	r30, r14
    1e88:	87 87       	std	Z+15, r24	; 0x0f
    1e8a:	90 8b       	std	Z+16, r25	; 0x10
    1e8c:	a1 8b       	std	Z+17, r26	; 0x11
    1e8e:	b2 8b       	std	Z+18, r27	; 0x12
    1e90:	83 87       	std	Z+11, r24	; 0x0b
    1e92:	94 87       	std	Z+12, r25	; 0x0c
    1e94:	a5 87       	std	Z+13, r26	; 0x0d
    1e96:	b6 87       	std	Z+14, r27	; 0x0e
    1e98:	80 e8       	ldi	r24, 0x80	; 128
    1e9a:	84 83       	std	Z+4, r24	; 0x04
    1e9c:	81 e0       	ldi	r24, 0x01	; 1
    1e9e:	d7 01       	movw	r26, r14
    1ea0:	8c 93       	st	X, r24
    1ea2:	80 91 98 26 	lds	r24, 0x2698	; 0x802698 <Fsid>
    1ea6:	90 91 99 26 	lds	r25, 0x2699	; 0x802699 <Fsid+0x1>
    1eaa:	01 96       	adiw	r24, 0x01	; 1
    1eac:	80 93 98 26 	sts	0x2698, r24	; 0x802698 <Fsid>
    1eb0:	90 93 99 26 	sts	0x2699, r25	; 0x802699 <Fsid+0x1>
    1eb4:	15 96       	adiw	r26, 0x05	; 5
    1eb6:	8d 93       	st	X+, r24
    1eb8:	9c 93       	st	X, r25
    1eba:	16 97       	sbiw	r26, 0x06	; 6
    1ebc:	f7 01       	movw	r30, r14
    1ebe:	13 8a       	std	Z+19, r1	; 0x13
    1ec0:	14 8a       	std	Z+20, r1	; 0x14
    1ec2:	15 8a       	std	Z+21, r1	; 0x15
    1ec4:	16 8a       	std	Z+22, r1	; 0x16
    1ec6:	80 e0       	ldi	r24, 0x00	; 0
    1ec8:	c5 cc       	rjmp	.-1654   	; 0x1854 <find_volume+0xa0>
    1eca:	b5 01       	movw	r22, r10
    1ecc:	a4 01       	movw	r20, r8
    1ece:	c7 01       	movw	r24, r14
    1ed0:	7c da       	rcall	.-2824   	; 0x13ca <check_fs>
    1ed2:	82 30       	cpi	r24, 0x02	; 2
    1ed4:	08 f0       	brcs	.+2      	; 0x1ed8 <find_volume+0x724>
    1ed6:	bd cd       	rjmp	.-1158   	; 0x1a52 <find_volume+0x29e>
    1ed8:	67 ce       	rjmp	.-818    	; 0x1ba8 <find_volume+0x3f4>
    1eda:	b5 01       	movw	r22, r10
    1edc:	a4 01       	movw	r20, r8
    1ede:	c7 01       	movw	r24, r14
    1ee0:	74 da       	rcall	.-2840   	; 0x13ca <check_fs>
    1ee2:	82 30       	cpi	r24, 0x02	; 2
    1ee4:	08 f0       	brcs	.+2      	; 0x1ee8 <find_volume+0x734>
    1ee6:	d1 cd       	rjmp	.-1118   	; 0x1a8a <find_volume+0x2d6>
    1ee8:	5f ce       	rjmp	.-834    	; 0x1ba8 <find_volume+0x3f4>
    1eea:	b5 01       	movw	r22, r10
    1eec:	a4 01       	movw	r20, r8
    1eee:	c7 01       	movw	r24, r14
    1ef0:	6c da       	rcall	.-2856   	; 0x13ca <check_fs>
    1ef2:	82 30       	cpi	r24, 0x02	; 2
    1ef4:	08 f0       	brcs	.+2      	; 0x1ef8 <find_volume+0x744>
    1ef6:	bb cd       	rjmp	.-1162   	; 0x1a6e <find_volume+0x2ba>
    1ef8:	57 ce       	rjmp	.-850    	; 0x1ba8 <find_volume+0x3f4>
    1efa:	ba 01       	movw	r22, r20
    1efc:	a9 01       	movw	r20, r18
    1efe:	4e 5f       	subi	r20, 0xFE	; 254
    1f00:	5f 4f       	sbci	r21, 0xFF	; 255
    1f02:	6f 4f       	sbci	r22, 0xFF	; 255
    1f04:	7f 4f       	sbci	r23, 0xFF	; 255
    1f06:	d7 01       	movw	r26, r14
    1f08:	57 96       	adiw	r26, 0x17	; 23
    1f0a:	4d 93       	st	X+, r20
    1f0c:	5d 93       	st	X+, r21
    1f0e:	6d 93       	st	X+, r22
    1f10:	7c 93       	st	X, r23
    1f12:	5a 97       	sbiw	r26, 0x1a	; 26
    1f14:	8d 8d       	ldd	r24, Y+29	; 0x1d
    1f16:	9e 8d       	ldd	r25, Y+30	; 0x1e
    1f18:	af 8d       	ldd	r26, Y+31	; 0x1f
    1f1a:	b8 a1       	ldd	r27, Y+32	; 0x20
    1f1c:	f7 01       	movw	r30, r14
    1f1e:	87 8f       	std	Z+31, r24	; 0x1f
    1f20:	90 a3       	std	Z+32, r25	; 0x20
    1f22:	a1 a3       	std	Z+33, r26	; 0x21
    1f24:	b2 a3       	std	Z+34, r27	; 0x22
    1f26:	88 0d       	add	r24, r8
    1f28:	99 1d       	adc	r25, r9
    1f2a:	aa 1d       	adc	r26, r10
    1f2c:	bb 1d       	adc	r27, r11
    1f2e:	8d 8b       	std	Y+21, r24	; 0x15
    1f30:	9e 8b       	std	Y+22, r25	; 0x16
    1f32:	af 8b       	std	Y+23, r26	; 0x17
    1f34:	b8 8f       	std	Y+24, r27	; 0x18
    1f36:	83 a3       	std	Z+35, r24	; 0x23
    1f38:	94 a3       	std	Z+36, r25	; 0x24
    1f3a:	a5 a3       	std	Z+37, r26	; 0x25
    1f3c:	b6 a3       	std	Z+38, r27	; 0x26
    1f3e:	8d 8c       	ldd	r8, Y+29	; 0x1d
    1f40:	9e 8c       	ldd	r9, Y+30	; 0x1e
    1f42:	af 8c       	ldd	r10, Y+31	; 0x1f
    1f44:	b8 a0       	ldd	r11, Y+32	; 0x20
    1f46:	89 89       	ldd	r24, Y+17	; 0x11
    1f48:	9a 89       	ldd	r25, Y+18	; 0x12
    1f4a:	ab 89       	ldd	r26, Y+19	; 0x13
    1f4c:	bc 89       	ldd	r27, Y+20	; 0x14
    1f4e:	88 0e       	add	r8, r24
    1f50:	99 1e       	adc	r9, r25
    1f52:	aa 1e       	adc	r10, r26
    1f54:	bb 1e       	adc	r11, r27
    1f56:	83 a6       	std	Z+43, r8	; 0x2b
    1f58:	94 a6       	std	Z+44, r9	; 0x2c
    1f5a:	a5 a6       	std	Z+45, r10	; 0x2d
    1f5c:	b6 a6       	std	Z+46, r11	; 0x2e
    1f5e:	01 2b       	or	r16, r17
    1f60:	09 f4       	brne	.+2      	; 0x1f64 <find_volume+0x7b0>
    1f62:	e3 cc       	rjmp	.-1594   	; 0x192a <find_volume+0x176>
    1f64:	8d 89       	ldd	r24, Y+21	; 0x15
    1f66:	9e 89       	ldd	r25, Y+22	; 0x16
    1f68:	af 89       	ldd	r26, Y+23	; 0x17
    1f6a:	b8 8d       	ldd	r27, Y+24	; 0x18
    1f6c:	89 8c       	ldd	r8, Y+25	; 0x19
    1f6e:	9a 8c       	ldd	r9, Y+26	; 0x1a
    1f70:	ab 8c       	ldd	r10, Y+27	; 0x1b
    1f72:	bc 8c       	ldd	r11, Y+28	; 0x1c
    1f74:	88 0d       	add	r24, r8
    1f76:	99 1d       	adc	r25, r9
    1f78:	aa 1d       	adc	r26, r10
    1f7a:	bb 1d       	adc	r27, r11
    1f7c:	f7 01       	movw	r30, r14
    1f7e:	87 a3       	std	Z+39, r24	; 0x27
    1f80:	90 a7       	std	Z+40, r25	; 0x28
    1f82:	a1 a7       	std	Z+41, r26	; 0x29
    1f84:	b2 a7       	std	Z+42, r27	; 0x2a
    1f86:	db 01       	movw	r26, r22
    1f88:	ca 01       	movw	r24, r20
    1f8a:	88 0f       	add	r24, r24
    1f8c:	99 1f       	adc	r25, r25
    1f8e:	aa 1f       	adc	r26, r26
    1f90:	bb 1f       	adc	r27, r27
    1f92:	81 50       	subi	r24, 0x01	; 1
    1f94:	9e 4f       	sbci	r25, 0xFE	; 254
    1f96:	af 4f       	sbci	r26, 0xFF	; 255
    1f98:	bf 4f       	sbci	r27, 0xFF	; 255
    1f9a:	69 e0       	ldi	r22, 0x09	; 9
    1f9c:	b6 95       	lsr	r27
    1f9e:	a7 95       	ror	r26
    1fa0:	97 95       	ror	r25
    1fa2:	87 95       	ror	r24
    1fa4:	6a 95       	dec	r22
    1fa6:	d1 f7       	brne	.-12     	; 0x1f9c <find_volume+0x7e8>
    1fa8:	48 16       	cp	r4, r24
    1faa:	59 06       	cpc	r5, r25
    1fac:	6a 06       	cpc	r6, r26
    1fae:	7b 06       	cpc	r7, r27
    1fb0:	08 f4       	brcc	.+2      	; 0x1fb4 <find_volume+0x800>
    1fb2:	bb cc       	rjmp	.-1674   	; 0x192a <find_volume+0x176>
    1fb4:	8f ef       	ldi	r24, 0xFF	; 255
    1fb6:	9f ef       	ldi	r25, 0xFF	; 255
    1fb8:	dc 01       	movw	r26, r24
    1fba:	f7 01       	movw	r30, r14
    1fbc:	87 87       	std	Z+15, r24	; 0x0f
    1fbe:	90 8b       	std	Z+16, r25	; 0x10
    1fc0:	a1 8b       	std	Z+17, r26	; 0x11
    1fc2:	b2 8b       	std	Z+18, r27	; 0x12
    1fc4:	83 87       	std	Z+11, r24	; 0x0b
    1fc6:	94 87       	std	Z+12, r25	; 0x0c
    1fc8:	a5 87       	std	Z+13, r26	; 0x0d
    1fca:	b6 87       	std	Z+14, r27	; 0x0e
    1fcc:	80 e8       	ldi	r24, 0x80	; 128
    1fce:	84 83       	std	Z+4, r24	; 0x04
    1fd0:	82 e0       	ldi	r24, 0x02	; 2
    1fd2:	65 cf       	rjmp	.-310    	; 0x1e9e <find_volume+0x6ea>
    1fd4:	2e 5f       	subi	r18, 0xFE	; 254
    1fd6:	3f 4f       	sbci	r19, 0xFF	; 255
    1fd8:	4f 4f       	sbci	r20, 0xFF	; 255
    1fda:	5f 4f       	sbci	r21, 0xFF	; 255
    1fdc:	f7 01       	movw	r30, r14
    1fde:	27 8b       	std	Z+23, r18	; 0x17
    1fe0:	30 8f       	std	Z+24, r19	; 0x18
    1fe2:	41 8f       	std	Z+25, r20	; 0x19
    1fe4:	52 8f       	std	Z+26, r21	; 0x1a
    1fe6:	6d 8d       	ldd	r22, Y+29	; 0x1d
    1fe8:	7e 8d       	ldd	r23, Y+30	; 0x1e
    1fea:	8f 8d       	ldd	r24, Y+31	; 0x1f
    1fec:	98 a1       	ldd	r25, Y+32	; 0x20
    1fee:	67 8f       	std	Z+31, r22	; 0x1f
    1ff0:	70 a3       	std	Z+32, r23	; 0x20
    1ff2:	81 a3       	std	Z+33, r24	; 0x21
    1ff4:	92 a3       	std	Z+34, r25	; 0x22
    1ff6:	dc 01       	movw	r26, r24
    1ff8:	cb 01       	movw	r24, r22
    1ffa:	88 0d       	add	r24, r8
    1ffc:	99 1d       	adc	r25, r9
    1ffe:	aa 1d       	adc	r26, r10
    2000:	bb 1d       	adc	r27, r11
    2002:	83 a3       	std	Z+35, r24	; 0x23
    2004:	94 a3       	std	Z+36, r25	; 0x24
    2006:	a5 a3       	std	Z+37, r26	; 0x25
    2008:	b6 a3       	std	Z+38, r27	; 0x26
    200a:	89 89       	ldd	r24, Y+17	; 0x11
    200c:	9a 89       	ldd	r25, Y+18	; 0x12
    200e:	ab 89       	ldd	r26, Y+19	; 0x13
    2010:	bc 89       	ldd	r27, Y+20	; 0x14
    2012:	8d 8c       	ldd	r8, Y+29	; 0x1d
    2014:	9e 8c       	ldd	r9, Y+30	; 0x1e
    2016:	af 8c       	ldd	r10, Y+31	; 0x1f
    2018:	b8 a0       	ldd	r11, Y+32	; 0x20
    201a:	88 0d       	add	r24, r8
    201c:	99 1d       	adc	r25, r9
    201e:	aa 1d       	adc	r26, r10
    2020:	bb 1d       	adc	r27, r11
    2022:	83 a7       	std	Z+43, r24	; 0x2b
    2024:	94 a7       	std	Z+44, r25	; 0x2c
    2026:	a5 a7       	std	Z+45, r26	; 0x2d
    2028:	b6 a7       	std	Z+46, r27	; 0x2e
    202a:	e2 5a       	subi	r30, 0xA2	; 162
    202c:	ff 4f       	sbci	r31, 0xFF	; 255
    202e:	80 81       	ld	r24, Z
    2030:	90 e0       	ldi	r25, 0x00	; 0
    2032:	98 2f       	mov	r25, r24
    2034:	88 27       	eor	r24, r24
    2036:	31 97       	sbiw	r30, 0x01	; 1
    2038:	60 81       	ld	r22, Z
    203a:	86 2b       	or	r24, r22
    203c:	89 2b       	or	r24, r25
    203e:	09 f0       	breq	.+2      	; 0x2042 <find_volume+0x88e>
    2040:	74 cc       	rjmp	.-1816   	; 0x192a <find_volume+0x176>
    2042:	01 2b       	or	r16, r17
    2044:	09 f0       	breq	.+2      	; 0x2048 <find_volume+0x894>
    2046:	71 cc       	rjmp	.-1822   	; 0x192a <find_volume+0x176>
    2048:	f7 01       	movw	r30, r14
    204a:	ee 59       	subi	r30, 0x9E	; 158
    204c:	ff 4f       	sbci	r31, 0xFF	; 255
    204e:	80 81       	ld	r24, Z
    2050:	90 e0       	ldi	r25, 0x00	; 0
    2052:	a0 e0       	ldi	r26, 0x00	; 0
    2054:	b0 e0       	ldi	r27, 0x00	; 0
    2056:	ba 2f       	mov	r27, r26
    2058:	a9 2f       	mov	r26, r25
    205a:	98 2f       	mov	r25, r24
    205c:	88 27       	eor	r24, r24
    205e:	31 97       	sbiw	r30, 0x01	; 1
    2060:	60 81       	ld	r22, Z
    2062:	86 2b       	or	r24, r22
    2064:	ba 2f       	mov	r27, r26
    2066:	a9 2f       	mov	r26, r25
    2068:	98 2f       	mov	r25, r24
    206a:	88 27       	eor	r24, r24
    206c:	31 97       	sbiw	r30, 0x01	; 1
    206e:	60 81       	ld	r22, Z
    2070:	86 2b       	or	r24, r22
    2072:	ba 2f       	mov	r27, r26
    2074:	a9 2f       	mov	r26, r25
    2076:	98 2f       	mov	r25, r24
    2078:	88 27       	eor	r24, r24
    207a:	31 97       	sbiw	r30, 0x01	; 1
    207c:	60 81       	ld	r22, Z
    207e:	86 2b       	or	r24, r22
    2080:	f7 01       	movw	r30, r14
    2082:	87 a3       	std	Z+39, r24	; 0x27
    2084:	90 a7       	std	Z+40, r25	; 0x28
    2086:	a1 a7       	std	Z+41, r26	; 0x29
    2088:	b2 a7       	std	Z+42, r27	; 0x2a
    208a:	da 01       	movw	r26, r20
    208c:	c9 01       	movw	r24, r18
    208e:	88 0f       	add	r24, r24
    2090:	99 1f       	adc	r25, r25
    2092:	aa 1f       	adc	r26, r26
    2094:	bb 1f       	adc	r27, r27
    2096:	88 0f       	add	r24, r24
    2098:	99 1f       	adc	r25, r25
    209a:	aa 1f       	adc	r26, r26
    209c:	bb 1f       	adc	r27, r27
    209e:	81 50       	subi	r24, 0x01	; 1
    20a0:	9e 4f       	sbci	r25, 0xFE	; 254
    20a2:	af 4f       	sbci	r26, 0xFF	; 255
    20a4:	bf 4f       	sbci	r27, 0xFF	; 255
    20a6:	39 e0       	ldi	r19, 0x09	; 9
    20a8:	b6 95       	lsr	r27
    20aa:	a7 95       	ror	r26
    20ac:	97 95       	ror	r25
    20ae:	87 95       	ror	r24
    20b0:	3a 95       	dec	r19
    20b2:	d1 f7       	brne	.-12     	; 0x20a8 <find_volume+0x8f4>
    20b4:	48 16       	cp	r4, r24
    20b6:	59 06       	cpc	r5, r25
    20b8:	6a 06       	cpc	r6, r26
    20ba:	7b 06       	cpc	r7, r27
    20bc:	08 f4       	brcc	.+2      	; 0x20c0 <find_volume+0x90c>
    20be:	35 cc       	rjmp	.-1942   	; 0x192a <find_volume+0x176>
    20c0:	8f ef       	ldi	r24, 0xFF	; 255
    20c2:	9f ef       	ldi	r25, 0xFF	; 255
    20c4:	dc 01       	movw	r26, r24
    20c6:	f7 01       	movw	r30, r14
    20c8:	87 87       	std	Z+15, r24	; 0x0f
    20ca:	90 8b       	std	Z+16, r25	; 0x10
    20cc:	a1 8b       	std	Z+17, r26	; 0x11
    20ce:	b2 8b       	std	Z+18, r27	; 0x12
    20d0:	83 87       	std	Z+11, r24	; 0x0b
    20d2:	94 87       	std	Z+12, r25	; 0x0c
    20d4:	a5 87       	std	Z+13, r26	; 0x0d
    20d6:	b6 87       	std	Z+14, r27	; 0x0e
    20d8:	80 e8       	ldi	r24, 0x80	; 128
    20da:	84 83       	std	Z+4, r24	; 0x04
    20dc:	ec 59       	subi	r30, 0x9C	; 156
    20de:	ff 4f       	sbci	r31, 0xFF	; 255
    20e0:	80 81       	ld	r24, Z
    20e2:	90 e0       	ldi	r25, 0x00	; 0
    20e4:	98 2f       	mov	r25, r24
    20e6:	88 27       	eor	r24, r24
    20e8:	31 97       	sbiw	r30, 0x01	; 1
    20ea:	20 81       	ld	r18, Z
    20ec:	82 2b       	or	r24, r18
    20ee:	01 97       	sbiw	r24, 0x01	; 1
    20f0:	11 f0       	breq	.+4      	; 0x20f6 <find_volume+0x942>
    20f2:	83 e0       	ldi	r24, 0x03	; 3
    20f4:	d4 ce       	rjmp	.-600    	; 0x1e9e <find_volume+0x6ea>
    20f6:	4d 8d       	ldd	r20, Y+29	; 0x1d
    20f8:	5e 8d       	ldd	r21, Y+30	; 0x1e
    20fa:	6f 8d       	ldd	r22, Y+31	; 0x1f
    20fc:	78 a1       	ldd	r23, Y+32	; 0x20
    20fe:	4f 5f       	subi	r20, 0xFF	; 255
    2100:	5f 4f       	sbci	r21, 0xFF	; 255
    2102:	6f 4f       	sbci	r22, 0xFF	; 255
    2104:	7f 4f       	sbci	r23, 0xFF	; 255
    2106:	c7 01       	movw	r24, r14
    2108:	fe d9       	rcall	.-3076   	; 0x1506 <move_window>
    210a:	81 11       	cpse	r24, r1
    210c:	f2 cf       	rjmp	.-28     	; 0x20f2 <find_volume+0x93e>
    210e:	d7 01       	movw	r26, r14
    2110:	14 96       	adiw	r26, 0x04	; 4
    2112:	1c 92       	st	X, r1
    2114:	f6 01       	movw	r30, r12
    2116:	80 81       	ld	r24, Z
    2118:	90 e0       	ldi	r25, 0x00	; 0
    211a:	98 2f       	mov	r25, r24
    211c:	88 27       	eor	r24, r24
    211e:	d1 01       	movw	r26, r2
    2120:	2c 91       	ld	r18, X
    2122:	82 2b       	or	r24, r18
    2124:	85 35       	cpi	r24, 0x55	; 85
    2126:	9a 4a       	sbci	r25, 0xAA	; 170
    2128:	21 f7       	brne	.-56     	; 0x20f2 <find_volume+0x93e>
    212a:	f7 01       	movw	r30, r14
    212c:	86 a9       	ldd	r24, Z+54	; 0x36
    212e:	90 e0       	ldi	r25, 0x00	; 0
    2130:	a0 e0       	ldi	r26, 0x00	; 0
    2132:	b0 e0       	ldi	r27, 0x00	; 0
    2134:	ba 2f       	mov	r27, r26
    2136:	a9 2f       	mov	r26, r25
    2138:	98 2f       	mov	r25, r24
    213a:	88 27       	eor	r24, r24
    213c:	25 a9       	ldd	r18, Z+53	; 0x35
    213e:	82 2b       	or	r24, r18
    2140:	ba 2f       	mov	r27, r26
    2142:	a9 2f       	mov	r26, r25
    2144:	98 2f       	mov	r25, r24
    2146:	88 27       	eor	r24, r24
    2148:	24 a9       	ldd	r18, Z+52	; 0x34
    214a:	82 2b       	or	r24, r18
    214c:	ba 2f       	mov	r27, r26
    214e:	a9 2f       	mov	r26, r25
    2150:	98 2f       	mov	r25, r24
    2152:	88 27       	eor	r24, r24
    2154:	23 a9       	ldd	r18, Z+51	; 0x33
    2156:	82 2b       	or	r24, r18
    2158:	82 35       	cpi	r24, 0x52	; 82
    215a:	92 45       	sbci	r25, 0x52	; 82
    215c:	a1 46       	sbci	r26, 0x61	; 97
    215e:	b1 44       	sbci	r27, 0x41	; 65
    2160:	41 f6       	brne	.-112    	; 0x20f2 <find_volume+0x93e>
    2162:	f7 01       	movw	r30, r14
    2164:	e6 5e       	subi	r30, 0xE6	; 230
    2166:	fd 4f       	sbci	r31, 0xFD	; 253
    2168:	80 81       	ld	r24, Z
    216a:	90 e0       	ldi	r25, 0x00	; 0
    216c:	a0 e0       	ldi	r26, 0x00	; 0
    216e:	b0 e0       	ldi	r27, 0x00	; 0
    2170:	ba 2f       	mov	r27, r26
    2172:	a9 2f       	mov	r26, r25
    2174:	98 2f       	mov	r25, r24
    2176:	88 27       	eor	r24, r24
    2178:	31 97       	sbiw	r30, 0x01	; 1
    217a:	20 81       	ld	r18, Z
    217c:	82 2b       	or	r24, r18
    217e:	ba 2f       	mov	r27, r26
    2180:	a9 2f       	mov	r26, r25
    2182:	98 2f       	mov	r25, r24
    2184:	88 27       	eor	r24, r24
    2186:	31 97       	sbiw	r30, 0x01	; 1
    2188:	20 81       	ld	r18, Z
    218a:	82 2b       	or	r24, r18
    218c:	ba 2f       	mov	r27, r26
    218e:	a9 2f       	mov	r26, r25
    2190:	98 2f       	mov	r25, r24
    2192:	88 27       	eor	r24, r24
    2194:	31 97       	sbiw	r30, 0x01	; 1
    2196:	20 81       	ld	r18, Z
    2198:	82 2b       	or	r24, r18
    219a:	82 37       	cpi	r24, 0x72	; 114
    219c:	92 47       	sbci	r25, 0x72	; 114
    219e:	a1 44       	sbci	r26, 0x41	; 65
    21a0:	b1 46       	sbci	r27, 0x61	; 97
    21a2:	09 f0       	breq	.+2      	; 0x21a6 <find_volume+0x9f2>
    21a4:	a6 cf       	rjmp	.-180    	; 0x20f2 <find_volume+0x93e>
    21a6:	37 96       	adiw	r30, 0x07	; 7
    21a8:	80 81       	ld	r24, Z
    21aa:	90 e0       	ldi	r25, 0x00	; 0
    21ac:	a0 e0       	ldi	r26, 0x00	; 0
    21ae:	b0 e0       	ldi	r27, 0x00	; 0
    21b0:	ba 2f       	mov	r27, r26
    21b2:	a9 2f       	mov	r26, r25
    21b4:	98 2f       	mov	r25, r24
    21b6:	88 27       	eor	r24, r24
    21b8:	31 97       	sbiw	r30, 0x01	; 1
    21ba:	20 81       	ld	r18, Z
    21bc:	82 2b       	or	r24, r18
    21be:	ba 2f       	mov	r27, r26
    21c0:	a9 2f       	mov	r26, r25
    21c2:	98 2f       	mov	r25, r24
    21c4:	88 27       	eor	r24, r24
    21c6:	31 97       	sbiw	r30, 0x01	; 1
    21c8:	20 81       	ld	r18, Z
    21ca:	82 2b       	or	r24, r18
    21cc:	ba 2f       	mov	r27, r26
    21ce:	a9 2f       	mov	r26, r25
    21d0:	98 2f       	mov	r25, r24
    21d2:	88 27       	eor	r24, r24
    21d4:	31 97       	sbiw	r30, 0x01	; 1
    21d6:	20 81       	ld	r18, Z
    21d8:	82 2b       	or	r24, r18
    21da:	f7 01       	movw	r30, r14
    21dc:	87 87       	std	Z+15, r24	; 0x0f
    21de:	90 8b       	std	Z+16, r25	; 0x10
    21e0:	a1 8b       	std	Z+17, r26	; 0x11
    21e2:	b2 8b       	std	Z+18, r27	; 0x12
    21e4:	ee 5d       	subi	r30, 0xDE	; 222
    21e6:	fd 4f       	sbci	r31, 0xFD	; 253
    21e8:	80 81       	ld	r24, Z
    21ea:	90 e0       	ldi	r25, 0x00	; 0
    21ec:	a0 e0       	ldi	r26, 0x00	; 0
    21ee:	b0 e0       	ldi	r27, 0x00	; 0
    21f0:	ba 2f       	mov	r27, r26
    21f2:	a9 2f       	mov	r26, r25
    21f4:	98 2f       	mov	r25, r24
    21f6:	88 27       	eor	r24, r24
    21f8:	31 97       	sbiw	r30, 0x01	; 1
    21fa:	20 81       	ld	r18, Z
    21fc:	82 2b       	or	r24, r18
    21fe:	ba 2f       	mov	r27, r26
    2200:	a9 2f       	mov	r26, r25
    2202:	98 2f       	mov	r25, r24
    2204:	88 27       	eor	r24, r24
    2206:	31 97       	sbiw	r30, 0x01	; 1
    2208:	20 81       	ld	r18, Z
    220a:	82 2b       	or	r24, r18
    220c:	ba 2f       	mov	r27, r26
    220e:	a9 2f       	mov	r26, r25
    2210:	98 2f       	mov	r25, r24
    2212:	88 27       	eor	r24, r24
    2214:	31 97       	sbiw	r30, 0x01	; 1
    2216:	20 81       	ld	r18, Z
    2218:	82 2b       	or	r24, r18
    221a:	f7 01       	movw	r30, r14
    221c:	83 87       	std	Z+11, r24	; 0x0b
    221e:	94 87       	std	Z+12, r25	; 0x0c
    2220:	a5 87       	std	Z+13, r26	; 0x0d
    2222:	b6 87       	std	Z+14, r27	; 0x0e
    2224:	66 cf       	rjmp	.-308    	; 0x20f2 <find_volume+0x93e>

00002226 <put_fat.part.7>:
    2226:	2f 92       	push	r2
    2228:	3f 92       	push	r3
    222a:	4f 92       	push	r4
    222c:	5f 92       	push	r5
    222e:	6f 92       	push	r6
    2230:	7f 92       	push	r7
    2232:	8f 92       	push	r8
    2234:	9f 92       	push	r9
    2236:	af 92       	push	r10
    2238:	bf 92       	push	r11
    223a:	cf 92       	push	r12
    223c:	df 92       	push	r13
    223e:	ef 92       	push	r14
    2240:	ff 92       	push	r15
    2242:	0f 93       	push	r16
    2244:	1f 93       	push	r17
    2246:	cf 93       	push	r28
    2248:	df 93       	push	r29
    224a:	cd b7       	in	r28, 0x3d	; 61
    224c:	de b7       	in	r29, 0x3e	; 62
    224e:	62 97       	sbiw	r28, 0x12	; 18
    2250:	cd bf       	out	0x3d, r28	; 61
    2252:	de bf       	out	0x3e, r29	; 62
    2254:	89 8b       	std	Y+17, r24	; 0x11
    2256:	9a 8b       	std	Y+18, r25	; 0x12
    2258:	6a 01       	movw	r12, r20
    225a:	7b 01       	movw	r14, r22
    225c:	48 01       	movw	r8, r16
    225e:	59 01       	movw	r10, r18
    2260:	dc 01       	movw	r26, r24
    2262:	8c 91       	ld	r24, X
    2264:	82 30       	cpi	r24, 0x02	; 2
    2266:	09 f4       	brne	.+2      	; 0x226a <put_fat.part.7+0x44>
    2268:	9e c1       	rjmp	.+828    	; 0x25a6 <put_fat.part.7+0x380>
    226a:	83 30       	cpi	r24, 0x03	; 3
    226c:	09 f4       	brne	.+2      	; 0x2270 <put_fat.part.7+0x4a>
    226e:	2c c1       	rjmp	.+600    	; 0x24c8 <put_fat.part.7+0x2a2>
    2270:	81 30       	cpi	r24, 0x01	; 1
    2272:	b9 f0       	breq	.+46     	; 0x22a2 <put_fat.part.7+0x7c>
    2274:	82 e0       	ldi	r24, 0x02	; 2
    2276:	62 96       	adiw	r28, 0x12	; 18
    2278:	cd bf       	out	0x3d, r28	; 61
    227a:	de bf       	out	0x3e, r29	; 62
    227c:	df 91       	pop	r29
    227e:	cf 91       	pop	r28
    2280:	1f 91       	pop	r17
    2282:	0f 91       	pop	r16
    2284:	ff 90       	pop	r15
    2286:	ef 90       	pop	r14
    2288:	df 90       	pop	r13
    228a:	cf 90       	pop	r12
    228c:	bf 90       	pop	r11
    228e:	af 90       	pop	r10
    2290:	9f 90       	pop	r9
    2292:	8f 90       	pop	r8
    2294:	7f 90       	pop	r7
    2296:	6f 90       	pop	r6
    2298:	5f 90       	pop	r5
    229a:	4f 90       	pop	r4
    229c:	3f 90       	pop	r3
    229e:	2f 90       	pop	r2
    22a0:	08 95       	ret
    22a2:	ca 01       	movw	r24, r20
    22a4:	96 95       	lsr	r25
    22a6:	87 95       	ror	r24
    22a8:	fc 01       	movw	r30, r24
    22aa:	ec 0d       	add	r30, r12
    22ac:	fd 1d       	adc	r31, r13
    22ae:	ed 83       	std	Y+5, r30	; 0x05
    22b0:	fe 83       	std	Y+6, r31	; 0x06
    22b2:	93 96       	adiw	r26, 0x23	; 35
    22b4:	8d 91       	ld	r24, X+
    22b6:	9d 91       	ld	r25, X+
    22b8:	0d 90       	ld	r0, X+
    22ba:	bc 91       	ld	r27, X
    22bc:	a0 2d       	mov	r26, r0
    22be:	9f 01       	movw	r18, r30
    22c0:	23 2f       	mov	r18, r19
    22c2:	33 27       	eor	r19, r19
    22c4:	26 95       	lsr	r18
    22c6:	ac 01       	movw	r20, r24
    22c8:	bd 01       	movw	r22, r26
    22ca:	42 0f       	add	r20, r18
    22cc:	53 1f       	adc	r21, r19
    22ce:	61 1d       	adc	r22, r1
    22d0:	71 1d       	adc	r23, r1
    22d2:	49 83       	std	Y+1, r20	; 0x01
    22d4:	5a 83       	std	Y+2, r21	; 0x02
    22d6:	6b 83       	std	Y+3, r22	; 0x03
    22d8:	7c 83       	std	Y+4, r23	; 0x04
    22da:	e9 89       	ldd	r30, Y+17	; 0x11
    22dc:	fa 89       	ldd	r31, Y+18	; 0x12
    22de:	47 a4       	ldd	r4, Z+47	; 0x2f
    22e0:	50 a8       	ldd	r5, Z+48	; 0x30
    22e2:	61 a8       	ldd	r6, Z+49	; 0x31
    22e4:	72 a8       	ldd	r7, Z+50	; 0x32
    22e6:	44 15       	cp	r20, r4
    22e8:	55 05       	cpc	r21, r5
    22ea:	66 05       	cpc	r22, r6
    22ec:	77 05       	cpc	r23, r7
    22ee:	09 f4       	brne	.+2      	; 0x22f2 <put_fat.part.7+0xcc>
    22f0:	ec c2       	rjmp	.+1496   	; 0x28ca <put_fat.part.7+0x6a4>
    22f2:	83 81       	ldd	r24, Z+3	; 0x03
    22f4:	81 11       	cpse	r24, r1
    22f6:	59 c2       	rjmp	.+1202   	; 0x27aa <put_fat.part.7+0x584>
    22f8:	f3 96       	adiw	r30, 0x33	; 51
    22fa:	1f 01       	movw	r2, r30
    22fc:	01 e0       	ldi	r16, 0x01	; 1
    22fe:	10 e0       	ldi	r17, 0x00	; 0
    2300:	29 81       	ldd	r18, Y+1	; 0x01
    2302:	3a 81       	ldd	r19, Y+2	; 0x02
    2304:	4b 81       	ldd	r20, Y+3	; 0x03
    2306:	5c 81       	ldd	r21, Y+4	; 0x04
    2308:	b1 01       	movw	r22, r2
    230a:	a9 89       	ldd	r26, Y+17	; 0x11
    230c:	ba 89       	ldd	r27, Y+18	; 0x12
    230e:	11 96       	adiw	r26, 0x01	; 1
    2310:	8c 91       	ld	r24, X
    2312:	0e 94 59 3b 	call	0x76b2	; 0x76b2 <disk_read>
    2316:	81 11       	cpse	r24, r1
    2318:	9f c2       	rjmp	.+1342   	; 0x2858 <put_fat.part.7+0x632>
    231a:	09 81       	ldd	r16, Y+1	; 0x01
    231c:	1a 81       	ldd	r17, Y+2	; 0x02
    231e:	2b 81       	ldd	r18, Y+3	; 0x03
    2320:	3c 81       	ldd	r19, Y+4	; 0x04
    2322:	a9 89       	ldd	r26, Y+17	; 0x11
    2324:	ba 89       	ldd	r27, Y+18	; 0x12
    2326:	9f 96       	adiw	r26, 0x2f	; 47
    2328:	0d 93       	st	X+, r16
    232a:	1d 93       	st	X+, r17
    232c:	2d 93       	st	X+, r18
    232e:	3c 93       	st	X, r19
    2330:	d2 97       	sbiw	r26, 0x32	; 50
    2332:	fd 01       	movw	r30, r26
    2334:	83 a1       	ldd	r24, Z+35	; 0x23
    2336:	94 a1       	ldd	r25, Z+36	; 0x24
    2338:	a5 a1       	ldd	r26, Z+37	; 0x25
    233a:	b6 a1       	ldd	r27, Z+38	; 0x26
    233c:	28 01       	movw	r4, r16
    233e:	39 01       	movw	r6, r18
    2340:	0d 81       	ldd	r16, Y+5	; 0x05
    2342:	1e 81       	ldd	r17, Y+6	; 0x06
    2344:	0f 5f       	subi	r16, 0xFF	; 255
    2346:	1f 4f       	sbci	r17, 0xFF	; 255
    2348:	09 87       	std	Y+9, r16	; 0x09
    234a:	1a 87       	std	Y+10, r17	; 0x0a
    234c:	6d 81       	ldd	r22, Y+5	; 0x05
    234e:	7e 81       	ldd	r23, Y+6	; 0x06
    2350:	71 70       	andi	r23, 0x01	; 1
    2352:	a7 01       	movw	r20, r14
    2354:	96 01       	movw	r18, r12
    2356:	21 70       	andi	r18, 0x01	; 1
    2358:	33 27       	eor	r19, r19
    235a:	44 27       	eor	r20, r20
    235c:	55 27       	eor	r21, r21
    235e:	2d 87       	std	Y+13, r18	; 0x0d
    2360:	3e 87       	std	Y+14, r19	; 0x0e
    2362:	4f 87       	std	Y+15, r20	; 0x0f
    2364:	58 8b       	std	Y+16, r21	; 0x10
    2366:	e9 89       	ldd	r30, Y+17	; 0x11
    2368:	fa 89       	ldd	r31, Y+18	; 0x12
    236a:	e6 0f       	add	r30, r22
    236c:	f7 1f       	adc	r31, r23
    236e:	c0 fe       	sbrs	r12, 0
    2370:	7e c2       	rjmp	.+1276   	; 0x286e <put_fat.part.7+0x648>
    2372:	23 a9       	ldd	r18, Z+51	; 0x33
    2374:	42 2f       	mov	r20, r18
    2376:	4f 70       	andi	r20, 0x0F	; 15
    2378:	50 e1       	ldi	r21, 0x10	; 16
    237a:	85 9e       	mul	r8, r21
    237c:	90 01       	movw	r18, r0
    237e:	11 24       	eor	r1, r1
    2380:	24 2b       	or	r18, r20
    2382:	23 ab       	std	Z+51, r18	; 0x33
    2384:	21 e0       	ldi	r18, 0x01	; 1
    2386:	e9 89       	ldd	r30, Y+17	; 0x11
    2388:	fa 89       	ldd	r31, Y+18	; 0x12
    238a:	23 83       	std	Z+3, r18	; 0x03
    238c:	98 01       	movw	r18, r16
    238e:	23 2f       	mov	r18, r19
    2390:	33 27       	eor	r19, r19
    2392:	26 95       	lsr	r18
    2394:	6c 01       	movw	r12, r24
    2396:	7d 01       	movw	r14, r26
    2398:	c2 0e       	add	r12, r18
    239a:	d3 1e       	adc	r13, r19
    239c:	e1 1c       	adc	r14, r1
    239e:	f1 1c       	adc	r15, r1
    23a0:	09 81       	ldd	r16, Y+1	; 0x01
    23a2:	1a 81       	ldd	r17, Y+2	; 0x02
    23a4:	2b 81       	ldd	r18, Y+3	; 0x03
    23a6:	3c 81       	ldd	r19, Y+4	; 0x04
    23a8:	c0 16       	cp	r12, r16
    23aa:	d1 06       	cpc	r13, r17
    23ac:	e2 06       	cpc	r14, r18
    23ae:	f3 06       	cpc	r15, r19
    23b0:	09 f4       	brne	.+2      	; 0x23b4 <put_fat.part.7+0x18e>
    23b2:	8e c2       	rjmp	.+1308   	; 0x28d0 <put_fat.part.7+0x6aa>
    23b4:	29 89       	ldd	r18, Y+17	; 0x11
    23b6:	3a 89       	ldd	r19, Y+18	; 0x12
    23b8:	2d 5c       	subi	r18, 0xCD	; 205
    23ba:	3f 4f       	sbci	r19, 0xFF	; 255
    23bc:	2d 83       	std	Y+5, r18	; 0x05
    23be:	3e 83       	std	Y+6, r19	; 0x06
    23c0:	01 e0       	ldi	r16, 0x01	; 1
    23c2:	10 e0       	ldi	r17, 0x00	; 0
    23c4:	29 81       	ldd	r18, Y+1	; 0x01
    23c6:	3a 81       	ldd	r19, Y+2	; 0x02
    23c8:	4b 81       	ldd	r20, Y+3	; 0x03
    23ca:	5c 81       	ldd	r21, Y+4	; 0x04
    23cc:	6d 81       	ldd	r22, Y+5	; 0x05
    23ce:	7e 81       	ldd	r23, Y+6	; 0x06
    23d0:	a9 89       	ldd	r26, Y+17	; 0x11
    23d2:	ba 89       	ldd	r27, Y+18	; 0x12
    23d4:	11 96       	adiw	r26, 0x01	; 1
    23d6:	8c 91       	ld	r24, X
    23d8:	0e 94 6d 3b 	call	0x76da	; 0x76da <disk_write>
    23dc:	81 11       	cpse	r24, r1
    23de:	45 c2       	rjmp	.+1162   	; 0x286a <put_fat.part.7+0x644>
    23e0:	e9 89       	ldd	r30, Y+17	; 0x11
    23e2:	fa 89       	ldd	r31, Y+18	; 0x12
    23e4:	13 82       	std	Z+3, r1	; 0x03
    23e6:	83 8d       	ldd	r24, Z+27	; 0x1b
    23e8:	94 8d       	ldd	r25, Z+28	; 0x1c
    23ea:	a5 8d       	ldd	r26, Z+29	; 0x1d
    23ec:	b6 8d       	ldd	r27, Z+30	; 0x1e
    23ee:	43 a1       	ldd	r20, Z+35	; 0x23
    23f0:	54 a1       	ldd	r21, Z+36	; 0x24
    23f2:	65 a1       	ldd	r22, Z+37	; 0x25
    23f4:	76 a1       	ldd	r23, Z+38	; 0x26
    23f6:	09 81       	ldd	r16, Y+1	; 0x01
    23f8:	1a 81       	ldd	r17, Y+2	; 0x02
    23fa:	2b 81       	ldd	r18, Y+3	; 0x03
    23fc:	3c 81       	ldd	r19, Y+4	; 0x04
    23fe:	04 1b       	sub	r16, r20
    2400:	15 0b       	sbc	r17, r21
    2402:	26 0b       	sbc	r18, r22
    2404:	37 0b       	sbc	r19, r23
    2406:	08 17       	cp	r16, r24
    2408:	19 07       	cpc	r17, r25
    240a:	2a 07       	cpc	r18, r26
    240c:	3b 07       	cpc	r19, r27
    240e:	70 f5       	brcc	.+92     	; 0x246c <put_fat.part.7+0x246>
    2410:	22 81       	ldd	r18, Z+2	; 0x02
    2412:	22 2e       	mov	r2, r18
    2414:	31 2c       	mov	r3, r1
    2416:	12 e0       	ldi	r17, 0x02	; 2
    2418:	21 16       	cp	r2, r17
    241a:	31 04       	cpc	r3, r1
    241c:	38 f1       	brcs	.+78     	; 0x246c <put_fat.part.7+0x246>
    241e:	c9 82       	std	Y+1, r12	; 0x01
    2420:	da 82       	std	Y+2, r13	; 0x02
    2422:	eb 82       	std	Y+3, r14	; 0x03
    2424:	fc 82       	std	Y+4, r15	; 0x04
    2426:	ed 80       	ldd	r14, Y+5	; 0x05
    2428:	fe 80       	ldd	r15, Y+6	; 0x06
    242a:	06 c0       	rjmp	.+12     	; 0x2438 <put_fat.part.7+0x212>
    242c:	e9 89       	ldd	r30, Y+17	; 0x11
    242e:	fa 89       	ldd	r31, Y+18	; 0x12
    2430:	83 8d       	ldd	r24, Z+27	; 0x1b
    2432:	94 8d       	ldd	r25, Z+28	; 0x1c
    2434:	a5 8d       	ldd	r26, Z+29	; 0x1d
    2436:	b6 8d       	ldd	r27, Z+30	; 0x1e
    2438:	48 0e       	add	r4, r24
    243a:	59 1e       	adc	r5, r25
    243c:	6a 1e       	adc	r6, r26
    243e:	7b 1e       	adc	r7, r27
    2440:	01 e0       	ldi	r16, 0x01	; 1
    2442:	10 e0       	ldi	r17, 0x00	; 0
    2444:	a3 01       	movw	r20, r6
    2446:	92 01       	movw	r18, r4
    2448:	b7 01       	movw	r22, r14
    244a:	a9 89       	ldd	r26, Y+17	; 0x11
    244c:	ba 89       	ldd	r27, Y+18	; 0x12
    244e:	11 96       	adiw	r26, 0x01	; 1
    2450:	8c 91       	ld	r24, X
    2452:	0e 94 6d 3b 	call	0x76da	; 0x76da <disk_write>
    2456:	b1 e0       	ldi	r27, 0x01	; 1
    2458:	2b 1a       	sub	r2, r27
    245a:	31 08       	sbc	r3, r1
    245c:	e1 e0       	ldi	r30, 0x01	; 1
    245e:	2e 16       	cp	r2, r30
    2460:	31 04       	cpc	r3, r1
    2462:	21 f7       	brne	.-56     	; 0x242c <put_fat.part.7+0x206>
    2464:	c9 80       	ldd	r12, Y+1	; 0x01
    2466:	da 80       	ldd	r13, Y+2	; 0x02
    2468:	eb 80       	ldd	r14, Y+3	; 0x03
    246a:	fc 80       	ldd	r15, Y+4	; 0x04
    246c:	01 e0       	ldi	r16, 0x01	; 1
    246e:	10 e0       	ldi	r17, 0x00	; 0
    2470:	a7 01       	movw	r20, r14
    2472:	96 01       	movw	r18, r12
    2474:	6d 81       	ldd	r22, Y+5	; 0x05
    2476:	7e 81       	ldd	r23, Y+6	; 0x06
    2478:	e9 89       	ldd	r30, Y+17	; 0x11
    247a:	fa 89       	ldd	r31, Y+18	; 0x12
    247c:	81 81       	ldd	r24, Z+1	; 0x01
    247e:	0e 94 59 3b 	call	0x76b2	; 0x76b2 <disk_read>
    2482:	81 11       	cpse	r24, r1
    2484:	e9 c1       	rjmp	.+978    	; 0x2858 <put_fat.part.7+0x632>
    2486:	a9 89       	ldd	r26, Y+17	; 0x11
    2488:	ba 89       	ldd	r27, Y+18	; 0x12
    248a:	9f 96       	adiw	r26, 0x2f	; 47
    248c:	cd 92       	st	X+, r12
    248e:	dd 92       	st	X+, r13
    2490:	ed 92       	st	X+, r14
    2492:	fc 92       	st	X, r15
    2494:	d2 97       	sbiw	r26, 0x32	; 50
    2496:	e9 85       	ldd	r30, Y+9	; 0x09
    2498:	fa 85       	ldd	r31, Y+10	; 0x0a
    249a:	f1 70       	andi	r31, 0x01	; 1
    249c:	0d 85       	ldd	r16, Y+13	; 0x0d
    249e:	1e 85       	ldd	r17, Y+14	; 0x0e
    24a0:	2f 85       	ldd	r18, Y+15	; 0x0f
    24a2:	38 89       	ldd	r19, Y+16	; 0x10
    24a4:	01 2b       	or	r16, r17
    24a6:	02 2b       	or	r16, r18
    24a8:	03 2b       	or	r16, r19
    24aa:	09 f4       	brne	.+2      	; 0x24ae <put_fat.part.7+0x288>
    24ac:	fd c1       	rjmp	.+1018   	; 0x28a8 <put_fat.part.7+0x682>
    24ae:	94 e0       	ldi	r25, 0x04	; 4
    24b0:	b6 94       	lsr	r11
    24b2:	a7 94       	ror	r10
    24b4:	97 94       	ror	r9
    24b6:	87 94       	ror	r8
    24b8:	9a 95       	dec	r25
    24ba:	d1 f7       	brne	.-12     	; 0x24b0 <put_fat.part.7+0x28a>
    24bc:	09 89       	ldd	r16, Y+17	; 0x11
    24be:	1a 89       	ldd	r17, Y+18	; 0x12
    24c0:	e0 0f       	add	r30, r16
    24c2:	f1 1f       	adc	r31, r17
    24c4:	d8 01       	movw	r26, r16
    24c6:	fb c1       	rjmp	.+1014   	; 0x28be <put_fat.part.7+0x698>
    24c8:	e9 89       	ldd	r30, Y+17	; 0x11
    24ca:	fa 89       	ldd	r31, Y+18	; 0x12
    24cc:	43 a1       	ldd	r20, Z+35	; 0x23
    24ce:	54 a1       	ldd	r21, Z+36	; 0x24
    24d0:	65 a1       	ldd	r22, Z+37	; 0x25
    24d2:	76 a1       	ldd	r23, Z+38	; 0x26
    24d4:	d7 01       	movw	r26, r14
    24d6:	c6 01       	movw	r24, r12
    24d8:	17 e0       	ldi	r17, 0x07	; 7
    24da:	b6 95       	lsr	r27
    24dc:	a7 95       	ror	r26
    24de:	97 95       	ror	r25
    24e0:	87 95       	ror	r24
    24e2:	1a 95       	dec	r17
    24e4:	d1 f7       	brne	.-12     	; 0x24da <put_fat.part.7+0x2b4>
    24e6:	8c 01       	movw	r16, r24
    24e8:	9d 01       	movw	r18, r26
    24ea:	04 0f       	add	r16, r20
    24ec:	15 1f       	adc	r17, r21
    24ee:	26 1f       	adc	r18, r22
    24f0:	37 1f       	adc	r19, r23
    24f2:	09 83       	std	Y+1, r16	; 0x01
    24f4:	1a 83       	std	Y+2, r17	; 0x02
    24f6:	2b 83       	std	Y+3, r18	; 0x03
    24f8:	3c 83       	std	Y+4, r19	; 0x04
    24fa:	47 a4       	ldd	r4, Z+47	; 0x2f
    24fc:	50 a8       	ldd	r5, Z+48	; 0x30
    24fe:	61 a8       	ldd	r6, Z+49	; 0x31
    2500:	72 a8       	ldd	r7, Z+50	; 0x32
    2502:	04 15       	cp	r16, r4
    2504:	15 05       	cpc	r17, r5
    2506:	26 05       	cpc	r18, r6
    2508:	37 05       	cpc	r19, r7
    250a:	f9 f0       	breq	.+62     	; 0x254a <put_fat.part.7+0x324>
    250c:	83 81       	ldd	r24, Z+3	; 0x03
    250e:	81 11       	cpse	r24, r1
    2510:	f5 c0       	rjmp	.+490    	; 0x26fc <put_fat.part.7+0x4d6>
    2512:	f3 96       	adiw	r30, 0x33	; 51
    2514:	1f 01       	movw	r2, r30
    2516:	01 e0       	ldi	r16, 0x01	; 1
    2518:	10 e0       	ldi	r17, 0x00	; 0
    251a:	29 81       	ldd	r18, Y+1	; 0x01
    251c:	3a 81       	ldd	r19, Y+2	; 0x02
    251e:	4b 81       	ldd	r20, Y+3	; 0x03
    2520:	5c 81       	ldd	r21, Y+4	; 0x04
    2522:	b1 01       	movw	r22, r2
    2524:	e9 89       	ldd	r30, Y+17	; 0x11
    2526:	fa 89       	ldd	r31, Y+18	; 0x12
    2528:	81 81       	ldd	r24, Z+1	; 0x01
    252a:	0e 94 59 3b 	call	0x76b2	; 0x76b2 <disk_read>
    252e:	81 11       	cpse	r24, r1
    2530:	93 c1       	rjmp	.+806    	; 0x2858 <put_fat.part.7+0x632>
    2532:	09 81       	ldd	r16, Y+1	; 0x01
    2534:	1a 81       	ldd	r17, Y+2	; 0x02
    2536:	2b 81       	ldd	r18, Y+3	; 0x03
    2538:	3c 81       	ldd	r19, Y+4	; 0x04
    253a:	a9 89       	ldd	r26, Y+17	; 0x11
    253c:	ba 89       	ldd	r27, Y+18	; 0x12
    253e:	9f 96       	adiw	r26, 0x2f	; 47
    2540:	0d 93       	st	X+, r16
    2542:	1d 93       	st	X+, r17
    2544:	2d 93       	st	X+, r18
    2546:	3c 93       	st	X, r19
    2548:	d2 97       	sbiw	r26, 0x32	; 50
    254a:	ff e0       	ldi	r31, 0x0F	; 15
    254c:	bf 22       	and	r11, r31
    254e:	cc 0c       	add	r12, r12
    2550:	dd 1c       	adc	r13, r13
    2552:	cc 0c       	add	r12, r12
    2554:	dd 1c       	adc	r13, r13
    2556:	0c ef       	ldi	r16, 0xFC	; 252
    2558:	c0 22       	and	r12, r16
    255a:	01 e0       	ldi	r16, 0x01	; 1
    255c:	d0 22       	and	r13, r16
    255e:	f6 01       	movw	r30, r12
    2560:	f3 96       	adiw	r30, 0x33	; 51
    2562:	29 89       	ldd	r18, Y+17	; 0x11
    2564:	3a 89       	ldd	r19, Y+18	; 0x12
    2566:	e2 0f       	add	r30, r18
    2568:	f3 1f       	adc	r31, r19
    256a:	83 81       	ldd	r24, Z+3	; 0x03
    256c:	90 e0       	ldi	r25, 0x00	; 0
    256e:	a0 e0       	ldi	r26, 0x00	; 0
    2570:	b0 e0       	ldi	r27, 0x00	; 0
    2572:	b8 2f       	mov	r27, r24
    2574:	aa 27       	eor	r26, r26
    2576:	99 27       	eor	r25, r25
    2578:	88 27       	eor	r24, r24
    257a:	2c 0d       	add	r18, r12
    257c:	3d 1d       	adc	r19, r13
    257e:	88 27       	eor	r24, r24
    2580:	99 27       	eor	r25, r25
    2582:	aa 27       	eor	r26, r26
    2584:	b0 7f       	andi	r27, 0xF0	; 240
    2586:	88 2a       	or	r8, r24
    2588:	99 2a       	or	r9, r25
    258a:	aa 2a       	or	r10, r26
    258c:	bb 2a       	or	r11, r27
    258e:	d9 01       	movw	r26, r18
    2590:	d3 96       	adiw	r26, 0x33	; 51
    2592:	8c 92       	st	X, r8
    2594:	91 82       	std	Z+1, r9	; 0x01
    2596:	a2 82       	std	Z+2, r10	; 0x02
    2598:	b3 82       	std	Z+3, r11	; 0x03
    259a:	81 e0       	ldi	r24, 0x01	; 1
    259c:	e9 89       	ldd	r30, Y+17	; 0x11
    259e:	fa 89       	ldd	r31, Y+18	; 0x12
    25a0:	83 83       	std	Z+3, r24	; 0x03
    25a2:	80 e0       	ldi	r24, 0x00	; 0
    25a4:	68 ce       	rjmp	.-816    	; 0x2276 <put_fat.part.7+0x50>
    25a6:	bb 27       	eor	r27, r27
    25a8:	a7 2f       	mov	r26, r23
    25aa:	96 2f       	mov	r25, r22
    25ac:	85 2f       	mov	r24, r21
    25ae:	e9 89       	ldd	r30, Y+17	; 0x11
    25b0:	fa 89       	ldd	r31, Y+18	; 0x12
    25b2:	43 a1       	ldd	r20, Z+35	; 0x23
    25b4:	54 a1       	ldd	r21, Z+36	; 0x24
    25b6:	65 a1       	ldd	r22, Z+37	; 0x25
    25b8:	76 a1       	ldd	r23, Z+38	; 0x26
    25ba:	8c 01       	movw	r16, r24
    25bc:	9d 01       	movw	r18, r26
    25be:	04 0f       	add	r16, r20
    25c0:	15 1f       	adc	r17, r21
    25c2:	26 1f       	adc	r18, r22
    25c4:	37 1f       	adc	r19, r23
    25c6:	09 83       	std	Y+1, r16	; 0x01
    25c8:	1a 83       	std	Y+2, r17	; 0x02
    25ca:	2b 83       	std	Y+3, r18	; 0x03
    25cc:	3c 83       	std	Y+4, r19	; 0x04
    25ce:	47 a4       	ldd	r4, Z+47	; 0x2f
    25d0:	50 a8       	ldd	r5, Z+48	; 0x30
    25d2:	61 a8       	ldd	r6, Z+49	; 0x31
    25d4:	72 a8       	ldd	r7, Z+50	; 0x32
    25d6:	04 15       	cp	r16, r4
    25d8:	15 05       	cpc	r17, r5
    25da:	26 05       	cpc	r18, r6
    25dc:	37 05       	cpc	r19, r7
    25de:	01 f1       	breq	.+64     	; 0x2620 <put_fat.part.7+0x3fa>
    25e0:	83 81       	ldd	r24, Z+3	; 0x03
    25e2:	81 11       	cpse	r24, r1
    25e4:	34 c0       	rjmp	.+104    	; 0x264e <put_fat.part.7+0x428>
    25e6:	f3 96       	adiw	r30, 0x33	; 51
    25e8:	1f 01       	movw	r2, r30
    25ea:	01 e0       	ldi	r16, 0x01	; 1
    25ec:	10 e0       	ldi	r17, 0x00	; 0
    25ee:	29 81       	ldd	r18, Y+1	; 0x01
    25f0:	3a 81       	ldd	r19, Y+2	; 0x02
    25f2:	4b 81       	ldd	r20, Y+3	; 0x03
    25f4:	5c 81       	ldd	r21, Y+4	; 0x04
    25f6:	b1 01       	movw	r22, r2
    25f8:	a9 89       	ldd	r26, Y+17	; 0x11
    25fa:	ba 89       	ldd	r27, Y+18	; 0x12
    25fc:	11 96       	adiw	r26, 0x01	; 1
    25fe:	8c 91       	ld	r24, X
    2600:	0e 94 59 3b 	call	0x76b2	; 0x76b2 <disk_read>
    2604:	81 11       	cpse	r24, r1
    2606:	28 c1       	rjmp	.+592    	; 0x2858 <put_fat.part.7+0x632>
    2608:	29 81       	ldd	r18, Y+1	; 0x01
    260a:	3a 81       	ldd	r19, Y+2	; 0x02
    260c:	4b 81       	ldd	r20, Y+3	; 0x03
    260e:	5c 81       	ldd	r21, Y+4	; 0x04
    2610:	a9 89       	ldd	r26, Y+17	; 0x11
    2612:	ba 89       	ldd	r27, Y+18	; 0x12
    2614:	9f 96       	adiw	r26, 0x2f	; 47
    2616:	2d 93       	st	X+, r18
    2618:	3d 93       	st	X+, r19
    261a:	4d 93       	st	X+, r20
    261c:	5c 93       	st	X, r21
    261e:	d2 97       	sbiw	r26, 0x32	; 50
    2620:	cc 0c       	add	r12, r12
    2622:	dd 1c       	adc	r13, r13
    2624:	e8 94       	clt
    2626:	c0 f8       	bld	r12, 0
    2628:	f1 e0       	ldi	r31, 0x01	; 1
    262a:	df 22       	and	r13, r31
    262c:	e9 89       	ldd	r30, Y+17	; 0x11
    262e:	fa 89       	ldd	r31, Y+18	; 0x12
    2630:	ec 0d       	add	r30, r12
    2632:	fd 1d       	adc	r31, r13
    2634:	83 aa       	std	Z+51, r8	; 0x33
    2636:	e9 89       	ldd	r30, Y+17	; 0x11
    2638:	fa 89       	ldd	r31, Y+18	; 0x12
    263a:	ec 0d       	add	r30, r12
    263c:	fd 1d       	adc	r31, r13
    263e:	94 aa       	std	Z+52, r9	; 0x34
    2640:	81 e0       	ldi	r24, 0x01	; 1
    2642:	a9 89       	ldd	r26, Y+17	; 0x11
    2644:	ba 89       	ldd	r27, Y+18	; 0x12
    2646:	13 96       	adiw	r26, 0x03	; 3
    2648:	8c 93       	st	X, r24
    264a:	80 e0       	ldi	r24, 0x00	; 0
    264c:	14 ce       	rjmp	.-984    	; 0x2276 <put_fat.part.7+0x50>
    264e:	29 88       	ldd	r2, Y+17	; 0x11
    2650:	3a 88       	ldd	r3, Y+18	; 0x12
    2652:	13 e3       	ldi	r17, 0x33	; 51
    2654:	21 0e       	add	r2, r17
    2656:	31 1c       	adc	r3, r1
    2658:	01 e0       	ldi	r16, 0x01	; 1
    265a:	10 e0       	ldi	r17, 0x00	; 0
    265c:	a3 01       	movw	r20, r6
    265e:	92 01       	movw	r18, r4
    2660:	b1 01       	movw	r22, r2
    2662:	a9 89       	ldd	r26, Y+17	; 0x11
    2664:	ba 89       	ldd	r27, Y+18	; 0x12
    2666:	11 96       	adiw	r26, 0x01	; 1
    2668:	8c 91       	ld	r24, X
    266a:	0e 94 6d 3b 	call	0x76da	; 0x76da <disk_write>
    266e:	81 11       	cpse	r24, r1
    2670:	fc c0       	rjmp	.+504    	; 0x286a <put_fat.part.7+0x644>
    2672:	e9 89       	ldd	r30, Y+17	; 0x11
    2674:	fa 89       	ldd	r31, Y+18	; 0x12
    2676:	13 82       	std	Z+3, r1	; 0x03
    2678:	83 8d       	ldd	r24, Z+27	; 0x1b
    267a:	94 8d       	ldd	r25, Z+28	; 0x1c
    267c:	a5 8d       	ldd	r26, Z+29	; 0x1d
    267e:	b6 8d       	ldd	r27, Z+30	; 0x1e
    2680:	43 a1       	ldd	r20, Z+35	; 0x23
    2682:	54 a1       	ldd	r21, Z+36	; 0x24
    2684:	65 a1       	ldd	r22, Z+37	; 0x25
    2686:	76 a1       	ldd	r23, Z+38	; 0x26
    2688:	93 01       	movw	r18, r6
    268a:	82 01       	movw	r16, r4
    268c:	04 1b       	sub	r16, r20
    268e:	15 0b       	sbc	r17, r21
    2690:	26 0b       	sbc	r18, r22
    2692:	37 0b       	sbc	r19, r23
    2694:	08 17       	cp	r16, r24
    2696:	19 07       	cpc	r17, r25
    2698:	2a 07       	cpc	r18, r26
    269a:	3b 07       	cpc	r19, r27
    269c:	08 f0       	brcs	.+2      	; 0x26a0 <put_fat.part.7+0x47a>
    269e:	a5 cf       	rjmp	.-182    	; 0x25ea <put_fat.part.7+0x3c4>
    26a0:	22 81       	ldd	r18, Z+2	; 0x02
    26a2:	02 2f       	mov	r16, r18
    26a4:	10 e0       	ldi	r17, 0x00	; 0
    26a6:	02 30       	cpi	r16, 0x02	; 2
    26a8:	11 05       	cpc	r17, r1
    26aa:	08 f4       	brcc	.+2      	; 0x26ae <put_fat.part.7+0x488>
    26ac:	9e cf       	rjmp	.-196    	; 0x25ea <put_fat.part.7+0x3c4>
    26ae:	cd 82       	std	Y+5, r12	; 0x05
    26b0:	de 82       	std	Y+6, r13	; 0x06
    26b2:	ef 82       	std	Y+7, r14	; 0x07
    26b4:	f8 86       	std	Y+8, r15	; 0x08
    26b6:	78 01       	movw	r14, r16
    26b8:	06 c0       	rjmp	.+12     	; 0x26c6 <put_fat.part.7+0x4a0>
    26ba:	e9 89       	ldd	r30, Y+17	; 0x11
    26bc:	fa 89       	ldd	r31, Y+18	; 0x12
    26be:	83 8d       	ldd	r24, Z+27	; 0x1b
    26c0:	94 8d       	ldd	r25, Z+28	; 0x1c
    26c2:	a5 8d       	ldd	r26, Z+29	; 0x1d
    26c4:	b6 8d       	ldd	r27, Z+30	; 0x1e
    26c6:	48 0e       	add	r4, r24
    26c8:	59 1e       	adc	r5, r25
    26ca:	6a 1e       	adc	r6, r26
    26cc:	7b 1e       	adc	r7, r27
    26ce:	01 e0       	ldi	r16, 0x01	; 1
    26d0:	10 e0       	ldi	r17, 0x00	; 0
    26d2:	a3 01       	movw	r20, r6
    26d4:	92 01       	movw	r18, r4
    26d6:	b1 01       	movw	r22, r2
    26d8:	a9 89       	ldd	r26, Y+17	; 0x11
    26da:	ba 89       	ldd	r27, Y+18	; 0x12
    26dc:	11 96       	adiw	r26, 0x01	; 1
    26de:	8c 91       	ld	r24, X
    26e0:	0e 94 6d 3b 	call	0x76da	; 0x76da <disk_write>
    26e4:	b1 e0       	ldi	r27, 0x01	; 1
    26e6:	eb 1a       	sub	r14, r27
    26e8:	f1 08       	sbc	r15, r1
    26ea:	e1 e0       	ldi	r30, 0x01	; 1
    26ec:	ee 16       	cp	r14, r30
    26ee:	f1 04       	cpc	r15, r1
    26f0:	21 f7       	brne	.-56     	; 0x26ba <put_fat.part.7+0x494>
    26f2:	cd 80       	ldd	r12, Y+5	; 0x05
    26f4:	de 80       	ldd	r13, Y+6	; 0x06
    26f6:	ef 80       	ldd	r14, Y+7	; 0x07
    26f8:	f8 84       	ldd	r15, Y+8	; 0x08
    26fa:	77 cf       	rjmp	.-274    	; 0x25ea <put_fat.part.7+0x3c4>
    26fc:	29 88       	ldd	r2, Y+17	; 0x11
    26fe:	3a 88       	ldd	r3, Y+18	; 0x12
    2700:	13 e3       	ldi	r17, 0x33	; 51
    2702:	21 0e       	add	r2, r17
    2704:	31 1c       	adc	r3, r1
    2706:	01 e0       	ldi	r16, 0x01	; 1
    2708:	10 e0       	ldi	r17, 0x00	; 0
    270a:	a3 01       	movw	r20, r6
    270c:	92 01       	movw	r18, r4
    270e:	b1 01       	movw	r22, r2
    2710:	a9 89       	ldd	r26, Y+17	; 0x11
    2712:	ba 89       	ldd	r27, Y+18	; 0x12
    2714:	11 96       	adiw	r26, 0x01	; 1
    2716:	8c 91       	ld	r24, X
    2718:	0e 94 6d 3b 	call	0x76da	; 0x76da <disk_write>
    271c:	81 11       	cpse	r24, r1
    271e:	a5 c0       	rjmp	.+330    	; 0x286a <put_fat.part.7+0x644>
    2720:	e9 89       	ldd	r30, Y+17	; 0x11
    2722:	fa 89       	ldd	r31, Y+18	; 0x12
    2724:	13 82       	std	Z+3, r1	; 0x03
    2726:	83 8d       	ldd	r24, Z+27	; 0x1b
    2728:	94 8d       	ldd	r25, Z+28	; 0x1c
    272a:	a5 8d       	ldd	r26, Z+29	; 0x1d
    272c:	b6 8d       	ldd	r27, Z+30	; 0x1e
    272e:	43 a1       	ldd	r20, Z+35	; 0x23
    2730:	54 a1       	ldd	r21, Z+36	; 0x24
    2732:	65 a1       	ldd	r22, Z+37	; 0x25
    2734:	76 a1       	ldd	r23, Z+38	; 0x26
    2736:	93 01       	movw	r18, r6
    2738:	82 01       	movw	r16, r4
    273a:	04 1b       	sub	r16, r20
    273c:	15 0b       	sbc	r17, r21
    273e:	26 0b       	sbc	r18, r22
    2740:	37 0b       	sbc	r19, r23
    2742:	08 17       	cp	r16, r24
    2744:	19 07       	cpc	r17, r25
    2746:	2a 07       	cpc	r18, r26
    2748:	3b 07       	cpc	r19, r27
    274a:	08 f0       	brcs	.+2      	; 0x274e <put_fat.part.7+0x528>
    274c:	e4 ce       	rjmp	.-568    	; 0x2516 <put_fat.part.7+0x2f0>
    274e:	22 81       	ldd	r18, Z+2	; 0x02
    2750:	02 2f       	mov	r16, r18
    2752:	10 e0       	ldi	r17, 0x00	; 0
    2754:	02 30       	cpi	r16, 0x02	; 2
    2756:	11 05       	cpc	r17, r1
    2758:	08 f4       	brcc	.+2      	; 0x275c <put_fat.part.7+0x536>
    275a:	dd ce       	rjmp	.-582    	; 0x2516 <put_fat.part.7+0x2f0>
    275c:	cd 82       	std	Y+5, r12	; 0x05
    275e:	de 82       	std	Y+6, r13	; 0x06
    2760:	ef 82       	std	Y+7, r14	; 0x07
    2762:	f8 86       	std	Y+8, r15	; 0x08
    2764:	78 01       	movw	r14, r16
    2766:	06 c0       	rjmp	.+12     	; 0x2774 <put_fat.part.7+0x54e>
    2768:	e9 89       	ldd	r30, Y+17	; 0x11
    276a:	fa 89       	ldd	r31, Y+18	; 0x12
    276c:	83 8d       	ldd	r24, Z+27	; 0x1b
    276e:	94 8d       	ldd	r25, Z+28	; 0x1c
    2770:	a5 8d       	ldd	r26, Z+29	; 0x1d
    2772:	b6 8d       	ldd	r27, Z+30	; 0x1e
    2774:	48 0e       	add	r4, r24
    2776:	59 1e       	adc	r5, r25
    2778:	6a 1e       	adc	r6, r26
    277a:	7b 1e       	adc	r7, r27
    277c:	01 e0       	ldi	r16, 0x01	; 1
    277e:	10 e0       	ldi	r17, 0x00	; 0
    2780:	a3 01       	movw	r20, r6
    2782:	92 01       	movw	r18, r4
    2784:	b1 01       	movw	r22, r2
    2786:	a9 89       	ldd	r26, Y+17	; 0x11
    2788:	ba 89       	ldd	r27, Y+18	; 0x12
    278a:	11 96       	adiw	r26, 0x01	; 1
    278c:	8c 91       	ld	r24, X
    278e:	0e 94 6d 3b 	call	0x76da	; 0x76da <disk_write>
    2792:	b1 e0       	ldi	r27, 0x01	; 1
    2794:	eb 1a       	sub	r14, r27
    2796:	f1 08       	sbc	r15, r1
    2798:	e1 e0       	ldi	r30, 0x01	; 1
    279a:	ee 16       	cp	r14, r30
    279c:	f1 04       	cpc	r15, r1
    279e:	21 f7       	brne	.-56     	; 0x2768 <put_fat.part.7+0x542>
    27a0:	cd 80       	ldd	r12, Y+5	; 0x05
    27a2:	de 80       	ldd	r13, Y+6	; 0x06
    27a4:	ef 80       	ldd	r14, Y+7	; 0x07
    27a6:	f8 84       	ldd	r15, Y+8	; 0x08
    27a8:	b6 ce       	rjmp	.-660    	; 0x2516 <put_fat.part.7+0x2f0>
    27aa:	29 88       	ldd	r2, Y+17	; 0x11
    27ac:	3a 88       	ldd	r3, Y+18	; 0x12
    27ae:	f3 e3       	ldi	r31, 0x33	; 51
    27b0:	2f 0e       	add	r2, r31
    27b2:	31 1c       	adc	r3, r1
    27b4:	01 e0       	ldi	r16, 0x01	; 1
    27b6:	10 e0       	ldi	r17, 0x00	; 0
    27b8:	a3 01       	movw	r20, r6
    27ba:	92 01       	movw	r18, r4
    27bc:	b1 01       	movw	r22, r2
    27be:	a9 89       	ldd	r26, Y+17	; 0x11
    27c0:	ba 89       	ldd	r27, Y+18	; 0x12
    27c2:	11 96       	adiw	r26, 0x01	; 1
    27c4:	8c 91       	ld	r24, X
    27c6:	0e 94 6d 3b 	call	0x76da	; 0x76da <disk_write>
    27ca:	81 11       	cpse	r24, r1
    27cc:	4e c0       	rjmp	.+156    	; 0x286a <put_fat.part.7+0x644>
    27ce:	e9 89       	ldd	r30, Y+17	; 0x11
    27d0:	fa 89       	ldd	r31, Y+18	; 0x12
    27d2:	13 82       	std	Z+3, r1	; 0x03
    27d4:	83 8d       	ldd	r24, Z+27	; 0x1b
    27d6:	94 8d       	ldd	r25, Z+28	; 0x1c
    27d8:	a5 8d       	ldd	r26, Z+29	; 0x1d
    27da:	b6 8d       	ldd	r27, Z+30	; 0x1e
    27dc:	43 a1       	ldd	r20, Z+35	; 0x23
    27de:	54 a1       	ldd	r21, Z+36	; 0x24
    27e0:	65 a1       	ldd	r22, Z+37	; 0x25
    27e2:	76 a1       	ldd	r23, Z+38	; 0x26
    27e4:	93 01       	movw	r18, r6
    27e6:	82 01       	movw	r16, r4
    27e8:	04 1b       	sub	r16, r20
    27ea:	15 0b       	sbc	r17, r21
    27ec:	26 0b       	sbc	r18, r22
    27ee:	37 0b       	sbc	r19, r23
    27f0:	08 17       	cp	r16, r24
    27f2:	19 07       	cpc	r17, r25
    27f4:	2a 07       	cpc	r18, r26
    27f6:	3b 07       	cpc	r19, r27
    27f8:	08 f0       	brcs	.+2      	; 0x27fc <put_fat.part.7+0x5d6>
    27fa:	80 cd       	rjmp	.-1280   	; 0x22fc <put_fat.part.7+0xd6>
    27fc:	22 81       	ldd	r18, Z+2	; 0x02
    27fe:	02 2f       	mov	r16, r18
    2800:	10 e0       	ldi	r17, 0x00	; 0
    2802:	02 30       	cpi	r16, 0x02	; 2
    2804:	11 05       	cpc	r17, r1
    2806:	08 f4       	brcc	.+2      	; 0x280a <put_fat.part.7+0x5e4>
    2808:	79 cd       	rjmp	.-1294   	; 0x22fc <put_fat.part.7+0xd6>
    280a:	c9 86       	std	Y+9, r12	; 0x09
    280c:	da 86       	std	Y+10, r13	; 0x0a
    280e:	eb 86       	std	Y+11, r14	; 0x0b
    2810:	fc 86       	std	Y+12, r15	; 0x0c
    2812:	78 01       	movw	r14, r16
    2814:	06 c0       	rjmp	.+12     	; 0x2822 <put_fat.part.7+0x5fc>
    2816:	e9 89       	ldd	r30, Y+17	; 0x11
    2818:	fa 89       	ldd	r31, Y+18	; 0x12
    281a:	83 8d       	ldd	r24, Z+27	; 0x1b
    281c:	94 8d       	ldd	r25, Z+28	; 0x1c
    281e:	a5 8d       	ldd	r26, Z+29	; 0x1d
    2820:	b6 8d       	ldd	r27, Z+30	; 0x1e
    2822:	48 0e       	add	r4, r24
    2824:	59 1e       	adc	r5, r25
    2826:	6a 1e       	adc	r6, r26
    2828:	7b 1e       	adc	r7, r27
    282a:	01 e0       	ldi	r16, 0x01	; 1
    282c:	10 e0       	ldi	r17, 0x00	; 0
    282e:	a3 01       	movw	r20, r6
    2830:	92 01       	movw	r18, r4
    2832:	b1 01       	movw	r22, r2
    2834:	a9 89       	ldd	r26, Y+17	; 0x11
    2836:	ba 89       	ldd	r27, Y+18	; 0x12
    2838:	11 96       	adiw	r26, 0x01	; 1
    283a:	8c 91       	ld	r24, X
    283c:	0e 94 6d 3b 	call	0x76da	; 0x76da <disk_write>
    2840:	b1 e0       	ldi	r27, 0x01	; 1
    2842:	eb 1a       	sub	r14, r27
    2844:	f1 08       	sbc	r15, r1
    2846:	e1 e0       	ldi	r30, 0x01	; 1
    2848:	ee 16       	cp	r14, r30
    284a:	f1 04       	cpc	r15, r1
    284c:	21 f7       	brne	.-56     	; 0x2816 <put_fat.part.7+0x5f0>
    284e:	c9 84       	ldd	r12, Y+9	; 0x09
    2850:	da 84       	ldd	r13, Y+10	; 0x0a
    2852:	eb 84       	ldd	r14, Y+11	; 0x0b
    2854:	fc 84       	ldd	r15, Y+12	; 0x0c
    2856:	52 cd       	rjmp	.-1372   	; 0x22fc <put_fat.part.7+0xd6>
    2858:	8f ef       	ldi	r24, 0xFF	; 255
    285a:	9f ef       	ldi	r25, 0xFF	; 255
    285c:	dc 01       	movw	r26, r24
    285e:	e9 89       	ldd	r30, Y+17	; 0x11
    2860:	fa 89       	ldd	r31, Y+18	; 0x12
    2862:	87 a7       	std	Z+47, r24	; 0x2f
    2864:	90 ab       	std	Z+48, r25	; 0x30
    2866:	a1 ab       	std	Z+49, r26	; 0x31
    2868:	b2 ab       	std	Z+50, r27	; 0x32
    286a:	81 e0       	ldi	r24, 0x01	; 1
    286c:	04 cd       	rjmp	.-1528   	; 0x2276 <put_fat.part.7+0x50>
    286e:	83 aa       	std	Z+51, r8	; 0x33
    2870:	21 e0       	ldi	r18, 0x01	; 1
    2872:	e9 89       	ldd	r30, Y+17	; 0x11
    2874:	fa 89       	ldd	r31, Y+18	; 0x12
    2876:	23 83       	std	Z+3, r18	; 0x03
    2878:	29 85       	ldd	r18, Y+9	; 0x09
    287a:	3a 85       	ldd	r19, Y+10	; 0x0a
    287c:	23 2f       	mov	r18, r19
    287e:	33 27       	eor	r19, r19
    2880:	26 95       	lsr	r18
    2882:	6c 01       	movw	r12, r24
    2884:	7d 01       	movw	r14, r26
    2886:	c2 0e       	add	r12, r18
    2888:	d3 1e       	adc	r13, r19
    288a:	e1 1c       	adc	r14, r1
    288c:	f1 1c       	adc	r15, r1
    288e:	09 81       	ldd	r16, Y+1	; 0x01
    2890:	1a 81       	ldd	r17, Y+2	; 0x02
    2892:	2b 81       	ldd	r18, Y+3	; 0x03
    2894:	3c 81       	ldd	r19, Y+4	; 0x04
    2896:	c0 16       	cp	r12, r16
    2898:	d1 06       	cpc	r13, r17
    289a:	e2 06       	cpc	r14, r18
    289c:	f3 06       	cpc	r15, r19
    289e:	09 f0       	breq	.+2      	; 0x28a2 <put_fat.part.7+0x67c>
    28a0:	89 cd       	rjmp	.-1262   	; 0x23b4 <put_fat.part.7+0x18e>
    28a2:	e9 85       	ldd	r30, Y+9	; 0x09
    28a4:	fa 85       	ldd	r31, Y+10	; 0x0a
    28a6:	f1 70       	andi	r31, 0x01	; 1
    28a8:	29 89       	ldd	r18, Y+17	; 0x11
    28aa:	3a 89       	ldd	r19, Y+18	; 0x12
    28ac:	e2 0f       	add	r30, r18
    28ae:	f3 1f       	adc	r31, r19
    28b0:	93 a9       	ldd	r25, Z+51	; 0x33
    28b2:	90 7f       	andi	r25, 0xF0	; 240
    28b4:	89 2d       	mov	r24, r9
    28b6:	8f 70       	andi	r24, 0x0F	; 15
    28b8:	89 2e       	mov	r8, r25
    28ba:	88 2a       	or	r8, r24
    28bc:	d9 01       	movw	r26, r18
    28be:	83 aa       	std	Z+51, r8	; 0x33
    28c0:	81 e0       	ldi	r24, 0x01	; 1
    28c2:	13 96       	adiw	r26, 0x03	; 3
    28c4:	8c 93       	st	X, r24
    28c6:	80 e0       	ldi	r24, 0x00	; 0
    28c8:	d6 cc       	rjmp	.-1620   	; 0x2276 <put_fat.part.7+0x50>
    28ca:	2a 01       	movw	r4, r20
    28cc:	3b 01       	movw	r6, r22
    28ce:	38 cd       	rjmp	.-1424   	; 0x2340 <put_fat.part.7+0x11a>
    28d0:	e9 85       	ldd	r30, Y+9	; 0x09
    28d2:	fa 85       	ldd	r31, Y+10	; 0x0a
    28d4:	f1 70       	andi	r31, 0x01	; 1
    28d6:	eb cd       	rjmp	.-1066   	; 0x24ae <put_fat.part.7+0x288>

000028d8 <get_fat.isra.8>:
    28d8:	2f 92       	push	r2
    28da:	3f 92       	push	r3
    28dc:	4f 92       	push	r4
    28de:	5f 92       	push	r5
    28e0:	6f 92       	push	r6
    28e2:	7f 92       	push	r7
    28e4:	8f 92       	push	r8
    28e6:	9f 92       	push	r9
    28e8:	af 92       	push	r10
    28ea:	bf 92       	push	r11
    28ec:	cf 92       	push	r12
    28ee:	df 92       	push	r13
    28f0:	ef 92       	push	r14
    28f2:	ff 92       	push	r15
    28f4:	0f 93       	push	r16
    28f6:	1f 93       	push	r17
    28f8:	cf 93       	push	r28
    28fa:	df 93       	push	r29
    28fc:	cd b7       	in	r28, 0x3d	; 61
    28fe:	de b7       	in	r29, 0x3e	; 62
    2900:	60 97       	sbiw	r28, 0x10	; 16
    2902:	cd bf       	out	0x3d, r28	; 61
    2904:	de bf       	out	0x3e, r29	; 62
    2906:	8f 87       	std	Y+15, r24	; 0x0f
    2908:	98 8b       	std	Y+16, r25	; 0x10
    290a:	6a 01       	movw	r12, r20
    290c:	7b 01       	movw	r14, r22
    290e:	42 30       	cpi	r20, 0x02	; 2
    2910:	51 05       	cpc	r21, r1
    2912:	61 05       	cpc	r22, r1
    2914:	71 05       	cpc	r23, r1
    2916:	98 f0       	brcs	.+38     	; 0x293e <get_fat.isra.8+0x66>
    2918:	fc 01       	movw	r30, r24
    291a:	87 89       	ldd	r24, Z+23	; 0x17
    291c:	90 8d       	ldd	r25, Z+24	; 0x18
    291e:	a1 8d       	ldd	r26, Z+25	; 0x19
    2920:	b2 8d       	ldd	r27, Z+26	; 0x1a
    2922:	48 17       	cp	r20, r24
    2924:	59 07       	cpc	r21, r25
    2926:	6a 07       	cpc	r22, r26
    2928:	7b 07       	cpc	r23, r27
    292a:	48 f4       	brcc	.+18     	; 0x293e <get_fat.isra.8+0x66>
    292c:	80 81       	ld	r24, Z
    292e:	82 30       	cpi	r24, 0x02	; 2
    2930:	09 f4       	brne	.+2      	; 0x2934 <get_fat.isra.8+0x5c>
    2932:	b5 c0       	rjmp	.+362    	; 0x2a9e <get_fat.isra.8+0x1c6>
    2934:	83 30       	cpi	r24, 0x03	; 3
    2936:	09 f4       	brne	.+2      	; 0x293a <get_fat.isra.8+0x62>
    2938:	ea c0       	rjmp	.+468    	; 0x2b0e <get_fat.isra.8+0x236>
    293a:	81 30       	cpi	r24, 0x01	; 1
    293c:	d1 f0       	breq	.+52     	; 0x2972 <get_fat.isra.8+0x9a>
    293e:	61 e0       	ldi	r22, 0x01	; 1
    2940:	70 e0       	ldi	r23, 0x00	; 0
    2942:	80 e0       	ldi	r24, 0x00	; 0
    2944:	90 e0       	ldi	r25, 0x00	; 0
    2946:	60 96       	adiw	r28, 0x10	; 16
    2948:	cd bf       	out	0x3d, r28	; 61
    294a:	de bf       	out	0x3e, r29	; 62
    294c:	df 91       	pop	r29
    294e:	cf 91       	pop	r28
    2950:	1f 91       	pop	r17
    2952:	0f 91       	pop	r16
    2954:	ff 90       	pop	r15
    2956:	ef 90       	pop	r14
    2958:	df 90       	pop	r13
    295a:	cf 90       	pop	r12
    295c:	bf 90       	pop	r11
    295e:	af 90       	pop	r10
    2960:	9f 90       	pop	r9
    2962:	8f 90       	pop	r8
    2964:	7f 90       	pop	r7
    2966:	6f 90       	pop	r6
    2968:	5f 90       	pop	r5
    296a:	4f 90       	pop	r4
    296c:	3f 90       	pop	r3
    296e:	2f 90       	pop	r2
    2970:	08 95       	ret
    2972:	ca 01       	movw	r24, r20
    2974:	96 95       	lsr	r25
    2976:	87 95       	ror	r24
    2978:	8c 01       	movw	r16, r24
    297a:	04 0f       	add	r16, r20
    297c:	15 1f       	adc	r17, r21
    297e:	09 83       	std	Y+1, r16	; 0x01
    2980:	1a 83       	std	Y+2, r17	; 0x02
    2982:	83 a1       	ldd	r24, Z+35	; 0x23
    2984:	94 a1       	ldd	r25, Z+36	; 0x24
    2986:	a5 a1       	ldd	r26, Z+37	; 0x25
    2988:	b6 a1       	ldd	r27, Z+38	; 0x26
    298a:	98 01       	movw	r18, r16
    298c:	23 2f       	mov	r18, r19
    298e:	33 27       	eor	r19, r19
    2990:	26 95       	lsr	r18
    2992:	4c 01       	movw	r8, r24
    2994:	5d 01       	movw	r10, r26
    2996:	82 0e       	add	r8, r18
    2998:	93 1e       	adc	r9, r19
    299a:	a1 1c       	adc	r10, r1
    299c:	b1 1c       	adc	r11, r1
    299e:	47 a4       	ldd	r4, Z+47	; 0x2f
    29a0:	50 a8       	ldd	r5, Z+48	; 0x30
    29a2:	61 a8       	ldd	r6, Z+49	; 0x31
    29a4:	72 a8       	ldd	r7, Z+50	; 0x32
    29a6:	84 14       	cp	r8, r4
    29a8:	95 04       	cpc	r9, r5
    29aa:	a6 04       	cpc	r10, r6
    29ac:	b7 04       	cpc	r11, r7
    29ae:	09 f4       	brne	.+2      	; 0x29b2 <get_fat.isra.8+0xda>
    29b0:	35 c2       	rjmp	.+1130   	; 0x2e1c <get_fat.isra.8+0x544>
    29b2:	83 81       	ldd	r24, Z+3	; 0x03
    29b4:	81 11       	cpse	r24, r1
    29b6:	84 c1       	rjmp	.+776    	; 0x2cc0 <get_fat.isra.8+0x3e8>
    29b8:	f3 96       	adiw	r30, 0x33	; 51
    29ba:	1f 01       	movw	r2, r30
    29bc:	01 e0       	ldi	r16, 0x01	; 1
    29be:	10 e0       	ldi	r17, 0x00	; 0
    29c0:	a5 01       	movw	r20, r10
    29c2:	94 01       	movw	r18, r8
    29c4:	b1 01       	movw	r22, r2
    29c6:	af 85       	ldd	r26, Y+15	; 0x0f
    29c8:	b8 89       	ldd	r27, Y+16	; 0x10
    29ca:	11 96       	adiw	r26, 0x01	; 1
    29cc:	8c 91       	ld	r24, X
    29ce:	0e 94 59 3b 	call	0x76b2	; 0x76b2 <disk_read>
    29d2:	81 11       	cpse	r24, r1
    29d4:	8f c0       	rjmp	.+286    	; 0x2af4 <get_fat.isra.8+0x21c>
    29d6:	af 85       	ldd	r26, Y+15	; 0x0f
    29d8:	b8 89       	ldd	r27, Y+16	; 0x10
    29da:	9f 96       	adiw	r26, 0x2f	; 47
    29dc:	8d 92       	st	X+, r8
    29de:	9d 92       	st	X+, r9
    29e0:	ad 92       	st	X+, r10
    29e2:	bc 92       	st	X, r11
    29e4:	d2 97       	sbiw	r26, 0x32	; 50
    29e6:	fd 01       	movw	r30, r26
    29e8:	83 a1       	ldd	r24, Z+35	; 0x23
    29ea:	94 a1       	ldd	r25, Z+36	; 0x24
    29ec:	a5 a1       	ldd	r26, Z+37	; 0x25
    29ee:	b6 a1       	ldd	r27, Z+38	; 0x26
    29f0:	8d 82       	std	Y+5, r8	; 0x05
    29f2:	9e 82       	std	Y+6, r9	; 0x06
    29f4:	af 82       	std	Y+7, r10	; 0x07
    29f6:	b8 86       	std	Y+8, r11	; 0x08
    29f8:	09 81       	ldd	r16, Y+1	; 0x01
    29fa:	1a 81       	ldd	r17, Y+2	; 0x02
    29fc:	0f 5f       	subi	r16, 0xFF	; 255
    29fe:	1f 4f       	sbci	r17, 0xFF	; 255
    2a00:	09 87       	std	Y+9, r16	; 0x09
    2a02:	1a 87       	std	Y+10, r17	; 0x0a
    2a04:	29 81       	ldd	r18, Y+1	; 0x01
    2a06:	3a 81       	ldd	r19, Y+2	; 0x02
    2a08:	31 70       	andi	r19, 0x01	; 1
    2a0a:	4f 85       	ldd	r20, Y+15	; 0x0f
    2a0c:	58 89       	ldd	r21, Y+16	; 0x10
    2a0e:	42 0f       	add	r20, r18
    2a10:	53 1f       	adc	r21, r19
    2a12:	fa 01       	movw	r30, r20
    2a14:	f3 a9       	ldd	r31, Z+51	; 0x33
    2a16:	f9 83       	std	Y+1, r31	; 0x01
    2a18:	98 01       	movw	r18, r16
    2a1a:	23 2f       	mov	r18, r19
    2a1c:	33 27       	eor	r19, r19
    2a1e:	26 95       	lsr	r18
    2a20:	2c 01       	movw	r4, r24
    2a22:	3d 01       	movw	r6, r26
    2a24:	42 0e       	add	r4, r18
    2a26:	53 1e       	adc	r5, r19
    2a28:	61 1c       	adc	r6, r1
    2a2a:	71 1c       	adc	r7, r1
    2a2c:	48 14       	cp	r4, r8
    2a2e:	59 04       	cpc	r5, r9
    2a30:	6a 04       	cpc	r6, r10
    2a32:	7b 04       	cpc	r7, r11
    2a34:	e9 f0       	breq	.+58     	; 0x2a70 <get_fat.isra.8+0x198>
    2a36:	af 85       	ldd	r26, Y+15	; 0x0f
    2a38:	b8 89       	ldd	r27, Y+16	; 0x10
    2a3a:	13 96       	adiw	r26, 0x03	; 3
    2a3c:	8c 91       	ld	r24, X
    2a3e:	13 97       	sbiw	r26, 0x03	; 3
    2a40:	81 11       	cpse	r24, r1
    2a42:	f1 c1       	rjmp	.+994    	; 0x2e26 <get_fat.isra.8+0x54e>
    2a44:	d3 96       	adiw	r26, 0x33	; 51
    2a46:	1d 01       	movw	r2, r26
    2a48:	01 e0       	ldi	r16, 0x01	; 1
    2a4a:	10 e0       	ldi	r17, 0x00	; 0
    2a4c:	a3 01       	movw	r20, r6
    2a4e:	92 01       	movw	r18, r4
    2a50:	b1 01       	movw	r22, r2
    2a52:	ef 85       	ldd	r30, Y+15	; 0x0f
    2a54:	f8 89       	ldd	r31, Y+16	; 0x10
    2a56:	81 81       	ldd	r24, Z+1	; 0x01
    2a58:	0e 94 59 3b 	call	0x76b2	; 0x76b2 <disk_read>
    2a5c:	81 11       	cpse	r24, r1
    2a5e:	4a c0       	rjmp	.+148    	; 0x2af4 <get_fat.isra.8+0x21c>
    2a60:	af 85       	ldd	r26, Y+15	; 0x0f
    2a62:	b8 89       	ldd	r27, Y+16	; 0x10
    2a64:	9f 96       	adiw	r26, 0x2f	; 47
    2a66:	4d 92       	st	X+, r4
    2a68:	5d 92       	st	X+, r5
    2a6a:	6d 92       	st	X+, r6
    2a6c:	7c 92       	st	X, r7
    2a6e:	d2 97       	sbiw	r26, 0x32	; 50
    2a70:	e9 85       	ldd	r30, Y+9	; 0x09
    2a72:	fa 85       	ldd	r31, Y+10	; 0x0a
    2a74:	f1 70       	andi	r31, 0x01	; 1
    2a76:	0f 85       	ldd	r16, Y+15	; 0x0f
    2a78:	18 89       	ldd	r17, Y+16	; 0x10
    2a7a:	e0 0f       	add	r30, r16
    2a7c:	f1 1f       	adc	r31, r17
    2a7e:	83 a9       	ldd	r24, Z+51	; 0x33
    2a80:	99 81       	ldd	r25, Y+1	; 0x01
    2a82:	69 2f       	mov	r22, r25
    2a84:	70 e0       	ldi	r23, 0x00	; 0
    2a86:	78 2b       	or	r23, r24
    2a88:	c0 fe       	sbrs	r12, 0
    2a8a:	29 c2       	rjmp	.+1106   	; 0x2ede <get_fat.isra.8+0x606>
    2a8c:	72 95       	swap	r23
    2a8e:	62 95       	swap	r22
    2a90:	6f 70       	andi	r22, 0x0F	; 15
    2a92:	67 27       	eor	r22, r23
    2a94:	7f 70       	andi	r23, 0x0F	; 15
    2a96:	67 27       	eor	r22, r23
    2a98:	80 e0       	ldi	r24, 0x00	; 0
    2a9a:	90 e0       	ldi	r25, 0x00	; 0
    2a9c:	54 cf       	rjmp	.-344    	; 0x2946 <get_fat.isra.8+0x6e>
    2a9e:	85 2e       	mov	r8, r21
    2aa0:	96 2e       	mov	r9, r22
    2aa2:	a7 2e       	mov	r10, r23
    2aa4:	bb 24       	eor	r11, r11
    2aa6:	ef 85       	ldd	r30, Y+15	; 0x0f
    2aa8:	f8 89       	ldd	r31, Y+16	; 0x10
    2aaa:	83 a1       	ldd	r24, Z+35	; 0x23
    2aac:	94 a1       	ldd	r25, Z+36	; 0x24
    2aae:	a5 a1       	ldd	r26, Z+37	; 0x25
    2ab0:	b6 a1       	ldd	r27, Z+38	; 0x26
    2ab2:	88 0e       	add	r8, r24
    2ab4:	99 1e       	adc	r9, r25
    2ab6:	aa 1e       	adc	r10, r26
    2ab8:	bb 1e       	adc	r11, r27
    2aba:	47 a4       	ldd	r4, Z+47	; 0x2f
    2abc:	50 a8       	ldd	r5, Z+48	; 0x30
    2abe:	61 a8       	ldd	r6, Z+49	; 0x31
    2ac0:	72 a8       	ldd	r7, Z+50	; 0x32
    2ac2:	84 14       	cp	r8, r4
    2ac4:	95 04       	cpc	r9, r5
    2ac6:	a6 04       	cpc	r10, r6
    2ac8:	b7 04       	cpc	r11, r7
    2aca:	09 f4       	brne	.+2      	; 0x2ace <get_fat.isra.8+0x1f6>
    2acc:	8b c0       	rjmp	.+278    	; 0x2be4 <get_fat.isra.8+0x30c>
    2ace:	83 81       	ldd	r24, Z+3	; 0x03
    2ad0:	81 11       	cpse	r24, r1
    2ad2:	9f c0       	rjmp	.+318    	; 0x2c12 <get_fat.isra.8+0x33a>
    2ad4:	f3 96       	adiw	r30, 0x33	; 51
    2ad6:	1f 01       	movw	r2, r30
    2ad8:	01 e0       	ldi	r16, 0x01	; 1
    2ada:	10 e0       	ldi	r17, 0x00	; 0
    2adc:	a5 01       	movw	r20, r10
    2ade:	94 01       	movw	r18, r8
    2ae0:	b1 01       	movw	r22, r2
    2ae2:	af 85       	ldd	r26, Y+15	; 0x0f
    2ae4:	b8 89       	ldd	r27, Y+16	; 0x10
    2ae6:	11 96       	adiw	r26, 0x01	; 1
    2ae8:	8c 91       	ld	r24, X
    2aea:	0e 94 59 3b 	call	0x76b2	; 0x76b2 <disk_read>
    2aee:	88 23       	and	r24, r24
    2af0:	09 f4       	brne	.+2      	; 0x2af4 <get_fat.isra.8+0x21c>
    2af2:	72 c0       	rjmp	.+228    	; 0x2bd8 <get_fat.isra.8+0x300>
    2af4:	8f ef       	ldi	r24, 0xFF	; 255
    2af6:	9f ef       	ldi	r25, 0xFF	; 255
    2af8:	dc 01       	movw	r26, r24
    2afa:	ef 85       	ldd	r30, Y+15	; 0x0f
    2afc:	f8 89       	ldd	r31, Y+16	; 0x10
    2afe:	87 a7       	std	Z+47, r24	; 0x2f
    2b00:	90 ab       	std	Z+48, r25	; 0x30
    2b02:	a1 ab       	std	Z+49, r26	; 0x31
    2b04:	b2 ab       	std	Z+50, r27	; 0x32
    2b06:	6f ef       	ldi	r22, 0xFF	; 255
    2b08:	7f ef       	ldi	r23, 0xFF	; 255
    2b0a:	cb 01       	movw	r24, r22
    2b0c:	1c cf       	rjmp	.-456    	; 0x2946 <get_fat.isra.8+0x6e>
    2b0e:	af 85       	ldd	r26, Y+15	; 0x0f
    2b10:	b8 89       	ldd	r27, Y+16	; 0x10
    2b12:	93 96       	adiw	r26, 0x23	; 35
    2b14:	8d 90       	ld	r8, X+
    2b16:	9d 90       	ld	r9, X+
    2b18:	ad 90       	ld	r10, X+
    2b1a:	bc 90       	ld	r11, X
    2b1c:	96 97       	sbiw	r26, 0x26	; 38
    2b1e:	db 01       	movw	r26, r22
    2b20:	ca 01       	movw	r24, r20
    2b22:	57 e0       	ldi	r21, 0x07	; 7
    2b24:	b6 95       	lsr	r27
    2b26:	a7 95       	ror	r26
    2b28:	97 95       	ror	r25
    2b2a:	87 95       	ror	r24
    2b2c:	5a 95       	dec	r21
    2b2e:	d1 f7       	brne	.-12     	; 0x2b24 <get_fat.isra.8+0x24c>
    2b30:	88 0e       	add	r8, r24
    2b32:	99 1e       	adc	r9, r25
    2b34:	aa 1e       	adc	r10, r26
    2b36:	bb 1e       	adc	r11, r27
    2b38:	ef 85       	ldd	r30, Y+15	; 0x0f
    2b3a:	f8 89       	ldd	r31, Y+16	; 0x10
    2b3c:	47 a4       	ldd	r4, Z+47	; 0x2f
    2b3e:	50 a8       	ldd	r5, Z+48	; 0x30
    2b40:	61 a8       	ldd	r6, Z+49	; 0x31
    2b42:	72 a8       	ldd	r7, Z+50	; 0x32
    2b44:	84 14       	cp	r8, r4
    2b46:	95 04       	cpc	r9, r5
    2b48:	a6 04       	cpc	r10, r6
    2b4a:	b7 04       	cpc	r11, r7
    2b4c:	c9 f0       	breq	.+50     	; 0x2b80 <get_fat.isra.8+0x2a8>
    2b4e:	83 81       	ldd	r24, Z+3	; 0x03
    2b50:	81 11       	cpse	r24, r1
    2b52:	0d c1       	rjmp	.+538    	; 0x2d6e <get_fat.isra.8+0x496>
    2b54:	f3 96       	adiw	r30, 0x33	; 51
    2b56:	1f 01       	movw	r2, r30
    2b58:	01 e0       	ldi	r16, 0x01	; 1
    2b5a:	10 e0       	ldi	r17, 0x00	; 0
    2b5c:	a5 01       	movw	r20, r10
    2b5e:	94 01       	movw	r18, r8
    2b60:	b1 01       	movw	r22, r2
    2b62:	ef 85       	ldd	r30, Y+15	; 0x0f
    2b64:	f8 89       	ldd	r31, Y+16	; 0x10
    2b66:	81 81       	ldd	r24, Z+1	; 0x01
    2b68:	0e 94 59 3b 	call	0x76b2	; 0x76b2 <disk_read>
    2b6c:	81 11       	cpse	r24, r1
    2b6e:	c2 cf       	rjmp	.-124    	; 0x2af4 <get_fat.isra.8+0x21c>
    2b70:	af 85       	ldd	r26, Y+15	; 0x0f
    2b72:	b8 89       	ldd	r27, Y+16	; 0x10
    2b74:	9f 96       	adiw	r26, 0x2f	; 47
    2b76:	8d 92       	st	X+, r8
    2b78:	9d 92       	st	X+, r9
    2b7a:	ad 92       	st	X+, r10
    2b7c:	bc 92       	st	X, r11
    2b7e:	d2 97       	sbiw	r26, 0x32	; 50
    2b80:	cc 0c       	add	r12, r12
    2b82:	dd 1c       	adc	r13, r13
    2b84:	cc 0c       	add	r12, r12
    2b86:	dd 1c       	adc	r13, r13
    2b88:	fc ef       	ldi	r31, 0xFC	; 252
    2b8a:	cf 22       	and	r12, r31
    2b8c:	f1 e0       	ldi	r31, 0x01	; 1
    2b8e:	df 22       	and	r13, r31
    2b90:	f6 01       	movw	r30, r12
    2b92:	f3 96       	adiw	r30, 0x33	; 51
    2b94:	0f 85       	ldd	r16, Y+15	; 0x0f
    2b96:	18 89       	ldd	r17, Y+16	; 0x10
    2b98:	e0 0f       	add	r30, r16
    2b9a:	f1 1f       	adc	r31, r17
    2b9c:	63 81       	ldd	r22, Z+3	; 0x03
    2b9e:	86 2f       	mov	r24, r22
    2ba0:	90 e0       	ldi	r25, 0x00	; 0
    2ba2:	a0 e0       	ldi	r26, 0x00	; 0
    2ba4:	b0 e0       	ldi	r27, 0x00	; 0
    2ba6:	ba 2f       	mov	r27, r26
    2ba8:	a9 2f       	mov	r26, r25
    2baa:	98 2f       	mov	r25, r24
    2bac:	88 27       	eor	r24, r24
    2bae:	22 81       	ldd	r18, Z+2	; 0x02
    2bb0:	82 2b       	or	r24, r18
    2bb2:	ba 2f       	mov	r27, r26
    2bb4:	a9 2f       	mov	r26, r25
    2bb6:	98 2f       	mov	r25, r24
    2bb8:	88 27       	eor	r24, r24
    2bba:	21 81       	ldd	r18, Z+1	; 0x01
    2bbc:	82 2b       	or	r24, r18
    2bbe:	ba 2f       	mov	r27, r26
    2bc0:	a9 2f       	mov	r26, r25
    2bc2:	98 2f       	mov	r25, r24
    2bc4:	88 27       	eor	r24, r24
    2bc6:	f8 01       	movw	r30, r16
    2bc8:	ec 0d       	add	r30, r12
    2bca:	fd 1d       	adc	r31, r13
    2bcc:	23 a9       	ldd	r18, Z+51	; 0x33
    2bce:	82 2b       	or	r24, r18
    2bd0:	bc 01       	movw	r22, r24
    2bd2:	cd 01       	movw	r24, r26
    2bd4:	9f 70       	andi	r25, 0x0F	; 15
    2bd6:	b7 ce       	rjmp	.-658    	; 0x2946 <get_fat.isra.8+0x6e>
    2bd8:	ef 85       	ldd	r30, Y+15	; 0x0f
    2bda:	f8 89       	ldd	r31, Y+16	; 0x10
    2bdc:	87 a6       	std	Z+47, r8	; 0x2f
    2bde:	90 aa       	std	Z+48, r9	; 0x30
    2be0:	a1 aa       	std	Z+49, r10	; 0x31
    2be2:	b2 aa       	std	Z+50, r11	; 0x32
    2be4:	cc 0c       	add	r12, r12
    2be6:	dd 1c       	adc	r13, r13
    2be8:	e8 94       	clt
    2bea:	c0 f8       	bld	r12, 0
    2bec:	f1 e0       	ldi	r31, 0x01	; 1
    2bee:	df 22       	and	r13, r31
    2bf0:	ef 85       	ldd	r30, Y+15	; 0x0f
    2bf2:	f8 89       	ldd	r31, Y+16	; 0x10
    2bf4:	ec 0d       	add	r30, r12
    2bf6:	fd 1d       	adc	r31, r13
    2bf8:	64 a9       	ldd	r22, Z+52	; 0x34
    2bfa:	70 e0       	ldi	r23, 0x00	; 0
    2bfc:	76 2f       	mov	r23, r22
    2bfe:	66 27       	eor	r22, r22
    2c00:	ef 85       	ldd	r30, Y+15	; 0x0f
    2c02:	f8 89       	ldd	r31, Y+16	; 0x10
    2c04:	ec 0d       	add	r30, r12
    2c06:	fd 1d       	adc	r31, r13
    2c08:	83 a9       	ldd	r24, Z+51	; 0x33
    2c0a:	68 2b       	or	r22, r24
    2c0c:	80 e0       	ldi	r24, 0x00	; 0
    2c0e:	90 e0       	ldi	r25, 0x00	; 0
    2c10:	9a ce       	rjmp	.-716    	; 0x2946 <get_fat.isra.8+0x6e>
    2c12:	2f 84       	ldd	r2, Y+15	; 0x0f
    2c14:	38 88       	ldd	r3, Y+16	; 0x10
    2c16:	f3 e3       	ldi	r31, 0x33	; 51
    2c18:	2f 0e       	add	r2, r31
    2c1a:	31 1c       	adc	r3, r1
    2c1c:	01 e0       	ldi	r16, 0x01	; 1
    2c1e:	10 e0       	ldi	r17, 0x00	; 0
    2c20:	a3 01       	movw	r20, r6
    2c22:	92 01       	movw	r18, r4
    2c24:	b1 01       	movw	r22, r2
    2c26:	af 85       	ldd	r26, Y+15	; 0x0f
    2c28:	b8 89       	ldd	r27, Y+16	; 0x10
    2c2a:	11 96       	adiw	r26, 0x01	; 1
    2c2c:	8c 91       	ld	r24, X
    2c2e:	0e 94 6d 3b 	call	0x76da	; 0x76da <disk_write>
    2c32:	81 11       	cpse	r24, r1
    2c34:	68 cf       	rjmp	.-304    	; 0x2b06 <get_fat.isra.8+0x22e>
    2c36:	ef 85       	ldd	r30, Y+15	; 0x0f
    2c38:	f8 89       	ldd	r31, Y+16	; 0x10
    2c3a:	13 82       	std	Z+3, r1	; 0x03
    2c3c:	83 8d       	ldd	r24, Z+27	; 0x1b
    2c3e:	94 8d       	ldd	r25, Z+28	; 0x1c
    2c40:	a5 8d       	ldd	r26, Z+29	; 0x1d
    2c42:	b6 8d       	ldd	r27, Z+30	; 0x1e
    2c44:	43 a1       	ldd	r20, Z+35	; 0x23
    2c46:	54 a1       	ldd	r21, Z+36	; 0x24
    2c48:	65 a1       	ldd	r22, Z+37	; 0x25
    2c4a:	76 a1       	ldd	r23, Z+38	; 0x26
    2c4c:	93 01       	movw	r18, r6
    2c4e:	82 01       	movw	r16, r4
    2c50:	04 1b       	sub	r16, r20
    2c52:	15 0b       	sbc	r17, r21
    2c54:	26 0b       	sbc	r18, r22
    2c56:	37 0b       	sbc	r19, r23
    2c58:	08 17       	cp	r16, r24
    2c5a:	19 07       	cpc	r17, r25
    2c5c:	2a 07       	cpc	r18, r26
    2c5e:	3b 07       	cpc	r19, r27
    2c60:	08 f0       	brcs	.+2      	; 0x2c64 <get_fat.isra.8+0x38c>
    2c62:	3a cf       	rjmp	.-396    	; 0x2ad8 <get_fat.isra.8+0x200>
    2c64:	22 81       	ldd	r18, Z+2	; 0x02
    2c66:	02 2f       	mov	r16, r18
    2c68:	10 e0       	ldi	r17, 0x00	; 0
    2c6a:	02 30       	cpi	r16, 0x02	; 2
    2c6c:	11 05       	cpc	r17, r1
    2c6e:	08 f4       	brcc	.+2      	; 0x2c72 <get_fat.isra.8+0x39a>
    2c70:	33 cf       	rjmp	.-410    	; 0x2ad8 <get_fat.isra.8+0x200>
    2c72:	c9 82       	std	Y+1, r12	; 0x01
    2c74:	da 82       	std	Y+2, r13	; 0x02
    2c76:	eb 82       	std	Y+3, r14	; 0x03
    2c78:	fc 82       	std	Y+4, r15	; 0x04
    2c7a:	78 01       	movw	r14, r16
    2c7c:	06 c0       	rjmp	.+12     	; 0x2c8a <get_fat.isra.8+0x3b2>
    2c7e:	ef 85       	ldd	r30, Y+15	; 0x0f
    2c80:	f8 89       	ldd	r31, Y+16	; 0x10
    2c82:	83 8d       	ldd	r24, Z+27	; 0x1b
    2c84:	94 8d       	ldd	r25, Z+28	; 0x1c
    2c86:	a5 8d       	ldd	r26, Z+29	; 0x1d
    2c88:	b6 8d       	ldd	r27, Z+30	; 0x1e
    2c8a:	48 0e       	add	r4, r24
    2c8c:	59 1e       	adc	r5, r25
    2c8e:	6a 1e       	adc	r6, r26
    2c90:	7b 1e       	adc	r7, r27
    2c92:	01 e0       	ldi	r16, 0x01	; 1
    2c94:	10 e0       	ldi	r17, 0x00	; 0
    2c96:	a3 01       	movw	r20, r6
    2c98:	92 01       	movw	r18, r4
    2c9a:	b1 01       	movw	r22, r2
    2c9c:	af 85       	ldd	r26, Y+15	; 0x0f
    2c9e:	b8 89       	ldd	r27, Y+16	; 0x10
    2ca0:	11 96       	adiw	r26, 0x01	; 1
    2ca2:	8c 91       	ld	r24, X
    2ca4:	0e 94 6d 3b 	call	0x76da	; 0x76da <disk_write>
    2ca8:	b1 e0       	ldi	r27, 0x01	; 1
    2caa:	eb 1a       	sub	r14, r27
    2cac:	f1 08       	sbc	r15, r1
    2cae:	e1 e0       	ldi	r30, 0x01	; 1
    2cb0:	ee 16       	cp	r14, r30
    2cb2:	f1 04       	cpc	r15, r1
    2cb4:	21 f7       	brne	.-56     	; 0x2c7e <get_fat.isra.8+0x3a6>
    2cb6:	c9 80       	ldd	r12, Y+1	; 0x01
    2cb8:	da 80       	ldd	r13, Y+2	; 0x02
    2cba:	eb 80       	ldd	r14, Y+3	; 0x03
    2cbc:	fc 80       	ldd	r15, Y+4	; 0x04
    2cbe:	0c cf       	rjmp	.-488    	; 0x2ad8 <get_fat.isra.8+0x200>
    2cc0:	2f 84       	ldd	r2, Y+15	; 0x0f
    2cc2:	38 88       	ldd	r3, Y+16	; 0x10
    2cc4:	13 e3       	ldi	r17, 0x33	; 51
    2cc6:	21 0e       	add	r2, r17
    2cc8:	31 1c       	adc	r3, r1
    2cca:	01 e0       	ldi	r16, 0x01	; 1
    2ccc:	10 e0       	ldi	r17, 0x00	; 0
    2cce:	a3 01       	movw	r20, r6
    2cd0:	92 01       	movw	r18, r4
    2cd2:	b1 01       	movw	r22, r2
    2cd4:	af 85       	ldd	r26, Y+15	; 0x0f
    2cd6:	b8 89       	ldd	r27, Y+16	; 0x10
    2cd8:	11 96       	adiw	r26, 0x01	; 1
    2cda:	8c 91       	ld	r24, X
    2cdc:	0e 94 6d 3b 	call	0x76da	; 0x76da <disk_write>
    2ce0:	81 11       	cpse	r24, r1
    2ce2:	11 cf       	rjmp	.-478    	; 0x2b06 <get_fat.isra.8+0x22e>
    2ce4:	ef 85       	ldd	r30, Y+15	; 0x0f
    2ce6:	f8 89       	ldd	r31, Y+16	; 0x10
    2ce8:	13 82       	std	Z+3, r1	; 0x03
    2cea:	83 8d       	ldd	r24, Z+27	; 0x1b
    2cec:	94 8d       	ldd	r25, Z+28	; 0x1c
    2cee:	a5 8d       	ldd	r26, Z+29	; 0x1d
    2cf0:	b6 8d       	ldd	r27, Z+30	; 0x1e
    2cf2:	43 a1       	ldd	r20, Z+35	; 0x23
    2cf4:	54 a1       	ldd	r21, Z+36	; 0x24
    2cf6:	65 a1       	ldd	r22, Z+37	; 0x25
    2cf8:	76 a1       	ldd	r23, Z+38	; 0x26
    2cfa:	93 01       	movw	r18, r6
    2cfc:	82 01       	movw	r16, r4
    2cfe:	04 1b       	sub	r16, r20
    2d00:	15 0b       	sbc	r17, r21
    2d02:	26 0b       	sbc	r18, r22
    2d04:	37 0b       	sbc	r19, r23
    2d06:	08 17       	cp	r16, r24
    2d08:	19 07       	cpc	r17, r25
    2d0a:	2a 07       	cpc	r18, r26
    2d0c:	3b 07       	cpc	r19, r27
    2d0e:	08 f0       	brcs	.+2      	; 0x2d12 <get_fat.isra.8+0x43a>
    2d10:	55 ce       	rjmp	.-854    	; 0x29bc <get_fat.isra.8+0xe4>
    2d12:	22 81       	ldd	r18, Z+2	; 0x02
    2d14:	02 2f       	mov	r16, r18
    2d16:	10 e0       	ldi	r17, 0x00	; 0
    2d18:	02 30       	cpi	r16, 0x02	; 2
    2d1a:	11 05       	cpc	r17, r1
    2d1c:	08 f4       	brcc	.+2      	; 0x2d20 <get_fat.isra.8+0x448>
    2d1e:	4e ce       	rjmp	.-868    	; 0x29bc <get_fat.isra.8+0xe4>
    2d20:	cd 82       	std	Y+5, r12	; 0x05
    2d22:	de 82       	std	Y+6, r13	; 0x06
    2d24:	ef 82       	std	Y+7, r14	; 0x07
    2d26:	f8 86       	std	Y+8, r15	; 0x08
    2d28:	78 01       	movw	r14, r16
    2d2a:	06 c0       	rjmp	.+12     	; 0x2d38 <get_fat.isra.8+0x460>
    2d2c:	ef 85       	ldd	r30, Y+15	; 0x0f
    2d2e:	f8 89       	ldd	r31, Y+16	; 0x10
    2d30:	83 8d       	ldd	r24, Z+27	; 0x1b
    2d32:	94 8d       	ldd	r25, Z+28	; 0x1c
    2d34:	a5 8d       	ldd	r26, Z+29	; 0x1d
    2d36:	b6 8d       	ldd	r27, Z+30	; 0x1e
    2d38:	48 0e       	add	r4, r24
    2d3a:	59 1e       	adc	r5, r25
    2d3c:	6a 1e       	adc	r6, r26
    2d3e:	7b 1e       	adc	r7, r27
    2d40:	01 e0       	ldi	r16, 0x01	; 1
    2d42:	10 e0       	ldi	r17, 0x00	; 0
    2d44:	a3 01       	movw	r20, r6
    2d46:	92 01       	movw	r18, r4
    2d48:	b1 01       	movw	r22, r2
    2d4a:	af 85       	ldd	r26, Y+15	; 0x0f
    2d4c:	b8 89       	ldd	r27, Y+16	; 0x10
    2d4e:	11 96       	adiw	r26, 0x01	; 1
    2d50:	8c 91       	ld	r24, X
    2d52:	0e 94 6d 3b 	call	0x76da	; 0x76da <disk_write>
    2d56:	b1 e0       	ldi	r27, 0x01	; 1
    2d58:	eb 1a       	sub	r14, r27
    2d5a:	f1 08       	sbc	r15, r1
    2d5c:	e1 e0       	ldi	r30, 0x01	; 1
    2d5e:	ee 16       	cp	r14, r30
    2d60:	f1 04       	cpc	r15, r1
    2d62:	21 f7       	brne	.-56     	; 0x2d2c <get_fat.isra.8+0x454>
    2d64:	cd 80       	ldd	r12, Y+5	; 0x05
    2d66:	de 80       	ldd	r13, Y+6	; 0x06
    2d68:	ef 80       	ldd	r14, Y+7	; 0x07
    2d6a:	f8 84       	ldd	r15, Y+8	; 0x08
    2d6c:	27 ce       	rjmp	.-946    	; 0x29bc <get_fat.isra.8+0xe4>
    2d6e:	2f 84       	ldd	r2, Y+15	; 0x0f
    2d70:	38 88       	ldd	r3, Y+16	; 0x10
    2d72:	f3 e3       	ldi	r31, 0x33	; 51
    2d74:	2f 0e       	add	r2, r31
    2d76:	31 1c       	adc	r3, r1
    2d78:	01 e0       	ldi	r16, 0x01	; 1
    2d7a:	10 e0       	ldi	r17, 0x00	; 0
    2d7c:	a3 01       	movw	r20, r6
    2d7e:	92 01       	movw	r18, r4
    2d80:	b1 01       	movw	r22, r2
    2d82:	af 85       	ldd	r26, Y+15	; 0x0f
    2d84:	b8 89       	ldd	r27, Y+16	; 0x10
    2d86:	11 96       	adiw	r26, 0x01	; 1
    2d88:	8c 91       	ld	r24, X
    2d8a:	0e 94 6d 3b 	call	0x76da	; 0x76da <disk_write>
    2d8e:	81 11       	cpse	r24, r1
    2d90:	ba ce       	rjmp	.-652    	; 0x2b06 <get_fat.isra.8+0x22e>
    2d92:	ef 85       	ldd	r30, Y+15	; 0x0f
    2d94:	f8 89       	ldd	r31, Y+16	; 0x10
    2d96:	13 82       	std	Z+3, r1	; 0x03
    2d98:	83 8d       	ldd	r24, Z+27	; 0x1b
    2d9a:	94 8d       	ldd	r25, Z+28	; 0x1c
    2d9c:	a5 8d       	ldd	r26, Z+29	; 0x1d
    2d9e:	b6 8d       	ldd	r27, Z+30	; 0x1e
    2da0:	43 a1       	ldd	r20, Z+35	; 0x23
    2da2:	54 a1       	ldd	r21, Z+36	; 0x24
    2da4:	65 a1       	ldd	r22, Z+37	; 0x25
    2da6:	76 a1       	ldd	r23, Z+38	; 0x26
    2da8:	93 01       	movw	r18, r6
    2daa:	82 01       	movw	r16, r4
    2dac:	04 1b       	sub	r16, r20
    2dae:	15 0b       	sbc	r17, r21
    2db0:	26 0b       	sbc	r18, r22
    2db2:	37 0b       	sbc	r19, r23
    2db4:	08 17       	cp	r16, r24
    2db6:	19 07       	cpc	r17, r25
    2db8:	2a 07       	cpc	r18, r26
    2dba:	3b 07       	cpc	r19, r27
    2dbc:	08 f0       	brcs	.+2      	; 0x2dc0 <get_fat.isra.8+0x4e8>
    2dbe:	cc ce       	rjmp	.-616    	; 0x2b58 <get_fat.isra.8+0x280>
    2dc0:	22 81       	ldd	r18, Z+2	; 0x02
    2dc2:	02 2f       	mov	r16, r18
    2dc4:	10 e0       	ldi	r17, 0x00	; 0
    2dc6:	02 30       	cpi	r16, 0x02	; 2
    2dc8:	11 05       	cpc	r17, r1
    2dca:	08 f4       	brcc	.+2      	; 0x2dce <get_fat.isra.8+0x4f6>
    2dcc:	c5 ce       	rjmp	.-630    	; 0x2b58 <get_fat.isra.8+0x280>
    2dce:	c9 82       	std	Y+1, r12	; 0x01
    2dd0:	da 82       	std	Y+2, r13	; 0x02
    2dd2:	eb 82       	std	Y+3, r14	; 0x03
    2dd4:	fc 82       	std	Y+4, r15	; 0x04
    2dd6:	78 01       	movw	r14, r16
    2dd8:	06 c0       	rjmp	.+12     	; 0x2de6 <get_fat.isra.8+0x50e>
    2dda:	ef 85       	ldd	r30, Y+15	; 0x0f
    2ddc:	f8 89       	ldd	r31, Y+16	; 0x10
    2dde:	83 8d       	ldd	r24, Z+27	; 0x1b
    2de0:	94 8d       	ldd	r25, Z+28	; 0x1c
    2de2:	a5 8d       	ldd	r26, Z+29	; 0x1d
    2de4:	b6 8d       	ldd	r27, Z+30	; 0x1e
    2de6:	48 0e       	add	r4, r24
    2de8:	59 1e       	adc	r5, r25
    2dea:	6a 1e       	adc	r6, r26
    2dec:	7b 1e       	adc	r7, r27
    2dee:	01 e0       	ldi	r16, 0x01	; 1
    2df0:	10 e0       	ldi	r17, 0x00	; 0
    2df2:	a3 01       	movw	r20, r6
    2df4:	92 01       	movw	r18, r4
    2df6:	b1 01       	movw	r22, r2
    2df8:	af 85       	ldd	r26, Y+15	; 0x0f
    2dfa:	b8 89       	ldd	r27, Y+16	; 0x10
    2dfc:	11 96       	adiw	r26, 0x01	; 1
    2dfe:	8c 91       	ld	r24, X
    2e00:	0e 94 6d 3b 	call	0x76da	; 0x76da <disk_write>
    2e04:	b1 e0       	ldi	r27, 0x01	; 1
    2e06:	eb 1a       	sub	r14, r27
    2e08:	f1 08       	sbc	r15, r1
    2e0a:	e1 e0       	ldi	r30, 0x01	; 1
    2e0c:	ee 16       	cp	r14, r30
    2e0e:	f1 04       	cpc	r15, r1
    2e10:	21 f7       	brne	.-56     	; 0x2dda <get_fat.isra.8+0x502>
    2e12:	c9 80       	ldd	r12, Y+1	; 0x01
    2e14:	da 80       	ldd	r13, Y+2	; 0x02
    2e16:	eb 80       	ldd	r14, Y+3	; 0x03
    2e18:	fc 80       	ldd	r15, Y+4	; 0x04
    2e1a:	9e ce       	rjmp	.-708    	; 0x2b58 <get_fat.isra.8+0x280>
    2e1c:	8d 82       	std	Y+5, r8	; 0x05
    2e1e:	9e 82       	std	Y+6, r9	; 0x06
    2e20:	af 82       	std	Y+7, r10	; 0x07
    2e22:	b8 86       	std	Y+8, r11	; 0x08
    2e24:	e9 cd       	rjmp	.-1070   	; 0x29f8 <get_fat.isra.8+0x120>
    2e26:	1d 01       	movw	r2, r26
    2e28:	fd 01       	movw	r30, r26
    2e2a:	b3 e3       	ldi	r27, 0x33	; 51
    2e2c:	2b 0e       	add	r2, r27
    2e2e:	31 1c       	adc	r3, r1
    2e30:	01 e0       	ldi	r16, 0x01	; 1
    2e32:	10 e0       	ldi	r17, 0x00	; 0
    2e34:	a5 01       	movw	r20, r10
    2e36:	94 01       	movw	r18, r8
    2e38:	b1 01       	movw	r22, r2
    2e3a:	81 81       	ldd	r24, Z+1	; 0x01
    2e3c:	0e 94 6d 3b 	call	0x76da	; 0x76da <disk_write>
    2e40:	81 11       	cpse	r24, r1
    2e42:	61 ce       	rjmp	.-830    	; 0x2b06 <get_fat.isra.8+0x22e>
    2e44:	af 85       	ldd	r26, Y+15	; 0x0f
    2e46:	b8 89       	ldd	r27, Y+16	; 0x10
    2e48:	13 96       	adiw	r26, 0x03	; 3
    2e4a:	1c 92       	st	X, r1
    2e4c:	13 97       	sbiw	r26, 0x03	; 3
    2e4e:	fd 01       	movw	r30, r26
    2e50:	83 8d       	ldd	r24, Z+27	; 0x1b
    2e52:	94 8d       	ldd	r25, Z+28	; 0x1c
    2e54:	a5 8d       	ldd	r26, Z+29	; 0x1d
    2e56:	b6 8d       	ldd	r27, Z+30	; 0x1e
    2e58:	43 a1       	ldd	r20, Z+35	; 0x23
    2e5a:	54 a1       	ldd	r21, Z+36	; 0x24
    2e5c:	65 a1       	ldd	r22, Z+37	; 0x25
    2e5e:	76 a1       	ldd	r23, Z+38	; 0x26
    2e60:	95 01       	movw	r18, r10
    2e62:	84 01       	movw	r16, r8
    2e64:	04 1b       	sub	r16, r20
    2e66:	15 0b       	sbc	r17, r21
    2e68:	26 0b       	sbc	r18, r22
    2e6a:	37 0b       	sbc	r19, r23
    2e6c:	08 17       	cp	r16, r24
    2e6e:	19 07       	cpc	r17, r25
    2e70:	2a 07       	cpc	r18, r26
    2e72:	3b 07       	cpc	r19, r27
    2e74:	08 f0       	brcs	.+2      	; 0x2e78 <get_fat.isra.8+0x5a0>
    2e76:	e8 cd       	rjmp	.-1072   	; 0x2a48 <get_fat.isra.8+0x170>
    2e78:	22 81       	ldd	r18, Z+2	; 0x02
    2e7a:	a2 2e       	mov	r10, r18
    2e7c:	b1 2c       	mov	r11, r1
    2e7e:	12 e0       	ldi	r17, 0x02	; 2
    2e80:	a1 16       	cp	r10, r17
    2e82:	b1 04       	cpc	r11, r1
    2e84:	08 f4       	brcc	.+2      	; 0x2e88 <get_fat.isra.8+0x5b0>
    2e86:	e0 cd       	rjmp	.-1088   	; 0x2a48 <get_fat.isra.8+0x170>
    2e88:	cb 86       	std	Y+11, r12	; 0x0b
    2e8a:	dc 86       	std	Y+12, r13	; 0x0c
    2e8c:	ed 86       	std	Y+13, r14	; 0x0d
    2e8e:	fe 86       	std	Y+14, r15	; 0x0e
    2e90:	75 01       	movw	r14, r10
    2e92:	8d 80       	ldd	r8, Y+5	; 0x05
    2e94:	9e 80       	ldd	r9, Y+6	; 0x06
    2e96:	af 80       	ldd	r10, Y+7	; 0x07
    2e98:	b8 84       	ldd	r11, Y+8	; 0x08
    2e9a:	06 c0       	rjmp	.+12     	; 0x2ea8 <get_fat.isra.8+0x5d0>
    2e9c:	ef 85       	ldd	r30, Y+15	; 0x0f
    2e9e:	f8 89       	ldd	r31, Y+16	; 0x10
    2ea0:	83 8d       	ldd	r24, Z+27	; 0x1b
    2ea2:	94 8d       	ldd	r25, Z+28	; 0x1c
    2ea4:	a5 8d       	ldd	r26, Z+29	; 0x1d
    2ea6:	b6 8d       	ldd	r27, Z+30	; 0x1e
    2ea8:	88 0e       	add	r8, r24
    2eaa:	99 1e       	adc	r9, r25
    2eac:	aa 1e       	adc	r10, r26
    2eae:	bb 1e       	adc	r11, r27
    2eb0:	01 e0       	ldi	r16, 0x01	; 1
    2eb2:	10 e0       	ldi	r17, 0x00	; 0
    2eb4:	a5 01       	movw	r20, r10
    2eb6:	94 01       	movw	r18, r8
    2eb8:	b1 01       	movw	r22, r2
    2eba:	af 85       	ldd	r26, Y+15	; 0x0f
    2ebc:	b8 89       	ldd	r27, Y+16	; 0x10
    2ebe:	11 96       	adiw	r26, 0x01	; 1
    2ec0:	8c 91       	ld	r24, X
    2ec2:	0e 94 6d 3b 	call	0x76da	; 0x76da <disk_write>
    2ec6:	b1 e0       	ldi	r27, 0x01	; 1
    2ec8:	eb 1a       	sub	r14, r27
    2eca:	f1 08       	sbc	r15, r1
    2ecc:	e1 e0       	ldi	r30, 0x01	; 1
    2ece:	ee 16       	cp	r14, r30
    2ed0:	f1 04       	cpc	r15, r1
    2ed2:	21 f7       	brne	.-56     	; 0x2e9c <get_fat.isra.8+0x5c4>
    2ed4:	cb 84       	ldd	r12, Y+11	; 0x0b
    2ed6:	dc 84       	ldd	r13, Y+12	; 0x0c
    2ed8:	ed 84       	ldd	r14, Y+13	; 0x0d
    2eda:	fe 84       	ldd	r15, Y+14	; 0x0e
    2edc:	b5 cd       	rjmp	.-1174   	; 0x2a48 <get_fat.isra.8+0x170>
    2ede:	7f 70       	andi	r23, 0x0F	; 15
    2ee0:	80 e0       	ldi	r24, 0x00	; 0
    2ee2:	90 e0       	ldi	r25, 0x00	; 0
    2ee4:	30 cd       	rjmp	.-1440   	; 0x2946 <get_fat.isra.8+0x6e>

00002ee6 <create_chain>:
    2ee6:	2f 92       	push	r2
    2ee8:	3f 92       	push	r3
    2eea:	4f 92       	push	r4
    2eec:	5f 92       	push	r5
    2eee:	6f 92       	push	r6
    2ef0:	7f 92       	push	r7
    2ef2:	8f 92       	push	r8
    2ef4:	9f 92       	push	r9
    2ef6:	af 92       	push	r10
    2ef8:	bf 92       	push	r11
    2efa:	cf 92       	push	r12
    2efc:	df 92       	push	r13
    2efe:	ef 92       	push	r14
    2f00:	ff 92       	push	r15
    2f02:	0f 93       	push	r16
    2f04:	1f 93       	push	r17
    2f06:	cf 93       	push	r28
    2f08:	df 93       	push	r29
    2f0a:	cd b7       	in	r28, 0x3d	; 61
    2f0c:	de b7       	in	r29, 0x3e	; 62
    2f0e:	6e 97       	sbiw	r28, 0x1e	; 30
    2f10:	cd bf       	out	0x3d, r28	; 61
    2f12:	de bf       	out	0x3e, r29	; 62
    2f14:	8d 83       	std	Y+5, r24	; 0x05
    2f16:	9e 83       	std	Y+6, r25	; 0x06
    2f18:	4d 87       	std	Y+13, r20	; 0x0d
    2f1a:	5e 87       	std	Y+14, r21	; 0x0e
    2f1c:	6f 87       	std	Y+15, r22	; 0x0f
    2f1e:	78 8b       	std	Y+16, r23	; 0x10
    2f20:	dc 01       	movw	r26, r24
    2f22:	2d 90       	ld	r2, X+
    2f24:	3c 90       	ld	r3, X
    2f26:	41 15       	cp	r20, r1
    2f28:	51 05       	cpc	r21, r1
    2f2a:	61 05       	cpc	r22, r1
    2f2c:	71 05       	cpc	r23, r1
    2f2e:	09 f0       	breq	.+2      	; 0x2f32 <create_chain+0x4c>
    2f30:	3f c2       	rjmp	.+1150   	; 0x33b0 <create_chain+0x4ca>
    2f32:	f1 01       	movw	r30, r2
    2f34:	43 84       	ldd	r4, Z+11	; 0x0b
    2f36:	54 84       	ldd	r5, Z+12	; 0x0c
    2f38:	65 84       	ldd	r6, Z+13	; 0x0d
    2f3a:	76 84       	ldd	r7, Z+14	; 0x0e
    2f3c:	41 14       	cp	r4, r1
    2f3e:	51 04       	cpc	r5, r1
    2f40:	61 04       	cpc	r6, r1
    2f42:	71 04       	cpc	r7, r1
    2f44:	09 f0       	breq	.+2      	; 0x2f48 <create_chain+0x62>
    2f46:	6a c0       	rjmp	.+212    	; 0x301c <create_chain+0x136>
    2f48:	87 89       	ldd	r24, Z+23	; 0x17
    2f4a:	90 8d       	ldd	r25, Z+24	; 0x18
    2f4c:	a1 8d       	ldd	r26, Z+25	; 0x19
    2f4e:	b2 8d       	ldd	r27, Z+26	; 0x1a
    2f50:	41 2c       	mov	r4, r1
    2f52:	51 2c       	mov	r5, r1
    2f54:	32 01       	movw	r6, r4
    2f56:	43 94       	inc	r4
    2f58:	53 01       	movw	r10, r6
    2f5a:	42 01       	movw	r8, r4
    2f5c:	73 01       	movw	r14, r6
    2f5e:	62 01       	movw	r12, r4
    2f60:	44 c0       	rjmp	.+136    	; 0x2fea <create_chain+0x104>
    2f62:	02 e0       	ldi	r16, 0x02	; 2
    2f64:	c0 16       	cp	r12, r16
    2f66:	d1 04       	cpc	r13, r1
    2f68:	e1 04       	cpc	r14, r1
    2f6a:	f1 04       	cpc	r15, r1
    2f6c:	08 f4       	brcc	.+2      	; 0x2f70 <create_chain+0x8a>
    2f6e:	1b c2       	rjmp	.+1078   	; 0x33a6 <create_chain+0x4c0>
    2f70:	ed 81       	ldd	r30, Y+5	; 0x05
    2f72:	fe 81       	ldd	r31, Y+6	; 0x06
    2f74:	01 90       	ld	r0, Z+
    2f76:	f0 81       	ld	r31, Z
    2f78:	e0 2d       	mov	r30, r0
    2f7a:	ed 8f       	std	Y+29, r30	; 0x1d
    2f7c:	fe 8f       	std	Y+30, r31	; 0x1e
    2f7e:	82 e0       	ldi	r24, 0x02	; 2
    2f80:	88 2e       	mov	r8, r24
    2f82:	91 2c       	mov	r9, r1
    2f84:	a1 2c       	mov	r10, r1
    2f86:	b1 2c       	mov	r11, r1
    2f88:	ed 8d       	ldd	r30, Y+29	; 0x1d
    2f8a:	fe 8d       	ldd	r31, Y+30	; 0x1e
    2f8c:	87 89       	ldd	r24, Z+23	; 0x17
    2f8e:	90 8d       	ldd	r25, Z+24	; 0x18
    2f90:	a1 8d       	ldd	r26, Z+25	; 0x19
    2f92:	b2 8d       	ldd	r27, Z+26	; 0x1a
    2f94:	88 16       	cp	r8, r24
    2f96:	99 06       	cpc	r9, r25
    2f98:	aa 06       	cpc	r10, r26
    2f9a:	bb 06       	cpc	r11, r27
    2f9c:	50 f4       	brcc	.+20     	; 0x2fb2 <create_chain+0xcc>
    2f9e:	80 81       	ld	r24, Z
    2fa0:	82 30       	cpi	r24, 0x02	; 2
    2fa2:	09 f4       	brne	.+2      	; 0x2fa6 <create_chain+0xc0>
    2fa4:	8a c1       	rjmp	.+788    	; 0x32ba <create_chain+0x3d4>
    2fa6:	83 30       	cpi	r24, 0x03	; 3
    2fa8:	09 f4       	brne	.+2      	; 0x2fac <create_chain+0xc6>
    2faa:	f2 c0       	rjmp	.+484    	; 0x3190 <create_chain+0x2aa>
    2fac:	81 30       	cpi	r24, 0x01	; 1
    2fae:	09 f4       	brne	.+2      	; 0x2fb2 <create_chain+0xcc>
    2fb0:	45 c0       	rjmp	.+138    	; 0x303c <create_chain+0x156>
    2fb2:	41 e0       	ldi	r20, 0x01	; 1
    2fb4:	50 e0       	ldi	r21, 0x00	; 0
    2fb6:	60 e0       	ldi	r22, 0x00	; 0
    2fb8:	70 e0       	ldi	r23, 0x00	; 0
    2fba:	41 30       	cpi	r20, 0x01	; 1
    2fbc:	51 05       	cpc	r21, r1
    2fbe:	61 05       	cpc	r22, r1
    2fc0:	71 05       	cpc	r23, r1
    2fc2:	09 f4       	brne	.+2      	; 0x2fc6 <create_chain+0xe0>
    2fc4:	5f c1       	rjmp	.+702    	; 0x3284 <create_chain+0x39e>
    2fc6:	4f 3f       	cpi	r20, 0xFF	; 255
    2fc8:	bf ef       	ldi	r27, 0xFF	; 255
    2fca:	5b 07       	cpc	r21, r27
    2fcc:	6b 07       	cpc	r22, r27
    2fce:	7b 07       	cpc	r23, r27
    2fd0:	09 f4       	brne	.+2      	; 0x2fd4 <create_chain+0xee>
    2fd2:	58 c1       	rjmp	.+688    	; 0x3284 <create_chain+0x39e>
    2fd4:	8c 14       	cp	r8, r12
    2fd6:	9d 04       	cpc	r9, r13
    2fd8:	ae 04       	cpc	r10, r14
    2fda:	bf 04       	cpc	r11, r15
    2fdc:	09 f4       	brne	.+2      	; 0x2fe0 <create_chain+0xfa>
    2fde:	e3 c1       	rjmp	.+966    	; 0x33a6 <create_chain+0x4c0>
    2fe0:	f1 01       	movw	r30, r2
    2fe2:	87 89       	ldd	r24, Z+23	; 0x17
    2fe4:	90 8d       	ldd	r25, Z+24	; 0x18
    2fe6:	a1 8d       	ldd	r26, Z+25	; 0x19
    2fe8:	b2 8d       	ldd	r27, Z+26	; 0x1a
    2fea:	ff ef       	ldi	r31, 0xFF	; 255
    2fec:	8f 1a       	sub	r8, r31
    2fee:	9f 0a       	sbc	r9, r31
    2ff0:	af 0a       	sbc	r10, r31
    2ff2:	bf 0a       	sbc	r11, r31
    2ff4:	88 16       	cp	r8, r24
    2ff6:	99 06       	cpc	r9, r25
    2ff8:	aa 06       	cpc	r10, r26
    2ffa:	bb 06       	cpc	r11, r27
    2ffc:	08 f0       	brcs	.+2      	; 0x3000 <create_chain+0x11a>
    2ffe:	b1 cf       	rjmp	.-158    	; 0x2f62 <create_chain+0x7c>
    3000:	ad 81       	ldd	r26, Y+5	; 0x05
    3002:	be 81       	ldd	r27, Y+6	; 0x06
    3004:	0d 90       	ld	r0, X+
    3006:	bc 91       	ld	r27, X
    3008:	a0 2d       	mov	r26, r0
    300a:	ad 8f       	std	Y+29, r26	; 0x1d
    300c:	be 8f       	std	Y+30, r27	; 0x1e
    300e:	b2 e0       	ldi	r27, 0x02	; 2
    3010:	8b 16       	cp	r8, r27
    3012:	91 04       	cpc	r9, r1
    3014:	a1 04       	cpc	r10, r1
    3016:	b1 04       	cpc	r11, r1
    3018:	60 f2       	brcs	.-104    	; 0x2fb2 <create_chain+0xcc>
    301a:	b6 cf       	rjmp	.-148    	; 0x2f88 <create_chain+0xa2>
    301c:	f1 01       	movw	r30, r2
    301e:	87 89       	ldd	r24, Z+23	; 0x17
    3020:	90 8d       	ldd	r25, Z+24	; 0x18
    3022:	a1 8d       	ldd	r26, Z+25	; 0x19
    3024:	b2 8d       	ldd	r27, Z+26	; 0x1a
    3026:	48 16       	cp	r4, r24
    3028:	59 06       	cpc	r5, r25
    302a:	6a 06       	cpc	r6, r26
    302c:	7b 06       	cpc	r7, r27
    302e:	08 f4       	brcc	.+2      	; 0x3032 <create_chain+0x14c>
    3030:	93 cf       	rjmp	.-218    	; 0x2f58 <create_chain+0x72>
    3032:	41 2c       	mov	r4, r1
    3034:	51 2c       	mov	r5, r1
    3036:	32 01       	movw	r6, r4
    3038:	43 94       	inc	r4
    303a:	8e cf       	rjmp	.-228    	; 0x2f58 <create_chain+0x72>
    303c:	f4 01       	movw	r30, r8
    303e:	f6 95       	lsr	r31
    3040:	e7 95       	ror	r30
    3042:	8f 01       	movw	r16, r30
    3044:	08 0d       	add	r16, r8
    3046:	19 1d       	adc	r17, r9
    3048:	0f 83       	std	Y+7, r16	; 0x07
    304a:	18 87       	std	Y+8, r17	; 0x08
    304c:	ed 8d       	ldd	r30, Y+29	; 0x1d
    304e:	fe 8d       	ldd	r31, Y+30	; 0x1e
    3050:	83 a1       	ldd	r24, Z+35	; 0x23
    3052:	94 a1       	ldd	r25, Z+36	; 0x24
    3054:	a5 a1       	ldd	r26, Z+37	; 0x25
    3056:	b6 a1       	ldd	r27, Z+38	; 0x26
    3058:	98 01       	movw	r18, r16
    305a:	23 2f       	mov	r18, r19
    305c:	33 27       	eor	r19, r19
    305e:	26 95       	lsr	r18
    3060:	ac 01       	movw	r20, r24
    3062:	bd 01       	movw	r22, r26
    3064:	42 0f       	add	r20, r18
    3066:	53 1f       	adc	r21, r19
    3068:	61 1d       	adc	r22, r1
    306a:	71 1d       	adc	r23, r1
    306c:	49 83       	std	Y+1, r20	; 0x01
    306e:	5a 83       	std	Y+2, r21	; 0x02
    3070:	6b 83       	std	Y+3, r22	; 0x03
    3072:	7c 83       	std	Y+4, r23	; 0x04
    3074:	47 a4       	ldd	r4, Z+47	; 0x2f
    3076:	50 a8       	ldd	r5, Z+48	; 0x30
    3078:	61 a8       	ldd	r6, Z+49	; 0x31
    307a:	72 a8       	ldd	r7, Z+50	; 0x32
    307c:	44 16       	cp	r4, r20
    307e:	55 06       	cpc	r5, r21
    3080:	66 06       	cpc	r6, r22
    3082:	77 06       	cpc	r7, r23
    3084:	61 f1       	breq	.+88     	; 0x30de <create_chain+0x1f8>
    3086:	83 81       	ldd	r24, Z+3	; 0x03
    3088:	81 11       	cpse	r24, r1
    308a:	09 c2       	rjmp	.+1042   	; 0x349e <create_chain+0x5b8>
    308c:	0d 8d       	ldd	r16, Y+29	; 0x1d
    308e:	1e 8d       	ldd	r17, Y+30	; 0x1e
    3090:	0d 5c       	subi	r16, 0xCD	; 205
    3092:	1f 4f       	sbci	r17, 0xFF	; 255
    3094:	09 87       	std	Y+9, r16	; 0x09
    3096:	1a 87       	std	Y+10, r17	; 0x0a
    3098:	01 e0       	ldi	r16, 0x01	; 1
    309a:	10 e0       	ldi	r17, 0x00	; 0
    309c:	29 81       	ldd	r18, Y+1	; 0x01
    309e:	3a 81       	ldd	r19, Y+2	; 0x02
    30a0:	4b 81       	ldd	r20, Y+3	; 0x03
    30a2:	5c 81       	ldd	r21, Y+4	; 0x04
    30a4:	69 85       	ldd	r22, Y+9	; 0x09
    30a6:	7a 85       	ldd	r23, Y+10	; 0x0a
    30a8:	ad 8d       	ldd	r26, Y+29	; 0x1d
    30aa:	be 8d       	ldd	r27, Y+30	; 0x1e
    30ac:	11 96       	adiw	r26, 0x01	; 1
    30ae:	8c 91       	ld	r24, X
    30b0:	0e 94 59 3b 	call	0x76b2	; 0x76b2 <disk_read>
    30b4:	81 11       	cpse	r24, r1
    30b6:	68 c1       	rjmp	.+720    	; 0x3388 <create_chain+0x4a2>
    30b8:	09 81       	ldd	r16, Y+1	; 0x01
    30ba:	1a 81       	ldd	r17, Y+2	; 0x02
    30bc:	2b 81       	ldd	r18, Y+3	; 0x03
    30be:	3c 81       	ldd	r19, Y+4	; 0x04
    30c0:	ad 8d       	ldd	r26, Y+29	; 0x1d
    30c2:	be 8d       	ldd	r27, Y+30	; 0x1e
    30c4:	9f 96       	adiw	r26, 0x2f	; 47
    30c6:	0d 93       	st	X+, r16
    30c8:	1d 93       	st	X+, r17
    30ca:	2d 93       	st	X+, r18
    30cc:	3c 93       	st	X, r19
    30ce:	d2 97       	sbiw	r26, 0x32	; 50
    30d0:	fd 01       	movw	r30, r26
    30d2:	83 a1       	ldd	r24, Z+35	; 0x23
    30d4:	94 a1       	ldd	r25, Z+36	; 0x24
    30d6:	a5 a1       	ldd	r26, Z+37	; 0x25
    30d8:	b6 a1       	ldd	r27, Z+38	; 0x26
    30da:	0f 81       	ldd	r16, Y+7	; 0x07
    30dc:	18 85       	ldd	r17, Y+8	; 0x08
    30de:	0f 5f       	subi	r16, 0xFF	; 255
    30e0:	1f 4f       	sbci	r17, 0xFF	; 255
    30e2:	09 87       	std	Y+9, r16	; 0x09
    30e4:	1a 87       	std	Y+10, r17	; 0x0a
    30e6:	2f 81       	ldd	r18, Y+7	; 0x07
    30e8:	38 85       	ldd	r19, Y+8	; 0x08
    30ea:	31 70       	andi	r19, 0x01	; 1
    30ec:	4d 8d       	ldd	r20, Y+29	; 0x1d
    30ee:	5e 8d       	ldd	r21, Y+30	; 0x1e
    30f0:	42 0f       	add	r20, r18
    30f2:	53 1f       	adc	r21, r19
    30f4:	fa 01       	movw	r30, r20
    30f6:	f3 a9       	ldd	r31, Z+51	; 0x33
    30f8:	f9 8b       	std	Y+17, r31	; 0x11
    30fa:	98 01       	movw	r18, r16
    30fc:	23 2f       	mov	r18, r19
    30fe:	33 27       	eor	r19, r19
    3100:	26 95       	lsr	r18
    3102:	2c 01       	movw	r4, r24
    3104:	3d 01       	movw	r6, r26
    3106:	42 0e       	add	r4, r18
    3108:	53 1e       	adc	r5, r19
    310a:	61 1c       	adc	r6, r1
    310c:	71 1c       	adc	r7, r1
    310e:	09 81       	ldd	r16, Y+1	; 0x01
    3110:	1a 81       	ldd	r17, Y+2	; 0x02
    3112:	2b 81       	ldd	r18, Y+3	; 0x03
    3114:	3c 81       	ldd	r19, Y+4	; 0x04
    3116:	04 15       	cp	r16, r4
    3118:	15 05       	cpc	r17, r5
    311a:	26 05       	cpc	r18, r6
    311c:	37 05       	cpc	r19, r7
    311e:	f9 f0       	breq	.+62     	; 0x315e <create_chain+0x278>
    3120:	ad 8d       	ldd	r26, Y+29	; 0x1d
    3122:	be 8d       	ldd	r27, Y+30	; 0x1e
    3124:	13 96       	adiw	r26, 0x03	; 3
    3126:	8c 91       	ld	r24, X
    3128:	13 97       	sbiw	r26, 0x03	; 3
    312a:	fd 01       	movw	r30, r26
    312c:	81 11       	cpse	r24, r1
    312e:	76 c2       	rjmp	.+1260   	; 0x361c <create_chain+0x736>
    3130:	f3 96       	adiw	r30, 0x33	; 51
    3132:	ef 83       	std	Y+7, r30	; 0x07
    3134:	f8 87       	std	Y+8, r31	; 0x08
    3136:	01 e0       	ldi	r16, 0x01	; 1
    3138:	10 e0       	ldi	r17, 0x00	; 0
    313a:	a3 01       	movw	r20, r6
    313c:	92 01       	movw	r18, r4
    313e:	6f 81       	ldd	r22, Y+7	; 0x07
    3140:	78 85       	ldd	r23, Y+8	; 0x08
    3142:	ad 8d       	ldd	r26, Y+29	; 0x1d
    3144:	be 8d       	ldd	r27, Y+30	; 0x1e
    3146:	11 96       	adiw	r26, 0x01	; 1
    3148:	8c 91       	ld	r24, X
    314a:	0e 94 59 3b 	call	0x76b2	; 0x76b2 <disk_read>
    314e:	81 11       	cpse	r24, r1
    3150:	1b c1       	rjmp	.+566    	; 0x3388 <create_chain+0x4a2>
    3152:	ed 8d       	ldd	r30, Y+29	; 0x1d
    3154:	fe 8d       	ldd	r31, Y+30	; 0x1e
    3156:	47 a6       	std	Z+47, r4	; 0x2f
    3158:	50 aa       	std	Z+48, r5	; 0x30
    315a:	61 aa       	std	Z+49, r6	; 0x31
    315c:	72 aa       	std	Z+50, r7	; 0x32
    315e:	89 85       	ldd	r24, Y+9	; 0x09
    3160:	9a 85       	ldd	r25, Y+10	; 0x0a
    3162:	91 70       	andi	r25, 0x01	; 1
    3164:	0d 8d       	ldd	r16, Y+29	; 0x1d
    3166:	1e 8d       	ldd	r17, Y+30	; 0x1e
    3168:	80 0f       	add	r24, r16
    316a:	91 1f       	adc	r25, r17
    316c:	dc 01       	movw	r26, r24
    316e:	d3 96       	adiw	r26, 0x33	; 51
    3170:	8c 91       	ld	r24, X
    3172:	99 89       	ldd	r25, Y+17	; 0x11
    3174:	49 2f       	mov	r20, r25
    3176:	50 e0       	ldi	r21, 0x00	; 0
    3178:	58 2b       	or	r21, r24
    317a:	80 fe       	sbrs	r8, 0
    317c:	4b c2       	rjmp	.+1174   	; 0x3614 <create_chain+0x72e>
    317e:	52 95       	swap	r21
    3180:	42 95       	swap	r20
    3182:	4f 70       	andi	r20, 0x0F	; 15
    3184:	45 27       	eor	r20, r21
    3186:	5f 70       	andi	r21, 0x0F	; 15
    3188:	45 27       	eor	r20, r21
    318a:	60 e0       	ldi	r22, 0x00	; 0
    318c:	70 e0       	ldi	r23, 0x00	; 0
    318e:	6e c0       	rjmp	.+220    	; 0x326c <create_chain+0x386>
    3190:	ed 8d       	ldd	r30, Y+29	; 0x1d
    3192:	fe 8d       	ldd	r31, Y+30	; 0x1e
    3194:	43 a1       	ldd	r20, Z+35	; 0x23
    3196:	54 a1       	ldd	r21, Z+36	; 0x24
    3198:	65 a1       	ldd	r22, Z+37	; 0x25
    319a:	76 a1       	ldd	r23, Z+38	; 0x26
    319c:	d5 01       	movw	r26, r10
    319e:	c4 01       	movw	r24, r8
    31a0:	17 e0       	ldi	r17, 0x07	; 7
    31a2:	b6 95       	lsr	r27
    31a4:	a7 95       	ror	r26
    31a6:	97 95       	ror	r25
    31a8:	87 95       	ror	r24
    31aa:	1a 95       	dec	r17
    31ac:	d1 f7       	brne	.-12     	; 0x31a2 <create_chain+0x2bc>
    31ae:	8c 01       	movw	r16, r24
    31b0:	9d 01       	movw	r18, r26
    31b2:	04 0f       	add	r16, r20
    31b4:	15 1f       	adc	r17, r21
    31b6:	26 1f       	adc	r18, r22
    31b8:	37 1f       	adc	r19, r23
    31ba:	09 83       	std	Y+1, r16	; 0x01
    31bc:	1a 83       	std	Y+2, r17	; 0x02
    31be:	2b 83       	std	Y+3, r18	; 0x03
    31c0:	3c 83       	std	Y+4, r19	; 0x04
    31c2:	47 a4       	ldd	r4, Z+47	; 0x2f
    31c4:	50 a8       	ldd	r5, Z+48	; 0x30
    31c6:	61 a8       	ldd	r6, Z+49	; 0x31
    31c8:	72 a8       	ldd	r7, Z+50	; 0x32
    31ca:	04 15       	cp	r16, r4
    31cc:	15 05       	cpc	r17, r5
    31ce:	26 05       	cpc	r18, r6
    31d0:	37 05       	cpc	r19, r7
    31d2:	21 f1       	breq	.+72     	; 0x321c <create_chain+0x336>
    31d4:	83 81       	ldd	r24, Z+3	; 0x03
    31d6:	81 11       	cpse	r24, r1
    31d8:	77 c1       	rjmp	.+750    	; 0x34c8 <create_chain+0x5e2>
    31da:	ed 8d       	ldd	r30, Y+29	; 0x1d
    31dc:	fe 8d       	ldd	r31, Y+30	; 0x1e
    31de:	f3 96       	adiw	r30, 0x33	; 51
    31e0:	ef 83       	std	Y+7, r30	; 0x07
    31e2:	f8 87       	std	Y+8, r31	; 0x08
    31e4:	01 e0       	ldi	r16, 0x01	; 1
    31e6:	10 e0       	ldi	r17, 0x00	; 0
    31e8:	29 81       	ldd	r18, Y+1	; 0x01
    31ea:	3a 81       	ldd	r19, Y+2	; 0x02
    31ec:	4b 81       	ldd	r20, Y+3	; 0x03
    31ee:	5c 81       	ldd	r21, Y+4	; 0x04
    31f0:	6f 81       	ldd	r22, Y+7	; 0x07
    31f2:	78 85       	ldd	r23, Y+8	; 0x08
    31f4:	ad 8d       	ldd	r26, Y+29	; 0x1d
    31f6:	be 8d       	ldd	r27, Y+30	; 0x1e
    31f8:	11 96       	adiw	r26, 0x01	; 1
    31fa:	8c 91       	ld	r24, X
    31fc:	0e 94 59 3b 	call	0x76b2	; 0x76b2 <disk_read>
    3200:	81 11       	cpse	r24, r1
    3202:	c2 c0       	rjmp	.+388    	; 0x3388 <create_chain+0x4a2>
    3204:	09 81       	ldd	r16, Y+1	; 0x01
    3206:	1a 81       	ldd	r17, Y+2	; 0x02
    3208:	2b 81       	ldd	r18, Y+3	; 0x03
    320a:	3c 81       	ldd	r19, Y+4	; 0x04
    320c:	ad 8d       	ldd	r26, Y+29	; 0x1d
    320e:	be 8d       	ldd	r27, Y+30	; 0x1e
    3210:	9f 96       	adiw	r26, 0x2f	; 47
    3212:	0d 93       	st	X+, r16
    3214:	1d 93       	st	X+, r17
    3216:	2d 93       	st	X+, r18
    3218:	3c 93       	st	X, r19
    321a:	d2 97       	sbiw	r26, 0x32	; 50
    321c:	c4 01       	movw	r24, r8
    321e:	88 0f       	add	r24, r24
    3220:	99 1f       	adc	r25, r25
    3222:	88 0f       	add	r24, r24
    3224:	99 1f       	adc	r25, r25
    3226:	8c 7f       	andi	r24, 0xFC	; 252
    3228:	91 70       	andi	r25, 0x01	; 1
    322a:	fc 01       	movw	r30, r24
    322c:	f3 96       	adiw	r30, 0x33	; 51
    322e:	0d 8d       	ldd	r16, Y+29	; 0x1d
    3230:	1e 8d       	ldd	r17, Y+30	; 0x1e
    3232:	e0 0f       	add	r30, r16
    3234:	f1 1f       	adc	r31, r17
    3236:	43 81       	ldd	r20, Z+3	; 0x03
    3238:	50 e0       	ldi	r21, 0x00	; 0
    323a:	60 e0       	ldi	r22, 0x00	; 0
    323c:	70 e0       	ldi	r23, 0x00	; 0
    323e:	76 2f       	mov	r23, r22
    3240:	65 2f       	mov	r22, r21
    3242:	54 2f       	mov	r21, r20
    3244:	44 27       	eor	r20, r20
    3246:	22 81       	ldd	r18, Z+2	; 0x02
    3248:	42 2b       	or	r20, r18
    324a:	76 2f       	mov	r23, r22
    324c:	65 2f       	mov	r22, r21
    324e:	54 2f       	mov	r21, r20
    3250:	44 27       	eor	r20, r20
    3252:	21 81       	ldd	r18, Z+1	; 0x01
    3254:	42 2b       	or	r20, r18
    3256:	76 2f       	mov	r23, r22
    3258:	65 2f       	mov	r22, r21
    325a:	54 2f       	mov	r21, r20
    325c:	44 27       	eor	r20, r20
    325e:	80 0f       	add	r24, r16
    3260:	91 1f       	adc	r25, r17
    3262:	dc 01       	movw	r26, r24
    3264:	d3 96       	adiw	r26, 0x33	; 51
    3266:	8c 91       	ld	r24, X
    3268:	48 2b       	or	r20, r24
    326a:	7f 70       	andi	r23, 0x0F	; 15
    326c:	41 15       	cp	r20, r1
    326e:	51 05       	cpc	r21, r1
    3270:	61 05       	cpc	r22, r1
    3272:	71 05       	cpc	r23, r1
    3274:	09 f4       	brne	.+2      	; 0x3278 <create_chain+0x392>
    3276:	78 c0       	rjmp	.+240    	; 0x3368 <create_chain+0x482>
    3278:	41 30       	cpi	r20, 0x01	; 1
    327a:	51 05       	cpc	r21, r1
    327c:	61 05       	cpc	r22, r1
    327e:	71 05       	cpc	r23, r1
    3280:	09 f0       	breq	.+2      	; 0x3284 <create_chain+0x39e>
    3282:	a8 ce       	rjmp	.-688    	; 0x2fd4 <create_chain+0xee>
    3284:	34 2f       	mov	r19, r20
    3286:	25 2f       	mov	r18, r21
    3288:	cb 01       	movw	r24, r22
    328a:	63 2f       	mov	r22, r19
    328c:	72 2f       	mov	r23, r18
    328e:	6e 96       	adiw	r28, 0x1e	; 30
    3290:	cd bf       	out	0x3d, r28	; 61
    3292:	de bf       	out	0x3e, r29	; 62
    3294:	df 91       	pop	r29
    3296:	cf 91       	pop	r28
    3298:	1f 91       	pop	r17
    329a:	0f 91       	pop	r16
    329c:	ff 90       	pop	r15
    329e:	ef 90       	pop	r14
    32a0:	df 90       	pop	r13
    32a2:	cf 90       	pop	r12
    32a4:	bf 90       	pop	r11
    32a6:	af 90       	pop	r10
    32a8:	9f 90       	pop	r9
    32aa:	8f 90       	pop	r8
    32ac:	7f 90       	pop	r7
    32ae:	6f 90       	pop	r6
    32b0:	5f 90       	pop	r5
    32b2:	4f 90       	pop	r4
    32b4:	3f 90       	pop	r3
    32b6:	2f 90       	pop	r2
    32b8:	08 95       	ret
    32ba:	bb 27       	eor	r27, r27
    32bc:	ab 2d       	mov	r26, r11
    32be:	9a 2d       	mov	r25, r10
    32c0:	89 2d       	mov	r24, r9
    32c2:	ed 8d       	ldd	r30, Y+29	; 0x1d
    32c4:	fe 8d       	ldd	r31, Y+30	; 0x1e
    32c6:	43 a1       	ldd	r20, Z+35	; 0x23
    32c8:	54 a1       	ldd	r21, Z+36	; 0x24
    32ca:	65 a1       	ldd	r22, Z+37	; 0x25
    32cc:	76 a1       	ldd	r23, Z+38	; 0x26
    32ce:	8c 01       	movw	r16, r24
    32d0:	9d 01       	movw	r18, r26
    32d2:	04 0f       	add	r16, r20
    32d4:	15 1f       	adc	r17, r21
    32d6:	26 1f       	adc	r18, r22
    32d8:	37 1f       	adc	r19, r23
    32da:	09 83       	std	Y+1, r16	; 0x01
    32dc:	1a 83       	std	Y+2, r17	; 0x02
    32de:	2b 83       	std	Y+3, r18	; 0x03
    32e0:	3c 83       	std	Y+4, r19	; 0x04
    32e2:	47 a4       	ldd	r4, Z+47	; 0x2f
    32e4:	50 a8       	ldd	r5, Z+48	; 0x30
    32e6:	61 a8       	ldd	r6, Z+49	; 0x31
    32e8:	72 a8       	ldd	r7, Z+50	; 0x32
    32ea:	04 15       	cp	r16, r4
    32ec:	15 05       	cpc	r17, r5
    32ee:	26 05       	cpc	r18, r6
    32f0:	37 05       	cpc	r19, r7
    32f2:	29 f1       	breq	.+74     	; 0x333e <create_chain+0x458>
    32f4:	83 81       	ldd	r24, Z+3	; 0x03
    32f6:	81 11       	cpse	r24, r1
    32f8:	7b c0       	rjmp	.+246    	; 0x33f0 <create_chain+0x50a>
    32fa:	ed 8d       	ldd	r30, Y+29	; 0x1d
    32fc:	fe 8d       	ldd	r31, Y+30	; 0x1e
    32fe:	f3 96       	adiw	r30, 0x33	; 51
    3300:	ef 83       	std	Y+7, r30	; 0x07
    3302:	f8 87       	std	Y+8, r31	; 0x08
    3304:	01 e0       	ldi	r16, 0x01	; 1
    3306:	10 e0       	ldi	r17, 0x00	; 0
    3308:	29 81       	ldd	r18, Y+1	; 0x01
    330a:	3a 81       	ldd	r19, Y+2	; 0x02
    330c:	4b 81       	ldd	r20, Y+3	; 0x03
    330e:	5c 81       	ldd	r21, Y+4	; 0x04
    3310:	6f 81       	ldd	r22, Y+7	; 0x07
    3312:	78 85       	ldd	r23, Y+8	; 0x08
    3314:	ad 8d       	ldd	r26, Y+29	; 0x1d
    3316:	be 8d       	ldd	r27, Y+30	; 0x1e
    3318:	11 96       	adiw	r26, 0x01	; 1
    331a:	8c 91       	ld	r24, X
    331c:	0e 94 59 3b 	call	0x76b2	; 0x76b2 <disk_read>
    3320:	81 11       	cpse	r24, r1
    3322:	32 c0       	rjmp	.+100    	; 0x3388 <create_chain+0x4a2>
    3324:	09 81       	ldd	r16, Y+1	; 0x01
    3326:	1a 81       	ldd	r17, Y+2	; 0x02
    3328:	2b 81       	ldd	r18, Y+3	; 0x03
    332a:	3c 81       	ldd	r19, Y+4	; 0x04
    332c:	ad 8d       	ldd	r26, Y+29	; 0x1d
    332e:	be 8d       	ldd	r27, Y+30	; 0x1e
    3330:	9f 96       	adiw	r26, 0x2f	; 47
    3332:	0d 93       	st	X+, r16
    3334:	1d 93       	st	X+, r17
    3336:	2d 93       	st	X+, r18
    3338:	3c 93       	st	X, r19
    333a:	d2 97       	sbiw	r26, 0x32	; 50
    333c:	fd 01       	movw	r30, r26
    333e:	c4 01       	movw	r24, r8
    3340:	88 0f       	add	r24, r24
    3342:	99 1f       	adc	r25, r25
    3344:	8e 7f       	andi	r24, 0xFE	; 254
    3346:	91 70       	andi	r25, 0x01	; 1
    3348:	e8 0f       	add	r30, r24
    334a:	f9 1f       	adc	r31, r25
    334c:	44 a9       	ldd	r20, Z+52	; 0x34
    334e:	50 e0       	ldi	r21, 0x00	; 0
    3350:	54 2f       	mov	r21, r20
    3352:	44 27       	eor	r20, r20
    3354:	83 a9       	ldd	r24, Z+51	; 0x33
    3356:	48 2b       	or	r20, r24
    3358:	60 e0       	ldi	r22, 0x00	; 0
    335a:	70 e0       	ldi	r23, 0x00	; 0
    335c:	41 15       	cp	r20, r1
    335e:	51 05       	cpc	r21, r1
    3360:	61 05       	cpc	r22, r1
    3362:	71 05       	cpc	r23, r1
    3364:	09 f0       	breq	.+2      	; 0x3368 <create_chain+0x482>
    3366:	88 cf       	rjmp	.-240    	; 0x3278 <create_chain+0x392>
    3368:	f1 01       	movw	r30, r2
    336a:	87 89       	ldd	r24, Z+23	; 0x17
    336c:	90 8d       	ldd	r25, Z+24	; 0x18
    336e:	a1 8d       	ldd	r26, Z+25	; 0x19
    3370:	b2 8d       	ldd	r27, Z+26	; 0x1a
    3372:	88 16       	cp	r8, r24
    3374:	99 06       	cpc	r9, r25
    3376:	aa 06       	cpc	r10, r26
    3378:	bb 06       	cpc	r11, r27
    337a:	08 f4       	brcc	.+2      	; 0x337e <create_chain+0x498>
    337c:	b6 c1       	rjmp	.+876    	; 0x36ea <create_chain+0x804>
    337e:	31 e0       	ldi	r19, 0x01	; 1
    3380:	20 e0       	ldi	r18, 0x00	; 0
    3382:	80 e0       	ldi	r24, 0x00	; 0
    3384:	90 e0       	ldi	r25, 0x00	; 0
    3386:	81 cf       	rjmp	.-254    	; 0x328a <create_chain+0x3a4>
    3388:	0f ef       	ldi	r16, 0xFF	; 255
    338a:	1f ef       	ldi	r17, 0xFF	; 255
    338c:	98 01       	movw	r18, r16
    338e:	ad 8d       	ldd	r26, Y+29	; 0x1d
    3390:	be 8d       	ldd	r27, Y+30	; 0x1e
    3392:	9f 96       	adiw	r26, 0x2f	; 47
    3394:	0d 93       	st	X+, r16
    3396:	1d 93       	st	X+, r17
    3398:	2d 93       	st	X+, r18
    339a:	3c 93       	st	X, r19
    339c:	d2 97       	sbiw	r26, 0x32	; 50
    339e:	4f ef       	ldi	r20, 0xFF	; 255
    33a0:	5f ef       	ldi	r21, 0xFF	; 255
    33a2:	ba 01       	movw	r22, r20
    33a4:	0a ce       	rjmp	.-1004   	; 0x2fba <create_chain+0xd4>
    33a6:	30 e0       	ldi	r19, 0x00	; 0
    33a8:	20 e0       	ldi	r18, 0x00	; 0
    33aa:	80 e0       	ldi	r24, 0x00	; 0
    33ac:	90 e0       	ldi	r25, 0x00	; 0
    33ae:	6d cf       	rjmp	.-294    	; 0x328a <create_chain+0x3a4>
    33b0:	c1 01       	movw	r24, r2
    33b2:	92 da       	rcall	.-2780   	; 0x28d8 <get_fat.isra.8>
    33b4:	ab 01       	movw	r20, r22
    33b6:	bc 01       	movw	r22, r24
    33b8:	42 30       	cpi	r20, 0x02	; 2
    33ba:	51 05       	cpc	r21, r1
    33bc:	61 05       	cpc	r22, r1
    33be:	71 05       	cpc	r23, r1
    33c0:	f0 f2       	brcs	.-68     	; 0x337e <create_chain+0x498>
    33c2:	4f 3f       	cpi	r20, 0xFF	; 255
    33c4:	ff ef       	ldi	r31, 0xFF	; 255
    33c6:	5f 07       	cpc	r21, r31
    33c8:	6f 07       	cpc	r22, r31
    33ca:	7f 07       	cpc	r23, r31
    33cc:	09 f4       	brne	.+2      	; 0x33d0 <create_chain+0x4ea>
    33ce:	1d c1       	rjmp	.+570    	; 0x360a <create_chain+0x724>
    33d0:	f1 01       	movw	r30, r2
    33d2:	87 89       	ldd	r24, Z+23	; 0x17
    33d4:	90 8d       	ldd	r25, Z+24	; 0x18
    33d6:	a1 8d       	ldd	r26, Z+25	; 0x19
    33d8:	b2 8d       	ldd	r27, Z+26	; 0x1a
    33da:	48 17       	cp	r20, r24
    33dc:	59 07       	cpc	r21, r25
    33de:	6a 07       	cpc	r22, r26
    33e0:	7b 07       	cpc	r23, r27
    33e2:	08 f4       	brcc	.+2      	; 0x33e6 <create_chain+0x500>
    33e4:	4f cf       	rjmp	.-354    	; 0x3284 <create_chain+0x39e>
    33e6:	4d 84       	ldd	r4, Y+13	; 0x0d
    33e8:	5e 84       	ldd	r5, Y+14	; 0x0e
    33ea:	6f 84       	ldd	r6, Y+15	; 0x0f
    33ec:	78 88       	ldd	r7, Y+16	; 0x10
    33ee:	b4 cd       	rjmp	.-1176   	; 0x2f58 <create_chain+0x72>
    33f0:	f3 96       	adiw	r30, 0x33	; 51
    33f2:	ef 83       	std	Y+7, r30	; 0x07
    33f4:	f8 87       	std	Y+8, r31	; 0x08
    33f6:	01 e0       	ldi	r16, 0x01	; 1
    33f8:	10 e0       	ldi	r17, 0x00	; 0
    33fa:	a3 01       	movw	r20, r6
    33fc:	92 01       	movw	r18, r4
    33fe:	bf 01       	movw	r22, r30
    3400:	ad 8d       	ldd	r26, Y+29	; 0x1d
    3402:	be 8d       	ldd	r27, Y+30	; 0x1e
    3404:	11 96       	adiw	r26, 0x01	; 1
    3406:	8c 91       	ld	r24, X
    3408:	0e 94 6d 3b 	call	0x76da	; 0x76da <disk_write>
    340c:	81 11       	cpse	r24, r1
    340e:	58 c0       	rjmp	.+176    	; 0x34c0 <create_chain+0x5da>
    3410:	ed 8d       	ldd	r30, Y+29	; 0x1d
    3412:	fe 8d       	ldd	r31, Y+30	; 0x1e
    3414:	13 82       	std	Z+3, r1	; 0x03
    3416:	83 8d       	ldd	r24, Z+27	; 0x1b
    3418:	94 8d       	ldd	r25, Z+28	; 0x1c
    341a:	a5 8d       	ldd	r26, Z+29	; 0x1d
    341c:	b6 8d       	ldd	r27, Z+30	; 0x1e
    341e:	43 a1       	ldd	r20, Z+35	; 0x23
    3420:	54 a1       	ldd	r21, Z+36	; 0x24
    3422:	65 a1       	ldd	r22, Z+37	; 0x25
    3424:	76 a1       	ldd	r23, Z+38	; 0x26
    3426:	93 01       	movw	r18, r6
    3428:	82 01       	movw	r16, r4
    342a:	04 1b       	sub	r16, r20
    342c:	15 0b       	sbc	r17, r21
    342e:	26 0b       	sbc	r18, r22
    3430:	37 0b       	sbc	r19, r23
    3432:	08 17       	cp	r16, r24
    3434:	19 07       	cpc	r17, r25
    3436:	2a 07       	cpc	r18, r26
    3438:	3b 07       	cpc	r19, r27
    343a:	08 f0       	brcs	.+2      	; 0x343e <create_chain+0x558>
    343c:	63 cf       	rjmp	.-314    	; 0x3304 <create_chain+0x41e>
    343e:	22 81       	ldd	r18, Z+2	; 0x02
    3440:	02 2f       	mov	r16, r18
    3442:	10 e0       	ldi	r17, 0x00	; 0
    3444:	02 30       	cpi	r16, 0x02	; 2
    3446:	11 05       	cpc	r17, r1
    3448:	08 f4       	brcc	.+2      	; 0x344c <create_chain+0x566>
    344a:	5c cf       	rjmp	.-328    	; 0x3304 <create_chain+0x41e>
    344c:	c9 86       	std	Y+9, r12	; 0x09
    344e:	da 86       	std	Y+10, r13	; 0x0a
    3450:	eb 86       	std	Y+11, r14	; 0x0b
    3452:	fc 86       	std	Y+12, r15	; 0x0c
    3454:	78 01       	movw	r14, r16
    3456:	cf 80       	ldd	r12, Y+7	; 0x07
    3458:	d8 84       	ldd	r13, Y+8	; 0x08
    345a:	06 c0       	rjmp	.+12     	; 0x3468 <create_chain+0x582>
    345c:	ed 8d       	ldd	r30, Y+29	; 0x1d
    345e:	fe 8d       	ldd	r31, Y+30	; 0x1e
    3460:	83 8d       	ldd	r24, Z+27	; 0x1b
    3462:	94 8d       	ldd	r25, Z+28	; 0x1c
    3464:	a5 8d       	ldd	r26, Z+29	; 0x1d
    3466:	b6 8d       	ldd	r27, Z+30	; 0x1e
    3468:	48 0e       	add	r4, r24
    346a:	59 1e       	adc	r5, r25
    346c:	6a 1e       	adc	r6, r26
    346e:	7b 1e       	adc	r7, r27
    3470:	01 e0       	ldi	r16, 0x01	; 1
    3472:	10 e0       	ldi	r17, 0x00	; 0
    3474:	a3 01       	movw	r20, r6
    3476:	92 01       	movw	r18, r4
    3478:	b6 01       	movw	r22, r12
    347a:	ad 8d       	ldd	r26, Y+29	; 0x1d
    347c:	be 8d       	ldd	r27, Y+30	; 0x1e
    347e:	11 96       	adiw	r26, 0x01	; 1
    3480:	8c 91       	ld	r24, X
    3482:	0e 94 6d 3b 	call	0x76da	; 0x76da <disk_write>
    3486:	b1 e0       	ldi	r27, 0x01	; 1
    3488:	eb 1a       	sub	r14, r27
    348a:	f1 08       	sbc	r15, r1
    348c:	e1 e0       	ldi	r30, 0x01	; 1
    348e:	ee 16       	cp	r14, r30
    3490:	f1 04       	cpc	r15, r1
    3492:	21 f7       	brne	.-56     	; 0x345c <create_chain+0x576>
    3494:	c9 84       	ldd	r12, Y+9	; 0x09
    3496:	da 84       	ldd	r13, Y+10	; 0x0a
    3498:	eb 84       	ldd	r14, Y+11	; 0x0b
    349a:	fc 84       	ldd	r15, Y+12	; 0x0c
    349c:	33 cf       	rjmp	.-410    	; 0x3304 <create_chain+0x41e>
    349e:	f3 96       	adiw	r30, 0x33	; 51
    34a0:	e9 87       	std	Y+9, r30	; 0x09
    34a2:	fa 87       	std	Y+10, r31	; 0x0a
    34a4:	01 e0       	ldi	r16, 0x01	; 1
    34a6:	10 e0       	ldi	r17, 0x00	; 0
    34a8:	a3 01       	movw	r20, r6
    34aa:	92 01       	movw	r18, r4
    34ac:	bf 01       	movw	r22, r30
    34ae:	ad 8d       	ldd	r26, Y+29	; 0x1d
    34b0:	be 8d       	ldd	r27, Y+30	; 0x1e
    34b2:	11 96       	adiw	r26, 0x01	; 1
    34b4:	8c 91       	ld	r24, X
    34b6:	0e 94 6d 3b 	call	0x76da	; 0x76da <disk_write>
    34ba:	88 23       	and	r24, r24
    34bc:	09 f4       	brne	.+2      	; 0x34c0 <create_chain+0x5da>
    34be:	5b c0       	rjmp	.+182    	; 0x3576 <create_chain+0x690>
    34c0:	4f ef       	ldi	r20, 0xFF	; 255
    34c2:	5f ef       	ldi	r21, 0xFF	; 255
    34c4:	ba 01       	movw	r22, r20
    34c6:	de ce       	rjmp	.-580    	; 0x3284 <create_chain+0x39e>
    34c8:	f3 96       	adiw	r30, 0x33	; 51
    34ca:	ef 83       	std	Y+7, r30	; 0x07
    34cc:	f8 87       	std	Y+8, r31	; 0x08
    34ce:	01 e0       	ldi	r16, 0x01	; 1
    34d0:	10 e0       	ldi	r17, 0x00	; 0
    34d2:	a3 01       	movw	r20, r6
    34d4:	92 01       	movw	r18, r4
    34d6:	bf 01       	movw	r22, r30
    34d8:	ad 8d       	ldd	r26, Y+29	; 0x1d
    34da:	be 8d       	ldd	r27, Y+30	; 0x1e
    34dc:	11 96       	adiw	r26, 0x01	; 1
    34de:	8c 91       	ld	r24, X
    34e0:	0e 94 6d 3b 	call	0x76da	; 0x76da <disk_write>
    34e4:	81 11       	cpse	r24, r1
    34e6:	ec cf       	rjmp	.-40     	; 0x34c0 <create_chain+0x5da>
    34e8:	ed 8d       	ldd	r30, Y+29	; 0x1d
    34ea:	fe 8d       	ldd	r31, Y+30	; 0x1e
    34ec:	13 82       	std	Z+3, r1	; 0x03
    34ee:	83 8d       	ldd	r24, Z+27	; 0x1b
    34f0:	94 8d       	ldd	r25, Z+28	; 0x1c
    34f2:	a5 8d       	ldd	r26, Z+29	; 0x1d
    34f4:	b6 8d       	ldd	r27, Z+30	; 0x1e
    34f6:	43 a1       	ldd	r20, Z+35	; 0x23
    34f8:	54 a1       	ldd	r21, Z+36	; 0x24
    34fa:	65 a1       	ldd	r22, Z+37	; 0x25
    34fc:	76 a1       	ldd	r23, Z+38	; 0x26
    34fe:	93 01       	movw	r18, r6
    3500:	82 01       	movw	r16, r4
    3502:	04 1b       	sub	r16, r20
    3504:	15 0b       	sbc	r17, r21
    3506:	26 0b       	sbc	r18, r22
    3508:	37 0b       	sbc	r19, r23
    350a:	08 17       	cp	r16, r24
    350c:	19 07       	cpc	r17, r25
    350e:	2a 07       	cpc	r18, r26
    3510:	3b 07       	cpc	r19, r27
    3512:	08 f0       	brcs	.+2      	; 0x3516 <create_chain+0x630>
    3514:	67 ce       	rjmp	.-818    	; 0x31e4 <create_chain+0x2fe>
    3516:	22 81       	ldd	r18, Z+2	; 0x02
    3518:	02 2f       	mov	r16, r18
    351a:	10 e0       	ldi	r17, 0x00	; 0
    351c:	02 30       	cpi	r16, 0x02	; 2
    351e:	11 05       	cpc	r17, r1
    3520:	08 f4       	brcc	.+2      	; 0x3524 <create_chain+0x63e>
    3522:	60 ce       	rjmp	.-832    	; 0x31e4 <create_chain+0x2fe>
    3524:	c9 86       	std	Y+9, r12	; 0x09
    3526:	da 86       	std	Y+10, r13	; 0x0a
    3528:	eb 86       	std	Y+11, r14	; 0x0b
    352a:	fc 86       	std	Y+12, r15	; 0x0c
    352c:	78 01       	movw	r14, r16
    352e:	cf 80       	ldd	r12, Y+7	; 0x07
    3530:	d8 84       	ldd	r13, Y+8	; 0x08
    3532:	06 c0       	rjmp	.+12     	; 0x3540 <create_chain+0x65a>
    3534:	ed 8d       	ldd	r30, Y+29	; 0x1d
    3536:	fe 8d       	ldd	r31, Y+30	; 0x1e
    3538:	83 8d       	ldd	r24, Z+27	; 0x1b
    353a:	94 8d       	ldd	r25, Z+28	; 0x1c
    353c:	a5 8d       	ldd	r26, Z+29	; 0x1d
    353e:	b6 8d       	ldd	r27, Z+30	; 0x1e
    3540:	48 0e       	add	r4, r24
    3542:	59 1e       	adc	r5, r25
    3544:	6a 1e       	adc	r6, r26
    3546:	7b 1e       	adc	r7, r27
    3548:	01 e0       	ldi	r16, 0x01	; 1
    354a:	10 e0       	ldi	r17, 0x00	; 0
    354c:	a3 01       	movw	r20, r6
    354e:	92 01       	movw	r18, r4
    3550:	b6 01       	movw	r22, r12
    3552:	ad 8d       	ldd	r26, Y+29	; 0x1d
    3554:	be 8d       	ldd	r27, Y+30	; 0x1e
    3556:	11 96       	adiw	r26, 0x01	; 1
    3558:	8c 91       	ld	r24, X
    355a:	0e 94 6d 3b 	call	0x76da	; 0x76da <disk_write>
    355e:	b1 e0       	ldi	r27, 0x01	; 1
    3560:	eb 1a       	sub	r14, r27
    3562:	f1 08       	sbc	r15, r1
    3564:	e1 e0       	ldi	r30, 0x01	; 1
    3566:	ee 16       	cp	r14, r30
    3568:	f1 04       	cpc	r15, r1
    356a:	21 f7       	brne	.-56     	; 0x3534 <create_chain+0x64e>
    356c:	c9 84       	ldd	r12, Y+9	; 0x09
    356e:	da 84       	ldd	r13, Y+10	; 0x0a
    3570:	eb 84       	ldd	r14, Y+11	; 0x0b
    3572:	fc 84       	ldd	r15, Y+12	; 0x0c
    3574:	37 ce       	rjmp	.-914    	; 0x31e4 <create_chain+0x2fe>
    3576:	ed 8d       	ldd	r30, Y+29	; 0x1d
    3578:	fe 8d       	ldd	r31, Y+30	; 0x1e
    357a:	13 82       	std	Z+3, r1	; 0x03
    357c:	83 8d       	ldd	r24, Z+27	; 0x1b
    357e:	94 8d       	ldd	r25, Z+28	; 0x1c
    3580:	a5 8d       	ldd	r26, Z+29	; 0x1d
    3582:	b6 8d       	ldd	r27, Z+30	; 0x1e
    3584:	43 a1       	ldd	r20, Z+35	; 0x23
    3586:	54 a1       	ldd	r21, Z+36	; 0x24
    3588:	65 a1       	ldd	r22, Z+37	; 0x25
    358a:	76 a1       	ldd	r23, Z+38	; 0x26
    358c:	93 01       	movw	r18, r6
    358e:	82 01       	movw	r16, r4
    3590:	04 1b       	sub	r16, r20
    3592:	15 0b       	sbc	r17, r21
    3594:	26 0b       	sbc	r18, r22
    3596:	37 0b       	sbc	r19, r23
    3598:	08 17       	cp	r16, r24
    359a:	19 07       	cpc	r17, r25
    359c:	2a 07       	cpc	r18, r26
    359e:	3b 07       	cpc	r19, r27
    35a0:	08 f0       	brcs	.+2      	; 0x35a4 <create_chain+0x6be>
    35a2:	7a cd       	rjmp	.-1292   	; 0x3098 <create_chain+0x1b2>
    35a4:	22 81       	ldd	r18, Z+2	; 0x02
    35a6:	02 2f       	mov	r16, r18
    35a8:	10 e0       	ldi	r17, 0x00	; 0
    35aa:	02 30       	cpi	r16, 0x02	; 2
    35ac:	11 05       	cpc	r17, r1
    35ae:	08 f4       	brcc	.+2      	; 0x35b2 <create_chain+0x6cc>
    35b0:	73 cd       	rjmp	.-1306   	; 0x3098 <create_chain+0x1b2>
    35b2:	c9 8a       	std	Y+17, r12	; 0x11
    35b4:	da 8a       	std	Y+18, r13	; 0x12
    35b6:	eb 8a       	std	Y+19, r14	; 0x13
    35b8:	fc 8a       	std	Y+20, r15	; 0x14
    35ba:	78 01       	movw	r14, r16
    35bc:	c9 84       	ldd	r12, Y+9	; 0x09
    35be:	da 84       	ldd	r13, Y+10	; 0x0a
    35c0:	06 c0       	rjmp	.+12     	; 0x35ce <create_chain+0x6e8>
    35c2:	ed 8d       	ldd	r30, Y+29	; 0x1d
    35c4:	fe 8d       	ldd	r31, Y+30	; 0x1e
    35c6:	83 8d       	ldd	r24, Z+27	; 0x1b
    35c8:	94 8d       	ldd	r25, Z+28	; 0x1c
    35ca:	a5 8d       	ldd	r26, Z+29	; 0x1d
    35cc:	b6 8d       	ldd	r27, Z+30	; 0x1e
    35ce:	48 0e       	add	r4, r24
    35d0:	59 1e       	adc	r5, r25
    35d2:	6a 1e       	adc	r6, r26
    35d4:	7b 1e       	adc	r7, r27
    35d6:	01 e0       	ldi	r16, 0x01	; 1
    35d8:	10 e0       	ldi	r17, 0x00	; 0
    35da:	a3 01       	movw	r20, r6
    35dc:	92 01       	movw	r18, r4
    35de:	b6 01       	movw	r22, r12
    35e0:	ad 8d       	ldd	r26, Y+29	; 0x1d
    35e2:	be 8d       	ldd	r27, Y+30	; 0x1e
    35e4:	11 96       	adiw	r26, 0x01	; 1
    35e6:	8c 91       	ld	r24, X
    35e8:	0e 94 6d 3b 	call	0x76da	; 0x76da <disk_write>
    35ec:	b1 e0       	ldi	r27, 0x01	; 1
    35ee:	eb 1a       	sub	r14, r27
    35f0:	f1 08       	sbc	r15, r1
    35f2:	e1 e0       	ldi	r30, 0x01	; 1
    35f4:	ee 16       	cp	r14, r30
    35f6:	f1 04       	cpc	r15, r1
    35f8:	21 f7       	brne	.-56     	; 0x35c2 <create_chain+0x6dc>
    35fa:	c9 88       	ldd	r12, Y+17	; 0x11
    35fc:	da 88       	ldd	r13, Y+18	; 0x12
    35fe:	eb 88       	ldd	r14, Y+19	; 0x13
    3600:	fc 88       	ldd	r15, Y+20	; 0x14
    3602:	4a cd       	rjmp	.-1388   	; 0x3098 <create_chain+0x1b2>
    3604:	81 30       	cpi	r24, 0x01	; 1
    3606:	09 f0       	breq	.+2      	; 0x360a <create_chain+0x724>
    3608:	ba ce       	rjmp	.-652    	; 0x337e <create_chain+0x498>
    360a:	3f ef       	ldi	r19, 0xFF	; 255
    360c:	2f ef       	ldi	r18, 0xFF	; 255
    360e:	8f ef       	ldi	r24, 0xFF	; 255
    3610:	9f ef       	ldi	r25, 0xFF	; 255
    3612:	3b ce       	rjmp	.-906    	; 0x328a <create_chain+0x3a4>
    3614:	5f 70       	andi	r21, 0x0F	; 15
    3616:	60 e0       	ldi	r22, 0x00	; 0
    3618:	70 e0       	ldi	r23, 0x00	; 0
    361a:	28 ce       	rjmp	.-944    	; 0x326c <create_chain+0x386>
    361c:	d3 96       	adiw	r26, 0x33	; 51
    361e:	af 83       	std	Y+7, r26	; 0x07
    3620:	b8 87       	std	Y+8, r27	; 0x08
    3622:	01 e0       	ldi	r16, 0x01	; 1
    3624:	10 e0       	ldi	r17, 0x00	; 0
    3626:	29 81       	ldd	r18, Y+1	; 0x01
    3628:	3a 81       	ldd	r19, Y+2	; 0x02
    362a:	4b 81       	ldd	r20, Y+3	; 0x03
    362c:	5c 81       	ldd	r21, Y+4	; 0x04
    362e:	bd 01       	movw	r22, r26
    3630:	81 81       	ldd	r24, Z+1	; 0x01
    3632:	0e 94 6d 3b 	call	0x76da	; 0x76da <disk_write>
    3636:	81 11       	cpse	r24, r1
    3638:	43 cf       	rjmp	.-378    	; 0x34c0 <create_chain+0x5da>
    363a:	ad 8d       	ldd	r26, Y+29	; 0x1d
    363c:	be 8d       	ldd	r27, Y+30	; 0x1e
    363e:	13 96       	adiw	r26, 0x03	; 3
    3640:	1c 92       	st	X, r1
    3642:	13 97       	sbiw	r26, 0x03	; 3
    3644:	fd 01       	movw	r30, r26
    3646:	83 8d       	ldd	r24, Z+27	; 0x1b
    3648:	94 8d       	ldd	r25, Z+28	; 0x1c
    364a:	a5 8d       	ldd	r26, Z+29	; 0x1d
    364c:	b6 8d       	ldd	r27, Z+30	; 0x1e
    364e:	43 a1       	ldd	r20, Z+35	; 0x23
    3650:	54 a1       	ldd	r21, Z+36	; 0x24
    3652:	65 a1       	ldd	r22, Z+37	; 0x25
    3654:	76 a1       	ldd	r23, Z+38	; 0x26
    3656:	09 81       	ldd	r16, Y+1	; 0x01
    3658:	1a 81       	ldd	r17, Y+2	; 0x02
    365a:	2b 81       	ldd	r18, Y+3	; 0x03
    365c:	3c 81       	ldd	r19, Y+4	; 0x04
    365e:	04 1b       	sub	r16, r20
    3660:	15 0b       	sbc	r17, r21
    3662:	26 0b       	sbc	r18, r22
    3664:	37 0b       	sbc	r19, r23
    3666:	08 17       	cp	r16, r24
    3668:	19 07       	cpc	r17, r25
    366a:	2a 07       	cpc	r18, r26
    366c:	3b 07       	cpc	r19, r27
    366e:	08 f0       	brcs	.+2      	; 0x3672 <create_chain+0x78c>
    3670:	62 cd       	rjmp	.-1340   	; 0x3136 <create_chain+0x250>
    3672:	22 81       	ldd	r18, Z+2	; 0x02
    3674:	02 2f       	mov	r16, r18
    3676:	10 e0       	ldi	r17, 0x00	; 0
    3678:	02 30       	cpi	r16, 0x02	; 2
    367a:	11 05       	cpc	r17, r1
    367c:	08 f4       	brcc	.+2      	; 0x3680 <create_chain+0x79a>
    367e:	5b cd       	rjmp	.-1354   	; 0x3136 <create_chain+0x250>
    3680:	cd 8a       	std	Y+21, r12	; 0x15
    3682:	de 8a       	std	Y+22, r13	; 0x16
    3684:	ef 8a       	std	Y+23, r14	; 0x17
    3686:	f8 8e       	std	Y+24, r15	; 0x18
    3688:	49 8e       	std	Y+25, r4	; 0x19
    368a:	5a 8e       	std	Y+26, r5	; 0x1a
    368c:	6b 8e       	std	Y+27, r6	; 0x1b
    368e:	7c 8e       	std	Y+28, r7	; 0x1c
    3690:	78 01       	movw	r14, r16
    3692:	49 80       	ldd	r4, Y+1	; 0x01
    3694:	5a 80       	ldd	r5, Y+2	; 0x02
    3696:	6b 80       	ldd	r6, Y+3	; 0x03
    3698:	7c 80       	ldd	r7, Y+4	; 0x04
    369a:	cf 80       	ldd	r12, Y+7	; 0x07
    369c:	d8 84       	ldd	r13, Y+8	; 0x08
    369e:	06 c0       	rjmp	.+12     	; 0x36ac <create_chain+0x7c6>
    36a0:	ed 8d       	ldd	r30, Y+29	; 0x1d
    36a2:	fe 8d       	ldd	r31, Y+30	; 0x1e
    36a4:	83 8d       	ldd	r24, Z+27	; 0x1b
    36a6:	94 8d       	ldd	r25, Z+28	; 0x1c
    36a8:	a5 8d       	ldd	r26, Z+29	; 0x1d
    36aa:	b6 8d       	ldd	r27, Z+30	; 0x1e
    36ac:	48 0e       	add	r4, r24
    36ae:	59 1e       	adc	r5, r25
    36b0:	6a 1e       	adc	r6, r26
    36b2:	7b 1e       	adc	r7, r27
    36b4:	01 e0       	ldi	r16, 0x01	; 1
    36b6:	10 e0       	ldi	r17, 0x00	; 0
    36b8:	a3 01       	movw	r20, r6
    36ba:	92 01       	movw	r18, r4
    36bc:	b6 01       	movw	r22, r12
    36be:	ad 8d       	ldd	r26, Y+29	; 0x1d
    36c0:	be 8d       	ldd	r27, Y+30	; 0x1e
    36c2:	11 96       	adiw	r26, 0x01	; 1
    36c4:	8c 91       	ld	r24, X
    36c6:	0e 94 6d 3b 	call	0x76da	; 0x76da <disk_write>
    36ca:	b1 e0       	ldi	r27, 0x01	; 1
    36cc:	eb 1a       	sub	r14, r27
    36ce:	f1 08       	sbc	r15, r1
    36d0:	e1 e0       	ldi	r30, 0x01	; 1
    36d2:	ee 16       	cp	r14, r30
    36d4:	f1 04       	cpc	r15, r1
    36d6:	21 f7       	brne	.-56     	; 0x36a0 <create_chain+0x7ba>
    36d8:	cd 88       	ldd	r12, Y+21	; 0x15
    36da:	de 88       	ldd	r13, Y+22	; 0x16
    36dc:	ef 88       	ldd	r14, Y+23	; 0x17
    36de:	f8 8c       	ldd	r15, Y+24	; 0x18
    36e0:	49 8c       	ldd	r4, Y+25	; 0x19
    36e2:	5a 8c       	ldd	r5, Y+26	; 0x1a
    36e4:	6b 8c       	ldd	r6, Y+27	; 0x1b
    36e6:	7c 8c       	ldd	r7, Y+28	; 0x1c
    36e8:	26 cd       	rjmp	.-1460   	; 0x3136 <create_chain+0x250>
    36ea:	0f ef       	ldi	r16, 0xFF	; 255
    36ec:	1f ef       	ldi	r17, 0xFF	; 255
    36ee:	98 01       	movw	r18, r16
    36f0:	b5 01       	movw	r22, r10
    36f2:	a4 01       	movw	r20, r8
    36f4:	c1 01       	movw	r24, r2
    36f6:	0e 94 13 11 	call	0x2226	; 0x2226 <put_fat.part.7>
    36fa:	81 11       	cpse	r24, r1
    36fc:	83 cf       	rjmp	.-250    	; 0x3604 <create_chain+0x71e>
    36fe:	0d 85       	ldd	r16, Y+13	; 0x0d
    3700:	1e 85       	ldd	r17, Y+14	; 0x0e
    3702:	2f 85       	ldd	r18, Y+15	; 0x0f
    3704:	38 89       	ldd	r19, Y+16	; 0x10
    3706:	01 15       	cp	r16, r1
    3708:	11 05       	cpc	r17, r1
    370a:	21 05       	cpc	r18, r1
    370c:	31 05       	cpc	r19, r1
    370e:	e1 f0       	breq	.+56     	; 0x3748 <create_chain+0x862>
    3710:	02 30       	cpi	r16, 0x02	; 2
    3712:	11 05       	cpc	r17, r1
    3714:	21 05       	cpc	r18, r1
    3716:	31 05       	cpc	r19, r1
    3718:	08 f4       	brcc	.+2      	; 0x371c <create_chain+0x836>
    371a:	31 ce       	rjmp	.-926    	; 0x337e <create_chain+0x498>
    371c:	f1 01       	movw	r30, r2
    371e:	87 89       	ldd	r24, Z+23	; 0x17
    3720:	90 8d       	ldd	r25, Z+24	; 0x18
    3722:	a1 8d       	ldd	r26, Z+25	; 0x19
    3724:	b2 8d       	ldd	r27, Z+26	; 0x1a
    3726:	08 17       	cp	r16, r24
    3728:	19 07       	cpc	r17, r25
    372a:	2a 07       	cpc	r18, r26
    372c:	3b 07       	cpc	r19, r27
    372e:	08 f0       	brcs	.+2      	; 0x3732 <create_chain+0x84c>
    3730:	26 ce       	rjmp	.-948    	; 0x337e <create_chain+0x498>
    3732:	95 01       	movw	r18, r10
    3734:	84 01       	movw	r16, r8
    3736:	4d 85       	ldd	r20, Y+13	; 0x0d
    3738:	5e 85       	ldd	r21, Y+14	; 0x0e
    373a:	6f 85       	ldd	r22, Y+15	; 0x0f
    373c:	78 89       	ldd	r23, Y+16	; 0x10
    373e:	c1 01       	movw	r24, r2
    3740:	0e 94 13 11 	call	0x2226	; 0x2226 <put_fat.part.7>
    3744:	81 11       	cpse	r24, r1
    3746:	5e cf       	rjmp	.-324    	; 0x3604 <create_chain+0x71e>
    3748:	d1 01       	movw	r26, r2
    374a:	1b 96       	adiw	r26, 0x0b	; 11
    374c:	8d 92       	st	X+, r8
    374e:	9d 92       	st	X+, r9
    3750:	ad 92       	st	X+, r10
    3752:	bc 92       	st	X, r11
    3754:	1e 97       	sbiw	r26, 0x0e	; 14
    3756:	1f 96       	adiw	r26, 0x0f	; 15
    3758:	8d 91       	ld	r24, X+
    375a:	9d 91       	ld	r25, X+
    375c:	0d 90       	ld	r0, X+
    375e:	bc 91       	ld	r27, X
    3760:	a0 2d       	mov	r26, r0
    3762:	f1 01       	movw	r30, r2
    3764:	47 89       	ldd	r20, Z+23	; 0x17
    3766:	50 8d       	ldd	r21, Z+24	; 0x18
    3768:	61 8d       	ldd	r22, Z+25	; 0x19
    376a:	72 8d       	ldd	r23, Z+26	; 0x1a
    376c:	42 50       	subi	r20, 0x02	; 2
    376e:	51 09       	sbc	r21, r1
    3770:	61 09       	sbc	r22, r1
    3772:	71 09       	sbc	r23, r1
    3774:	84 17       	cp	r24, r20
    3776:	95 07       	cpc	r25, r21
    3778:	a6 07       	cpc	r26, r22
    377a:	b7 07       	cpc	r27, r23
    377c:	40 f4       	brcc	.+16     	; 0x378e <create_chain+0x8a8>
    377e:	01 97       	sbiw	r24, 0x01	; 1
    3780:	a1 09       	sbc	r26, r1
    3782:	b1 09       	sbc	r27, r1
    3784:	f1 01       	movw	r30, r2
    3786:	87 87       	std	Z+15, r24	; 0x0f
    3788:	90 8b       	std	Z+16, r25	; 0x10
    378a:	a1 8b       	std	Z+17, r26	; 0x11
    378c:	b2 8b       	std	Z+18, r27	; 0x12
    378e:	d1 01       	movw	r26, r2
    3790:	14 96       	adiw	r26, 0x04	; 4
    3792:	8c 91       	ld	r24, X
    3794:	14 97       	sbiw	r26, 0x04	; 4
    3796:	81 60       	ori	r24, 0x01	; 1
    3798:	14 96       	adiw	r26, 0x04	; 4
    379a:	8c 93       	st	X, r24
    379c:	38 2d       	mov	r19, r8
    379e:	29 2d       	mov	r18, r9
    37a0:	c5 01       	movw	r24, r10
    37a2:	73 cd       	rjmp	.-1306   	; 0x328a <create_chain+0x3a4>

000037a4 <dir_sdi.constprop.15>:
    37a4:	2f 92       	push	r2
    37a6:	3f 92       	push	r3
    37a8:	4f 92       	push	r4
    37aa:	5f 92       	push	r5
    37ac:	6f 92       	push	r6
    37ae:	7f 92       	push	r7
    37b0:	8f 92       	push	r8
    37b2:	9f 92       	push	r9
    37b4:	af 92       	push	r10
    37b6:	bf 92       	push	r11
    37b8:	cf 92       	push	r12
    37ba:	df 92       	push	r13
    37bc:	ef 92       	push	r14
    37be:	ff 92       	push	r15
    37c0:	0f 93       	push	r16
    37c2:	1f 93       	push	r17
    37c4:	cf 93       	push	r28
    37c6:	df 93       	push	r29
    37c8:	cd b7       	in	r28, 0x3d	; 61
    37ca:	de b7       	in	r29, 0x3e	; 62
    37cc:	64 97       	sbiw	r28, 0x14	; 20
    37ce:	cd bf       	out	0x3d, r28	; 61
    37d0:	de bf       	out	0x3e, r29	; 62
    37d2:	fc 01       	movw	r30, r24
    37d4:	20 80       	ld	r2, Z
    37d6:	31 80       	ldd	r3, Z+1	; 0x01
    37d8:	16 86       	std	Z+14, r1	; 0x0e
    37da:	17 86       	std	Z+15, r1	; 0x0f
    37dc:	10 8a       	std	Z+16, r1	; 0x10
    37de:	11 8a       	std	Z+17, r1	; 0x11
    37e0:	86 80       	ldd	r8, Z+6	; 0x06
    37e2:	97 80       	ldd	r9, Z+7	; 0x07
    37e4:	a0 84       	ldd	r10, Z+8	; 0x08
    37e6:	b1 84       	ldd	r11, Z+9	; 0x09
    37e8:	81 14       	cp	r8, r1
    37ea:	91 04       	cpc	r9, r1
    37ec:	a1 04       	cpc	r10, r1
    37ee:	b1 04       	cpc	r11, r1
    37f0:	09 f0       	breq	.+2      	; 0x37f4 <dir_sdi.constprop.15+0x50>
    37f2:	48 c0       	rjmp	.+144    	; 0x3884 <dir_sdi.constprop.15+0xe0>
    37f4:	d1 01       	movw	r26, r2
    37f6:	8c 91       	ld	r24, X
    37f8:	83 30       	cpi	r24, 0x03	; 3
    37fa:	58 f0       	brcs	.+22     	; 0x3812 <dir_sdi.constprop.15+0x6e>
    37fc:	97 96       	adiw	r26, 0x27	; 39
    37fe:	4d 91       	ld	r20, X+
    3800:	5d 91       	ld	r21, X+
    3802:	6d 91       	ld	r22, X+
    3804:	7c 91       	ld	r23, X
    3806:	9a 97       	sbiw	r26, 0x2a	; 42
    3808:	41 15       	cp	r20, r1
    380a:	51 05       	cpc	r21, r1
    380c:	61 05       	cpc	r22, r1
    380e:	71 05       	cpc	r23, r1
    3810:	b9 f5       	brne	.+110    	; 0x3880 <dir_sdi.constprop.15+0xdc>
    3812:	d1 01       	movw	r26, r2
    3814:	17 96       	adiw	r26, 0x07	; 7
    3816:	8d 91       	ld	r24, X+
    3818:	9c 91       	ld	r25, X
    381a:	18 97       	sbiw	r26, 0x08	; 8
    381c:	89 2b       	or	r24, r25
    381e:	b9 f4       	brne	.+46     	; 0x384e <dir_sdi.constprop.15+0xaa>
    3820:	82 e0       	ldi	r24, 0x02	; 2
    3822:	64 96       	adiw	r28, 0x14	; 20
    3824:	cd bf       	out	0x3d, r28	; 61
    3826:	de bf       	out	0x3e, r29	; 62
    3828:	df 91       	pop	r29
    382a:	cf 91       	pop	r28
    382c:	1f 91       	pop	r17
    382e:	0f 91       	pop	r16
    3830:	ff 90       	pop	r15
    3832:	ef 90       	pop	r14
    3834:	df 90       	pop	r13
    3836:	cf 90       	pop	r12
    3838:	bf 90       	pop	r11
    383a:	af 90       	pop	r10
    383c:	9f 90       	pop	r9
    383e:	8f 90       	pop	r8
    3840:	7f 90       	pop	r7
    3842:	6f 90       	pop	r6
    3844:	5f 90       	pop	r5
    3846:	4f 90       	pop	r4
    3848:	3f 90       	pop	r3
    384a:	2f 90       	pop	r2
    384c:	08 95       	ret
    384e:	d1 01       	movw	r26, r2
    3850:	97 96       	adiw	r26, 0x27	; 39
    3852:	cd 90       	ld	r12, X+
    3854:	dd 90       	ld	r13, X+
    3856:	ed 90       	ld	r14, X+
    3858:	fc 90       	ld	r15, X
    385a:	9a 97       	sbiw	r26, 0x2a	; 42
    385c:	c6 8a       	std	Z+22, r12	; 0x16
    385e:	d7 8a       	std	Z+23, r13	; 0x17
    3860:	e0 8e       	std	Z+24, r14	; 0x18
    3862:	f1 8e       	std	Z+25, r15	; 0x19
    3864:	82 8a       	std	Z+18, r8	; 0x12
    3866:	93 8a       	std	Z+19, r9	; 0x13
    3868:	a4 8a       	std	Z+20, r10	; 0x14
    386a:	b5 8a       	std	Z+21, r11	; 0x15
    386c:	cd 28       	or	r12, r13
    386e:	ce 28       	or	r12, r14
    3870:	cf 28       	or	r12, r15
    3872:	b1 f2       	breq	.-84     	; 0x3820 <dir_sdi.constprop.15+0x7c>
    3874:	c1 01       	movw	r24, r2
    3876:	c3 96       	adiw	r24, 0x33	; 51
    3878:	82 8f       	std	Z+26, r24	; 0x1a
    387a:	93 8f       	std	Z+27, r25	; 0x1b
    387c:	80 e0       	ldi	r24, 0x00	; 0
    387e:	d1 cf       	rjmp	.-94     	; 0x3822 <dir_sdi.constprop.15+0x7e>
    3880:	4a 01       	movw	r8, r20
    3882:	5b 01       	movw	r10, r22
    3884:	d1 01       	movw	r26, r2
    3886:	19 96       	adiw	r26, 0x09	; 9
    3888:	6d 91       	ld	r22, X+
    388a:	7c 91       	ld	r23, X
    388c:	1a 97       	sbiw	r26, 0x0a	; 10
    388e:	80 e0       	ldi	r24, 0x00	; 0
    3890:	90 e0       	ldi	r25, 0x00	; 0
    3892:	61 15       	cp	r22, r1
    3894:	71 05       	cpc	r23, r1
    3896:	81 05       	cpc	r24, r1
    3898:	91 05       	cpc	r25, r1
    389a:	09 f0       	breq	.+2      	; 0x389e <dir_sdi.constprop.15+0xfa>
    389c:	bd c2       	rjmp	.+1402   	; 0x3e18 <dir_sdi.constprop.15+0x674>
    389e:	2d 82       	std	Y+5, r2	; 0x05
    38a0:	3e 82       	std	Y+6, r3	; 0x06
    38a2:	2b 8a       	std	Y+19, r2	; 0x13
    38a4:	3c 8a       	std	Y+20, r3	; 0x14
    38a6:	1f 01       	movw	r2, r30
    38a8:	b2 e0       	ldi	r27, 0x02	; 2
    38aa:	8b 16       	cp	r8, r27
    38ac:	91 04       	cpc	r9, r1
    38ae:	a1 04       	cpc	r10, r1
    38b0:	b1 04       	cpc	r11, r1
    38b2:	08 f4       	brcc	.+2      	; 0x38b6 <dir_sdi.constprop.15+0x112>
    38b4:	b5 cf       	rjmp	.-150    	; 0x3820 <dir_sdi.constprop.15+0x7c>
    38b6:	eb 89       	ldd	r30, Y+19	; 0x13
    38b8:	fc 89       	ldd	r31, Y+20	; 0x14
    38ba:	87 89       	ldd	r24, Z+23	; 0x17
    38bc:	90 8d       	ldd	r25, Z+24	; 0x18
    38be:	a1 8d       	ldd	r26, Z+25	; 0x19
    38c0:	b2 8d       	ldd	r27, Z+26	; 0x1a
    38c2:	88 16       	cp	r8, r24
    38c4:	99 06       	cpc	r9, r25
    38c6:	aa 06       	cpc	r10, r26
    38c8:	bb 06       	cpc	r11, r27
    38ca:	08 f0       	brcs	.+2      	; 0x38ce <dir_sdi.constprop.15+0x12a>
    38cc:	a9 cf       	rjmp	.-174    	; 0x3820 <dir_sdi.constprop.15+0x7c>
    38ce:	80 81       	ld	r24, Z
    38d0:	82 30       	cpi	r24, 0x02	; 2
    38d2:	09 f4       	brne	.+2      	; 0x38d6 <dir_sdi.constprop.15+0x132>
    38d4:	aa c0       	rjmp	.+340    	; 0x3a2a <dir_sdi.constprop.15+0x286>
    38d6:	83 30       	cpi	r24, 0x03	; 3
    38d8:	09 f4       	brne	.+2      	; 0x38dc <dir_sdi.constprop.15+0x138>
    38da:	0e c1       	rjmp	.+540    	; 0x3af8 <dir_sdi.constprop.15+0x354>
    38dc:	81 30       	cpi	r24, 0x01	; 1
    38de:	09 f0       	breq	.+2      	; 0x38e2 <dir_sdi.constprop.15+0x13e>
    38e0:	9f cf       	rjmp	.-194    	; 0x3820 <dir_sdi.constprop.15+0x7c>
    38e2:	64 01       	movw	r12, r8
    38e4:	d6 94       	lsr	r13
    38e6:	c7 94       	ror	r12
    38e8:	86 01       	movw	r16, r12
    38ea:	08 0d       	add	r16, r8
    38ec:	19 1d       	adc	r17, r9
    38ee:	09 83       	std	Y+1, r16	; 0x01
    38f0:	1a 83       	std	Y+2, r17	; 0x02
    38f2:	83 a1       	ldd	r24, Z+35	; 0x23
    38f4:	94 a1       	ldd	r25, Z+36	; 0x24
    38f6:	a5 a1       	ldd	r26, Z+37	; 0x25
    38f8:	b6 a1       	ldd	r27, Z+38	; 0x26
    38fa:	98 01       	movw	r18, r16
    38fc:	23 2f       	mov	r18, r19
    38fe:	33 27       	eor	r19, r19
    3900:	26 95       	lsr	r18
    3902:	6c 01       	movw	r12, r24
    3904:	7d 01       	movw	r14, r26
    3906:	c2 0e       	add	r12, r18
    3908:	d3 1e       	adc	r13, r19
    390a:	e1 1c       	adc	r14, r1
    390c:	f1 1c       	adc	r15, r1
    390e:	47 a4       	ldd	r4, Z+47	; 0x2f
    3910:	50 a8       	ldd	r5, Z+48	; 0x30
    3912:	61 a8       	ldd	r6, Z+49	; 0x31
    3914:	72 a8       	ldd	r7, Z+50	; 0x32
    3916:	4c 14       	cp	r4, r12
    3918:	5d 04       	cpc	r5, r13
    391a:	6e 04       	cpc	r6, r14
    391c:	7f 04       	cpc	r7, r15
    391e:	29 f1       	breq	.+74     	; 0x396a <dir_sdi.constprop.15+0x1c6>
    3920:	83 81       	ldd	r24, Z+3	; 0x03
    3922:	81 11       	cpse	r24, r1
    3924:	bb c1       	rjmp	.+886    	; 0x3c9c <dir_sdi.constprop.15+0x4f8>
    3926:	eb 89       	ldd	r30, Y+19	; 0x13
    3928:	fc 89       	ldd	r31, Y+20	; 0x14
    392a:	f3 96       	adiw	r30, 0x33	; 51
    392c:	ef 83       	std	Y+7, r30	; 0x07
    392e:	f8 87       	std	Y+8, r31	; 0x08
    3930:	01 e0       	ldi	r16, 0x01	; 1
    3932:	10 e0       	ldi	r17, 0x00	; 0
    3934:	a7 01       	movw	r20, r14
    3936:	96 01       	movw	r18, r12
    3938:	6f 81       	ldd	r22, Y+7	; 0x07
    393a:	78 85       	ldd	r23, Y+8	; 0x08
    393c:	ab 89       	ldd	r26, Y+19	; 0x13
    393e:	bc 89       	ldd	r27, Y+20	; 0x14
    3940:	11 96       	adiw	r26, 0x01	; 1
    3942:	8c 91       	ld	r24, X
    3944:	0e 94 59 3b 	call	0x76b2	; 0x76b2 <disk_read>
    3948:	81 11       	cpse	r24, r1
    394a:	3d c1       	rjmp	.+634    	; 0x3bc6 <dir_sdi.constprop.15+0x422>
    394c:	ab 89       	ldd	r26, Y+19	; 0x13
    394e:	bc 89       	ldd	r27, Y+20	; 0x14
    3950:	9f 96       	adiw	r26, 0x2f	; 47
    3952:	cd 92       	st	X+, r12
    3954:	dd 92       	st	X+, r13
    3956:	ed 92       	st	X+, r14
    3958:	fc 92       	st	X, r15
    395a:	d2 97       	sbiw	r26, 0x32	; 50
    395c:	fd 01       	movw	r30, r26
    395e:	83 a1       	ldd	r24, Z+35	; 0x23
    3960:	94 a1       	ldd	r25, Z+36	; 0x24
    3962:	a5 a1       	ldd	r26, Z+37	; 0x25
    3964:	b6 a1       	ldd	r27, Z+38	; 0x26
    3966:	09 81       	ldd	r16, Y+1	; 0x01
    3968:	1a 81       	ldd	r17, Y+2	; 0x02
    396a:	0f 5f       	subi	r16, 0xFF	; 255
    396c:	1f 4f       	sbci	r17, 0xFF	; 255
    396e:	0f 83       	std	Y+7, r16	; 0x07
    3970:	18 87       	std	Y+8, r17	; 0x08
    3972:	29 81       	ldd	r18, Y+1	; 0x01
    3974:	3a 81       	ldd	r19, Y+2	; 0x02
    3976:	31 70       	andi	r19, 0x01	; 1
    3978:	4b 89       	ldd	r20, Y+19	; 0x13
    397a:	5c 89       	ldd	r21, Y+20	; 0x14
    397c:	42 0f       	add	r20, r18
    397e:	53 1f       	adc	r21, r19
    3980:	fa 01       	movw	r30, r20
    3982:	f3 a9       	ldd	r31, Z+51	; 0x33
    3984:	fb 87       	std	Y+11, r31	; 0x0b
    3986:	98 01       	movw	r18, r16
    3988:	23 2f       	mov	r18, r19
    398a:	33 27       	eor	r19, r19
    398c:	26 95       	lsr	r18
    398e:	ac 01       	movw	r20, r24
    3990:	bd 01       	movw	r22, r26
    3992:	42 0f       	add	r20, r18
    3994:	53 1f       	adc	r21, r19
    3996:	61 1d       	adc	r22, r1
    3998:	71 1d       	adc	r23, r1
    399a:	49 83       	std	Y+1, r20	; 0x01
    399c:	5a 83       	std	Y+2, r21	; 0x02
    399e:	6b 83       	std	Y+3, r22	; 0x03
    39a0:	7c 83       	std	Y+4, r23	; 0x04
    39a2:	c4 16       	cp	r12, r20
    39a4:	d5 06       	cpc	r13, r21
    39a6:	e6 06       	cpc	r14, r22
    39a8:	f7 06       	cpc	r15, r23
    39aa:	29 f1       	breq	.+74     	; 0x39f6 <dir_sdi.constprop.15+0x252>
    39ac:	ab 89       	ldd	r26, Y+19	; 0x13
    39ae:	bc 89       	ldd	r27, Y+20	; 0x14
    39b0:	13 96       	adiw	r26, 0x03	; 3
    39b2:	8c 91       	ld	r24, X
    39b4:	13 97       	sbiw	r26, 0x03	; 3
    39b6:	81 11       	cpse	r24, r1
    39b8:	5c c2       	rjmp	.+1208   	; 0x3e72 <dir_sdi.constprop.15+0x6ce>
    39ba:	3d 01       	movw	r6, r26
    39bc:	b3 e3       	ldi	r27, 0x33	; 51
    39be:	6b 0e       	add	r6, r27
    39c0:	71 1c       	adc	r7, r1
    39c2:	01 e0       	ldi	r16, 0x01	; 1
    39c4:	10 e0       	ldi	r17, 0x00	; 0
    39c6:	29 81       	ldd	r18, Y+1	; 0x01
    39c8:	3a 81       	ldd	r19, Y+2	; 0x02
    39ca:	4b 81       	ldd	r20, Y+3	; 0x03
    39cc:	5c 81       	ldd	r21, Y+4	; 0x04
    39ce:	b3 01       	movw	r22, r6
    39d0:	eb 89       	ldd	r30, Y+19	; 0x13
    39d2:	fc 89       	ldd	r31, Y+20	; 0x14
    39d4:	81 81       	ldd	r24, Z+1	; 0x01
    39d6:	0e 94 59 3b 	call	0x76b2	; 0x76b2 <disk_read>
    39da:	81 11       	cpse	r24, r1
    39dc:	f4 c0       	rjmp	.+488    	; 0x3bc6 <dir_sdi.constprop.15+0x422>
    39de:	09 81       	ldd	r16, Y+1	; 0x01
    39e0:	1a 81       	ldd	r17, Y+2	; 0x02
    39e2:	2b 81       	ldd	r18, Y+3	; 0x03
    39e4:	3c 81       	ldd	r19, Y+4	; 0x04
    39e6:	ab 89       	ldd	r26, Y+19	; 0x13
    39e8:	bc 89       	ldd	r27, Y+20	; 0x14
    39ea:	9f 96       	adiw	r26, 0x2f	; 47
    39ec:	0d 93       	st	X+, r16
    39ee:	1d 93       	st	X+, r17
    39f0:	2d 93       	st	X+, r18
    39f2:	3c 93       	st	X, r19
    39f4:	d2 97       	sbiw	r26, 0x32	; 50
    39f6:	4f 80       	ldd	r4, Y+7	; 0x07
    39f8:	58 84       	ldd	r5, Y+8	; 0x08
    39fa:	f1 e0       	ldi	r31, 0x01	; 1
    39fc:	5f 22       	and	r5, r31
    39fe:	eb 89       	ldd	r30, Y+19	; 0x13
    3a00:	fc 89       	ldd	r31, Y+20	; 0x14
    3a02:	e4 0d       	add	r30, r4
    3a04:	f5 1d       	adc	r31, r5
    3a06:	23 a9       	ldd	r18, Z+51	; 0x33
    3a08:	0b 85       	ldd	r16, Y+11	; 0x0b
    3a0a:	80 2f       	mov	r24, r16
    3a0c:	90 e0       	ldi	r25, 0x00	; 0
    3a0e:	92 2b       	or	r25, r18
    3a10:	80 fe       	sbrs	r8, 0
    3a12:	7d c2       	rjmp	.+1274   	; 0x3f0e <dir_sdi.constprop.15+0x76a>
    3a14:	4c 01       	movw	r8, r24
    3a16:	92 94       	swap	r9
    3a18:	82 94       	swap	r8
    3a1a:	ff e0       	ldi	r31, 0x0F	; 15
    3a1c:	8f 22       	and	r8, r31
    3a1e:	89 24       	eor	r8, r9
    3a20:	9f 22       	and	r9, r31
    3a22:	89 24       	eor	r8, r9
    3a24:	a1 2c       	mov	r10, r1
    3a26:	b1 2c       	mov	r11, r1
    3a28:	4d c0       	rjmp	.+154    	; 0x3ac4 <dir_sdi.constprop.15+0x320>
    3a2a:	ff 24       	eor	r15, r15
    3a2c:	eb 2c       	mov	r14, r11
    3a2e:	da 2c       	mov	r13, r10
    3a30:	c9 2c       	mov	r12, r9
    3a32:	eb 89       	ldd	r30, Y+19	; 0x13
    3a34:	fc 89       	ldd	r31, Y+20	; 0x14
    3a36:	83 a1       	ldd	r24, Z+35	; 0x23
    3a38:	94 a1       	ldd	r25, Z+36	; 0x24
    3a3a:	a5 a1       	ldd	r26, Z+37	; 0x25
    3a3c:	b6 a1       	ldd	r27, Z+38	; 0x26
    3a3e:	c8 0e       	add	r12, r24
    3a40:	d9 1e       	adc	r13, r25
    3a42:	ea 1e       	adc	r14, r26
    3a44:	fb 1e       	adc	r15, r27
    3a46:	47 a4       	ldd	r4, Z+47	; 0x2f
    3a48:	50 a8       	ldd	r5, Z+48	; 0x30
    3a4a:	61 a8       	ldd	r6, Z+49	; 0x31
    3a4c:	72 a8       	ldd	r7, Z+50	; 0x32
    3a4e:	c4 14       	cp	r12, r4
    3a50:	d5 04       	cpc	r13, r5
    3a52:	e6 04       	cpc	r14, r6
    3a54:	f7 04       	cpc	r15, r7
    3a56:	f9 f0       	breq	.+62     	; 0x3a96 <dir_sdi.constprop.15+0x2f2>
    3a58:	83 81       	ldd	r24, Z+3	; 0x03
    3a5a:	81 11       	cpse	r24, r1
    3a5c:	c0 c0       	rjmp	.+384    	; 0x3bde <dir_sdi.constprop.15+0x43a>
    3a5e:	0b 89       	ldd	r16, Y+19	; 0x13
    3a60:	1c 89       	ldd	r17, Y+20	; 0x14
    3a62:	0d 5c       	subi	r16, 0xCD	; 205
    3a64:	1f 4f       	sbci	r17, 0xFF	; 255
    3a66:	09 83       	std	Y+1, r16	; 0x01
    3a68:	1a 83       	std	Y+2, r17	; 0x02
    3a6a:	01 e0       	ldi	r16, 0x01	; 1
    3a6c:	10 e0       	ldi	r17, 0x00	; 0
    3a6e:	a7 01       	movw	r20, r14
    3a70:	96 01       	movw	r18, r12
    3a72:	69 81       	ldd	r22, Y+1	; 0x01
    3a74:	7a 81       	ldd	r23, Y+2	; 0x02
    3a76:	ab 89       	ldd	r26, Y+19	; 0x13
    3a78:	bc 89       	ldd	r27, Y+20	; 0x14
    3a7a:	11 96       	adiw	r26, 0x01	; 1
    3a7c:	8c 91       	ld	r24, X
    3a7e:	0e 94 59 3b 	call	0x76b2	; 0x76b2 <disk_read>
    3a82:	81 11       	cpse	r24, r1
    3a84:	a0 c0       	rjmp	.+320    	; 0x3bc6 <dir_sdi.constprop.15+0x422>
    3a86:	ab 89       	ldd	r26, Y+19	; 0x13
    3a88:	bc 89       	ldd	r27, Y+20	; 0x14
    3a8a:	9f 96       	adiw	r26, 0x2f	; 47
    3a8c:	cd 92       	st	X+, r12
    3a8e:	dd 92       	st	X+, r13
    3a90:	ed 92       	st	X+, r14
    3a92:	fc 92       	st	X, r15
    3a94:	d2 97       	sbiw	r26, 0x32	; 50
    3a96:	88 0c       	add	r8, r8
    3a98:	99 1c       	adc	r9, r9
    3a9a:	e8 94       	clt
    3a9c:	80 f8       	bld	r8, 0
    3a9e:	f1 e0       	ldi	r31, 0x01	; 1
    3aa0:	9f 22       	and	r9, r31
    3aa2:	eb 89       	ldd	r30, Y+19	; 0x13
    3aa4:	fc 89       	ldd	r31, Y+20	; 0x14
    3aa6:	e8 0d       	add	r30, r8
    3aa8:	f9 1d       	adc	r31, r9
    3aaa:	84 a9       	ldd	r24, Z+52	; 0x34
    3aac:	90 e0       	ldi	r25, 0x00	; 0
    3aae:	98 2f       	mov	r25, r24
    3ab0:	88 27       	eor	r24, r24
    3ab2:	eb 89       	ldd	r30, Y+19	; 0x13
    3ab4:	fc 89       	ldd	r31, Y+20	; 0x14
    3ab6:	e8 0d       	add	r30, r8
    3ab8:	f9 1d       	adc	r31, r9
    3aba:	23 a9       	ldd	r18, Z+51	; 0x33
    3abc:	4c 01       	movw	r8, r24
    3abe:	82 2a       	or	r8, r18
    3ac0:	a1 2c       	mov	r10, r1
    3ac2:	b1 2c       	mov	r11, r1
    3ac4:	b2 e0       	ldi	r27, 0x02	; 2
    3ac6:	8b 16       	cp	r8, r27
    3ac8:	91 04       	cpc	r9, r1
    3aca:	a1 04       	cpc	r10, r1
    3acc:	b1 04       	cpc	r11, r1
    3ace:	08 f4       	brcc	.+2      	; 0x3ad2 <dir_sdi.constprop.15+0x32e>
    3ad0:	a7 ce       	rjmp	.-690    	; 0x3820 <dir_sdi.constprop.15+0x7c>
    3ad2:	ed 81       	ldd	r30, Y+5	; 0x05
    3ad4:	fe 81       	ldd	r31, Y+6	; 0x06
    3ad6:	87 89       	ldd	r24, Z+23	; 0x17
    3ad8:	90 8d       	ldd	r25, Z+24	; 0x18
    3ada:	a1 8d       	ldd	r26, Z+25	; 0x19
    3adc:	b2 8d       	ldd	r27, Z+26	; 0x1a
    3ade:	88 16       	cp	r8, r24
    3ae0:	99 06       	cpc	r9, r25
    3ae2:	aa 06       	cpc	r10, r26
    3ae4:	bb 06       	cpc	r11, r27
    3ae6:	08 f0       	brcs	.+2      	; 0x3aea <dir_sdi.constprop.15+0x346>
    3ae8:	9b ce       	rjmp	.-714    	; 0x3820 <dir_sdi.constprop.15+0x7c>
    3aea:	d1 01       	movw	r26, r2
    3aec:	0d 90       	ld	r0, X+
    3aee:	bc 91       	ld	r27, X
    3af0:	a0 2d       	mov	r26, r0
    3af2:	ab 8b       	std	Y+19, r26	; 0x13
    3af4:	bc 8b       	std	Y+20, r27	; 0x14
    3af6:	d8 ce       	rjmp	.-592    	; 0x38a8 <dir_sdi.constprop.15+0x104>
    3af8:	ab 89       	ldd	r26, Y+19	; 0x13
    3afa:	bc 89       	ldd	r27, Y+20	; 0x14
    3afc:	93 96       	adiw	r26, 0x23	; 35
    3afe:	cd 90       	ld	r12, X+
    3b00:	dd 90       	ld	r13, X+
    3b02:	ed 90       	ld	r14, X+
    3b04:	fc 90       	ld	r15, X
    3b06:	96 97       	sbiw	r26, 0x26	; 38
    3b08:	d5 01       	movw	r26, r10
    3b0a:	c4 01       	movw	r24, r8
    3b0c:	57 e0       	ldi	r21, 0x07	; 7
    3b0e:	b6 95       	lsr	r27
    3b10:	a7 95       	ror	r26
    3b12:	97 95       	ror	r25
    3b14:	87 95       	ror	r24
    3b16:	5a 95       	dec	r21
    3b18:	d1 f7       	brne	.-12     	; 0x3b0e <dir_sdi.constprop.15+0x36a>
    3b1a:	c8 0e       	add	r12, r24
    3b1c:	d9 1e       	adc	r13, r25
    3b1e:	ea 1e       	adc	r14, r26
    3b20:	fb 1e       	adc	r15, r27
    3b22:	eb 89       	ldd	r30, Y+19	; 0x13
    3b24:	fc 89       	ldd	r31, Y+20	; 0x14
    3b26:	47 a4       	ldd	r4, Z+47	; 0x2f
    3b28:	50 a8       	ldd	r5, Z+48	; 0x30
    3b2a:	61 a8       	ldd	r6, Z+49	; 0x31
    3b2c:	72 a8       	ldd	r7, Z+50	; 0x32
    3b2e:	c4 14       	cp	r12, r4
    3b30:	d5 04       	cpc	r13, r5
    3b32:	e6 04       	cpc	r14, r6
    3b34:	f7 04       	cpc	r15, r7
    3b36:	f1 f0       	breq	.+60     	; 0x3b74 <dir_sdi.constprop.15+0x3d0>
    3b38:	83 81       	ldd	r24, Z+3	; 0x03
    3b3a:	81 11       	cpse	r24, r1
    3b3c:	0e c1       	rjmp	.+540    	; 0x3d5a <dir_sdi.constprop.15+0x5b6>
    3b3e:	eb 89       	ldd	r30, Y+19	; 0x13
    3b40:	fc 89       	ldd	r31, Y+20	; 0x14
    3b42:	f3 96       	adiw	r30, 0x33	; 51
    3b44:	e9 83       	std	Y+1, r30	; 0x01
    3b46:	fa 83       	std	Y+2, r31	; 0x02
    3b48:	01 e0       	ldi	r16, 0x01	; 1
    3b4a:	10 e0       	ldi	r17, 0x00	; 0
    3b4c:	a7 01       	movw	r20, r14
    3b4e:	96 01       	movw	r18, r12
    3b50:	69 81       	ldd	r22, Y+1	; 0x01
    3b52:	7a 81       	ldd	r23, Y+2	; 0x02
    3b54:	ab 89       	ldd	r26, Y+19	; 0x13
    3b56:	bc 89       	ldd	r27, Y+20	; 0x14
    3b58:	11 96       	adiw	r26, 0x01	; 1
    3b5a:	8c 91       	ld	r24, X
    3b5c:	0e 94 59 3b 	call	0x76b2	; 0x76b2 <disk_read>
    3b60:	81 11       	cpse	r24, r1
    3b62:	31 c0       	rjmp	.+98     	; 0x3bc6 <dir_sdi.constprop.15+0x422>
    3b64:	ab 89       	ldd	r26, Y+19	; 0x13
    3b66:	bc 89       	ldd	r27, Y+20	; 0x14
    3b68:	9f 96       	adiw	r26, 0x2f	; 47
    3b6a:	cd 92       	st	X+, r12
    3b6c:	dd 92       	st	X+, r13
    3b6e:	ed 92       	st	X+, r14
    3b70:	fc 92       	st	X, r15
    3b72:	d2 97       	sbiw	r26, 0x32	; 50
    3b74:	88 0c       	add	r8, r8
    3b76:	99 1c       	adc	r9, r9
    3b78:	88 0c       	add	r8, r8
    3b7a:	99 1c       	adc	r9, r9
    3b7c:	c4 01       	movw	r24, r8
    3b7e:	8c 7f       	andi	r24, 0xFC	; 252
    3b80:	91 70       	andi	r25, 0x01	; 1
    3b82:	fc 01       	movw	r30, r24
    3b84:	f3 96       	adiw	r30, 0x33	; 51
    3b86:	0b 89       	ldd	r16, Y+19	; 0x13
    3b88:	1c 89       	ldd	r17, Y+20	; 0x14
    3b8a:	e0 0f       	add	r30, r16
    3b8c:	f1 1f       	adc	r31, r17
    3b8e:	83 80       	ldd	r8, Z+3	; 0x03
    3b90:	91 2c       	mov	r9, r1
    3b92:	a1 2c       	mov	r10, r1
    3b94:	b1 2c       	mov	r11, r1
    3b96:	ba 2c       	mov	r11, r10
    3b98:	a9 2c       	mov	r10, r9
    3b9a:	98 2c       	mov	r9, r8
    3b9c:	88 24       	eor	r8, r8
    3b9e:	22 81       	ldd	r18, Z+2	; 0x02
    3ba0:	82 2a       	or	r8, r18
    3ba2:	ba 2c       	mov	r11, r10
    3ba4:	a9 2c       	mov	r10, r9
    3ba6:	98 2c       	mov	r9, r8
    3ba8:	88 24       	eor	r8, r8
    3baa:	21 81       	ldd	r18, Z+1	; 0x01
    3bac:	82 2a       	or	r8, r18
    3bae:	ba 2c       	mov	r11, r10
    3bb0:	a9 2c       	mov	r10, r9
    3bb2:	98 2c       	mov	r9, r8
    3bb4:	88 24       	eor	r8, r8
    3bb6:	f8 01       	movw	r30, r16
    3bb8:	e8 0f       	add	r30, r24
    3bba:	f9 1f       	adc	r31, r25
    3bbc:	83 a9       	ldd	r24, Z+51	; 0x33
    3bbe:	88 2a       	or	r8, r24
    3bc0:	1f e0       	ldi	r17, 0x0F	; 15
    3bc2:	b1 22       	and	r11, r17
    3bc4:	7f cf       	rjmp	.-258    	; 0x3ac4 <dir_sdi.constprop.15+0x320>
    3bc6:	0b 89       	ldd	r16, Y+19	; 0x13
    3bc8:	1c 89       	ldd	r17, Y+20	; 0x14
    3bca:	8f ef       	ldi	r24, 0xFF	; 255
    3bcc:	9f ef       	ldi	r25, 0xFF	; 255
    3bce:	dc 01       	movw	r26, r24
    3bd0:	f8 01       	movw	r30, r16
    3bd2:	87 a7       	std	Z+47, r24	; 0x2f
    3bd4:	90 ab       	std	Z+48, r25	; 0x30
    3bd6:	a1 ab       	std	Z+49, r26	; 0x31
    3bd8:	b2 ab       	std	Z+50, r27	; 0x32
    3bda:	81 e0       	ldi	r24, 0x01	; 1
    3bdc:	22 ce       	rjmp	.-956    	; 0x3822 <dir_sdi.constprop.15+0x7e>
    3bde:	f3 96       	adiw	r30, 0x33	; 51
    3be0:	e9 83       	std	Y+1, r30	; 0x01
    3be2:	fa 83       	std	Y+2, r31	; 0x02
    3be4:	01 e0       	ldi	r16, 0x01	; 1
    3be6:	10 e0       	ldi	r17, 0x00	; 0
    3be8:	a3 01       	movw	r20, r6
    3bea:	92 01       	movw	r18, r4
    3bec:	bf 01       	movw	r22, r30
    3bee:	ab 89       	ldd	r26, Y+19	; 0x13
    3bf0:	bc 89       	ldd	r27, Y+20	; 0x14
    3bf2:	11 96       	adiw	r26, 0x01	; 1
    3bf4:	8c 91       	ld	r24, X
    3bf6:	0e 94 6d 3b 	call	0x76da	; 0x76da <disk_write>
    3bfa:	81 11       	cpse	r24, r1
    3bfc:	ee cf       	rjmp	.-36     	; 0x3bda <dir_sdi.constprop.15+0x436>
    3bfe:	eb 89       	ldd	r30, Y+19	; 0x13
    3c00:	fc 89       	ldd	r31, Y+20	; 0x14
    3c02:	13 82       	std	Z+3, r1	; 0x03
    3c04:	83 8d       	ldd	r24, Z+27	; 0x1b
    3c06:	94 8d       	ldd	r25, Z+28	; 0x1c
    3c08:	a5 8d       	ldd	r26, Z+29	; 0x1d
    3c0a:	b6 8d       	ldd	r27, Z+30	; 0x1e
    3c0c:	43 a1       	ldd	r20, Z+35	; 0x23
    3c0e:	54 a1       	ldd	r21, Z+36	; 0x24
    3c10:	65 a1       	ldd	r22, Z+37	; 0x25
    3c12:	76 a1       	ldd	r23, Z+38	; 0x26
    3c14:	93 01       	movw	r18, r6
    3c16:	82 01       	movw	r16, r4
    3c18:	04 1b       	sub	r16, r20
    3c1a:	15 0b       	sbc	r17, r21
    3c1c:	26 0b       	sbc	r18, r22
    3c1e:	37 0b       	sbc	r19, r23
    3c20:	08 17       	cp	r16, r24
    3c22:	19 07       	cpc	r17, r25
    3c24:	2a 07       	cpc	r18, r26
    3c26:	3b 07       	cpc	r19, r27
    3c28:	08 f0       	brcs	.+2      	; 0x3c2c <dir_sdi.constprop.15+0x488>
    3c2a:	1f cf       	rjmp	.-450    	; 0x3a6a <dir_sdi.constprop.15+0x2c6>
    3c2c:	22 81       	ldd	r18, Z+2	; 0x02
    3c2e:	02 2f       	mov	r16, r18
    3c30:	10 e0       	ldi	r17, 0x00	; 0
    3c32:	02 30       	cpi	r16, 0x02	; 2
    3c34:	11 05       	cpc	r17, r1
    3c36:	08 f4       	brcc	.+2      	; 0x3c3a <dir_sdi.constprop.15+0x496>
    3c38:	18 cf       	rjmp	.-464    	; 0x3a6a <dir_sdi.constprop.15+0x2c6>
    3c3a:	8f 82       	std	Y+7, r8	; 0x07
    3c3c:	98 86       	std	Y+8, r9	; 0x08
    3c3e:	a9 86       	std	Y+9, r10	; 0x09
    3c40:	ba 86       	std	Y+10, r11	; 0x0a
    3c42:	cb 86       	std	Y+11, r12	; 0x0b
    3c44:	dc 86       	std	Y+12, r13	; 0x0c
    3c46:	ed 86       	std	Y+13, r14	; 0x0d
    3c48:	fe 86       	std	Y+14, r15	; 0x0e
    3c4a:	78 01       	movw	r14, r16
    3c4c:	89 80       	ldd	r8, Y+1	; 0x01
    3c4e:	9a 80       	ldd	r9, Y+2	; 0x02
    3c50:	06 c0       	rjmp	.+12     	; 0x3c5e <dir_sdi.constprop.15+0x4ba>
    3c52:	eb 89       	ldd	r30, Y+19	; 0x13
    3c54:	fc 89       	ldd	r31, Y+20	; 0x14
    3c56:	83 8d       	ldd	r24, Z+27	; 0x1b
    3c58:	94 8d       	ldd	r25, Z+28	; 0x1c
    3c5a:	a5 8d       	ldd	r26, Z+29	; 0x1d
    3c5c:	b6 8d       	ldd	r27, Z+30	; 0x1e
    3c5e:	48 0e       	add	r4, r24
    3c60:	59 1e       	adc	r5, r25
    3c62:	6a 1e       	adc	r6, r26
    3c64:	7b 1e       	adc	r7, r27
    3c66:	01 e0       	ldi	r16, 0x01	; 1
    3c68:	10 e0       	ldi	r17, 0x00	; 0
    3c6a:	a3 01       	movw	r20, r6
    3c6c:	92 01       	movw	r18, r4
    3c6e:	b4 01       	movw	r22, r8
    3c70:	ab 89       	ldd	r26, Y+19	; 0x13
    3c72:	bc 89       	ldd	r27, Y+20	; 0x14
    3c74:	11 96       	adiw	r26, 0x01	; 1
    3c76:	8c 91       	ld	r24, X
    3c78:	0e 94 6d 3b 	call	0x76da	; 0x76da <disk_write>
    3c7c:	b1 e0       	ldi	r27, 0x01	; 1
    3c7e:	eb 1a       	sub	r14, r27
    3c80:	f1 08       	sbc	r15, r1
    3c82:	e1 e0       	ldi	r30, 0x01	; 1
    3c84:	ee 16       	cp	r14, r30
    3c86:	f1 04       	cpc	r15, r1
    3c88:	21 f7       	brne	.-56     	; 0x3c52 <dir_sdi.constprop.15+0x4ae>
    3c8a:	8f 80       	ldd	r8, Y+7	; 0x07
    3c8c:	98 84       	ldd	r9, Y+8	; 0x08
    3c8e:	a9 84       	ldd	r10, Y+9	; 0x09
    3c90:	ba 84       	ldd	r11, Y+10	; 0x0a
    3c92:	cb 84       	ldd	r12, Y+11	; 0x0b
    3c94:	dc 84       	ldd	r13, Y+12	; 0x0c
    3c96:	ed 84       	ldd	r14, Y+13	; 0x0d
    3c98:	fe 84       	ldd	r15, Y+14	; 0x0e
    3c9a:	e7 ce       	rjmp	.-562    	; 0x3a6a <dir_sdi.constprop.15+0x2c6>
    3c9c:	f3 96       	adiw	r30, 0x33	; 51
    3c9e:	ef 83       	std	Y+7, r30	; 0x07
    3ca0:	f8 87       	std	Y+8, r31	; 0x08
    3ca2:	01 e0       	ldi	r16, 0x01	; 1
    3ca4:	10 e0       	ldi	r17, 0x00	; 0
    3ca6:	a3 01       	movw	r20, r6
    3ca8:	92 01       	movw	r18, r4
    3caa:	bf 01       	movw	r22, r30
    3cac:	ab 89       	ldd	r26, Y+19	; 0x13
    3cae:	bc 89       	ldd	r27, Y+20	; 0x14
    3cb0:	11 96       	adiw	r26, 0x01	; 1
    3cb2:	8c 91       	ld	r24, X
    3cb4:	0e 94 6d 3b 	call	0x76da	; 0x76da <disk_write>
    3cb8:	81 11       	cpse	r24, r1
    3cba:	8f cf       	rjmp	.-226    	; 0x3bda <dir_sdi.constprop.15+0x436>
    3cbc:	eb 89       	ldd	r30, Y+19	; 0x13
    3cbe:	fc 89       	ldd	r31, Y+20	; 0x14
    3cc0:	13 82       	std	Z+3, r1	; 0x03
    3cc2:	83 8d       	ldd	r24, Z+27	; 0x1b
    3cc4:	94 8d       	ldd	r25, Z+28	; 0x1c
    3cc6:	a5 8d       	ldd	r26, Z+29	; 0x1d
    3cc8:	b6 8d       	ldd	r27, Z+30	; 0x1e
    3cca:	43 a1       	ldd	r20, Z+35	; 0x23
    3ccc:	54 a1       	ldd	r21, Z+36	; 0x24
    3cce:	65 a1       	ldd	r22, Z+37	; 0x25
    3cd0:	76 a1       	ldd	r23, Z+38	; 0x26
    3cd2:	93 01       	movw	r18, r6
    3cd4:	82 01       	movw	r16, r4
    3cd6:	04 1b       	sub	r16, r20
    3cd8:	15 0b       	sbc	r17, r21
    3cda:	26 0b       	sbc	r18, r22
    3cdc:	37 0b       	sbc	r19, r23
    3cde:	08 17       	cp	r16, r24
    3ce0:	19 07       	cpc	r17, r25
    3ce2:	2a 07       	cpc	r18, r26
    3ce4:	3b 07       	cpc	r19, r27
    3ce6:	08 f0       	brcs	.+2      	; 0x3cea <dir_sdi.constprop.15+0x546>
    3ce8:	23 ce       	rjmp	.-954    	; 0x3930 <dir_sdi.constprop.15+0x18c>
    3cea:	22 81       	ldd	r18, Z+2	; 0x02
    3cec:	02 2f       	mov	r16, r18
    3cee:	10 e0       	ldi	r17, 0x00	; 0
    3cf0:	02 30       	cpi	r16, 0x02	; 2
    3cf2:	11 05       	cpc	r17, r1
    3cf4:	08 f4       	brcc	.+2      	; 0x3cf8 <dir_sdi.constprop.15+0x554>
    3cf6:	1c ce       	rjmp	.-968    	; 0x3930 <dir_sdi.constprop.15+0x18c>
    3cf8:	8b 86       	std	Y+11, r8	; 0x0b
    3cfa:	9c 86       	std	Y+12, r9	; 0x0c
    3cfc:	ad 86       	std	Y+13, r10	; 0x0d
    3cfe:	be 86       	std	Y+14, r11	; 0x0e
    3d00:	cf 86       	std	Y+15, r12	; 0x0f
    3d02:	d8 8a       	std	Y+16, r13	; 0x10
    3d04:	e9 8a       	std	Y+17, r14	; 0x11
    3d06:	fa 8a       	std	Y+18, r15	; 0x12
    3d08:	78 01       	movw	r14, r16
    3d0a:	8f 80       	ldd	r8, Y+7	; 0x07
    3d0c:	98 84       	ldd	r9, Y+8	; 0x08
    3d0e:	06 c0       	rjmp	.+12     	; 0x3d1c <dir_sdi.constprop.15+0x578>
    3d10:	eb 89       	ldd	r30, Y+19	; 0x13
    3d12:	fc 89       	ldd	r31, Y+20	; 0x14
    3d14:	83 8d       	ldd	r24, Z+27	; 0x1b
    3d16:	94 8d       	ldd	r25, Z+28	; 0x1c
    3d18:	a5 8d       	ldd	r26, Z+29	; 0x1d
    3d1a:	b6 8d       	ldd	r27, Z+30	; 0x1e
    3d1c:	48 0e       	add	r4, r24
    3d1e:	59 1e       	adc	r5, r25
    3d20:	6a 1e       	adc	r6, r26
    3d22:	7b 1e       	adc	r7, r27
    3d24:	01 e0       	ldi	r16, 0x01	; 1
    3d26:	10 e0       	ldi	r17, 0x00	; 0
    3d28:	a3 01       	movw	r20, r6
    3d2a:	92 01       	movw	r18, r4
    3d2c:	b4 01       	movw	r22, r8
    3d2e:	ab 89       	ldd	r26, Y+19	; 0x13
    3d30:	bc 89       	ldd	r27, Y+20	; 0x14
    3d32:	11 96       	adiw	r26, 0x01	; 1
    3d34:	8c 91       	ld	r24, X
    3d36:	0e 94 6d 3b 	call	0x76da	; 0x76da <disk_write>
    3d3a:	b1 e0       	ldi	r27, 0x01	; 1
    3d3c:	eb 1a       	sub	r14, r27
    3d3e:	f1 08       	sbc	r15, r1
    3d40:	e1 e0       	ldi	r30, 0x01	; 1
    3d42:	ee 16       	cp	r14, r30
    3d44:	f1 04       	cpc	r15, r1
    3d46:	21 f7       	brne	.-56     	; 0x3d10 <dir_sdi.constprop.15+0x56c>
    3d48:	8b 84       	ldd	r8, Y+11	; 0x0b
    3d4a:	9c 84       	ldd	r9, Y+12	; 0x0c
    3d4c:	ad 84       	ldd	r10, Y+13	; 0x0d
    3d4e:	be 84       	ldd	r11, Y+14	; 0x0e
    3d50:	cf 84       	ldd	r12, Y+15	; 0x0f
    3d52:	d8 88       	ldd	r13, Y+16	; 0x10
    3d54:	e9 88       	ldd	r14, Y+17	; 0x11
    3d56:	fa 88       	ldd	r15, Y+18	; 0x12
    3d58:	eb cd       	rjmp	.-1066   	; 0x3930 <dir_sdi.constprop.15+0x18c>
    3d5a:	f3 96       	adiw	r30, 0x33	; 51
    3d5c:	e9 83       	std	Y+1, r30	; 0x01
    3d5e:	fa 83       	std	Y+2, r31	; 0x02
    3d60:	01 e0       	ldi	r16, 0x01	; 1
    3d62:	10 e0       	ldi	r17, 0x00	; 0
    3d64:	a3 01       	movw	r20, r6
    3d66:	92 01       	movw	r18, r4
    3d68:	bf 01       	movw	r22, r30
    3d6a:	ab 89       	ldd	r26, Y+19	; 0x13
    3d6c:	bc 89       	ldd	r27, Y+20	; 0x14
    3d6e:	11 96       	adiw	r26, 0x01	; 1
    3d70:	8c 91       	ld	r24, X
    3d72:	0e 94 6d 3b 	call	0x76da	; 0x76da <disk_write>
    3d76:	81 11       	cpse	r24, r1
    3d78:	30 cf       	rjmp	.-416    	; 0x3bda <dir_sdi.constprop.15+0x436>
    3d7a:	eb 89       	ldd	r30, Y+19	; 0x13
    3d7c:	fc 89       	ldd	r31, Y+20	; 0x14
    3d7e:	13 82       	std	Z+3, r1	; 0x03
    3d80:	83 8d       	ldd	r24, Z+27	; 0x1b
    3d82:	94 8d       	ldd	r25, Z+28	; 0x1c
    3d84:	a5 8d       	ldd	r26, Z+29	; 0x1d
    3d86:	b6 8d       	ldd	r27, Z+30	; 0x1e
    3d88:	43 a1       	ldd	r20, Z+35	; 0x23
    3d8a:	54 a1       	ldd	r21, Z+36	; 0x24
    3d8c:	65 a1       	ldd	r22, Z+37	; 0x25
    3d8e:	76 a1       	ldd	r23, Z+38	; 0x26
    3d90:	93 01       	movw	r18, r6
    3d92:	82 01       	movw	r16, r4
    3d94:	04 1b       	sub	r16, r20
    3d96:	15 0b       	sbc	r17, r21
    3d98:	26 0b       	sbc	r18, r22
    3d9a:	37 0b       	sbc	r19, r23
    3d9c:	08 17       	cp	r16, r24
    3d9e:	19 07       	cpc	r17, r25
    3da0:	2a 07       	cpc	r18, r26
    3da2:	3b 07       	cpc	r19, r27
    3da4:	08 f0       	brcs	.+2      	; 0x3da8 <dir_sdi.constprop.15+0x604>
    3da6:	d0 ce       	rjmp	.-608    	; 0x3b48 <dir_sdi.constprop.15+0x3a4>
    3da8:	22 81       	ldd	r18, Z+2	; 0x02
    3daa:	02 2f       	mov	r16, r18
    3dac:	10 e0       	ldi	r17, 0x00	; 0
    3dae:	02 30       	cpi	r16, 0x02	; 2
    3db0:	11 05       	cpc	r17, r1
    3db2:	08 f4       	brcc	.+2      	; 0x3db6 <dir_sdi.constprop.15+0x612>
    3db4:	c9 ce       	rjmp	.-622    	; 0x3b48 <dir_sdi.constprop.15+0x3a4>
    3db6:	8f 82       	std	Y+7, r8	; 0x07
    3db8:	98 86       	std	Y+8, r9	; 0x08
    3dba:	a9 86       	std	Y+9, r10	; 0x09
    3dbc:	ba 86       	std	Y+10, r11	; 0x0a
    3dbe:	cb 86       	std	Y+11, r12	; 0x0b
    3dc0:	dc 86       	std	Y+12, r13	; 0x0c
    3dc2:	ed 86       	std	Y+13, r14	; 0x0d
    3dc4:	fe 86       	std	Y+14, r15	; 0x0e
    3dc6:	78 01       	movw	r14, r16
    3dc8:	89 80       	ldd	r8, Y+1	; 0x01
    3dca:	9a 80       	ldd	r9, Y+2	; 0x02
    3dcc:	06 c0       	rjmp	.+12     	; 0x3dda <dir_sdi.constprop.15+0x636>
    3dce:	eb 89       	ldd	r30, Y+19	; 0x13
    3dd0:	fc 89       	ldd	r31, Y+20	; 0x14
    3dd2:	83 8d       	ldd	r24, Z+27	; 0x1b
    3dd4:	94 8d       	ldd	r25, Z+28	; 0x1c
    3dd6:	a5 8d       	ldd	r26, Z+29	; 0x1d
    3dd8:	b6 8d       	ldd	r27, Z+30	; 0x1e
    3dda:	48 0e       	add	r4, r24
    3ddc:	59 1e       	adc	r5, r25
    3dde:	6a 1e       	adc	r6, r26
    3de0:	7b 1e       	adc	r7, r27
    3de2:	01 e0       	ldi	r16, 0x01	; 1
    3de4:	10 e0       	ldi	r17, 0x00	; 0
    3de6:	a3 01       	movw	r20, r6
    3de8:	92 01       	movw	r18, r4
    3dea:	b4 01       	movw	r22, r8
    3dec:	ab 89       	ldd	r26, Y+19	; 0x13
    3dee:	bc 89       	ldd	r27, Y+20	; 0x14
    3df0:	11 96       	adiw	r26, 0x01	; 1
    3df2:	8c 91       	ld	r24, X
    3df4:	0e 94 6d 3b 	call	0x76da	; 0x76da <disk_write>
    3df8:	b1 e0       	ldi	r27, 0x01	; 1
    3dfa:	eb 1a       	sub	r14, r27
    3dfc:	f1 08       	sbc	r15, r1
    3dfe:	e1 e0       	ldi	r30, 0x01	; 1
    3e00:	ee 16       	cp	r14, r30
    3e02:	f1 04       	cpc	r15, r1
    3e04:	21 f7       	brne	.-56     	; 0x3dce <dir_sdi.constprop.15+0x62a>
    3e06:	8f 80       	ldd	r8, Y+7	; 0x07
    3e08:	98 84       	ldd	r9, Y+8	; 0x08
    3e0a:	a9 84       	ldd	r10, Y+9	; 0x09
    3e0c:	ba 84       	ldd	r11, Y+10	; 0x0a
    3e0e:	cb 84       	ldd	r12, Y+11	; 0x0b
    3e10:	dc 84       	ldd	r13, Y+12	; 0x0c
    3e12:	ed 84       	ldd	r14, Y+13	; 0x0d
    3e14:	fe 84       	ldd	r15, Y+14	; 0x0e
    3e16:	98 ce       	rjmp	.-720    	; 0x3b48 <dir_sdi.constprop.15+0x3a4>
    3e18:	a5 01       	movw	r20, r10
    3e1a:	94 01       	movw	r18, r8
    3e1c:	22 50       	subi	r18, 0x02	; 2
    3e1e:	31 09       	sbc	r19, r1
    3e20:	41 09       	sbc	r20, r1
    3e22:	51 09       	sbc	r21, r1
    3e24:	d1 01       	movw	r26, r2
    3e26:	57 96       	adiw	r26, 0x17	; 23
    3e28:	cd 90       	ld	r12, X+
    3e2a:	dd 90       	ld	r13, X+
    3e2c:	ed 90       	ld	r14, X+
    3e2e:	fc 90       	ld	r15, X
    3e30:	5a 97       	sbiw	r26, 0x1a	; 26
    3e32:	b2 e0       	ldi	r27, 0x02	; 2
    3e34:	cb 1a       	sub	r12, r27
    3e36:	d1 08       	sbc	r13, r1
    3e38:	e1 08       	sbc	r14, r1
    3e3a:	f1 08       	sbc	r15, r1
    3e3c:	2c 15       	cp	r18, r12
    3e3e:	3d 05       	cpc	r19, r13
    3e40:	4e 05       	cpc	r20, r14
    3e42:	5f 05       	cpc	r21, r15
    3e44:	90 f4       	brcc	.+36     	; 0x3e6a <dir_sdi.constprop.15+0x6c6>
    3e46:	0e 94 d5 43 	call	0x87aa	; 0x87aa <__mulsi3>
    3e4a:	d1 01       	movw	r26, r2
    3e4c:	9b 96       	adiw	r26, 0x2b	; 43
    3e4e:	cd 90       	ld	r12, X+
    3e50:	dd 90       	ld	r13, X+
    3e52:	ed 90       	ld	r14, X+
    3e54:	fc 90       	ld	r15, X
    3e56:	9e 97       	sbiw	r26, 0x2e	; 46
    3e58:	c6 0e       	add	r12, r22
    3e5a:	d7 1e       	adc	r13, r23
    3e5c:	e8 1e       	adc	r14, r24
    3e5e:	f9 1e       	adc	r15, r25
    3e60:	c6 8a       	std	Z+22, r12	; 0x16
    3e62:	d7 8a       	std	Z+23, r13	; 0x17
    3e64:	e0 8e       	std	Z+24, r14	; 0x18
    3e66:	f1 8e       	std	Z+25, r15	; 0x19
    3e68:	fd cc       	rjmp	.-1542   	; 0x3864 <dir_sdi.constprop.15+0xc0>
    3e6a:	c1 2c       	mov	r12, r1
    3e6c:	d1 2c       	mov	r13, r1
    3e6e:	76 01       	movw	r14, r12
    3e70:	f7 cf       	rjmp	.-18     	; 0x3e60 <dir_sdi.constprop.15+0x6bc>
    3e72:	fd 01       	movw	r30, r26
    3e74:	3d 01       	movw	r6, r26
    3e76:	b3 e3       	ldi	r27, 0x33	; 51
    3e78:	6b 0e       	add	r6, r27
    3e7a:	71 1c       	adc	r7, r1
    3e7c:	01 e0       	ldi	r16, 0x01	; 1
    3e7e:	10 e0       	ldi	r17, 0x00	; 0
    3e80:	a7 01       	movw	r20, r14
    3e82:	96 01       	movw	r18, r12
    3e84:	b3 01       	movw	r22, r6
    3e86:	81 81       	ldd	r24, Z+1	; 0x01
    3e88:	0e 94 6d 3b 	call	0x76da	; 0x76da <disk_write>
    3e8c:	81 11       	cpse	r24, r1
    3e8e:	a5 ce       	rjmp	.-694    	; 0x3bda <dir_sdi.constprop.15+0x436>
    3e90:	ab 89       	ldd	r26, Y+19	; 0x13
    3e92:	bc 89       	ldd	r27, Y+20	; 0x14
    3e94:	13 96       	adiw	r26, 0x03	; 3
    3e96:	1c 92       	st	X, r1
    3e98:	13 97       	sbiw	r26, 0x03	; 3
    3e9a:	fd 01       	movw	r30, r26
    3e9c:	83 8d       	ldd	r24, Z+27	; 0x1b
    3e9e:	94 8d       	ldd	r25, Z+28	; 0x1c
    3ea0:	a5 8d       	ldd	r26, Z+29	; 0x1d
    3ea2:	b6 8d       	ldd	r27, Z+30	; 0x1e
    3ea4:	43 a1       	ldd	r20, Z+35	; 0x23
    3ea6:	54 a1       	ldd	r21, Z+36	; 0x24
    3ea8:	65 a1       	ldd	r22, Z+37	; 0x25
    3eaa:	76 a1       	ldd	r23, Z+38	; 0x26
    3eac:	97 01       	movw	r18, r14
    3eae:	86 01       	movw	r16, r12
    3eb0:	04 1b       	sub	r16, r20
    3eb2:	15 0b       	sbc	r17, r21
    3eb4:	26 0b       	sbc	r18, r22
    3eb6:	37 0b       	sbc	r19, r23
    3eb8:	08 17       	cp	r16, r24
    3eba:	19 07       	cpc	r17, r25
    3ebc:	2a 07       	cpc	r18, r26
    3ebe:	3b 07       	cpc	r19, r27
    3ec0:	08 f0       	brcs	.+2      	; 0x3ec4 <dir_sdi.constprop.15+0x720>
    3ec2:	7f cd       	rjmp	.-1282   	; 0x39c2 <dir_sdi.constprop.15+0x21e>
    3ec4:	22 81       	ldd	r18, Z+2	; 0x02
    3ec6:	42 2e       	mov	r4, r18
    3ec8:	51 2c       	mov	r5, r1
    3eca:	12 e0       	ldi	r17, 0x02	; 2
    3ecc:	41 16       	cp	r4, r17
    3ece:	51 04       	cpc	r5, r1
    3ed0:	38 f4       	brcc	.+14     	; 0x3ee0 <dir_sdi.constprop.15+0x73c>
    3ed2:	77 cd       	rjmp	.-1298   	; 0x39c2 <dir_sdi.constprop.15+0x21e>
    3ed4:	eb 89       	ldd	r30, Y+19	; 0x13
    3ed6:	fc 89       	ldd	r31, Y+20	; 0x14
    3ed8:	83 8d       	ldd	r24, Z+27	; 0x1b
    3eda:	94 8d       	ldd	r25, Z+28	; 0x1c
    3edc:	a5 8d       	ldd	r26, Z+29	; 0x1d
    3ede:	b6 8d       	ldd	r27, Z+30	; 0x1e
    3ee0:	c8 0e       	add	r12, r24
    3ee2:	d9 1e       	adc	r13, r25
    3ee4:	ea 1e       	adc	r14, r26
    3ee6:	fb 1e       	adc	r15, r27
    3ee8:	01 e0       	ldi	r16, 0x01	; 1
    3eea:	10 e0       	ldi	r17, 0x00	; 0
    3eec:	a7 01       	movw	r20, r14
    3eee:	96 01       	movw	r18, r12
    3ef0:	b3 01       	movw	r22, r6
    3ef2:	ab 89       	ldd	r26, Y+19	; 0x13
    3ef4:	bc 89       	ldd	r27, Y+20	; 0x14
    3ef6:	11 96       	adiw	r26, 0x01	; 1
    3ef8:	8c 91       	ld	r24, X
    3efa:	0e 94 6d 3b 	call	0x76da	; 0x76da <disk_write>
    3efe:	b1 e0       	ldi	r27, 0x01	; 1
    3f00:	4b 1a       	sub	r4, r27
    3f02:	51 08       	sbc	r5, r1
    3f04:	e1 e0       	ldi	r30, 0x01	; 1
    3f06:	4e 16       	cp	r4, r30
    3f08:	51 04       	cpc	r5, r1
    3f0a:	21 f7       	brne	.-56     	; 0x3ed4 <dir_sdi.constprop.15+0x730>
    3f0c:	5a cd       	rjmp	.-1356   	; 0x39c2 <dir_sdi.constprop.15+0x21e>
    3f0e:	4c 01       	movw	r8, r24
    3f10:	1f e0       	ldi	r17, 0x0F	; 15
    3f12:	91 22       	and	r9, r17
    3f14:	a1 2c       	mov	r10, r1
    3f16:	b1 2c       	mov	r11, r1
    3f18:	d5 cd       	rjmp	.-1110   	; 0x3ac4 <dir_sdi.constprop.15+0x320>

00003f1a <follow_path>:
    3f1a:	2f 92       	push	r2
    3f1c:	3f 92       	push	r3
    3f1e:	4f 92       	push	r4
    3f20:	5f 92       	push	r5
    3f22:	6f 92       	push	r6
    3f24:	7f 92       	push	r7
    3f26:	8f 92       	push	r8
    3f28:	9f 92       	push	r9
    3f2a:	af 92       	push	r10
    3f2c:	bf 92       	push	r11
    3f2e:	cf 92       	push	r12
    3f30:	df 92       	push	r13
    3f32:	ef 92       	push	r14
    3f34:	ff 92       	push	r15
    3f36:	0f 93       	push	r16
    3f38:	1f 93       	push	r17
    3f3a:	cf 93       	push	r28
    3f3c:	df 93       	push	r29
    3f3e:	cd b7       	in	r28, 0x3d	; 61
    3f40:	de b7       	in	r29, 0x3e	; 62
    3f42:	65 97       	sbiw	r28, 0x15	; 21
    3f44:	cd bf       	out	0x3d, r28	; 61
    3f46:	de bf       	out	0x3e, r29	; 62
    3f48:	5c 01       	movw	r10, r24
    3f4a:	6a 83       	std	Y+2, r22	; 0x02
    3f4c:	7b 83       	std	Y+3, r23	; 0x03
    3f4e:	dc 01       	movw	r26, r24
    3f50:	0d 90       	ld	r0, X+
    3f52:	bc 91       	ld	r27, X
    3f54:	a0 2d       	mov	r26, r0
    3f56:	ac 83       	std	Y+4, r26	; 0x04
    3f58:	bd 83       	std	Y+5, r27	; 0x05
    3f5a:	fb 01       	movw	r30, r22
    3f5c:	80 81       	ld	r24, Z
    3f5e:	8f 32       	cpi	r24, 0x2F	; 47
    3f60:	09 f4       	brne	.+2      	; 0x3f64 <follow_path+0x4a>
    3f62:	9c c2       	rjmp	.+1336   	; 0x449c <__stack+0x49d>
    3f64:	8c 35       	cpi	r24, 0x5C	; 92
    3f66:	09 f4       	brne	.+2      	; 0x3f6a <follow_path+0x50>
    3f68:	99 c2       	rjmp	.+1330   	; 0x449c <__stack+0x49d>
    3f6a:	ec 81       	ldd	r30, Y+4	; 0x04
    3f6c:	fd 81       	ldd	r31, Y+5	; 0x05
    3f6e:	83 89       	ldd	r24, Z+19	; 0x13
    3f70:	94 89       	ldd	r25, Z+20	; 0x14
    3f72:	a5 89       	ldd	r26, Z+21	; 0x15
    3f74:	b6 89       	ldd	r27, Z+22	; 0x16
    3f76:	f5 01       	movw	r30, r10
    3f78:	86 83       	std	Z+6, r24	; 0x06
    3f7a:	97 83       	std	Z+7, r25	; 0x07
    3f7c:	a0 87       	std	Z+8, r26	; 0x08
    3f7e:	b1 87       	std	Z+9, r27	; 0x09
    3f80:	ea 81       	ldd	r30, Y+2	; 0x02
    3f82:	fb 81       	ldd	r31, Y+3	; 0x03
    3f84:	80 81       	ld	r24, Z
    3f86:	80 32       	cpi	r24, 0x20	; 32
    3f88:	08 f4       	brcc	.+2      	; 0x3f8c <follow_path+0x72>
    3f8a:	9f c2       	rjmp	.+1342   	; 0x44ca <__stack+0x4cb>
    3f8c:	85 01       	movw	r16, r10
    3f8e:	04 5e       	subi	r16, 0xE4	; 228
    3f90:	1f 4f       	sbci	r17, 0xFF	; 255
    3f92:	0a 87       	std	Y+10, r16	; 0x0a
    3f94:	1b 87       	std	Y+11, r17	; 0x0b
    3f96:	00 e2       	ldi	r16, 0x20	; 32
    3f98:	f5 01       	movw	r30, r10
    3f9a:	04 8f       	std	Z+28, r16	; 0x1c
    3f9c:	05 8f       	std	Z+29, r16	; 0x1d
    3f9e:	06 8f       	std	Z+30, r16	; 0x1e
    3fa0:	07 8f       	std	Z+31, r16	; 0x1f
    3fa2:	00 a3       	std	Z+32, r16	; 0x20
    3fa4:	01 a3       	std	Z+33, r16	; 0x21
    3fa6:	02 a3       	std	Z+34, r16	; 0x22
    3fa8:	03 a3       	std	Z+35, r16	; 0x23
    3faa:	04 a3       	std	Z+36, r16	; 0x24
    3fac:	05 a3       	std	Z+37, r16	; 0x25
    3fae:	06 a3       	std	Z+38, r16	; 0x26
    3fb0:	aa 81       	ldd	r26, Y+2	; 0x02
    3fb2:	bb 81       	ldd	r27, Y+3	; 0x03
    3fb4:	8c 91       	ld	r24, X
    3fb6:	8e 32       	cpi	r24, 0x2E	; 46
    3fb8:	c9 f1       	breq	.+114    	; 0x402c <__stack+0x2d>
    3fba:	00 e0       	ldi	r16, 0x00	; 0
    3fbc:	10 e0       	ldi	r17, 0x00	; 0
    3fbe:	40 e0       	ldi	r20, 0x00	; 0
    3fc0:	50 e0       	ldi	r21, 0x00	; 0
    3fc2:	f8 e0       	ldi	r31, 0x08	; 8
    3fc4:	ef 2e       	mov	r14, r31
    3fc6:	f1 2c       	mov	r15, r1
    3fc8:	4f 5f       	subi	r20, 0xFF	; 255
    3fca:	5f 4f       	sbci	r21, 0xFF	; 255
    3fcc:	2d 91       	ld	r18, X+
    3fce:	21 32       	cpi	r18, 0x21	; 33
    3fd0:	08 f4       	brcc	.+2      	; 0x3fd4 <follow_path+0xba>
    3fd2:	f7 c2       	rjmp	.+1518   	; 0x45c2 <__stack+0x5c3>
    3fd4:	2f 32       	cpi	r18, 0x2F	; 47
    3fd6:	09 f4       	brne	.+2      	; 0x3fda <follow_path+0xc0>
    3fd8:	d4 c2       	rjmp	.+1448   	; 0x4582 <__stack+0x583>
    3fda:	2c 35       	cpi	r18, 0x5C	; 92
    3fdc:	09 f4       	brne	.+2      	; 0x3fe0 <follow_path+0xc6>
    3fde:	d1 c2       	rjmp	.+1442   	; 0x4582 <__stack+0x583>
    3fe0:	2e 32       	cpi	r18, 0x2E	; 46
    3fe2:	09 f4       	brne	.+2      	; 0x3fe6 <follow_path+0xcc>
    3fe4:	4f c0       	rjmp	.+158    	; 0x4084 <__stack+0x85>
    3fe6:	0e 15       	cp	r16, r14
    3fe8:	1f 05       	cpc	r17, r15
    3fea:	a0 f5       	brcc	.+104    	; 0x4054 <__stack+0x55>
    3fec:	27 fd       	sbrc	r18, 7
    3fee:	32 c0       	rjmp	.+100    	; 0x4054 <__stack+0x55>
    3ff0:	62 2f       	mov	r22, r18
    3ff2:	70 e0       	ldi	r23, 0x00	; 0
    3ff4:	22 32       	cpi	r18, 0x22	; 34
    3ff6:	09 f4       	brne	.+2      	; 0x3ffa <follow_path+0xe0>
    3ff8:	4f c0       	rjmp	.+158    	; 0x4098 <__stack+0x99>
    3ffa:	e3 e6       	ldi	r30, 0x63	; 99
    3ffc:	f0 e2       	ldi	r31, 0x20	; 32
    3ffe:	05 c0       	rjmp	.+10     	; 0x400a <__stack+0xb>
    4000:	90 e0       	ldi	r25, 0x00	; 0
    4002:	68 17       	cp	r22, r24
    4004:	79 07       	cpc	r23, r25
    4006:	09 f4       	brne	.+2      	; 0x400a <__stack+0xb>
    4008:	47 c0       	rjmp	.+142    	; 0x4098 <__stack+0x99>
    400a:	81 91       	ld	r24, Z+
    400c:	81 11       	cpse	r24, r1
    400e:	f8 cf       	rjmp	.-16     	; 0x4000 <__stack+0x1>
    4010:	8f e9       	ldi	r24, 0x9F	; 159
    4012:	82 0f       	add	r24, r18
    4014:	8a 31       	cpi	r24, 0x1A	; 26
    4016:	08 f4       	brcc	.+2      	; 0x401a <__stack+0x1b>
    4018:	20 52       	subi	r18, 0x20	; 32
    401a:	8a 85       	ldd	r24, Y+10	; 0x0a
    401c:	9b 85       	ldd	r25, Y+11	; 0x0b
    401e:	80 0f       	add	r24, r16
    4020:	91 1f       	adc	r25, r17
    4022:	fc 01       	movw	r30, r24
    4024:	20 83       	st	Z, r18
    4026:	0f 5f       	subi	r16, 0xFF	; 255
    4028:	1f 4f       	sbci	r17, 0xFF	; 255
    402a:	ce cf       	rjmp	.-100    	; 0x3fc8 <follow_path+0xae>
    402c:	f5 01       	movw	r30, r10
    402e:	84 8f       	std	Z+28, r24	; 0x1c
    4030:	11 96       	adiw	r26, 0x01	; 1
    4032:	8c 91       	ld	r24, X
    4034:	11 97       	sbiw	r26, 0x01	; 1
    4036:	8e 32       	cpi	r24, 0x2E	; 46
    4038:	09 f0       	breq	.+2      	; 0x403c <__stack+0x3d>
    403a:	d9 c2       	rjmp	.+1458   	; 0x45ee <__stack+0x5ef>
    403c:	85 8f       	std	Z+29, r24	; 0x1d
    403e:	12 96       	adiw	r26, 0x02	; 2
    4040:	8c 91       	ld	r24, X
    4042:	23 e0       	ldi	r18, 0x03	; 3
    4044:	30 e0       	ldi	r19, 0x00	; 0
    4046:	8f 32       	cpi	r24, 0x2F	; 47
    4048:	51 f1       	breq	.+84     	; 0x409e <__stack+0x9f>
    404a:	8c 35       	cpi	r24, 0x5C	; 92
    404c:	41 f1       	breq	.+80     	; 0x409e <__stack+0x9f>
    404e:	81 32       	cpi	r24, 0x21	; 33
    4050:	08 f4       	brcc	.+2      	; 0x4054 <__stack+0x55>
    4052:	8f c2       	rjmp	.+1310   	; 0x4572 <__stack+0x573>
    4054:	b6 e0       	ldi	r27, 0x06	; 6
    4056:	8b 2f       	mov	r24, r27
    4058:	65 96       	adiw	r28, 0x15	; 21
    405a:	cd bf       	out	0x3d, r28	; 61
    405c:	de bf       	out	0x3e, r29	; 62
    405e:	df 91       	pop	r29
    4060:	cf 91       	pop	r28
    4062:	1f 91       	pop	r17
    4064:	0f 91       	pop	r16
    4066:	ff 90       	pop	r15
    4068:	ef 90       	pop	r14
    406a:	df 90       	pop	r13
    406c:	cf 90       	pop	r12
    406e:	bf 90       	pop	r11
    4070:	af 90       	pop	r10
    4072:	9f 90       	pop	r9
    4074:	8f 90       	pop	r8
    4076:	7f 90       	pop	r7
    4078:	6f 90       	pop	r6
    407a:	5f 90       	pop	r5
    407c:	4f 90       	pop	r4
    407e:	3f 90       	pop	r3
    4080:	2f 90       	pop	r2
    4082:	08 95       	ret
    4084:	8b e0       	ldi	r24, 0x0B	; 11
    4086:	e8 16       	cp	r14, r24
    4088:	f1 04       	cpc	r15, r1
    408a:	21 f3       	breq	.-56     	; 0x4054 <__stack+0x55>
    408c:	08 e0       	ldi	r16, 0x08	; 8
    408e:	10 e0       	ldi	r17, 0x00	; 0
    4090:	8b e0       	ldi	r24, 0x0B	; 11
    4092:	e8 2e       	mov	r14, r24
    4094:	f1 2c       	mov	r15, r1
    4096:	98 cf       	rjmp	.-208    	; 0x3fc8 <follow_path+0xae>
    4098:	f6 e0       	ldi	r31, 0x06	; 6
    409a:	8f 2f       	mov	r24, r31
    409c:	dd cf       	rjmp	.-70     	; 0x4058 <__stack+0x59>
    409e:	4a 81       	ldd	r20, Y+2	; 0x02
    40a0:	5b 81       	ldd	r21, Y+3	; 0x03
    40a2:	42 0f       	add	r20, r18
    40a4:	53 1f       	adc	r21, r19
    40a6:	4a 83       	std	Y+2, r20	; 0x02
    40a8:	5b 83       	std	Y+3, r21	; 0x03
    40aa:	80 e2       	ldi	r24, 0x20	; 32
    40ac:	f5 01       	movw	r30, r10
    40ae:	87 a3       	std	Z+39, r24	; 0x27
    40b0:	d5 01       	movw	r26, r10
    40b2:	2d 90       	ld	r2, X+
    40b4:	3c 90       	ld	r3, X
    40b6:	c5 01       	movw	r24, r10
    40b8:	75 db       	rcall	.-2326   	; 0x37a4 <dir_sdi.constprop.15>
    40ba:	89 83       	std	Y+1, r24	; 0x01
    40bc:	81 11       	cpse	r24, r1
    40be:	a3 c0       	rjmp	.+326    	; 0x4206 <__stack+0x207>
    40c0:	f5 01       	movw	r30, r10
    40c2:	c6 88       	ldd	r12, Z+22	; 0x16
    40c4:	d7 88       	ldd	r13, Z+23	; 0x17
    40c6:	e0 8c       	ldd	r14, Z+24	; 0x18
    40c8:	f1 8c       	ldd	r15, Z+25	; 0x19
    40ca:	81 01       	movw	r16, r2
    40cc:	0d 5c       	subi	r16, 0xCD	; 205
    40ce:	1f 4f       	sbci	r17, 0xFF	; 255
    40d0:	26 01       	movw	r4, r12
    40d2:	37 01       	movw	r6, r14
    40d4:	a8 8a       	std	Y+16, r10	; 0x10
    40d6:	b9 8a       	std	Y+17, r11	; 0x11
    40d8:	68 01       	movw	r12, r16
    40da:	d1 01       	movw	r26, r2
    40dc:	9f 96       	adiw	r26, 0x2f	; 47
    40de:	8d 90       	ld	r8, X+
    40e0:	9d 90       	ld	r9, X+
    40e2:	ad 90       	ld	r10, X+
    40e4:	bc 90       	ld	r11, X
    40e6:	d2 97       	sbiw	r26, 0x32	; 50
    40e8:	84 14       	cp	r8, r4
    40ea:	95 04       	cpc	r9, r5
    40ec:	a6 04       	cpc	r10, r6
    40ee:	b7 04       	cpc	r11, r7
    40f0:	11 f1       	breq	.+68     	; 0x4136 <__stack+0x137>
    40f2:	13 96       	adiw	r26, 0x03	; 3
    40f4:	8c 91       	ld	r24, X
    40f6:	13 97       	sbiw	r26, 0x03	; 3
    40f8:	81 11       	cpse	r24, r1
    40fa:	a6 c0       	rjmp	.+332    	; 0x4248 <__stack+0x249>
    40fc:	01 e0       	ldi	r16, 0x01	; 1
    40fe:	10 e0       	ldi	r17, 0x00	; 0
    4100:	a3 01       	movw	r20, r6
    4102:	92 01       	movw	r18, r4
    4104:	b6 01       	movw	r22, r12
    4106:	f1 01       	movw	r30, r2
    4108:	81 81       	ldd	r24, Z+1	; 0x01
    410a:	0e 94 59 3b 	call	0x76b2	; 0x76b2 <disk_read>
    410e:	88 23       	and	r24, r24
    4110:	59 f0       	breq	.+22     	; 0x4128 <__stack+0x129>
    4112:	8f ef       	ldi	r24, 0xFF	; 255
    4114:	9f ef       	ldi	r25, 0xFF	; 255
    4116:	dc 01       	movw	r26, r24
    4118:	f1 01       	movw	r30, r2
    411a:	87 a7       	std	Z+47, r24	; 0x2f
    411c:	90 ab       	std	Z+48, r25	; 0x30
    411e:	a1 ab       	std	Z+49, r26	; 0x31
    4120:	b2 ab       	std	Z+50, r27	; 0x32
    4122:	f1 e0       	ldi	r31, 0x01	; 1
    4124:	8f 2f       	mov	r24, r31
    4126:	98 cf       	rjmp	.-208    	; 0x4058 <__stack+0x59>
    4128:	d1 01       	movw	r26, r2
    412a:	9f 96       	adiw	r26, 0x2f	; 47
    412c:	4d 92       	st	X+, r4
    412e:	5d 92       	st	X+, r5
    4130:	6d 92       	st	X+, r6
    4132:	7c 92       	st	X, r7
    4134:	d2 97       	sbiw	r26, 0x32	; 50
    4136:	a8 89       	ldd	r26, Y+16	; 0x10
    4138:	b9 89       	ldd	r27, Y+17	; 0x11
    413a:	5a 96       	adiw	r26, 0x1a	; 26
    413c:	ed 91       	ld	r30, X+
    413e:	fc 91       	ld	r31, X
    4140:	5b 97       	sbiw	r26, 0x1b	; 27
    4142:	80 81       	ld	r24, Z
    4144:	88 23       	and	r24, r24
    4146:	09 f4       	brne	.+2      	; 0x414a <__stack+0x14b>
    4148:	a5 c1       	rjmp	.+842    	; 0x4494 <__stack+0x495>
    414a:	83 85       	ldd	r24, Z+11	; 0x0b
    414c:	8f 73       	andi	r24, 0x3F	; 63
    414e:	14 96       	adiw	r26, 0x04	; 4
    4150:	8c 93       	st	X, r24
    4152:	14 97       	sbiw	r26, 0x04	; 4
    4154:	93 85       	ldd	r25, Z+11	; 0x0b
    4156:	93 fd       	sbrc	r25, 3
    4158:	42 c0       	rjmp	.+132    	; 0x41de <__stack+0x1df>
    415a:	20 81       	ld	r18, Z
    415c:	5c 96       	adiw	r26, 0x1c	; 28
    415e:	9c 91       	ld	r25, X
    4160:	5c 97       	sbiw	r26, 0x1c	; 28
    4162:	29 13       	cpse	r18, r25
    4164:	3c c0       	rjmp	.+120    	; 0x41de <__stack+0x1df>
    4166:	21 81       	ldd	r18, Z+1	; 0x01
    4168:	5d 96       	adiw	r26, 0x1d	; 29
    416a:	9c 91       	ld	r25, X
    416c:	5d 97       	sbiw	r26, 0x1d	; 29
    416e:	29 13       	cpse	r18, r25
    4170:	36 c0       	rjmp	.+108    	; 0x41de <__stack+0x1df>
    4172:	22 81       	ldd	r18, Z+2	; 0x02
    4174:	5e 96       	adiw	r26, 0x1e	; 30
    4176:	9c 91       	ld	r25, X
    4178:	5e 97       	sbiw	r26, 0x1e	; 30
    417a:	29 13       	cpse	r18, r25
    417c:	30 c0       	rjmp	.+96     	; 0x41de <__stack+0x1df>
    417e:	23 81       	ldd	r18, Z+3	; 0x03
    4180:	5f 96       	adiw	r26, 0x1f	; 31
    4182:	9c 91       	ld	r25, X
    4184:	5f 97       	sbiw	r26, 0x1f	; 31
    4186:	29 13       	cpse	r18, r25
    4188:	2a c0       	rjmp	.+84     	; 0x41de <__stack+0x1df>
    418a:	24 81       	ldd	r18, Z+4	; 0x04
    418c:	90 96       	adiw	r26, 0x20	; 32
    418e:	9c 91       	ld	r25, X
    4190:	90 97       	sbiw	r26, 0x20	; 32
    4192:	29 13       	cpse	r18, r25
    4194:	24 c0       	rjmp	.+72     	; 0x41de <__stack+0x1df>
    4196:	25 81       	ldd	r18, Z+5	; 0x05
    4198:	91 96       	adiw	r26, 0x21	; 33
    419a:	9c 91       	ld	r25, X
    419c:	91 97       	sbiw	r26, 0x21	; 33
    419e:	29 13       	cpse	r18, r25
    41a0:	1e c0       	rjmp	.+60     	; 0x41de <__stack+0x1df>
    41a2:	26 81       	ldd	r18, Z+6	; 0x06
    41a4:	92 96       	adiw	r26, 0x22	; 34
    41a6:	9c 91       	ld	r25, X
    41a8:	92 97       	sbiw	r26, 0x22	; 34
    41aa:	29 13       	cpse	r18, r25
    41ac:	18 c0       	rjmp	.+48     	; 0x41de <__stack+0x1df>
    41ae:	27 81       	ldd	r18, Z+7	; 0x07
    41b0:	93 96       	adiw	r26, 0x23	; 35
    41b2:	9c 91       	ld	r25, X
    41b4:	93 97       	sbiw	r26, 0x23	; 35
    41b6:	29 13       	cpse	r18, r25
    41b8:	12 c0       	rjmp	.+36     	; 0x41de <__stack+0x1df>
    41ba:	20 85       	ldd	r18, Z+8	; 0x08
    41bc:	94 96       	adiw	r26, 0x24	; 36
    41be:	9c 91       	ld	r25, X
    41c0:	94 97       	sbiw	r26, 0x24	; 36
    41c2:	29 13       	cpse	r18, r25
    41c4:	0c c0       	rjmp	.+24     	; 0x41de <__stack+0x1df>
    41c6:	21 85       	ldd	r18, Z+9	; 0x09
    41c8:	95 96       	adiw	r26, 0x25	; 37
    41ca:	9c 91       	ld	r25, X
    41cc:	95 97       	sbiw	r26, 0x25	; 37
    41ce:	29 13       	cpse	r18, r25
    41d0:	06 c0       	rjmp	.+12     	; 0x41de <__stack+0x1df>
    41d2:	22 85       	ldd	r18, Z+10	; 0x0a
    41d4:	96 96       	adiw	r26, 0x26	; 38
    41d6:	9c 91       	ld	r25, X
    41d8:	29 17       	cp	r18, r25
    41da:	09 f4       	brne	.+2      	; 0x41de <__stack+0x1df>
    41dc:	91 c1       	rjmp	.+802    	; 0x4500 <__stack+0x501>
    41de:	e8 89       	ldd	r30, Y+16	; 0x10
    41e0:	f9 89       	ldd	r31, Y+17	; 0x11
    41e2:	00 81       	ld	r16, Z
    41e4:	11 81       	ldd	r17, Z+1	; 0x01
    41e6:	86 84       	ldd	r8, Z+14	; 0x0e
    41e8:	97 84       	ldd	r9, Z+15	; 0x0f
    41ea:	a0 88       	ldd	r10, Z+16	; 0x10
    41ec:	b1 88       	ldd	r11, Z+17	; 0x11
    41ee:	46 88       	ldd	r4, Z+22	; 0x16
    41f0:	57 88       	ldd	r5, Z+23	; 0x17
    41f2:	60 8c       	ldd	r6, Z+24	; 0x18
    41f4:	71 8c       	ldd	r7, Z+25	; 0x19
    41f6:	41 14       	cp	r4, r1
    41f8:	51 04       	cpc	r5, r1
    41fa:	61 04       	cpc	r6, r1
    41fc:	71 04       	cpc	r7, r1
    41fe:	99 f4       	brne	.+38     	; 0x4226 <__stack+0x227>
    4200:	5f 01       	movw	r10, r30
    4202:	f4 e0       	ldi	r31, 0x04	; 4
    4204:	f9 83       	std	Y+1, r31	; 0x01
    4206:	f5 01       	movw	r30, r10
    4208:	87 a1       	ldd	r24, Z+39	; 0x27
    420a:	f9 81       	ldd	r31, Y+1	; 0x01
    420c:	f4 30       	cpi	r31, 0x04	; 4
    420e:	09 f0       	breq	.+2      	; 0x4212 <__stack+0x213>
    4210:	f9 c1       	rjmp	.+1010   	; 0x4604 <__stack+0x605>
    4212:	85 ff       	sbrs	r24, 5
    4214:	e7 c1       	rjmp	.+974    	; 0x45e4 <__stack+0x5e5>
    4216:	82 ff       	sbrs	r24, 2
    4218:	be ce       	rjmp	.-644    	; 0x3f96 <follow_path+0x7c>
    421a:	80 e8       	ldi	r24, 0x80	; 128
    421c:	f5 01       	movw	r30, r10
    421e:	87 a3       	std	Z+39, r24	; 0x27
    4220:	19 82       	std	Y+1, r1	; 0x01
    4222:	89 81       	ldd	r24, Y+1	; 0x01
    4224:	19 cf       	rjmp	.-462    	; 0x4058 <__stack+0x59>
    4226:	f0 e2       	ldi	r31, 0x20	; 32
    4228:	8f 0e       	add	r8, r31
    422a:	91 1c       	adc	r9, r1
    422c:	a1 1c       	adc	r10, r1
    422e:	b1 1c       	adc	r11, r1
    4230:	81 14       	cp	r8, r1
    4232:	91 04       	cpc	r9, r1
    4234:	20 e2       	ldi	r18, 0x20	; 32
    4236:	a2 06       	cpc	r10, r18
    4238:	b1 04       	cpc	r11, r1
    423a:	08 f4       	brcc	.+2      	; 0x423e <__stack+0x23f>
    423c:	55 c0       	rjmp	.+170    	; 0x42e8 <__stack+0x2e9>
    423e:	a8 88       	ldd	r10, Y+16	; 0x10
    4240:	b9 88       	ldd	r11, Y+17	; 0x11
    4242:	04 e0       	ldi	r16, 0x04	; 4
    4244:	09 83       	std	Y+1, r16	; 0x01
    4246:	df cf       	rjmp	.-66     	; 0x4206 <__stack+0x207>
    4248:	01 e0       	ldi	r16, 0x01	; 1
    424a:	10 e0       	ldi	r17, 0x00	; 0
    424c:	a5 01       	movw	r20, r10
    424e:	94 01       	movw	r18, r8
    4250:	b6 01       	movw	r22, r12
    4252:	11 96       	adiw	r26, 0x01	; 1
    4254:	8c 91       	ld	r24, X
    4256:	0e 94 6d 3b 	call	0x76da	; 0x76da <disk_write>
    425a:	81 11       	cpse	r24, r1
    425c:	8a c0       	rjmp	.+276    	; 0x4372 <__stack+0x373>
    425e:	f1 01       	movw	r30, r2
    4260:	13 82       	std	Z+3, r1	; 0x03
    4262:	83 8d       	ldd	r24, Z+27	; 0x1b
    4264:	94 8d       	ldd	r25, Z+28	; 0x1c
    4266:	a5 8d       	ldd	r26, Z+29	; 0x1d
    4268:	b6 8d       	ldd	r27, Z+30	; 0x1e
    426a:	43 a1       	ldd	r20, Z+35	; 0x23
    426c:	54 a1       	ldd	r21, Z+36	; 0x24
    426e:	65 a1       	ldd	r22, Z+37	; 0x25
    4270:	76 a1       	ldd	r23, Z+38	; 0x26
    4272:	95 01       	movw	r18, r10
    4274:	84 01       	movw	r16, r8
    4276:	04 1b       	sub	r16, r20
    4278:	15 0b       	sbc	r17, r21
    427a:	26 0b       	sbc	r18, r22
    427c:	37 0b       	sbc	r19, r23
    427e:	08 17       	cp	r16, r24
    4280:	19 07       	cpc	r17, r25
    4282:	2a 07       	cpc	r18, r26
    4284:	3b 07       	cpc	r19, r27
    4286:	08 f0       	brcs	.+2      	; 0x428a <__stack+0x28b>
    4288:	39 cf       	rjmp	.-398    	; 0x40fc <__stack+0xfd>
    428a:	e2 80       	ldd	r14, Z+2	; 0x02
    428c:	f1 2c       	mov	r15, r1
    428e:	12 e0       	ldi	r17, 0x02	; 2
    4290:	e1 16       	cp	r14, r17
    4292:	f1 04       	cpc	r15, r1
    4294:	08 f4       	brcc	.+2      	; 0x4298 <__stack+0x299>
    4296:	32 cf       	rjmp	.-412    	; 0x40fc <__stack+0xfd>
    4298:	28 89       	ldd	r18, Y+16	; 0x10
    429a:	39 89       	ldd	r19, Y+17	; 0x11
    429c:	2e 82       	std	Y+6, r2	; 0x06
    429e:	3f 82       	std	Y+7, r3	; 0x07
    42a0:	19 01       	movw	r2, r18
    42a2:	06 c0       	rjmp	.+12     	; 0x42b0 <__stack+0x2b1>
    42a4:	ee 81       	ldd	r30, Y+6	; 0x06
    42a6:	ff 81       	ldd	r31, Y+7	; 0x07
    42a8:	83 8d       	ldd	r24, Z+27	; 0x1b
    42aa:	94 8d       	ldd	r25, Z+28	; 0x1c
    42ac:	a5 8d       	ldd	r26, Z+29	; 0x1d
    42ae:	b6 8d       	ldd	r27, Z+30	; 0x1e
    42b0:	88 0e       	add	r8, r24
    42b2:	99 1e       	adc	r9, r25
    42b4:	aa 1e       	adc	r10, r26
    42b6:	bb 1e       	adc	r11, r27
    42b8:	01 e0       	ldi	r16, 0x01	; 1
    42ba:	10 e0       	ldi	r17, 0x00	; 0
    42bc:	a5 01       	movw	r20, r10
    42be:	94 01       	movw	r18, r8
    42c0:	b6 01       	movw	r22, r12
    42c2:	ae 81       	ldd	r26, Y+6	; 0x06
    42c4:	bf 81       	ldd	r27, Y+7	; 0x07
    42c6:	11 96       	adiw	r26, 0x01	; 1
    42c8:	8c 91       	ld	r24, X
    42ca:	0e 94 6d 3b 	call	0x76da	; 0x76da <disk_write>
    42ce:	b1 e0       	ldi	r27, 0x01	; 1
    42d0:	eb 1a       	sub	r14, r27
    42d2:	f1 08       	sbc	r15, r1
    42d4:	e1 e0       	ldi	r30, 0x01	; 1
    42d6:	ee 16       	cp	r14, r30
    42d8:	f1 04       	cpc	r15, r1
    42da:	21 f7       	brne	.-56     	; 0x42a4 <__stack+0x2a5>
    42dc:	c1 01       	movw	r24, r2
    42de:	2e 80       	ldd	r2, Y+6	; 0x06
    42e0:	3f 80       	ldd	r3, Y+7	; 0x07
    42e2:	88 8b       	std	Y+16, r24	; 0x10
    42e4:	99 8b       	std	Y+17, r25	; 0x11
    42e6:	0a cf       	rjmp	.-492    	; 0x40fc <__stack+0xfd>
    42e8:	d5 01       	movw	r26, r10
    42ea:	c4 01       	movw	r24, r8
    42ec:	91 70       	andi	r25, 0x01	; 1
    42ee:	aa 27       	eor	r26, r26
    42f0:	bb 27       	eor	r27, r27
    42f2:	89 2b       	or	r24, r25
    42f4:	8a 2b       	or	r24, r26
    42f6:	8b 2b       	or	r24, r27
    42f8:	09 f0       	breq	.+2      	; 0x42fc <__stack+0x2fd>
    42fa:	b8 c0       	rjmp	.+368    	; 0x446c <__stack+0x46d>
    42fc:	3f ef       	ldi	r19, 0xFF	; 255
    42fe:	43 1a       	sub	r4, r19
    4300:	53 0a       	sbc	r5, r19
    4302:	63 0a       	sbc	r6, r19
    4304:	73 0a       	sbc	r7, r19
    4306:	a8 89       	ldd	r26, Y+16	; 0x10
    4308:	b9 89       	ldd	r27, Y+17	; 0x11
    430a:	56 96       	adiw	r26, 0x16	; 22
    430c:	4d 92       	st	X+, r4
    430e:	5d 92       	st	X+, r5
    4310:	6d 92       	st	X+, r6
    4312:	7c 92       	st	X, r7
    4314:	59 97       	sbiw	r26, 0x19	; 25
    4316:	52 96       	adiw	r26, 0x12	; 18
    4318:	2d 91       	ld	r18, X+
    431a:	3d 91       	ld	r19, X+
    431c:	4d 91       	ld	r20, X+
    431e:	5c 91       	ld	r21, X
    4320:	55 97       	sbiw	r26, 0x15	; 21
    4322:	2a 8b       	std	Y+18, r18	; 0x12
    4324:	3b 8b       	std	Y+19, r19	; 0x13
    4326:	4c 8b       	std	Y+20, r20	; 0x14
    4328:	5d 8b       	std	Y+21, r21	; 0x15
    432a:	f8 01       	movw	r30, r16
    432c:	23 2b       	or	r18, r19
    432e:	24 2b       	or	r18, r20
    4330:	25 2b       	or	r18, r21
    4332:	11 f5       	brne	.+68     	; 0x4378 <__stack+0x379>
    4334:	87 81       	ldd	r24, Z+7	; 0x07
    4336:	90 85       	ldd	r25, Z+8	; 0x08
    4338:	a0 e0       	ldi	r26, 0x00	; 0
    433a:	b0 e0       	ldi	r27, 0x00	; 0
    433c:	b5 01       	movw	r22, r10
    433e:	a4 01       	movw	r20, r8
    4340:	e5 e0       	ldi	r30, 0x05	; 5
    4342:	76 95       	lsr	r23
    4344:	67 95       	ror	r22
    4346:	57 95       	ror	r21
    4348:	47 95       	ror	r20
    434a:	ea 95       	dec	r30
    434c:	d1 f7       	brne	.-12     	; 0x4342 <__stack+0x343>
    434e:	48 17       	cp	r20, r24
    4350:	59 07       	cpc	r21, r25
    4352:	6a 07       	cpc	r22, r26
    4354:	7b 07       	cpc	r23, r27
    4356:	08 f4       	brcc	.+2      	; 0x435a <__stack+0x35b>
    4358:	89 c0       	rjmp	.+274    	; 0x446c <__stack+0x46d>
    435a:	a8 88       	ldd	r10, Y+16	; 0x10
    435c:	b9 88       	ldd	r11, Y+17	; 0x11
    435e:	d5 01       	movw	r26, r10
    4360:	56 96       	adiw	r26, 0x16	; 22
    4362:	1d 92       	st	X+, r1
    4364:	1d 92       	st	X+, r1
    4366:	1d 92       	st	X+, r1
    4368:	1c 92       	st	X, r1
    436a:	59 97       	sbiw	r26, 0x19	; 25
    436c:	b4 e0       	ldi	r27, 0x04	; 4
    436e:	b9 83       	std	Y+1, r27	; 0x01
    4370:	4a cf       	rjmp	.-364    	; 0x4206 <__stack+0x207>
    4372:	01 e0       	ldi	r16, 0x01	; 1
    4374:	80 2f       	mov	r24, r16
    4376:	70 ce       	rjmp	.-800    	; 0x4058 <__stack+0x59>
    4378:	81 85       	ldd	r24, Z+9	; 0x09
    437a:	92 85       	ldd	r25, Z+10	; 0x0a
    437c:	9c 01       	movw	r18, r24
    437e:	21 50       	subi	r18, 0x01	; 1
    4380:	31 09       	sbc	r19, r1
    4382:	c9 01       	movw	r24, r18
    4384:	a0 e0       	ldi	r26, 0x00	; 0
    4386:	b0 e0       	ldi	r27, 0x00	; 0
    4388:	a5 01       	movw	r20, r10
    438a:	94 01       	movw	r18, r8
    438c:	69 e0       	ldi	r22, 0x09	; 9
    438e:	56 95       	lsr	r21
    4390:	47 95       	ror	r20
    4392:	37 95       	ror	r19
    4394:	27 95       	ror	r18
    4396:	6a 95       	dec	r22
    4398:	d1 f7       	brne	.-12     	; 0x438e <__stack+0x38f>
    439a:	28 23       	and	r18, r24
    439c:	39 23       	and	r19, r25
    439e:	4a 23       	and	r20, r26
    43a0:	5b 23       	and	r21, r27
    43a2:	2e 83       	std	Y+6, r18	; 0x06
    43a4:	3f 83       	std	Y+7, r19	; 0x07
    43a6:	48 87       	std	Y+8, r20	; 0x08
    43a8:	59 87       	std	Y+9, r21	; 0x09
    43aa:	23 2b       	or	r18, r19
    43ac:	24 2b       	or	r18, r20
    43ae:	25 2b       	or	r18, r21
    43b0:	09 f0       	breq	.+2      	; 0x43b4 <__stack+0x3b5>
    43b2:	5c c0       	rjmp	.+184    	; 0x446c <__stack+0x46d>
    43b4:	4a 89       	ldd	r20, Y+18	; 0x12
    43b6:	5b 89       	ldd	r21, Y+19	; 0x13
    43b8:	6c 89       	ldd	r22, Y+20	; 0x14
    43ba:	7d 89       	ldd	r23, Y+21	; 0x15
    43bc:	c8 01       	movw	r24, r16
    43be:	0e 94 6c 14 	call	0x28d8	; 0x28d8 <get_fat.isra.8>
    43c2:	62 30       	cpi	r22, 0x02	; 2
    43c4:	71 05       	cpc	r23, r1
    43c6:	81 05       	cpc	r24, r1
    43c8:	91 05       	cpc	r25, r1
    43ca:	08 f4       	brcc	.+2      	; 0x43ce <__stack+0x3cf>
    43cc:	01 c1       	rjmp	.+514    	; 0x45d0 <__stack+0x5d1>
    43ce:	6f 3f       	cpi	r22, 0xFF	; 255
    43d0:	3f ef       	ldi	r19, 0xFF	; 255
    43d2:	73 07       	cpc	r23, r19
    43d4:	83 07       	cpc	r24, r19
    43d6:	93 07       	cpc	r25, r19
    43d8:	09 f4       	brne	.+2      	; 0x43dc <__stack+0x3dd>
    43da:	0c c1       	rjmp	.+536    	; 0x45f4 <__stack+0x5f5>
    43dc:	d8 01       	movw	r26, r16
    43de:	57 96       	adiw	r26, 0x17	; 23
    43e0:	4d 90       	ld	r4, X+
    43e2:	5d 90       	ld	r5, X+
    43e4:	6d 90       	ld	r6, X+
    43e6:	7c 90       	ld	r7, X
    43e8:	5a 97       	sbiw	r26, 0x1a	; 26
    43ea:	64 15       	cp	r22, r4
    43ec:	75 05       	cpc	r23, r5
    43ee:	86 05       	cpc	r24, r6
    43f0:	97 05       	cpc	r25, r7
    43f2:	08 f0       	brcs	.+2      	; 0x43f6 <__stack+0x3f7>
    43f4:	b2 cf       	rjmp	.-156    	; 0x435a <__stack+0x35b>
    43f6:	e8 89       	ldd	r30, Y+16	; 0x10
    43f8:	f9 89       	ldd	r31, Y+17	; 0x11
    43fa:	62 8b       	std	Z+18, r22	; 0x12
    43fc:	73 8b       	std	Z+19, r23	; 0x13
    43fe:	84 8b       	std	Z+20, r24	; 0x14
    4400:	95 8b       	std	Z+21, r25	; 0x15
    4402:	9b 01       	movw	r18, r22
    4404:	ac 01       	movw	r20, r24
    4406:	22 50       	subi	r18, 0x02	; 2
    4408:	31 09       	sbc	r19, r1
    440a:	41 09       	sbc	r20, r1
    440c:	51 09       	sbc	r21, r1
    440e:	f2 e0       	ldi	r31, 0x02	; 2
    4410:	4f 1a       	sub	r4, r31
    4412:	51 08       	sbc	r5, r1
    4414:	61 08       	sbc	r6, r1
    4416:	71 08       	sbc	r7, r1
    4418:	24 15       	cp	r18, r4
    441a:	35 05       	cpc	r19, r5
    441c:	46 05       	cpc	r20, r6
    441e:	57 05       	cpc	r21, r7
    4420:	b8 f4       	brcc	.+46     	; 0x4450 <__stack+0x451>
    4422:	19 96       	adiw	r26, 0x09	; 9
    4424:	0d 90       	ld	r0, X+
    4426:	bc 91       	ld	r27, X
    4428:	a0 2d       	mov	r26, r0
    442a:	0e 94 1d 44 	call	0x883a	; 0x883a <__muluhisi3>
    442e:	d8 01       	movw	r26, r16
    4430:	9b 96       	adiw	r26, 0x2b	; 43
    4432:	4d 90       	ld	r4, X+
    4434:	5d 90       	ld	r5, X+
    4436:	6d 90       	ld	r6, X+
    4438:	7c 90       	ld	r7, X
    443a:	9e 97       	sbiw	r26, 0x2e	; 46
    443c:	9b 01       	movw	r18, r22
    443e:	ac 01       	movw	r20, r24
    4440:	24 0d       	add	r18, r4
    4442:	35 1d       	adc	r19, r5
    4444:	46 1d       	adc	r20, r6
    4446:	57 1d       	adc	r21, r7
    4448:	2e 83       	std	Y+6, r18	; 0x06
    444a:	3f 83       	std	Y+7, r19	; 0x07
    444c:	48 87       	std	Y+8, r20	; 0x08
    444e:	59 87       	std	Y+9, r21	; 0x09
    4450:	2e 81       	ldd	r18, Y+6	; 0x06
    4452:	3f 81       	ldd	r19, Y+7	; 0x07
    4454:	48 85       	ldd	r20, Y+8	; 0x08
    4456:	59 85       	ldd	r21, Y+9	; 0x09
    4458:	a8 89       	ldd	r26, Y+16	; 0x10
    445a:	b9 89       	ldd	r27, Y+17	; 0x11
    445c:	56 96       	adiw	r26, 0x16	; 22
    445e:	2d 93       	st	X+, r18
    4460:	3d 93       	st	X+, r19
    4462:	4d 93       	st	X+, r20
    4464:	5c 93       	st	X, r21
    4466:	59 97       	sbiw	r26, 0x19	; 25
    4468:	29 01       	movw	r4, r18
    446a:	3a 01       	movw	r6, r20
    446c:	e8 89       	ldd	r30, Y+16	; 0x10
    446e:	f9 89       	ldd	r31, Y+17	; 0x11
    4470:	86 86       	std	Z+14, r8	; 0x0e
    4472:	97 86       	std	Z+15, r9	; 0x0f
    4474:	a0 8a       	std	Z+16, r10	; 0x10
    4476:	b1 8a       	std	Z+17, r11	; 0x11
    4478:	f1 e0       	ldi	r31, 0x01	; 1
    447a:	9f 22       	and	r9, r31
    447c:	23 e3       	ldi	r18, 0x33	; 51
    447e:	82 0e       	add	r8, r18
    4480:	91 1c       	adc	r9, r1
    4482:	08 0d       	add	r16, r8
    4484:	19 1d       	adc	r17, r9
    4486:	a8 89       	ldd	r26, Y+16	; 0x10
    4488:	b9 89       	ldd	r27, Y+17	; 0x11
    448a:	5a 96       	adiw	r26, 0x1a	; 26
    448c:	0d 93       	st	X+, r16
    448e:	1c 93       	st	X, r17
    4490:	5b 97       	sbiw	r26, 0x1b	; 27
    4492:	23 ce       	rjmp	.-954    	; 0x40da <__stack+0xdb>
    4494:	5d 01       	movw	r10, r26
    4496:	fd 01       	movw	r30, r26
    4498:	87 a1       	ldd	r24, Z+39	; 0x27
    449a:	bb ce       	rjmp	.-650    	; 0x4212 <__stack+0x213>
    449c:	2a 81       	ldd	r18, Y+2	; 0x02
    449e:	3b 81       	ldd	r19, Y+3	; 0x03
    44a0:	f9 01       	movw	r30, r18
    44a2:	80 81       	ld	r24, Z
    44a4:	2f 5f       	subi	r18, 0xFF	; 255
    44a6:	3f 4f       	sbci	r19, 0xFF	; 255
    44a8:	8f 32       	cpi	r24, 0x2F	; 47
    44aa:	d1 f3       	breq	.-12     	; 0x44a0 <__stack+0x4a1>
    44ac:	8c 35       	cpi	r24, 0x5C	; 92
    44ae:	c1 f3       	breq	.-16     	; 0x44a0 <__stack+0x4a1>
    44b0:	ea 83       	std	Y+2, r30	; 0x02
    44b2:	fb 83       	std	Y+3, r31	; 0x03
    44b4:	d5 01       	movw	r26, r10
    44b6:	16 96       	adiw	r26, 0x06	; 6
    44b8:	1d 92       	st	X+, r1
    44ba:	1d 92       	st	X+, r1
    44bc:	1d 92       	st	X+, r1
    44be:	1c 92       	st	X, r1
    44c0:	19 97       	sbiw	r26, 0x09	; 9
    44c2:	80 81       	ld	r24, Z
    44c4:	80 32       	cpi	r24, 0x20	; 32
    44c6:	08 f0       	brcs	.+2      	; 0x44ca <__stack+0x4cb>
    44c8:	61 cd       	rjmp	.-1342   	; 0x3f8c <follow_path+0x72>
    44ca:	80 e8       	ldi	r24, 0x80	; 128
    44cc:	d5 01       	movw	r26, r10
    44ce:	97 96       	adiw	r26, 0x27	; 39
    44d0:	8c 93       	st	X, r24
    44d2:	c5 01       	movw	r24, r10
    44d4:	65 96       	adiw	r28, 0x15	; 21
    44d6:	cd bf       	out	0x3d, r28	; 61
    44d8:	de bf       	out	0x3e, r29	; 62
    44da:	df 91       	pop	r29
    44dc:	cf 91       	pop	r28
    44de:	1f 91       	pop	r17
    44e0:	0f 91       	pop	r16
    44e2:	ff 90       	pop	r15
    44e4:	ef 90       	pop	r14
    44e6:	df 90       	pop	r13
    44e8:	cf 90       	pop	r12
    44ea:	bf 90       	pop	r11
    44ec:	af 90       	pop	r10
    44ee:	9f 90       	pop	r9
    44f0:	8f 90       	pop	r8
    44f2:	7f 90       	pop	r7
    44f4:	6f 90       	pop	r6
    44f6:	5f 90       	pop	r5
    44f8:	4f 90       	pop	r4
    44fa:	3f 90       	pop	r3
    44fc:	2f 90       	pop	r2
    44fe:	52 c9       	rjmp	.-3420   	; 0x37a4 <dir_sdi.constprop.15>
    4500:	a8 88       	ldd	r10, Y+16	; 0x10
    4502:	b9 88       	ldd	r11, Y+17	; 0x11
    4504:	d5 01       	movw	r26, r10
    4506:	97 96       	adiw	r26, 0x27	; 39
    4508:	9c 91       	ld	r25, X
    450a:	92 fd       	sbrc	r25, 2
    450c:	7b c0       	rjmp	.+246    	; 0x4604 <__stack+0x605>
    450e:	84 ff       	sbrs	r24, 4
    4510:	66 c0       	rjmp	.+204    	; 0x45de <__stack+0x5df>
    4512:	d5 01       	movw	r26, r10
    4514:	1e 96       	adiw	r26, 0x0e	; 14
    4516:	ed 91       	ld	r30, X+
    4518:	fc 91       	ld	r31, X
    451a:	1f 97       	sbiw	r26, 0x0f	; 15
    451c:	f1 70       	andi	r31, 0x01	; 1
    451e:	f3 96       	adiw	r30, 0x33	; 51
    4520:	6c 81       	ldd	r22, Y+4	; 0x04
    4522:	7d 81       	ldd	r23, Y+5	; 0x05
    4524:	6e 0f       	add	r22, r30
    4526:	7f 1f       	adc	r23, r31
    4528:	fb 01       	movw	r30, r22
    452a:	83 8d       	ldd	r24, Z+27	; 0x1b
    452c:	90 e0       	ldi	r25, 0x00	; 0
    452e:	98 2f       	mov	r25, r24
    4530:	88 27       	eor	r24, r24
    4532:	22 8d       	ldd	r18, Z+26	; 0x1a
    4534:	82 2b       	or	r24, r18
    4536:	a0 e0       	ldi	r26, 0x00	; 0
    4538:	b0 e0       	ldi	r27, 0x00	; 0
    453a:	ec 81       	ldd	r30, Y+4	; 0x04
    453c:	fd 81       	ldd	r31, Y+5	; 0x05
    453e:	20 81       	ld	r18, Z
    4540:	23 30       	cpi	r18, 0x03	; 3
    4542:	31 f0       	breq	.+12     	; 0x4550 <__stack+0x551>
    4544:	f5 01       	movw	r30, r10
    4546:	86 83       	std	Z+6, r24	; 0x06
    4548:	97 83       	std	Z+7, r25	; 0x07
    454a:	a0 87       	std	Z+8, r26	; 0x08
    454c:	b1 87       	std	Z+9, r27	; 0x09
    454e:	23 cd       	rjmp	.-1466   	; 0x3f96 <follow_path+0x7c>
    4550:	fb 01       	movw	r30, r22
    4552:	45 89       	ldd	r20, Z+21	; 0x15
    4554:	50 e0       	ldi	r21, 0x00	; 0
    4556:	54 2f       	mov	r21, r20
    4558:	44 27       	eor	r20, r20
    455a:	24 89       	ldd	r18, Z+20	; 0x14
    455c:	42 2b       	or	r20, r18
    455e:	60 e0       	ldi	r22, 0x00	; 0
    4560:	70 e0       	ldi	r23, 0x00	; 0
    4562:	ba 01       	movw	r22, r20
    4564:	55 27       	eor	r21, r21
    4566:	44 27       	eor	r20, r20
    4568:	84 2b       	or	r24, r20
    456a:	95 2b       	or	r25, r21
    456c:	a6 2b       	or	r26, r22
    456e:	b7 2b       	or	r27, r23
    4570:	e9 cf       	rjmp	.-46     	; 0x4544 <__stack+0x545>
    4572:	0a 81       	ldd	r16, Y+2	; 0x02
    4574:	1b 81       	ldd	r17, Y+3	; 0x03
    4576:	02 0f       	add	r16, r18
    4578:	13 1f       	adc	r17, r19
    457a:	0a 83       	std	Y+2, r16	; 0x02
    457c:	1b 83       	std	Y+3, r17	; 0x03
    457e:	84 e2       	ldi	r24, 0x24	; 36
    4580:	95 cd       	rjmp	.-1238   	; 0x40ac <__stack+0xad>
    4582:	ea 81       	ldd	r30, Y+2	; 0x02
    4584:	fb 81       	ldd	r31, Y+3	; 0x03
    4586:	e4 0f       	add	r30, r20
    4588:	f5 1f       	adc	r31, r21
    458a:	3e 2f       	mov	r19, r30
    458c:	9f 2f       	mov	r25, r31
    458e:	81 91       	ld	r24, Z+
    4590:	8f 32       	cpi	r24, 0x2F	; 47
    4592:	d9 f3       	breq	.-10     	; 0x458a <__stack+0x58b>
    4594:	8c 35       	cpi	r24, 0x5C	; 92
    4596:	c9 f3       	breq	.-14     	; 0x458a <__stack+0x58b>
    4598:	3a 83       	std	Y+2, r19	; 0x02
    459a:	9b 83       	std	Y+3, r25	; 0x03
    459c:	01 2b       	or	r16, r17
    459e:	09 f4       	brne	.+2      	; 0x45a2 <__stack+0x5a3>
    45a0:	59 cd       	rjmp	.-1358   	; 0x4054 <__stack+0x55>
    45a2:	d5 01       	movw	r26, r10
    45a4:	5c 96       	adiw	r26, 0x1c	; 28
    45a6:	8c 91       	ld	r24, X
    45a8:	5c 97       	sbiw	r26, 0x1c	; 28
    45aa:	85 3e       	cpi	r24, 0xE5	; 229
    45ac:	19 f4       	brne	.+6      	; 0x45b4 <__stack+0x5b5>
    45ae:	e5 e0       	ldi	r30, 0x05	; 5
    45b0:	5c 96       	adiw	r26, 0x1c	; 28
    45b2:	ec 93       	st	X, r30
    45b4:	21 32       	cpi	r18, 0x21	; 33
    45b6:	88 f0       	brcs	.+34     	; 0x45da <__stack+0x5db>
    45b8:	80 e0       	ldi	r24, 0x00	; 0
    45ba:	d5 01       	movw	r26, r10
    45bc:	97 96       	adiw	r26, 0x27	; 39
    45be:	8c 93       	st	X, r24
    45c0:	77 cd       	rjmp	.-1298   	; 0x40b0 <__stack+0xb1>
    45c2:	8a 81       	ldd	r24, Y+2	; 0x02
    45c4:	9b 81       	ldd	r25, Y+3	; 0x03
    45c6:	84 0f       	add	r24, r20
    45c8:	95 1f       	adc	r25, r21
    45ca:	8a 83       	std	Y+2, r24	; 0x02
    45cc:	9b 83       	std	Y+3, r25	; 0x03
    45ce:	e6 cf       	rjmp	.-52     	; 0x459c <__stack+0x59d>
    45d0:	a8 88       	ldd	r10, Y+16	; 0x10
    45d2:	b9 88       	ldd	r11, Y+17	; 0x11
    45d4:	12 e0       	ldi	r17, 0x02	; 2
    45d6:	19 83       	std	Y+1, r17	; 0x01
    45d8:	16 ce       	rjmp	.-980    	; 0x4206 <__stack+0x207>
    45da:	84 e0       	ldi	r24, 0x04	; 4
    45dc:	ee cf       	rjmp	.-36     	; 0x45ba <__stack+0x5bb>
    45de:	25 e0       	ldi	r18, 0x05	; 5
    45e0:	82 2f       	mov	r24, r18
    45e2:	3a cd       	rjmp	.-1420   	; 0x4058 <__stack+0x59>
    45e4:	82 fd       	sbrc	r24, 2
    45e6:	0b c0       	rjmp	.+22     	; 0x45fe <__stack+0x5ff>
    45e8:	f5 e0       	ldi	r31, 0x05	; 5
    45ea:	8f 2f       	mov	r24, r31
    45ec:	35 cd       	rjmp	.-1430   	; 0x4058 <__stack+0x59>
    45ee:	22 e0       	ldi	r18, 0x02	; 2
    45f0:	30 e0       	ldi	r19, 0x00	; 0
    45f2:	29 cd       	rjmp	.-1454   	; 0x4046 <__stack+0x47>
    45f4:	a8 88       	ldd	r10, Y+16	; 0x10
    45f6:	b9 88       	ldd	r11, Y+17	; 0x11
    45f8:	21 e0       	ldi	r18, 0x01	; 1
    45fa:	29 83       	std	Y+1, r18	; 0x01
    45fc:	04 ce       	rjmp	.-1016   	; 0x4206 <__stack+0x207>
    45fe:	14 e0       	ldi	r17, 0x04	; 4
    4600:	81 2f       	mov	r24, r17
    4602:	2a cd       	rjmp	.-1452   	; 0x4058 <__stack+0x59>
    4604:	89 81       	ldd	r24, Y+1	; 0x01
    4606:	28 cd       	rjmp	.-1456   	; 0x4058 <__stack+0x59>

00004608 <dir_register>:
    4608:	2f 92       	push	r2
    460a:	3f 92       	push	r3
    460c:	4f 92       	push	r4
    460e:	5f 92       	push	r5
    4610:	6f 92       	push	r6
    4612:	7f 92       	push	r7
    4614:	8f 92       	push	r8
    4616:	9f 92       	push	r9
    4618:	af 92       	push	r10
    461a:	bf 92       	push	r11
    461c:	cf 92       	push	r12
    461e:	df 92       	push	r13
    4620:	ef 92       	push	r14
    4622:	ff 92       	push	r15
    4624:	0f 93       	push	r16
    4626:	1f 93       	push	r17
    4628:	cf 93       	push	r28
    462a:	df 93       	push	r29
    462c:	cd b7       	in	r28, 0x3d	; 61
    462e:	de b7       	in	r29, 0x3e	; 62
    4630:	63 97       	sbiw	r28, 0x13	; 19
    4632:	cd bf       	out	0x3d, r28	; 61
    4634:	de bf       	out	0x3e, r29	; 62
    4636:	3c 01       	movw	r6, r24
    4638:	dc 01       	movw	r26, r24
    463a:	2d 90       	ld	r2, X+
    463c:	3c 90       	ld	r3, X
    463e:	b2 d8       	rcall	.-3740   	; 0x37a4 <dir_sdi.constprop.15>
    4640:	89 83       	std	Y+1, r24	; 0x01
    4642:	81 11       	cpse	r24, r1
    4644:	02 c2       	rjmp	.+1028   	; 0x4a4a <dir_register+0x442>
    4646:	f3 01       	movw	r30, r6
    4648:	c6 88       	ldd	r12, Z+22	; 0x16
    464a:	d7 88       	ldd	r13, Z+23	; 0x17
    464c:	e0 8c       	ldd	r14, Z+24	; 0x18
    464e:	f1 8c       	ldd	r15, Z+25	; 0x19
    4650:	21 01       	movw	r4, r2
    4652:	f3 e3       	ldi	r31, 0x33	; 51
    4654:	4f 0e       	add	r4, r31
    4656:	51 1c       	adc	r5, r1
    4658:	28 8a       	std	Y+16, r2	; 0x10
    465a:	39 8a       	std	Y+17, r3	; 0x11
    465c:	c2 01       	movw	r24, r4
    465e:	16 01       	movw	r2, r12
    4660:	27 01       	movw	r4, r14
    4662:	6c 01       	movw	r12, r24
    4664:	a8 89       	ldd	r26, Y+16	; 0x10
    4666:	b9 89       	ldd	r27, Y+17	; 0x11
    4668:	9f 96       	adiw	r26, 0x2f	; 47
    466a:	8d 90       	ld	r8, X+
    466c:	9d 90       	ld	r9, X+
    466e:	ad 90       	ld	r10, X+
    4670:	bc 90       	ld	r11, X
    4672:	d2 97       	sbiw	r26, 0x32	; 50
    4674:	82 14       	cp	r8, r2
    4676:	93 04       	cpc	r9, r3
    4678:	a4 04       	cpc	r10, r4
    467a:	b5 04       	cpc	r11, r5
    467c:	e1 f1       	breq	.+120    	; 0x46f6 <dir_register+0xee>
    467e:	13 96       	adiw	r26, 0x03	; 3
    4680:	8c 91       	ld	r24, X
    4682:	13 97       	sbiw	r26, 0x03	; 3
    4684:	81 11       	cpse	r24, r1
    4686:	98 c1       	rjmp	.+816    	; 0x49b8 <dir_register+0x3b0>
    4688:	01 e0       	ldi	r16, 0x01	; 1
    468a:	10 e0       	ldi	r17, 0x00	; 0
    468c:	a2 01       	movw	r20, r4
    468e:	91 01       	movw	r18, r2
    4690:	b6 01       	movw	r22, r12
    4692:	a8 89       	ldd	r26, Y+16	; 0x10
    4694:	b9 89       	ldd	r27, Y+17	; 0x11
    4696:	11 96       	adiw	r26, 0x01	; 1
    4698:	8c 91       	ld	r24, X
    469a:	0e 94 59 3b 	call	0x76b2	; 0x76b2 <disk_read>
    469e:	88 23       	and	r24, r24
    46a0:	11 f1       	breq	.+68     	; 0x46e6 <dir_register+0xde>
    46a2:	28 88       	ldd	r2, Y+16	; 0x10
    46a4:	39 88       	ldd	r3, Y+17	; 0x11
    46a6:	8f ef       	ldi	r24, 0xFF	; 255
    46a8:	9f ef       	ldi	r25, 0xFF	; 255
    46aa:	dc 01       	movw	r26, r24
    46ac:	f1 01       	movw	r30, r2
    46ae:	87 a7       	std	Z+47, r24	; 0x2f
    46b0:	90 ab       	std	Z+48, r25	; 0x30
    46b2:	a1 ab       	std	Z+49, r26	; 0x31
    46b4:	b2 ab       	std	Z+50, r27	; 0x32
    46b6:	f1 e0       	ldi	r31, 0x01	; 1
    46b8:	8f 2f       	mov	r24, r31
    46ba:	63 96       	adiw	r28, 0x13	; 19
    46bc:	cd bf       	out	0x3d, r28	; 61
    46be:	de bf       	out	0x3e, r29	; 62
    46c0:	df 91       	pop	r29
    46c2:	cf 91       	pop	r28
    46c4:	1f 91       	pop	r17
    46c6:	0f 91       	pop	r16
    46c8:	ff 90       	pop	r15
    46ca:	ef 90       	pop	r14
    46cc:	df 90       	pop	r13
    46ce:	cf 90       	pop	r12
    46d0:	bf 90       	pop	r11
    46d2:	af 90       	pop	r10
    46d4:	9f 90       	pop	r9
    46d6:	8f 90       	pop	r8
    46d8:	7f 90       	pop	r7
    46da:	6f 90       	pop	r6
    46dc:	5f 90       	pop	r5
    46de:	4f 90       	pop	r4
    46e0:	3f 90       	pop	r3
    46e2:	2f 90       	pop	r2
    46e4:	08 95       	ret
    46e6:	a8 89       	ldd	r26, Y+16	; 0x10
    46e8:	b9 89       	ldd	r27, Y+17	; 0x11
    46ea:	9f 96       	adiw	r26, 0x2f	; 47
    46ec:	2d 92       	st	X+, r2
    46ee:	3d 92       	st	X+, r3
    46f0:	4d 92       	st	X+, r4
    46f2:	5c 92       	st	X, r5
    46f4:	d2 97       	sbiw	r26, 0x32	; 50
    46f6:	d3 01       	movw	r26, r6
    46f8:	5a 96       	adiw	r26, 0x1a	; 26
    46fa:	ed 91       	ld	r30, X+
    46fc:	fc 91       	ld	r31, X
    46fe:	5b 97       	sbiw	r26, 0x1b	; 27
    4700:	80 81       	ld	r24, Z
    4702:	85 3e       	cpi	r24, 0xE5	; 229
    4704:	11 f0       	breq	.+4      	; 0x470a <dir_register+0x102>
    4706:	81 11       	cpse	r24, r1
    4708:	72 c0       	rjmp	.+228    	; 0x47ee <dir_register+0x1e6>
    470a:	28 88       	ldd	r2, Y+16	; 0x10
    470c:	39 88       	ldd	r3, Y+17	; 0x11
    470e:	d3 01       	movw	r26, r6
    4710:	56 96       	adiw	r26, 0x16	; 22
    4712:	8d 90       	ld	r8, X+
    4714:	9d 90       	ld	r9, X+
    4716:	ad 90       	ld	r10, X+
    4718:	bc 90       	ld	r11, X
    471a:	59 97       	sbiw	r26, 0x19	; 25
    471c:	d1 01       	movw	r26, r2
    471e:	9f 96       	adiw	r26, 0x2f	; 47
    4720:	cd 90       	ld	r12, X+
    4722:	dd 90       	ld	r13, X+
    4724:	ed 90       	ld	r14, X+
    4726:	fc 90       	ld	r15, X
    4728:	d2 97       	sbiw	r26, 0x32	; 50
    472a:	8c 14       	cp	r8, r12
    472c:	9d 04       	cpc	r9, r13
    472e:	ae 04       	cpc	r10, r14
    4730:	bf 04       	cpc	r11, r15
    4732:	19 f1       	breq	.+70     	; 0x477a <dir_register+0x172>
    4734:	13 96       	adiw	r26, 0x03	; 3
    4736:	8c 91       	ld	r24, X
    4738:	13 97       	sbiw	r26, 0x03	; 3
    473a:	81 11       	cpse	r24, r1
    473c:	8b c1       	rjmp	.+790    	; 0x4a54 <dir_register+0x44c>
    473e:	81 01       	movw	r16, r2
    4740:	0d 5c       	subi	r16, 0xCD	; 205
    4742:	1f 4f       	sbci	r17, 0xFF	; 255
    4744:	0e 83       	std	Y+6, r16	; 0x06
    4746:	1f 83       	std	Y+7, r17	; 0x07
    4748:	01 e0       	ldi	r16, 0x01	; 1
    474a:	10 e0       	ldi	r17, 0x00	; 0
    474c:	a5 01       	movw	r20, r10
    474e:	94 01       	movw	r18, r8
    4750:	6e 81       	ldd	r22, Y+6	; 0x06
    4752:	7f 81       	ldd	r23, Y+7	; 0x07
    4754:	d1 01       	movw	r26, r2
    4756:	11 96       	adiw	r26, 0x01	; 1
    4758:	8c 91       	ld	r24, X
    475a:	0e 94 59 3b 	call	0x76b2	; 0x76b2 <disk_read>
    475e:	81 11       	cpse	r24, r1
    4760:	a2 cf       	rjmp	.-188    	; 0x46a6 <dir_register+0x9e>
    4762:	d1 01       	movw	r26, r2
    4764:	9f 96       	adiw	r26, 0x2f	; 47
    4766:	8d 92       	st	X+, r8
    4768:	9d 92       	st	X+, r9
    476a:	ad 92       	st	X+, r10
    476c:	bc 92       	st	X, r11
    476e:	d2 97       	sbiw	r26, 0x32	; 50
    4770:	d3 01       	movw	r26, r6
    4772:	5a 96       	adiw	r26, 0x1a	; 26
    4774:	ed 91       	ld	r30, X+
    4776:	fc 91       	ld	r31, X
    4778:	5b 97       	sbiw	r26, 0x1b	; 27
    477a:	80 e2       	ldi	r24, 0x20	; 32
    477c:	df 01       	movw	r26, r30
    477e:	1d 92       	st	X+, r1
    4780:	8a 95       	dec	r24
    4782:	e9 f7       	brne	.-6      	; 0x477e <dir_register+0x176>
    4784:	d3 01       	movw	r26, r6
    4786:	5a 96       	adiw	r26, 0x1a	; 26
    4788:	ed 91       	ld	r30, X+
    478a:	fc 91       	ld	r31, X
    478c:	5b 97       	sbiw	r26, 0x1b	; 27
    478e:	5c 96       	adiw	r26, 0x1c	; 28
    4790:	8c 91       	ld	r24, X
    4792:	5c 97       	sbiw	r26, 0x1c	; 28
    4794:	80 83       	st	Z, r24
    4796:	5d 96       	adiw	r26, 0x1d	; 29
    4798:	8c 91       	ld	r24, X
    479a:	5d 97       	sbiw	r26, 0x1d	; 29
    479c:	81 83       	std	Z+1, r24	; 0x01
    479e:	5e 96       	adiw	r26, 0x1e	; 30
    47a0:	8c 91       	ld	r24, X
    47a2:	5e 97       	sbiw	r26, 0x1e	; 30
    47a4:	82 83       	std	Z+2, r24	; 0x02
    47a6:	5f 96       	adiw	r26, 0x1f	; 31
    47a8:	8c 91       	ld	r24, X
    47aa:	5f 97       	sbiw	r26, 0x1f	; 31
    47ac:	83 83       	std	Z+3, r24	; 0x03
    47ae:	90 96       	adiw	r26, 0x20	; 32
    47b0:	8c 91       	ld	r24, X
    47b2:	90 97       	sbiw	r26, 0x20	; 32
    47b4:	84 83       	std	Z+4, r24	; 0x04
    47b6:	91 96       	adiw	r26, 0x21	; 33
    47b8:	8c 91       	ld	r24, X
    47ba:	91 97       	sbiw	r26, 0x21	; 33
    47bc:	85 83       	std	Z+5, r24	; 0x05
    47be:	92 96       	adiw	r26, 0x22	; 34
    47c0:	8c 91       	ld	r24, X
    47c2:	92 97       	sbiw	r26, 0x22	; 34
    47c4:	86 83       	std	Z+6, r24	; 0x06
    47c6:	93 96       	adiw	r26, 0x23	; 35
    47c8:	8c 91       	ld	r24, X
    47ca:	93 97       	sbiw	r26, 0x23	; 35
    47cc:	87 83       	std	Z+7, r24	; 0x07
    47ce:	94 96       	adiw	r26, 0x24	; 36
    47d0:	8c 91       	ld	r24, X
    47d2:	94 97       	sbiw	r26, 0x24	; 36
    47d4:	80 87       	std	Z+8, r24	; 0x08
    47d6:	95 96       	adiw	r26, 0x25	; 37
    47d8:	8c 91       	ld	r24, X
    47da:	95 97       	sbiw	r26, 0x25	; 37
    47dc:	81 87       	std	Z+9, r24	; 0x09
    47de:	96 96       	adiw	r26, 0x26	; 38
    47e0:	8c 91       	ld	r24, X
    47e2:	82 87       	std	Z+10, r24	; 0x0a
    47e4:	81 e0       	ldi	r24, 0x01	; 1
    47e6:	f1 01       	movw	r30, r2
    47e8:	83 83       	std	Z+3, r24	; 0x03
    47ea:	89 81       	ldd	r24, Y+1	; 0x01
    47ec:	66 cf       	rjmp	.-308    	; 0x46ba <dir_register+0xb2>
    47ee:	ed 90       	ld	r14, X+
    47f0:	fc 90       	ld	r15, X
    47f2:	11 97       	sbiw	r26, 0x01	; 1
    47f4:	1e 96       	adiw	r26, 0x0e	; 14
    47f6:	8d 90       	ld	r8, X+
    47f8:	9d 90       	ld	r9, X+
    47fa:	ad 90       	ld	r10, X+
    47fc:	bc 90       	ld	r11, X
    47fe:	51 97       	sbiw	r26, 0x11	; 17
    4800:	56 96       	adiw	r26, 0x16	; 22
    4802:	2d 90       	ld	r2, X+
    4804:	3d 90       	ld	r3, X+
    4806:	4d 90       	ld	r4, X+
    4808:	5c 90       	ld	r5, X
    480a:	59 97       	sbiw	r26, 0x19	; 25
    480c:	21 14       	cp	r2, r1
    480e:	31 04       	cpc	r3, r1
    4810:	41 04       	cpc	r4, r1
    4812:	51 04       	cpc	r5, r1
    4814:	19 f4       	brne	.+6      	; 0x481c <dir_register+0x214>
    4816:	e7 e0       	ldi	r30, 0x07	; 7
    4818:	8e 2f       	mov	r24, r30
    481a:	4f cf       	rjmp	.-354    	; 0x46ba <dir_register+0xb2>
    481c:	b0 e2       	ldi	r27, 0x20	; 32
    481e:	8b 0e       	add	r8, r27
    4820:	91 1c       	adc	r9, r1
    4822:	a1 1c       	adc	r10, r1
    4824:	b1 1c       	adc	r11, r1
    4826:	81 14       	cp	r8, r1
    4828:	91 04       	cpc	r9, r1
    482a:	e0 e2       	ldi	r30, 0x20	; 32
    482c:	ae 06       	cpc	r10, r30
    482e:	b1 04       	cpc	r11, r1
    4830:	90 f7       	brcc	.-28     	; 0x4816 <dir_register+0x20e>
    4832:	d5 01       	movw	r26, r10
    4834:	c4 01       	movw	r24, r8
    4836:	91 70       	andi	r25, 0x01	; 1
    4838:	aa 27       	eor	r26, r26
    483a:	bb 27       	eor	r27, r27
    483c:	89 2b       	or	r24, r25
    483e:	8a 2b       	or	r24, r26
    4840:	8b 2b       	or	r24, r27
    4842:	09 f0       	breq	.+2      	; 0x4846 <dir_register+0x23e>
    4844:	a7 c0       	rjmp	.+334    	; 0x4994 <dir_register+0x38c>
    4846:	ff ef       	ldi	r31, 0xFF	; 255
    4848:	2f 1a       	sub	r2, r31
    484a:	3f 0a       	sbc	r3, r31
    484c:	4f 0a       	sbc	r4, r31
    484e:	5f 0a       	sbc	r5, r31
    4850:	d3 01       	movw	r26, r6
    4852:	56 96       	adiw	r26, 0x16	; 22
    4854:	2d 92       	st	X+, r2
    4856:	3d 92       	st	X+, r3
    4858:	4d 92       	st	X+, r4
    485a:	5c 92       	st	X, r5
    485c:	59 97       	sbiw	r26, 0x19	; 25
    485e:	52 96       	adiw	r26, 0x12	; 18
    4860:	8d 91       	ld	r24, X+
    4862:	9d 91       	ld	r25, X+
    4864:	0d 90       	ld	r0, X+
    4866:	bc 91       	ld	r27, X
    4868:	a0 2d       	mov	r26, r0
    486a:	f7 01       	movw	r30, r14
    486c:	00 97       	sbiw	r24, 0x00	; 0
    486e:	a1 05       	cpc	r26, r1
    4870:	b1 05       	cpc	r27, r1
    4872:	d9 f4       	brne	.+54     	; 0x48aa <dir_register+0x2a2>
    4874:	87 81       	ldd	r24, Z+7	; 0x07
    4876:	90 85       	ldd	r25, Z+8	; 0x08
    4878:	a0 e0       	ldi	r26, 0x00	; 0
    487a:	b0 e0       	ldi	r27, 0x00	; 0
    487c:	b5 01       	movw	r22, r10
    487e:	a4 01       	movw	r20, r8
    4880:	e5 e0       	ldi	r30, 0x05	; 5
    4882:	76 95       	lsr	r23
    4884:	67 95       	ror	r22
    4886:	57 95       	ror	r21
    4888:	47 95       	ror	r20
    488a:	ea 95       	dec	r30
    488c:	d1 f7       	brne	.-12     	; 0x4882 <dir_register+0x27a>
    488e:	48 17       	cp	r20, r24
    4890:	59 07       	cpc	r21, r25
    4892:	6a 07       	cpc	r22, r26
    4894:	7b 07       	cpc	r23, r27
    4896:	08 f4       	brcc	.+2      	; 0x489a <dir_register+0x292>
    4898:	7d c0       	rjmp	.+250    	; 0x4994 <dir_register+0x38c>
    489a:	d3 01       	movw	r26, r6
    489c:	56 96       	adiw	r26, 0x16	; 22
    489e:	1d 92       	st	X+, r1
    48a0:	1d 92       	st	X+, r1
    48a2:	1d 92       	st	X+, r1
    48a4:	1c 92       	st	X, r1
    48a6:	59 97       	sbiw	r26, 0x19	; 25
    48a8:	b6 cf       	rjmp	.-148    	; 0x4816 <dir_register+0x20e>
    48aa:	61 85       	ldd	r22, Z+9	; 0x09
    48ac:	72 85       	ldd	r23, Z+10	; 0x0a
    48ae:	61 50       	subi	r22, 0x01	; 1
    48b0:	71 09       	sbc	r23, r1
    48b2:	8b 01       	movw	r16, r22
    48b4:	20 e0       	ldi	r18, 0x00	; 0
    48b6:	30 e0       	ldi	r19, 0x00	; 0
    48b8:	0a 83       	std	Y+2, r16	; 0x02
    48ba:	1b 83       	std	Y+3, r17	; 0x03
    48bc:	2c 83       	std	Y+4, r18	; 0x04
    48be:	3d 83       	std	Y+5, r19	; 0x05
    48c0:	95 01       	movw	r18, r10
    48c2:	84 01       	movw	r16, r8
    48c4:	49 e0       	ldi	r20, 0x09	; 9
    48c6:	36 95       	lsr	r19
    48c8:	27 95       	ror	r18
    48ca:	17 95       	ror	r17
    48cc:	07 95       	ror	r16
    48ce:	4a 95       	dec	r20
    48d0:	d1 f7       	brne	.-12     	; 0x48c6 <dir_register+0x2be>
    48d2:	4a 81       	ldd	r20, Y+2	; 0x02
    48d4:	5b 81       	ldd	r21, Y+3	; 0x03
    48d6:	6c 81       	ldd	r22, Y+4	; 0x04
    48d8:	7d 81       	ldd	r23, Y+5	; 0x05
    48da:	40 23       	and	r20, r16
    48dc:	51 23       	and	r21, r17
    48de:	62 23       	and	r22, r18
    48e0:	73 23       	and	r23, r19
    48e2:	4a 83       	std	Y+2, r20	; 0x02
    48e4:	5b 83       	std	Y+3, r21	; 0x03
    48e6:	6c 83       	std	Y+4, r22	; 0x04
    48e8:	7d 83       	std	Y+5, r23	; 0x05
    48ea:	45 2b       	or	r20, r21
    48ec:	46 2b       	or	r20, r22
    48ee:	47 2b       	or	r20, r23
    48f0:	09 f0       	breq	.+2      	; 0x48f4 <dir_register+0x2ec>
    48f2:	50 c0       	rjmp	.+160    	; 0x4994 <dir_register+0x38c>
    48f4:	ac 01       	movw	r20, r24
    48f6:	bd 01       	movw	r22, r26
    48f8:	c7 01       	movw	r24, r14
    48fa:	0e 94 6c 14 	call	0x28d8	; 0x28d8 <get_fat.isra.8>
    48fe:	1b 01       	movw	r2, r22
    4900:	2c 01       	movw	r4, r24
    4902:	62 30       	cpi	r22, 0x02	; 2
    4904:	71 05       	cpc	r23, r1
    4906:	81 05       	cpc	r24, r1
    4908:	91 05       	cpc	r25, r1
    490a:	08 f4       	brcc	.+2      	; 0x490e <dir_register+0x306>
    490c:	fe c0       	rjmp	.+508    	; 0x4b0a <dir_register+0x502>
    490e:	7f ef       	ldi	r23, 0xFF	; 255
    4910:	27 16       	cp	r2, r23
    4912:	37 06       	cpc	r3, r23
    4914:	47 06       	cpc	r4, r23
    4916:	57 06       	cpc	r5, r23
    4918:	09 f4       	brne	.+2      	; 0x491c <dir_register+0x314>
    491a:	13 c1       	rjmp	.+550    	; 0x4b42 <dir_register+0x53a>
    491c:	f7 01       	movw	r30, r14
    491e:	87 89       	ldd	r24, Z+23	; 0x17
    4920:	90 8d       	ldd	r25, Z+24	; 0x18
    4922:	a1 8d       	ldd	r26, Z+25	; 0x19
    4924:	b2 8d       	ldd	r27, Z+26	; 0x1a
    4926:	28 16       	cp	r2, r24
    4928:	39 06       	cpc	r3, r25
    492a:	4a 06       	cpc	r4, r26
    492c:	5b 06       	cpc	r5, r27
    492e:	08 f0       	brcs	.+2      	; 0x4932 <dir_register+0x32a>
    4930:	ef c0       	rjmp	.+478    	; 0x4b10 <dir_register+0x508>
    4932:	a2 01       	movw	r20, r4
    4934:	91 01       	movw	r18, r2
    4936:	22 50       	subi	r18, 0x02	; 2
    4938:	31 09       	sbc	r19, r1
    493a:	41 09       	sbc	r20, r1
    493c:	51 09       	sbc	r21, r1
    493e:	f3 01       	movw	r30, r6
    4940:	22 8a       	std	Z+18, r2	; 0x12
    4942:	33 8a       	std	Z+19, r3	; 0x13
    4944:	44 8a       	std	Z+20, r4	; 0x14
    4946:	55 8a       	std	Z+21, r5	; 0x15
    4948:	02 97       	sbiw	r24, 0x02	; 2
    494a:	a1 09       	sbc	r26, r1
    494c:	b1 09       	sbc	r27, r1
    494e:	28 17       	cp	r18, r24
    4950:	39 07       	cpc	r19, r25
    4952:	4a 07       	cpc	r20, r26
    4954:	5b 07       	cpc	r21, r27
    4956:	98 f4       	brcc	.+38     	; 0x497e <dir_register+0x376>
    4958:	f7 01       	movw	r30, r14
    495a:	a1 85       	ldd	r26, Z+9	; 0x09
    495c:	b2 85       	ldd	r27, Z+10	; 0x0a
    495e:	0e 94 1d 44 	call	0x883a	; 0x883a <__muluhisi3>
    4962:	03 a5       	ldd	r16, Z+43	; 0x2b
    4964:	14 a5       	ldd	r17, Z+44	; 0x2c
    4966:	25 a5       	ldd	r18, Z+45	; 0x2d
    4968:	36 a5       	ldd	r19, Z+46	; 0x2e
    496a:	1b 01       	movw	r2, r22
    496c:	2c 01       	movw	r4, r24
    496e:	20 0e       	add	r2, r16
    4970:	31 1e       	adc	r3, r17
    4972:	42 1e       	adc	r4, r18
    4974:	53 1e       	adc	r5, r19
    4976:	2a 82       	std	Y+2, r2	; 0x02
    4978:	3b 82       	std	Y+3, r3	; 0x03
    497a:	4c 82       	std	Y+4, r4	; 0x04
    497c:	5d 82       	std	Y+5, r5	; 0x05
    497e:	2a 80       	ldd	r2, Y+2	; 0x02
    4980:	3b 80       	ldd	r3, Y+3	; 0x03
    4982:	4c 80       	ldd	r4, Y+4	; 0x04
    4984:	5d 80       	ldd	r5, Y+5	; 0x05
    4986:	d3 01       	movw	r26, r6
    4988:	56 96       	adiw	r26, 0x16	; 22
    498a:	2d 92       	st	X+, r2
    498c:	3d 92       	st	X+, r3
    498e:	4d 92       	st	X+, r4
    4990:	5c 92       	st	X, r5
    4992:	59 97       	sbiw	r26, 0x19	; 25
    4994:	f3 01       	movw	r30, r6
    4996:	86 86       	std	Z+14, r8	; 0x0e
    4998:	97 86       	std	Z+15, r9	; 0x0f
    499a:	a0 8a       	std	Z+16, r10	; 0x10
    499c:	b1 8a       	std	Z+17, r11	; 0x11
    499e:	f1 e0       	ldi	r31, 0x01	; 1
    49a0:	9f 22       	and	r9, r31
    49a2:	03 e3       	ldi	r16, 0x33	; 51
    49a4:	80 0e       	add	r8, r16
    49a6:	91 1c       	adc	r9, r1
    49a8:	e8 0c       	add	r14, r8
    49aa:	f9 1c       	adc	r15, r9
    49ac:	d3 01       	movw	r26, r6
    49ae:	5a 96       	adiw	r26, 0x1a	; 26
    49b0:	ed 92       	st	X+, r14
    49b2:	fc 92       	st	X, r15
    49b4:	5b 97       	sbiw	r26, 0x1b	; 27
    49b6:	56 ce       	rjmp	.-852    	; 0x4664 <dir_register+0x5c>
    49b8:	01 e0       	ldi	r16, 0x01	; 1
    49ba:	10 e0       	ldi	r17, 0x00	; 0
    49bc:	a5 01       	movw	r20, r10
    49be:	94 01       	movw	r18, r8
    49c0:	b6 01       	movw	r22, r12
    49c2:	11 96       	adiw	r26, 0x01	; 1
    49c4:	8c 91       	ld	r24, X
    49c6:	0e 94 6d 3b 	call	0x76da	; 0x76da <disk_write>
    49ca:	81 11       	cpse	r24, r1
    49cc:	3b c0       	rjmp	.+118    	; 0x4a44 <dir_register+0x43c>
    49ce:	e8 89       	ldd	r30, Y+16	; 0x10
    49d0:	f9 89       	ldd	r31, Y+17	; 0x11
    49d2:	13 82       	std	Z+3, r1	; 0x03
    49d4:	83 8d       	ldd	r24, Z+27	; 0x1b
    49d6:	94 8d       	ldd	r25, Z+28	; 0x1c
    49d8:	a5 8d       	ldd	r26, Z+29	; 0x1d
    49da:	b6 8d       	ldd	r27, Z+30	; 0x1e
    49dc:	43 a1       	ldd	r20, Z+35	; 0x23
    49de:	54 a1       	ldd	r21, Z+36	; 0x24
    49e0:	65 a1       	ldd	r22, Z+37	; 0x25
    49e2:	76 a1       	ldd	r23, Z+38	; 0x26
    49e4:	95 01       	movw	r18, r10
    49e6:	84 01       	movw	r16, r8
    49e8:	04 1b       	sub	r16, r20
    49ea:	15 0b       	sbc	r17, r21
    49ec:	26 0b       	sbc	r18, r22
    49ee:	37 0b       	sbc	r19, r23
    49f0:	08 17       	cp	r16, r24
    49f2:	19 07       	cpc	r17, r25
    49f4:	2a 07       	cpc	r18, r26
    49f6:	3b 07       	cpc	r19, r27
    49f8:	08 f0       	brcs	.+2      	; 0x49fc <dir_register+0x3f4>
    49fa:	46 ce       	rjmp	.-884    	; 0x4688 <dir_register+0x80>
    49fc:	e2 80       	ldd	r14, Z+2	; 0x02
    49fe:	f1 2c       	mov	r15, r1
    4a00:	12 e0       	ldi	r17, 0x02	; 2
    4a02:	e1 16       	cp	r14, r17
    4a04:	f1 04       	cpc	r15, r1
    4a06:	38 f4       	brcc	.+14     	; 0x4a16 <dir_register+0x40e>
    4a08:	3f ce       	rjmp	.-898    	; 0x4688 <dir_register+0x80>
    4a0a:	e8 89       	ldd	r30, Y+16	; 0x10
    4a0c:	f9 89       	ldd	r31, Y+17	; 0x11
    4a0e:	83 8d       	ldd	r24, Z+27	; 0x1b
    4a10:	94 8d       	ldd	r25, Z+28	; 0x1c
    4a12:	a5 8d       	ldd	r26, Z+29	; 0x1d
    4a14:	b6 8d       	ldd	r27, Z+30	; 0x1e
    4a16:	88 0e       	add	r8, r24
    4a18:	99 1e       	adc	r9, r25
    4a1a:	aa 1e       	adc	r10, r26
    4a1c:	bb 1e       	adc	r11, r27
    4a1e:	01 e0       	ldi	r16, 0x01	; 1
    4a20:	10 e0       	ldi	r17, 0x00	; 0
    4a22:	a5 01       	movw	r20, r10
    4a24:	94 01       	movw	r18, r8
    4a26:	b6 01       	movw	r22, r12
    4a28:	a8 89       	ldd	r26, Y+16	; 0x10
    4a2a:	b9 89       	ldd	r27, Y+17	; 0x11
    4a2c:	11 96       	adiw	r26, 0x01	; 1
    4a2e:	8c 91       	ld	r24, X
    4a30:	0e 94 6d 3b 	call	0x76da	; 0x76da <disk_write>
    4a34:	b1 e0       	ldi	r27, 0x01	; 1
    4a36:	eb 1a       	sub	r14, r27
    4a38:	f1 08       	sbc	r15, r1
    4a3a:	e1 e0       	ldi	r30, 0x01	; 1
    4a3c:	ee 16       	cp	r14, r30
    4a3e:	f1 04       	cpc	r15, r1
    4a40:	21 f7       	brne	.-56     	; 0x4a0a <dir_register+0x402>
    4a42:	22 ce       	rjmp	.-956    	; 0x4688 <dir_register+0x80>
    4a44:	b1 e0       	ldi	r27, 0x01	; 1
    4a46:	8b 2f       	mov	r24, r27
    4a48:	38 ce       	rjmp	.-912    	; 0x46ba <dir_register+0xb2>
    4a4a:	84 30       	cpi	r24, 0x04	; 4
    4a4c:	09 f4       	brne	.+2      	; 0x4a50 <dir_register+0x448>
    4a4e:	e3 ce       	rjmp	.-570    	; 0x4816 <dir_register+0x20e>
    4a50:	89 81       	ldd	r24, Y+1	; 0x01
    4a52:	33 ce       	rjmp	.-922    	; 0x46ba <dir_register+0xb2>
    4a54:	f1 01       	movw	r30, r2
    4a56:	f3 96       	adiw	r30, 0x33	; 51
    4a58:	ee 83       	std	Y+6, r30	; 0x06
    4a5a:	ff 83       	std	Y+7, r31	; 0x07
    4a5c:	01 e0       	ldi	r16, 0x01	; 1
    4a5e:	10 e0       	ldi	r17, 0x00	; 0
    4a60:	a7 01       	movw	r20, r14
    4a62:	96 01       	movw	r18, r12
    4a64:	bf 01       	movw	r22, r30
    4a66:	11 96       	adiw	r26, 0x01	; 1
    4a68:	8c 91       	ld	r24, X
    4a6a:	0e 94 6d 3b 	call	0x76da	; 0x76da <disk_write>
    4a6e:	81 11       	cpse	r24, r1
    4a70:	22 ce       	rjmp	.-956    	; 0x46b6 <dir_register+0xae>
    4a72:	f1 01       	movw	r30, r2
    4a74:	13 82       	std	Z+3, r1	; 0x03
    4a76:	83 8d       	ldd	r24, Z+27	; 0x1b
    4a78:	94 8d       	ldd	r25, Z+28	; 0x1c
    4a7a:	a5 8d       	ldd	r26, Z+29	; 0x1d
    4a7c:	b6 8d       	ldd	r27, Z+30	; 0x1e
    4a7e:	43 a1       	ldd	r20, Z+35	; 0x23
    4a80:	54 a1       	ldd	r21, Z+36	; 0x24
    4a82:	65 a1       	ldd	r22, Z+37	; 0x25
    4a84:	76 a1       	ldd	r23, Z+38	; 0x26
    4a86:	97 01       	movw	r18, r14
    4a88:	86 01       	movw	r16, r12
    4a8a:	04 1b       	sub	r16, r20
    4a8c:	15 0b       	sbc	r17, r21
    4a8e:	26 0b       	sbc	r18, r22
    4a90:	37 0b       	sbc	r19, r23
    4a92:	08 17       	cp	r16, r24
    4a94:	19 07       	cpc	r17, r25
    4a96:	2a 07       	cpc	r18, r26
    4a98:	3b 07       	cpc	r19, r27
    4a9a:	08 f0       	brcs	.+2      	; 0x4a9e <dir_register+0x496>
    4a9c:	55 ce       	rjmp	.-854    	; 0x4748 <dir_register+0x140>
    4a9e:	22 81       	ldd	r18, Z+2	; 0x02
    4aa0:	42 2e       	mov	r4, r18
    4aa2:	51 2c       	mov	r5, r1
    4aa4:	12 e0       	ldi	r17, 0x02	; 2
    4aa6:	41 16       	cp	r4, r17
    4aa8:	51 04       	cpc	r5, r1
    4aaa:	08 f4       	brcc	.+2      	; 0x4aae <dir_register+0x4a6>
    4aac:	4d ce       	rjmp	.-870    	; 0x4748 <dir_register+0x140>
    4aae:	8a 82       	std	Y+2, r8	; 0x02
    4ab0:	9b 82       	std	Y+3, r9	; 0x03
    4ab2:	ac 82       	std	Y+4, r10	; 0x04
    4ab4:	bd 82       	std	Y+5, r11	; 0x05
    4ab6:	46 01       	movw	r8, r12
    4ab8:	57 01       	movw	r10, r14
    4aba:	ee 80       	ldd	r14, Y+6	; 0x06
    4abc:	ff 80       	ldd	r15, Y+7	; 0x07
    4abe:	61 01       	movw	r12, r2
    4ac0:	13 01       	movw	r2, r6
    4ac2:	05 c0       	rjmp	.+10     	; 0x4ace <dir_register+0x4c6>
    4ac4:	f6 01       	movw	r30, r12
    4ac6:	83 8d       	ldd	r24, Z+27	; 0x1b
    4ac8:	94 8d       	ldd	r25, Z+28	; 0x1c
    4aca:	a5 8d       	ldd	r26, Z+29	; 0x1d
    4acc:	b6 8d       	ldd	r27, Z+30	; 0x1e
    4ace:	88 0e       	add	r8, r24
    4ad0:	99 1e       	adc	r9, r25
    4ad2:	aa 1e       	adc	r10, r26
    4ad4:	bb 1e       	adc	r11, r27
    4ad6:	01 e0       	ldi	r16, 0x01	; 1
    4ad8:	10 e0       	ldi	r17, 0x00	; 0
    4ada:	a5 01       	movw	r20, r10
    4adc:	94 01       	movw	r18, r8
    4ade:	b7 01       	movw	r22, r14
    4ae0:	d6 01       	movw	r26, r12
    4ae2:	11 96       	adiw	r26, 0x01	; 1
    4ae4:	8c 91       	ld	r24, X
    4ae6:	0e 94 6d 3b 	call	0x76da	; 0x76da <disk_write>
    4aea:	b1 e0       	ldi	r27, 0x01	; 1
    4aec:	4b 1a       	sub	r4, r27
    4aee:	51 08       	sbc	r5, r1
    4af0:	e1 e0       	ldi	r30, 0x01	; 1
    4af2:	4e 16       	cp	r4, r30
    4af4:	51 04       	cpc	r5, r1
    4af6:	31 f7       	brne	.-52     	; 0x4ac4 <dir_register+0x4bc>
    4af8:	8a 80       	ldd	r8, Y+2	; 0x02
    4afa:	9b 80       	ldd	r9, Y+3	; 0x03
    4afc:	ac 80       	ldd	r10, Y+4	; 0x04
    4afe:	bd 80       	ldd	r11, Y+5	; 0x05
    4b00:	31 01       	movw	r6, r2
    4b02:	16 01       	movw	r2, r12
    4b04:	ee 82       	std	Y+6, r14	; 0x06
    4b06:	ff 82       	std	Y+7, r15	; 0x07
    4b08:	1f ce       	rjmp	.-962    	; 0x4748 <dir_register+0x140>
    4b0a:	62 e0       	ldi	r22, 0x02	; 2
    4b0c:	86 2f       	mov	r24, r22
    4b0e:	d5 cd       	rjmp	.-1110   	; 0x46ba <dir_register+0xb2>
    4b10:	d3 01       	movw	r26, r6
    4b12:	52 96       	adiw	r26, 0x12	; 18
    4b14:	4d 91       	ld	r20, X+
    4b16:	5d 91       	ld	r21, X+
    4b18:	6d 91       	ld	r22, X+
    4b1a:	7c 91       	ld	r23, X
    4b1c:	55 97       	sbiw	r26, 0x15	; 21
    4b1e:	c3 01       	movw	r24, r6
    4b20:	0e 94 73 17 	call	0x2ee6	; 0x2ee6 <create_chain>
    4b24:	1b 01       	movw	r2, r22
    4b26:	2c 01       	movw	r4, r24
    4b28:	61 15       	cp	r22, r1
    4b2a:	71 05       	cpc	r23, r1
    4b2c:	81 05       	cpc	r24, r1
    4b2e:	91 05       	cpc	r25, r1
    4b30:	51 f4       	brne	.+20     	; 0x4b46 <dir_register+0x53e>
    4b32:	b7 e0       	ldi	r27, 0x07	; 7
    4b34:	8b 2f       	mov	r24, r27
    4b36:	c1 cd       	rjmp	.-1150   	; 0x46ba <dir_register+0xb2>
    4b38:	c7 01       	movw	r24, r14
    4b3a:	0e 94 84 09 	call	0x1308	; 0x1308 <sync_window.part.5>
    4b3e:	88 23       	and	r24, r24
    4b40:	89 f0       	breq	.+34     	; 0x4b64 <dir_register+0x55c>
    4b42:	81 e0       	ldi	r24, 0x01	; 1
    4b44:	ba cd       	rjmp	.-1164   	; 0x46ba <dir_register+0xb2>
    4b46:	61 30       	cpi	r22, 0x01	; 1
    4b48:	71 05       	cpc	r23, r1
    4b4a:	81 05       	cpc	r24, r1
    4b4c:	91 05       	cpc	r25, r1
    4b4e:	e9 f2       	breq	.-70     	; 0x4b0a <dir_register+0x502>
    4b50:	6f 3f       	cpi	r22, 0xFF	; 255
    4b52:	7f 4f       	sbci	r23, 0xFF	; 255
    4b54:	8f 4f       	sbci	r24, 0xFF	; 255
    4b56:	9f 4f       	sbci	r25, 0xFF	; 255
    4b58:	a1 f3       	breq	.-24     	; 0x4b42 <dir_register+0x53a>
    4b5a:	d7 01       	movw	r26, r14
    4b5c:	13 96       	adiw	r26, 0x03	; 3
    4b5e:	8c 91       	ld	r24, X
    4b60:	81 11       	cpse	r24, r1
    4b62:	ea cf       	rjmp	.-44     	; 0x4b38 <dir_register+0x530>
    4b64:	f7 01       	movw	r30, r14
    4b66:	f3 96       	adiw	r30, 0x33	; 51
    4b68:	df 01       	movw	r26, r30
    4b6a:	00 e0       	ldi	r16, 0x00	; 0
    4b6c:	12 e0       	ldi	r17, 0x02	; 2
    4b6e:	1d 92       	st	X+, r1
    4b70:	01 50       	subi	r16, 0x01	; 1
    4b72:	10 40       	sbci	r17, 0x00	; 0
    4b74:	e1 f7       	brne	.-8      	; 0x4b6e <dir_register+0x566>
    4b76:	a2 01       	movw	r20, r4
    4b78:	91 01       	movw	r18, r2
    4b7a:	22 50       	subi	r18, 0x02	; 2
    4b7c:	31 09       	sbc	r19, r1
    4b7e:	41 09       	sbc	r20, r1
    4b80:	51 09       	sbc	r21, r1
    4b82:	2e 83       	std	Y+6, r18	; 0x06
    4b84:	3f 83       	std	Y+7, r19	; 0x07
    4b86:	48 87       	std	Y+8, r20	; 0x08
    4b88:	59 87       	std	Y+9, r21	; 0x09
    4b8a:	d7 01       	movw	r26, r14
    4b8c:	57 96       	adiw	r26, 0x17	; 23
    4b8e:	0d 91       	ld	r16, X+
    4b90:	1d 91       	ld	r17, X+
    4b92:	2d 91       	ld	r18, X+
    4b94:	3c 91       	ld	r19, X
    4b96:	5a 97       	sbiw	r26, 0x1a	; 26
    4b98:	0a 87       	std	Y+10, r16	; 0x0a
    4b9a:	1b 87       	std	Y+11, r17	; 0x0b
    4b9c:	2c 87       	std	Y+12, r18	; 0x0c
    4b9e:	3d 87       	std	Y+13, r19	; 0x0d
    4ba0:	d9 01       	movw	r26, r18
    4ba2:	c8 01       	movw	r24, r16
    4ba4:	02 97       	sbiw	r24, 0x02	; 2
    4ba6:	a1 09       	sbc	r26, r1
    4ba8:	b1 09       	sbc	r27, r1
    4baa:	0e 81       	ldd	r16, Y+6	; 0x06
    4bac:	1f 81       	ldd	r17, Y+7	; 0x07
    4bae:	28 85       	ldd	r18, Y+8	; 0x08
    4bb0:	39 85       	ldd	r19, Y+9	; 0x09
    4bb2:	08 17       	cp	r16, r24
    4bb4:	19 07       	cpc	r17, r25
    4bb6:	2a 07       	cpc	r18, r26
    4bb8:	3b 07       	cpc	r19, r27
    4bba:	08 f4       	brcc	.+2      	; 0x4bbe <dir_register+0x5b6>
    4bbc:	5a c0       	rjmp	.+180    	; 0x4c72 <dir_register+0x66a>
    4bbe:	d7 01       	movw	r26, r14
    4bc0:	19 96       	adiw	r26, 0x09	; 9
    4bc2:	0d 90       	ld	r0, X+
    4bc4:	bc 91       	ld	r27, X
    4bc6:	a0 2d       	mov	r26, r0
    4bc8:	ae 87       	std	Y+14, r26	; 0x0e
    4bca:	bf 87       	std	Y+15, r27	; 0x0f
    4bcc:	80 e0       	ldi	r24, 0x00	; 0
    4bce:	90 e0       	ldi	r25, 0x00	; 0
    4bd0:	dc 01       	movw	r26, r24
    4bd2:	0e 85       	ldd	r16, Y+14	; 0x0e
    4bd4:	1f 85       	ldd	r17, Y+15	; 0x0f
    4bd6:	f7 01       	movw	r30, r14
    4bd8:	87 a7       	std	Z+47, r24	; 0x2f
    4bda:	90 ab       	std	Z+48, r25	; 0x30
    4bdc:	a1 ab       	std	Z+49, r26	; 0x31
    4bde:	b2 ab       	std	Z+50, r27	; 0x32
    4be0:	01 2b       	or	r16, r17
    4be2:	09 f4       	brne	.+2      	; 0x4be6 <dir_register+0x5de>
    4be4:	62 c0       	rjmp	.+196    	; 0x4caa <dir_register+0x6a2>
    4be6:	00 e0       	ldi	r16, 0x00	; 0
    4be8:	10 e0       	ldi	r17, 0x00	; 0
    4bea:	e8 88       	ldd	r14, Y+16	; 0x10
    4bec:	f9 88       	ldd	r15, Y+17	; 0x11
    4bee:	af 01       	movw	r20, r30
    4bf0:	13 c0       	rjmp	.+38     	; 0x4c18 <dir_register+0x610>
    4bf2:	0f 5f       	subi	r16, 0xFF	; 255
    4bf4:	1f 4f       	sbci	r17, 0xFF	; 255
    4bf6:	fa 01       	movw	r30, r20
    4bf8:	87 a5       	ldd	r24, Z+47	; 0x2f
    4bfa:	90 a9       	ldd	r25, Z+48	; 0x30
    4bfc:	a1 a9       	ldd	r26, Z+49	; 0x31
    4bfe:	b2 a9       	ldd	r27, Z+50	; 0x32
    4c00:	01 96       	adiw	r24, 0x01	; 1
    4c02:	a1 1d       	adc	r26, r1
    4c04:	b1 1d       	adc	r27, r1
    4c06:	87 a7       	std	Z+47, r24	; 0x2f
    4c08:	90 ab       	std	Z+48, r25	; 0x30
    4c0a:	a1 ab       	std	Z+49, r26	; 0x31
    4c0c:	b2 ab       	std	Z+50, r27	; 0x32
    4c0e:	21 85       	ldd	r18, Z+9	; 0x09
    4c10:	32 85       	ldd	r19, Z+10	; 0x0a
    4c12:	02 17       	cp	r16, r18
    4c14:	13 07       	cpc	r17, r19
    4c16:	78 f4       	brcc	.+30     	; 0x4c36 <dir_register+0x62e>
    4c18:	e1 e0       	ldi	r30, 0x01	; 1
    4c1a:	da 01       	movw	r26, r20
    4c1c:	13 96       	adiw	r26, 0x03	; 3
    4c1e:	ec 93       	st	X, r30
    4c20:	ca 01       	movw	r24, r20
    4c22:	4a 8b       	std	Y+18, r20	; 0x12
    4c24:	5b 8b       	std	Y+19, r21	; 0x13
    4c26:	0e 94 84 09 	call	0x1308	; 0x1308 <sync_window.part.5>
    4c2a:	4a 89       	ldd	r20, Y+18	; 0x12
    4c2c:	5b 89       	ldd	r21, Y+19	; 0x13
    4c2e:	88 23       	and	r24, r24
    4c30:	01 f3       	breq	.-64     	; 0x4bf2 <dir_register+0x5ea>
    4c32:	81 e0       	ldi	r24, 0x01	; 1
    4c34:	42 cd       	rjmp	.-1404   	; 0x46ba <dir_register+0xb2>
    4c36:	9a 01       	movw	r18, r20
    4c38:	e8 8a       	std	Y+16, r14	; 0x10
    4c3a:	f9 8a       	std	Y+17, r15	; 0x11
    4c3c:	79 01       	movw	r14, r18
    4c3e:	27 89       	ldd	r18, Z+23	; 0x17
    4c40:	30 8d       	ldd	r19, Z+24	; 0x18
    4c42:	41 8d       	ldd	r20, Z+25	; 0x19
    4c44:	52 8d       	ldd	r21, Z+26	; 0x1a
    4c46:	2a 87       	std	Y+10, r18	; 0x0a
    4c48:	3b 87       	std	Y+11, r19	; 0x0b
    4c4a:	4c 87       	std	Y+12, r20	; 0x0c
    4c4c:	5d 87       	std	Y+13, r21	; 0x0d
    4c4e:	80 1b       	sub	r24, r16
    4c50:	91 0b       	sbc	r25, r17
    4c52:	a1 09       	sbc	r26, r1
    4c54:	b1 09       	sbc	r27, r1
    4c56:	f7 01       	movw	r30, r14
    4c58:	87 a7       	std	Z+47, r24	; 0x2f
    4c5a:	90 ab       	std	Z+48, r25	; 0x30
    4c5c:	a1 ab       	std	Z+49, r26	; 0x31
    4c5e:	b2 ab       	std	Z+50, r27	; 0x32
    4c60:	8a 85       	ldd	r24, Y+10	; 0x0a
    4c62:	9b 85       	ldd	r25, Y+11	; 0x0b
    4c64:	ac 85       	ldd	r26, Y+12	; 0x0c
    4c66:	bd 85       	ldd	r27, Y+13	; 0x0d
    4c68:	2e 81       	ldd	r18, Y+6	; 0x06
    4c6a:	3f 81       	ldd	r19, Y+7	; 0x07
    4c6c:	48 85       	ldd	r20, Y+8	; 0x08
    4c6e:	59 85       	ldd	r21, Y+9	; 0x09
    4c70:	66 ce       	rjmp	.-820    	; 0x493e <dir_register+0x336>
    4c72:	f7 01       	movw	r30, r14
    4c74:	01 84       	ldd	r0, Z+9	; 0x09
    4c76:	f2 85       	ldd	r31, Z+10	; 0x0a
    4c78:	e0 2d       	mov	r30, r0
    4c7a:	ee 87       	std	Y+14, r30	; 0x0e
    4c7c:	ff 87       	std	Y+15, r31	; 0x0f
    4c7e:	df 01       	movw	r26, r30
    4c80:	2e 81       	ldd	r18, Y+6	; 0x06
    4c82:	3f 81       	ldd	r19, Y+7	; 0x07
    4c84:	48 85       	ldd	r20, Y+8	; 0x08
    4c86:	59 85       	ldd	r21, Y+9	; 0x09
    4c88:	0e 94 1d 44 	call	0x883a	; 0x883a <__muluhisi3>
    4c8c:	d7 01       	movw	r26, r14
    4c8e:	9b 96       	adiw	r26, 0x2b	; 43
    4c90:	0d 91       	ld	r16, X+
    4c92:	1d 91       	ld	r17, X+
    4c94:	2d 91       	ld	r18, X+
    4c96:	3c 91       	ld	r19, X
    4c98:	9e 97       	sbiw	r26, 0x2e	; 46
    4c9a:	dc 01       	movw	r26, r24
    4c9c:	cb 01       	movw	r24, r22
    4c9e:	80 0f       	add	r24, r16
    4ca0:	91 1f       	adc	r25, r17
    4ca2:	a2 1f       	adc	r26, r18
    4ca4:	b3 1f       	adc	r27, r19
    4ca6:	8f 01       	movw	r16, r30
    4ca8:	96 cf       	rjmp	.-212    	; 0x4bd6 <dir_register+0x5ce>
    4caa:	00 e0       	ldi	r16, 0x00	; 0
    4cac:	10 e0       	ldi	r17, 0x00	; 0
    4cae:	cf cf       	rjmp	.-98     	; 0x4c4e <dir_register+0x646>

00004cb0 <remove_chain>:
    4cb0:	2f 92       	push	r2
    4cb2:	3f 92       	push	r3
    4cb4:	4f 92       	push	r4
    4cb6:	5f 92       	push	r5
    4cb8:	6f 92       	push	r6
    4cba:	7f 92       	push	r7
    4cbc:	8f 92       	push	r8
    4cbe:	9f 92       	push	r9
    4cc0:	af 92       	push	r10
    4cc2:	bf 92       	push	r11
    4cc4:	cf 92       	push	r12
    4cc6:	df 92       	push	r13
    4cc8:	ef 92       	push	r14
    4cca:	ff 92       	push	r15
    4ccc:	0f 93       	push	r16
    4cce:	1f 93       	push	r17
    4cd0:	cf 93       	push	r28
    4cd2:	df 93       	push	r29
    4cd4:	cd b7       	in	r28, 0x3d	; 61
    4cd6:	de b7       	in	r29, 0x3e	; 62
    4cd8:	64 97       	sbiw	r28, 0x14	; 20
    4cda:	cd bf       	out	0x3d, r28	; 61
    4cdc:	de bf       	out	0x3e, r29	; 62
    4cde:	89 83       	std	Y+1, r24	; 0x01
    4ce0:	9a 83       	std	Y+2, r25	; 0x02
    4ce2:	4a 01       	movw	r8, r20
    4ce4:	5b 01       	movw	r10, r22
    4ce6:	b9 01       	movw	r22, r18
    4ce8:	a8 01       	movw	r20, r16
    4cea:	dc 01       	movw	r26, r24
    4cec:	cd 90       	ld	r12, X+
    4cee:	dc 90       	ld	r13, X
    4cf0:	b2 e0       	ldi	r27, 0x02	; 2
    4cf2:	8b 16       	cp	r8, r27
    4cf4:	91 04       	cpc	r9, r1
    4cf6:	a1 04       	cpc	r10, r1
    4cf8:	b1 04       	cpc	r11, r1
    4cfa:	50 f0       	brcs	.+20     	; 0x4d10 <remove_chain+0x60>
    4cfc:	f6 01       	movw	r30, r12
    4cfe:	87 89       	ldd	r24, Z+23	; 0x17
    4d00:	90 8d       	ldd	r25, Z+24	; 0x18
    4d02:	a1 8d       	ldd	r26, Z+25	; 0x19
    4d04:	b2 8d       	ldd	r27, Z+26	; 0x1a
    4d06:	88 16       	cp	r8, r24
    4d08:	99 06       	cpc	r9, r25
    4d0a:	aa 06       	cpc	r10, r26
    4d0c:	bb 06       	cpc	r11, r27
    4d0e:	b8 f0       	brcs	.+46     	; 0x4d3e <remove_chain+0x8e>
    4d10:	82 e0       	ldi	r24, 0x02	; 2
    4d12:	64 96       	adiw	r28, 0x14	; 20
    4d14:	cd bf       	out	0x3d, r28	; 61
    4d16:	de bf       	out	0x3e, r29	; 62
    4d18:	df 91       	pop	r29
    4d1a:	cf 91       	pop	r28
    4d1c:	1f 91       	pop	r17
    4d1e:	0f 91       	pop	r16
    4d20:	ff 90       	pop	r15
    4d22:	ef 90       	pop	r14
    4d24:	df 90       	pop	r13
    4d26:	cf 90       	pop	r12
    4d28:	bf 90       	pop	r11
    4d2a:	af 90       	pop	r10
    4d2c:	9f 90       	pop	r9
    4d2e:	8f 90       	pop	r8
    4d30:	7f 90       	pop	r7
    4d32:	6f 90       	pop	r6
    4d34:	5f 90       	pop	r5
    4d36:	4f 90       	pop	r4
    4d38:	3f 90       	pop	r3
    4d3a:	2f 90       	pop	r2
    4d3c:	08 95       	ret
    4d3e:	01 15       	cp	r16, r1
    4d40:	11 05       	cpc	r17, r1
    4d42:	21 05       	cpc	r18, r1
    4d44:	31 05       	cpc	r19, r1
    4d46:	b9 f0       	breq	.+46     	; 0x4d76 <remove_chain+0xc6>
    4d48:	02 30       	cpi	r16, 0x02	; 2
    4d4a:	11 05       	cpc	r17, r1
    4d4c:	21 05       	cpc	r18, r1
    4d4e:	31 05       	cpc	r19, r1
    4d50:	f8 f2       	brcs	.-66     	; 0x4d10 <remove_chain+0x60>
    4d52:	08 17       	cp	r16, r24
    4d54:	19 07       	cpc	r17, r25
    4d56:	2a 07       	cpc	r18, r26
    4d58:	3b 07       	cpc	r19, r27
    4d5a:	d0 f6       	brcc	.-76     	; 0x4d10 <remove_chain+0x60>
    4d5c:	0f ef       	ldi	r16, 0xFF	; 255
    4d5e:	1f ef       	ldi	r17, 0xFF	; 255
    4d60:	98 01       	movw	r18, r16
    4d62:	c6 01       	movw	r24, r12
    4d64:	0e 94 13 11 	call	0x2226	; 0x2226 <put_fat.part.7>
    4d68:	81 11       	cpse	r24, r1
    4d6a:	d3 cf       	rjmp	.-90     	; 0x4d12 <remove_chain+0x62>
    4d6c:	a9 81       	ldd	r26, Y+1	; 0x01
    4d6e:	ba 81       	ldd	r27, Y+2	; 0x02
    4d70:	2d 90       	ld	r2, X+
    4d72:	3c 90       	ld	r3, X
    4d74:	01 c0       	rjmp	.+2      	; 0x4d78 <remove_chain+0xc8>
    4d76:	16 01       	movw	r2, r12
    4d78:	2b 8a       	std	Y+19, r2	; 0x13
    4d7a:	3c 8a       	std	Y+20, r3	; 0x14
    4d7c:	39 c0       	rjmp	.+114    	; 0x4df0 <remove_chain+0x140>
    4d7e:	00 e0       	ldi	r16, 0x00	; 0
    4d80:	10 e0       	ldi	r17, 0x00	; 0
    4d82:	98 01       	movw	r18, r16
    4d84:	b5 01       	movw	r22, r10
    4d86:	a4 01       	movw	r20, r8
    4d88:	c6 01       	movw	r24, r12
    4d8a:	0e 94 13 11 	call	0x2226	; 0x2226 <put_fat.part.7>
    4d8e:	81 11       	cpse	r24, r1
    4d90:	c0 cf       	rjmp	.-128    	; 0x4d12 <remove_chain+0x62>
    4d92:	f6 01       	movw	r30, r12
    4d94:	87 85       	ldd	r24, Z+15	; 0x0f
    4d96:	90 89       	ldd	r25, Z+16	; 0x10
    4d98:	a1 89       	ldd	r26, Z+17	; 0x11
    4d9a:	b2 89       	ldd	r27, Z+18	; 0x12
    4d9c:	47 89       	ldd	r20, Z+23	; 0x17
    4d9e:	50 8d       	ldd	r21, Z+24	; 0x18
    4da0:	61 8d       	ldd	r22, Z+25	; 0x19
    4da2:	72 8d       	ldd	r23, Z+26	; 0x1a
    4da4:	4a 01       	movw	r8, r20
    4da6:	5b 01       	movw	r10, r22
    4da8:	f2 e0       	ldi	r31, 0x02	; 2
    4daa:	8f 1a       	sub	r8, r31
    4dac:	91 08       	sbc	r9, r1
    4dae:	a1 08       	sbc	r10, r1
    4db0:	b1 08       	sbc	r11, r1
    4db2:	88 15       	cp	r24, r8
    4db4:	99 05       	cpc	r25, r9
    4db6:	aa 05       	cpc	r26, r10
    4db8:	bb 05       	cpc	r27, r11
    4dba:	58 f4       	brcc	.+22     	; 0x4dd2 <remove_chain+0x122>
    4dbc:	01 96       	adiw	r24, 0x01	; 1
    4dbe:	a1 1d       	adc	r26, r1
    4dc0:	b1 1d       	adc	r27, r1
    4dc2:	f6 01       	movw	r30, r12
    4dc4:	87 87       	std	Z+15, r24	; 0x0f
    4dc6:	90 8b       	std	Z+16, r25	; 0x10
    4dc8:	a1 8b       	std	Z+17, r26	; 0x11
    4dca:	b2 8b       	std	Z+18, r27	; 0x12
    4dcc:	84 81       	ldd	r24, Z+4	; 0x04
    4dce:	81 60       	ori	r24, 0x01	; 1
    4dd0:	84 83       	std	Z+4, r24	; 0x04
    4dd2:	44 16       	cp	r4, r20
    4dd4:	55 06       	cpc	r5, r21
    4dd6:	66 06       	cpc	r6, r22
    4dd8:	77 06       	cpc	r7, r23
    4dda:	08 f0       	brcs	.+2      	; 0x4dde <remove_chain+0x12e>
    4ddc:	d3 c1       	rjmp	.+934    	; 0x5184 <remove_chain+0x4d4>
    4dde:	a9 81       	ldd	r26, Y+1	; 0x01
    4de0:	ba 81       	ldd	r27, Y+2	; 0x02
    4de2:	0d 90       	ld	r0, X+
    4de4:	bc 91       	ld	r27, X
    4de6:	a0 2d       	mov	r26, r0
    4de8:	ab 8b       	std	Y+19, r26	; 0x13
    4dea:	bc 8b       	std	Y+20, r27	; 0x14
    4dec:	53 01       	movw	r10, r6
    4dee:	42 01       	movw	r8, r4
    4df0:	b2 e0       	ldi	r27, 0x02	; 2
    4df2:	8b 16       	cp	r8, r27
    4df4:	91 04       	cpc	r9, r1
    4df6:	a1 04       	cpc	r10, r1
    4df8:	b1 04       	cpc	r11, r1
    4dfa:	a0 f0       	brcs	.+40     	; 0x4e24 <remove_chain+0x174>
    4dfc:	eb 89       	ldd	r30, Y+19	; 0x13
    4dfe:	fc 89       	ldd	r31, Y+20	; 0x14
    4e00:	87 89       	ldd	r24, Z+23	; 0x17
    4e02:	90 8d       	ldd	r25, Z+24	; 0x18
    4e04:	a1 8d       	ldd	r26, Z+25	; 0x19
    4e06:	b2 8d       	ldd	r27, Z+26	; 0x1a
    4e08:	88 16       	cp	r8, r24
    4e0a:	99 06       	cpc	r9, r25
    4e0c:	aa 06       	cpc	r10, r26
    4e0e:	bb 06       	cpc	r11, r27
    4e10:	48 f4       	brcc	.+18     	; 0x4e24 <remove_chain+0x174>
    4e12:	80 81       	ld	r24, Z
    4e14:	82 30       	cpi	r24, 0x02	; 2
    4e16:	09 f4       	brne	.+2      	; 0x4e1a <remove_chain+0x16a>
    4e18:	53 c1       	rjmp	.+678    	; 0x50c0 <remove_chain+0x410>
    4e1a:	83 30       	cpi	r24, 0x03	; 3
    4e1c:	09 f4       	brne	.+2      	; 0x4e20 <remove_chain+0x170>
    4e1e:	d4 c0       	rjmp	.+424    	; 0x4fc8 <remove_chain+0x318>
    4e20:	81 30       	cpi	r24, 0x01	; 1
    4e22:	29 f1       	breq	.+74     	; 0x4e6e <remove_chain+0x1be>
    4e24:	41 2c       	mov	r4, r1
    4e26:	51 2c       	mov	r5, r1
    4e28:	32 01       	movw	r6, r4
    4e2a:	43 94       	inc	r4
    4e2c:	b1 e0       	ldi	r27, 0x01	; 1
    4e2e:	4b 16       	cp	r4, r27
    4e30:	51 04       	cpc	r5, r1
    4e32:	61 04       	cpc	r6, r1
    4e34:	71 04       	cpc	r7, r1
    4e36:	09 f4       	brne	.+2      	; 0x4e3a <remove_chain+0x18a>
    4e38:	6b cf       	rjmp	.-298    	; 0x4d10 <remove_chain+0x60>
    4e3a:	ef ef       	ldi	r30, 0xFF	; 255
    4e3c:	4e 16       	cp	r4, r30
    4e3e:	5e 06       	cpc	r5, r30
    4e40:	6e 06       	cpc	r6, r30
    4e42:	7e 06       	cpc	r7, r30
    4e44:	09 f4       	brne	.+2      	; 0x4e48 <remove_chain+0x198>
    4e46:	9c c1       	rjmp	.+824    	; 0x5180 <remove_chain+0x4d0>
    4e48:	f2 e0       	ldi	r31, 0x02	; 2
    4e4a:	8f 16       	cp	r8, r31
    4e4c:	91 04       	cpc	r9, r1
    4e4e:	a1 04       	cpc	r10, r1
    4e50:	b1 04       	cpc	r11, r1
    4e52:	08 f4       	brcc	.+2      	; 0x4e56 <remove_chain+0x1a6>
    4e54:	5d cf       	rjmp	.-326    	; 0x4d10 <remove_chain+0x60>
    4e56:	f6 01       	movw	r30, r12
    4e58:	87 89       	ldd	r24, Z+23	; 0x17
    4e5a:	90 8d       	ldd	r25, Z+24	; 0x18
    4e5c:	a1 8d       	ldd	r26, Z+25	; 0x19
    4e5e:	b2 8d       	ldd	r27, Z+26	; 0x1a
    4e60:	88 16       	cp	r8, r24
    4e62:	99 06       	cpc	r9, r25
    4e64:	aa 06       	cpc	r10, r26
    4e66:	bb 06       	cpc	r11, r27
    4e68:	08 f0       	brcs	.+2      	; 0x4e6c <remove_chain+0x1bc>
    4e6a:	52 cf       	rjmp	.-348    	; 0x4d10 <remove_chain+0x60>
    4e6c:	88 cf       	rjmp	.-240    	; 0x4d7e <remove_chain+0xce>
    4e6e:	f4 01       	movw	r30, r8
    4e70:	f6 95       	lsr	r31
    4e72:	e7 95       	ror	r30
    4e74:	8f 01       	movw	r16, r30
    4e76:	08 0d       	add	r16, r8
    4e78:	19 1d       	adc	r17, r9
    4e7a:	0f 83       	std	Y+7, r16	; 0x07
    4e7c:	18 87       	std	Y+8, r17	; 0x08
    4e7e:	ab 89       	ldd	r26, Y+19	; 0x13
    4e80:	bc 89       	ldd	r27, Y+20	; 0x14
    4e82:	93 96       	adiw	r26, 0x23	; 35
    4e84:	4d 91       	ld	r20, X+
    4e86:	5d 91       	ld	r21, X+
    4e88:	6d 91       	ld	r22, X+
    4e8a:	7c 91       	ld	r23, X
    4e8c:	96 97       	sbiw	r26, 0x26	; 38
    4e8e:	c8 01       	movw	r24, r16
    4e90:	89 2f       	mov	r24, r25
    4e92:	99 27       	eor	r25, r25
    4e94:	86 95       	lsr	r24
    4e96:	8a 01       	movw	r16, r20
    4e98:	9b 01       	movw	r18, r22
    4e9a:	08 0f       	add	r16, r24
    4e9c:	19 1f       	adc	r17, r25
    4e9e:	21 1d       	adc	r18, r1
    4ea0:	31 1d       	adc	r19, r1
    4ea2:	0b 83       	std	Y+3, r16	; 0x03
    4ea4:	1c 83       	std	Y+4, r17	; 0x04
    4ea6:	2d 83       	std	Y+5, r18	; 0x05
    4ea8:	3e 83       	std	Y+6, r19	; 0x06
    4eaa:	9f 96       	adiw	r26, 0x2f	; 47
    4eac:	4d 90       	ld	r4, X+
    4eae:	5d 90       	ld	r5, X+
    4eb0:	6d 90       	ld	r6, X+
    4eb2:	7c 90       	ld	r7, X
    4eb4:	d2 97       	sbiw	r26, 0x32	; 50
    4eb6:	40 16       	cp	r4, r16
    4eb8:	51 06       	cpc	r5, r17
    4eba:	62 06       	cpc	r6, r18
    4ebc:	73 06       	cpc	r7, r19
    4ebe:	51 f1       	breq	.+84     	; 0x4f14 <remove_chain+0x264>
    4ec0:	13 96       	adiw	r26, 0x03	; 3
    4ec2:	8c 91       	ld	r24, X
    4ec4:	13 97       	sbiw	r26, 0x03	; 3
    4ec6:	81 11       	cpse	r24, r1
    4ec8:	f7 c1       	rjmp	.+1006   	; 0x52b8 <remove_chain+0x608>
    4eca:	2b 88       	ldd	r2, Y+19	; 0x13
    4ecc:	3c 88       	ldd	r3, Y+20	; 0x14
    4ece:	b3 e3       	ldi	r27, 0x33	; 51
    4ed0:	2b 0e       	add	r2, r27
    4ed2:	31 1c       	adc	r3, r1
    4ed4:	01 e0       	ldi	r16, 0x01	; 1
    4ed6:	10 e0       	ldi	r17, 0x00	; 0
    4ed8:	2b 81       	ldd	r18, Y+3	; 0x03
    4eda:	3c 81       	ldd	r19, Y+4	; 0x04
    4edc:	4d 81       	ldd	r20, Y+5	; 0x05
    4ede:	5e 81       	ldd	r21, Y+6	; 0x06
    4ee0:	b1 01       	movw	r22, r2
    4ee2:	eb 89       	ldd	r30, Y+19	; 0x13
    4ee4:	fc 89       	ldd	r31, Y+20	; 0x14
    4ee6:	81 81       	ldd	r24, Z+1	; 0x01
    4ee8:	0e 94 59 3b 	call	0x76b2	; 0x76b2 <disk_read>
    4eec:	81 11       	cpse	r24, r1
    4eee:	38 c1       	rjmp	.+624    	; 0x5160 <remove_chain+0x4b0>
    4ef0:	0b 81       	ldd	r16, Y+3	; 0x03
    4ef2:	1c 81       	ldd	r17, Y+4	; 0x04
    4ef4:	2d 81       	ldd	r18, Y+5	; 0x05
    4ef6:	3e 81       	ldd	r19, Y+6	; 0x06
    4ef8:	ab 89       	ldd	r26, Y+19	; 0x13
    4efa:	bc 89       	ldd	r27, Y+20	; 0x14
    4efc:	9f 96       	adiw	r26, 0x2f	; 47
    4efe:	0d 93       	st	X+, r16
    4f00:	1d 93       	st	X+, r17
    4f02:	2d 93       	st	X+, r18
    4f04:	3c 93       	st	X, r19
    4f06:	d2 97       	sbiw	r26, 0x32	; 50
    4f08:	93 96       	adiw	r26, 0x23	; 35
    4f0a:	4d 91       	ld	r20, X+
    4f0c:	5d 91       	ld	r21, X+
    4f0e:	6d 91       	ld	r22, X+
    4f10:	7c 91       	ld	r23, X
    4f12:	96 97       	sbiw	r26, 0x26	; 38
    4f14:	0f 81       	ldd	r16, Y+7	; 0x07
    4f16:	18 85       	ldd	r17, Y+8	; 0x08
    4f18:	0f 5f       	subi	r16, 0xFF	; 255
    4f1a:	1f 4f       	sbci	r17, 0xFF	; 255
    4f1c:	09 87       	std	Y+9, r16	; 0x09
    4f1e:	1a 87       	std	Y+10, r17	; 0x0a
    4f20:	ef 81       	ldd	r30, Y+7	; 0x07
    4f22:	f8 85       	ldd	r31, Y+8	; 0x08
    4f24:	f1 70       	andi	r31, 0x01	; 1
    4f26:	2b 89       	ldd	r18, Y+19	; 0x13
    4f28:	3c 89       	ldd	r19, Y+20	; 0x14
    4f2a:	e2 0f       	add	r30, r18
    4f2c:	f3 1f       	adc	r31, r19
    4f2e:	93 a9       	ldd	r25, Z+51	; 0x33
    4f30:	9f 83       	std	Y+7, r25	; 0x07
    4f32:	c8 01       	movw	r24, r16
    4f34:	89 2f       	mov	r24, r25
    4f36:	99 27       	eor	r25, r25
    4f38:	86 95       	lsr	r24
    4f3a:	2a 01       	movw	r4, r20
    4f3c:	3b 01       	movw	r6, r22
    4f3e:	48 0e       	add	r4, r24
    4f40:	59 1e       	adc	r5, r25
    4f42:	61 1c       	adc	r6, r1
    4f44:	71 1c       	adc	r7, r1
    4f46:	0b 81       	ldd	r16, Y+3	; 0x03
    4f48:	1c 81       	ldd	r17, Y+4	; 0x04
    4f4a:	2d 81       	ldd	r18, Y+5	; 0x05
    4f4c:	3e 81       	ldd	r19, Y+6	; 0x06
    4f4e:	04 15       	cp	r16, r4
    4f50:	15 05       	cpc	r17, r5
    4f52:	26 05       	cpc	r18, r6
    4f54:	37 05       	cpc	r19, r7
    4f56:	f1 f0       	breq	.+60     	; 0x4f94 <remove_chain+0x2e4>
    4f58:	ab 89       	ldd	r26, Y+19	; 0x13
    4f5a:	bc 89       	ldd	r27, Y+20	; 0x14
    4f5c:	13 96       	adiw	r26, 0x03	; 3
    4f5e:	8c 91       	ld	r24, X
    4f60:	13 97       	sbiw	r26, 0x03	; 3
    4f62:	81 11       	cpse	r24, r1
    4f64:	f6 c1       	rjmp	.+1004   	; 0x5352 <remove_chain+0x6a2>
    4f66:	1d 01       	movw	r2, r26
    4f68:	f3 e3       	ldi	r31, 0x33	; 51
    4f6a:	2f 0e       	add	r2, r31
    4f6c:	31 1c       	adc	r3, r1
    4f6e:	01 e0       	ldi	r16, 0x01	; 1
    4f70:	10 e0       	ldi	r17, 0x00	; 0
    4f72:	a3 01       	movw	r20, r6
    4f74:	92 01       	movw	r18, r4
    4f76:	b1 01       	movw	r22, r2
    4f78:	ab 89       	ldd	r26, Y+19	; 0x13
    4f7a:	bc 89       	ldd	r27, Y+20	; 0x14
    4f7c:	11 96       	adiw	r26, 0x01	; 1
    4f7e:	8c 91       	ld	r24, X
    4f80:	0e 94 59 3b 	call	0x76b2	; 0x76b2 <disk_read>
    4f84:	81 11       	cpse	r24, r1
    4f86:	ec c0       	rjmp	.+472    	; 0x5160 <remove_chain+0x4b0>
    4f88:	eb 89       	ldd	r30, Y+19	; 0x13
    4f8a:	fc 89       	ldd	r31, Y+20	; 0x14
    4f8c:	47 a6       	std	Z+47, r4	; 0x2f
    4f8e:	50 aa       	std	Z+48, r5	; 0x30
    4f90:	61 aa       	std	Z+49, r6	; 0x31
    4f92:	72 aa       	std	Z+50, r7	; 0x32
    4f94:	89 85       	ldd	r24, Y+9	; 0x09
    4f96:	9a 85       	ldd	r25, Y+10	; 0x0a
    4f98:	91 70       	andi	r25, 0x01	; 1
    4f9a:	0b 89       	ldd	r16, Y+19	; 0x13
    4f9c:	1c 89       	ldd	r17, Y+20	; 0x14
    4f9e:	80 0f       	add	r24, r16
    4fa0:	91 1f       	adc	r25, r17
    4fa2:	dc 01       	movw	r26, r24
    4fa4:	d3 96       	adiw	r26, 0x33	; 51
    4fa6:	8c 91       	ld	r24, X
    4fa8:	9f 81       	ldd	r25, Y+7	; 0x07
    4faa:	49 2e       	mov	r4, r25
    4fac:	51 2c       	mov	r5, r1
    4fae:	58 2a       	or	r5, r24
    4fb0:	80 fe       	sbrs	r8, 0
    4fb2:	38 c2       	rjmp	.+1136   	; 0x5424 <remove_chain+0x774>
    4fb4:	52 94       	swap	r5
    4fb6:	42 94       	swap	r4
    4fb8:	2f e0       	ldi	r18, 0x0F	; 15
    4fba:	42 22       	and	r4, r18
    4fbc:	45 24       	eor	r4, r5
    4fbe:	52 22       	and	r5, r18
    4fc0:	45 24       	eor	r4, r5
    4fc2:	61 2c       	mov	r6, r1
    4fc4:	71 2c       	mov	r7, r1
    4fc6:	6e c0       	rjmp	.+220    	; 0x50a4 <remove_chain+0x3f4>
    4fc8:	eb 89       	ldd	r30, Y+19	; 0x13
    4fca:	fc 89       	ldd	r31, Y+20	; 0x14
    4fcc:	43 a1       	ldd	r20, Z+35	; 0x23
    4fce:	54 a1       	ldd	r21, Z+36	; 0x24
    4fd0:	65 a1       	ldd	r22, Z+37	; 0x25
    4fd2:	76 a1       	ldd	r23, Z+38	; 0x26
    4fd4:	d5 01       	movw	r26, r10
    4fd6:	c4 01       	movw	r24, r8
    4fd8:	17 e0       	ldi	r17, 0x07	; 7
    4fda:	b6 95       	lsr	r27
    4fdc:	a7 95       	ror	r26
    4fde:	97 95       	ror	r25
    4fe0:	87 95       	ror	r24
    4fe2:	1a 95       	dec	r17
    4fe4:	d1 f7       	brne	.-12     	; 0x4fda <remove_chain+0x32a>
    4fe6:	8c 01       	movw	r16, r24
    4fe8:	9d 01       	movw	r18, r26
    4fea:	04 0f       	add	r16, r20
    4fec:	15 1f       	adc	r17, r21
    4fee:	26 1f       	adc	r18, r22
    4ff0:	37 1f       	adc	r19, r23
    4ff2:	0b 83       	std	Y+3, r16	; 0x03
    4ff4:	1c 83       	std	Y+4, r17	; 0x04
    4ff6:	2d 83       	std	Y+5, r18	; 0x05
    4ff8:	3e 83       	std	Y+6, r19	; 0x06
    4ffa:	47 a4       	ldd	r4, Z+47	; 0x2f
    4ffc:	50 a8       	ldd	r5, Z+48	; 0x30
    4ffe:	61 a8       	ldd	r6, Z+49	; 0x31
    5000:	72 a8       	ldd	r7, Z+50	; 0x32
    5002:	04 15       	cp	r16, r4
    5004:	15 05       	cpc	r17, r5
    5006:	26 05       	cpc	r18, r6
    5008:	37 05       	cpc	r19, r7
    500a:	19 f1       	breq	.+70     	; 0x5052 <remove_chain+0x3a2>
    500c:	83 81       	ldd	r24, Z+3	; 0x03
    500e:	81 11       	cpse	r24, r1
    5010:	07 c1       	rjmp	.+526    	; 0x5220 <remove_chain+0x570>
    5012:	2b 88       	ldd	r2, Y+19	; 0x13
    5014:	3c 88       	ldd	r3, Y+20	; 0x14
    5016:	f3 e3       	ldi	r31, 0x33	; 51
    5018:	2f 0e       	add	r2, r31
    501a:	31 1c       	adc	r3, r1
    501c:	01 e0       	ldi	r16, 0x01	; 1
    501e:	10 e0       	ldi	r17, 0x00	; 0
    5020:	2b 81       	ldd	r18, Y+3	; 0x03
    5022:	3c 81       	ldd	r19, Y+4	; 0x04
    5024:	4d 81       	ldd	r20, Y+5	; 0x05
    5026:	5e 81       	ldd	r21, Y+6	; 0x06
    5028:	b1 01       	movw	r22, r2
    502a:	ab 89       	ldd	r26, Y+19	; 0x13
    502c:	bc 89       	ldd	r27, Y+20	; 0x14
    502e:	11 96       	adiw	r26, 0x01	; 1
    5030:	8c 91       	ld	r24, X
    5032:	0e 94 59 3b 	call	0x76b2	; 0x76b2 <disk_read>
    5036:	81 11       	cpse	r24, r1
    5038:	93 c0       	rjmp	.+294    	; 0x5160 <remove_chain+0x4b0>
    503a:	0b 81       	ldd	r16, Y+3	; 0x03
    503c:	1c 81       	ldd	r17, Y+4	; 0x04
    503e:	2d 81       	ldd	r18, Y+5	; 0x05
    5040:	3e 81       	ldd	r19, Y+6	; 0x06
    5042:	ab 89       	ldd	r26, Y+19	; 0x13
    5044:	bc 89       	ldd	r27, Y+20	; 0x14
    5046:	9f 96       	adiw	r26, 0x2f	; 47
    5048:	0d 93       	st	X+, r16
    504a:	1d 93       	st	X+, r17
    504c:	2d 93       	st	X+, r18
    504e:	3c 93       	st	X, r19
    5050:	d2 97       	sbiw	r26, 0x32	; 50
    5052:	c4 01       	movw	r24, r8
    5054:	88 0f       	add	r24, r24
    5056:	99 1f       	adc	r25, r25
    5058:	88 0f       	add	r24, r24
    505a:	99 1f       	adc	r25, r25
    505c:	8c 7f       	andi	r24, 0xFC	; 252
    505e:	91 70       	andi	r25, 0x01	; 1
    5060:	fc 01       	movw	r30, r24
    5062:	f3 96       	adiw	r30, 0x33	; 51
    5064:	0b 89       	ldd	r16, Y+19	; 0x13
    5066:	1c 89       	ldd	r17, Y+20	; 0x14
    5068:	e0 0f       	add	r30, r16
    506a:	f1 1f       	adc	r31, r17
    506c:	43 80       	ldd	r4, Z+3	; 0x03
    506e:	51 2c       	mov	r5, r1
    5070:	61 2c       	mov	r6, r1
    5072:	71 2c       	mov	r7, r1
    5074:	76 2c       	mov	r7, r6
    5076:	65 2c       	mov	r6, r5
    5078:	54 2c       	mov	r5, r4
    507a:	44 24       	eor	r4, r4
    507c:	22 81       	ldd	r18, Z+2	; 0x02
    507e:	42 2a       	or	r4, r18
    5080:	76 2c       	mov	r7, r6
    5082:	65 2c       	mov	r6, r5
    5084:	54 2c       	mov	r5, r4
    5086:	44 24       	eor	r4, r4
    5088:	21 81       	ldd	r18, Z+1	; 0x01
    508a:	42 2a       	or	r4, r18
    508c:	76 2c       	mov	r7, r6
    508e:	65 2c       	mov	r6, r5
    5090:	54 2c       	mov	r5, r4
    5092:	44 24       	eor	r4, r4
    5094:	80 0f       	add	r24, r16
    5096:	91 1f       	adc	r25, r17
    5098:	dc 01       	movw	r26, r24
    509a:	d3 96       	adiw	r26, 0x33	; 51
    509c:	8c 91       	ld	r24, X
    509e:	48 2a       	or	r4, r24
    50a0:	bf e0       	ldi	r27, 0x0F	; 15
    50a2:	7b 22       	and	r7, r27
    50a4:	41 14       	cp	r4, r1
    50a6:	51 04       	cpc	r5, r1
    50a8:	61 04       	cpc	r6, r1
    50aa:	71 04       	cpc	r7, r1
    50ac:	09 f4       	brne	.+2      	; 0x50b0 <remove_chain+0x400>
    50ae:	6a c0       	rjmp	.+212    	; 0x5184 <remove_chain+0x4d4>
    50b0:	b1 e0       	ldi	r27, 0x01	; 1
    50b2:	4b 16       	cp	r4, r27
    50b4:	51 04       	cpc	r5, r1
    50b6:	61 04       	cpc	r6, r1
    50b8:	71 04       	cpc	r7, r1
    50ba:	09 f0       	breq	.+2      	; 0x50be <remove_chain+0x40e>
    50bc:	c5 ce       	rjmp	.-630    	; 0x4e48 <remove_chain+0x198>
    50be:	28 ce       	rjmp	.-944    	; 0x4d10 <remove_chain+0x60>
    50c0:	bb 27       	eor	r27, r27
    50c2:	ab 2d       	mov	r26, r11
    50c4:	9a 2d       	mov	r25, r10
    50c6:	89 2d       	mov	r24, r9
    50c8:	eb 89       	ldd	r30, Y+19	; 0x13
    50ca:	fc 89       	ldd	r31, Y+20	; 0x14
    50cc:	43 a1       	ldd	r20, Z+35	; 0x23
    50ce:	54 a1       	ldd	r21, Z+36	; 0x24
    50d0:	65 a1       	ldd	r22, Z+37	; 0x25
    50d2:	76 a1       	ldd	r23, Z+38	; 0x26
    50d4:	8c 01       	movw	r16, r24
    50d6:	9d 01       	movw	r18, r26
    50d8:	04 0f       	add	r16, r20
    50da:	15 1f       	adc	r17, r21
    50dc:	26 1f       	adc	r18, r22
    50de:	37 1f       	adc	r19, r23
    50e0:	0b 83       	std	Y+3, r16	; 0x03
    50e2:	1c 83       	std	Y+4, r17	; 0x04
    50e4:	2d 83       	std	Y+5, r18	; 0x05
    50e6:	3e 83       	std	Y+6, r19	; 0x06
    50e8:	47 a4       	ldd	r4, Z+47	; 0x2f
    50ea:	50 a8       	ldd	r5, Z+48	; 0x30
    50ec:	61 a8       	ldd	r6, Z+49	; 0x31
    50ee:	72 a8       	ldd	r7, Z+50	; 0x32
    50f0:	04 15       	cp	r16, r4
    50f2:	15 05       	cpc	r17, r5
    50f4:	26 05       	cpc	r18, r6
    50f6:	37 05       	cpc	r19, r7
    50f8:	19 f1       	breq	.+70     	; 0x5140 <remove_chain+0x490>
    50fa:	83 81       	ldd	r24, Z+3	; 0x03
    50fc:	81 11       	cpse	r24, r1
    50fe:	44 c0       	rjmp	.+136    	; 0x5188 <remove_chain+0x4d8>
    5100:	2b 88       	ldd	r2, Y+19	; 0x13
    5102:	3c 88       	ldd	r3, Y+20	; 0x14
    5104:	b3 e3       	ldi	r27, 0x33	; 51
    5106:	2b 0e       	add	r2, r27
    5108:	31 1c       	adc	r3, r1
    510a:	01 e0       	ldi	r16, 0x01	; 1
    510c:	10 e0       	ldi	r17, 0x00	; 0
    510e:	2b 81       	ldd	r18, Y+3	; 0x03
    5110:	3c 81       	ldd	r19, Y+4	; 0x04
    5112:	4d 81       	ldd	r20, Y+5	; 0x05
    5114:	5e 81       	ldd	r21, Y+6	; 0x06
    5116:	b1 01       	movw	r22, r2
    5118:	eb 89       	ldd	r30, Y+19	; 0x13
    511a:	fc 89       	ldd	r31, Y+20	; 0x14
    511c:	81 81       	ldd	r24, Z+1	; 0x01
    511e:	0e 94 59 3b 	call	0x76b2	; 0x76b2 <disk_read>
    5122:	81 11       	cpse	r24, r1
    5124:	1d c0       	rjmp	.+58     	; 0x5160 <remove_chain+0x4b0>
    5126:	0b 81       	ldd	r16, Y+3	; 0x03
    5128:	1c 81       	ldd	r17, Y+4	; 0x04
    512a:	2d 81       	ldd	r18, Y+5	; 0x05
    512c:	3e 81       	ldd	r19, Y+6	; 0x06
    512e:	ab 89       	ldd	r26, Y+19	; 0x13
    5130:	bc 89       	ldd	r27, Y+20	; 0x14
    5132:	9f 96       	adiw	r26, 0x2f	; 47
    5134:	0d 93       	st	X+, r16
    5136:	1d 93       	st	X+, r17
    5138:	2d 93       	st	X+, r18
    513a:	3c 93       	st	X, r19
    513c:	d2 97       	sbiw	r26, 0x32	; 50
    513e:	fd 01       	movw	r30, r26
    5140:	c4 01       	movw	r24, r8
    5142:	88 0f       	add	r24, r24
    5144:	99 1f       	adc	r25, r25
    5146:	8e 7f       	andi	r24, 0xFE	; 254
    5148:	91 70       	andi	r25, 0x01	; 1
    514a:	e8 0f       	add	r30, r24
    514c:	f9 1f       	adc	r31, r25
    514e:	44 a8       	ldd	r4, Z+52	; 0x34
    5150:	51 2c       	mov	r5, r1
    5152:	54 2c       	mov	r5, r4
    5154:	44 24       	eor	r4, r4
    5156:	83 a9       	ldd	r24, Z+51	; 0x33
    5158:	48 2a       	or	r4, r24
    515a:	61 2c       	mov	r6, r1
    515c:	71 2c       	mov	r7, r1
    515e:	a2 cf       	rjmp	.-188    	; 0x50a4 <remove_chain+0x3f4>
    5160:	0f ef       	ldi	r16, 0xFF	; 255
    5162:	1f ef       	ldi	r17, 0xFF	; 255
    5164:	98 01       	movw	r18, r16
    5166:	ab 89       	ldd	r26, Y+19	; 0x13
    5168:	bc 89       	ldd	r27, Y+20	; 0x14
    516a:	9f 96       	adiw	r26, 0x2f	; 47
    516c:	0d 93       	st	X+, r16
    516e:	1d 93       	st	X+, r17
    5170:	2d 93       	st	X+, r18
    5172:	3c 93       	st	X, r19
    5174:	d2 97       	sbiw	r26, 0x32	; 50
    5176:	44 24       	eor	r4, r4
    5178:	4a 94       	dec	r4
    517a:	54 2c       	mov	r5, r4
    517c:	32 01       	movw	r6, r4
    517e:	56 ce       	rjmp	.-852    	; 0x4e2c <remove_chain+0x17c>
    5180:	81 e0       	ldi	r24, 0x01	; 1
    5182:	c7 cd       	rjmp	.-1138   	; 0x4d12 <remove_chain+0x62>
    5184:	80 e0       	ldi	r24, 0x00	; 0
    5186:	c5 cd       	rjmp	.-1142   	; 0x4d12 <remove_chain+0x62>
    5188:	1f 01       	movw	r2, r30
    518a:	13 e3       	ldi	r17, 0x33	; 51
    518c:	21 0e       	add	r2, r17
    518e:	31 1c       	adc	r3, r1
    5190:	01 e0       	ldi	r16, 0x01	; 1
    5192:	10 e0       	ldi	r17, 0x00	; 0
    5194:	a3 01       	movw	r20, r6
    5196:	92 01       	movw	r18, r4
    5198:	b1 01       	movw	r22, r2
    519a:	81 81       	ldd	r24, Z+1	; 0x01
    519c:	0e 94 6d 3b 	call	0x76da	; 0x76da <disk_write>
    51a0:	81 11       	cpse	r24, r1
    51a2:	ee cf       	rjmp	.-36     	; 0x5180 <remove_chain+0x4d0>
    51a4:	ab 89       	ldd	r26, Y+19	; 0x13
    51a6:	bc 89       	ldd	r27, Y+20	; 0x14
    51a8:	13 96       	adiw	r26, 0x03	; 3
    51aa:	1c 92       	st	X, r1
    51ac:	13 97       	sbiw	r26, 0x03	; 3
    51ae:	fd 01       	movw	r30, r26
    51b0:	83 8d       	ldd	r24, Z+27	; 0x1b
    51b2:	94 8d       	ldd	r25, Z+28	; 0x1c
    51b4:	a5 8d       	ldd	r26, Z+29	; 0x1d
    51b6:	b6 8d       	ldd	r27, Z+30	; 0x1e
    51b8:	43 a1       	ldd	r20, Z+35	; 0x23
    51ba:	54 a1       	ldd	r21, Z+36	; 0x24
    51bc:	65 a1       	ldd	r22, Z+37	; 0x25
    51be:	76 a1       	ldd	r23, Z+38	; 0x26
    51c0:	93 01       	movw	r18, r6
    51c2:	82 01       	movw	r16, r4
    51c4:	04 1b       	sub	r16, r20
    51c6:	15 0b       	sbc	r17, r21
    51c8:	26 0b       	sbc	r18, r22
    51ca:	37 0b       	sbc	r19, r23
    51cc:	08 17       	cp	r16, r24
    51ce:	19 07       	cpc	r17, r25
    51d0:	2a 07       	cpc	r18, r26
    51d2:	3b 07       	cpc	r19, r27
    51d4:	08 f0       	brcs	.+2      	; 0x51d8 <remove_chain+0x528>
    51d6:	99 cf       	rjmp	.-206    	; 0x510a <remove_chain+0x45a>
    51d8:	e2 80       	ldd	r14, Z+2	; 0x02
    51da:	f1 2c       	mov	r15, r1
    51dc:	12 e0       	ldi	r17, 0x02	; 2
    51de:	e1 16       	cp	r14, r17
    51e0:	f1 04       	cpc	r15, r1
    51e2:	38 f4       	brcc	.+14     	; 0x51f2 <remove_chain+0x542>
    51e4:	92 cf       	rjmp	.-220    	; 0x510a <remove_chain+0x45a>
    51e6:	eb 89       	ldd	r30, Y+19	; 0x13
    51e8:	fc 89       	ldd	r31, Y+20	; 0x14
    51ea:	83 8d       	ldd	r24, Z+27	; 0x1b
    51ec:	94 8d       	ldd	r25, Z+28	; 0x1c
    51ee:	a5 8d       	ldd	r26, Z+29	; 0x1d
    51f0:	b6 8d       	ldd	r27, Z+30	; 0x1e
    51f2:	48 0e       	add	r4, r24
    51f4:	59 1e       	adc	r5, r25
    51f6:	6a 1e       	adc	r6, r26
    51f8:	7b 1e       	adc	r7, r27
    51fa:	01 e0       	ldi	r16, 0x01	; 1
    51fc:	10 e0       	ldi	r17, 0x00	; 0
    51fe:	a3 01       	movw	r20, r6
    5200:	92 01       	movw	r18, r4
    5202:	b1 01       	movw	r22, r2
    5204:	ab 89       	ldd	r26, Y+19	; 0x13
    5206:	bc 89       	ldd	r27, Y+20	; 0x14
    5208:	11 96       	adiw	r26, 0x01	; 1
    520a:	8c 91       	ld	r24, X
    520c:	0e 94 6d 3b 	call	0x76da	; 0x76da <disk_write>
    5210:	b1 e0       	ldi	r27, 0x01	; 1
    5212:	eb 1a       	sub	r14, r27
    5214:	f1 08       	sbc	r15, r1
    5216:	e1 e0       	ldi	r30, 0x01	; 1
    5218:	ee 16       	cp	r14, r30
    521a:	f1 04       	cpc	r15, r1
    521c:	21 f7       	brne	.-56     	; 0x51e6 <remove_chain+0x536>
    521e:	75 cf       	rjmp	.-278    	; 0x510a <remove_chain+0x45a>
    5220:	1f 01       	movw	r2, r30
    5222:	13 e3       	ldi	r17, 0x33	; 51
    5224:	21 0e       	add	r2, r17
    5226:	31 1c       	adc	r3, r1
    5228:	01 e0       	ldi	r16, 0x01	; 1
    522a:	10 e0       	ldi	r17, 0x00	; 0
    522c:	a3 01       	movw	r20, r6
    522e:	92 01       	movw	r18, r4
    5230:	b1 01       	movw	r22, r2
    5232:	81 81       	ldd	r24, Z+1	; 0x01
    5234:	0e 94 6d 3b 	call	0x76da	; 0x76da <disk_write>
    5238:	81 11       	cpse	r24, r1
    523a:	a2 cf       	rjmp	.-188    	; 0x5180 <remove_chain+0x4d0>
    523c:	ab 89       	ldd	r26, Y+19	; 0x13
    523e:	bc 89       	ldd	r27, Y+20	; 0x14
    5240:	13 96       	adiw	r26, 0x03	; 3
    5242:	1c 92       	st	X, r1
    5244:	13 97       	sbiw	r26, 0x03	; 3
    5246:	fd 01       	movw	r30, r26
    5248:	83 8d       	ldd	r24, Z+27	; 0x1b
    524a:	94 8d       	ldd	r25, Z+28	; 0x1c
    524c:	a5 8d       	ldd	r26, Z+29	; 0x1d
    524e:	b6 8d       	ldd	r27, Z+30	; 0x1e
    5250:	43 a1       	ldd	r20, Z+35	; 0x23
    5252:	54 a1       	ldd	r21, Z+36	; 0x24
    5254:	65 a1       	ldd	r22, Z+37	; 0x25
    5256:	76 a1       	ldd	r23, Z+38	; 0x26
    5258:	93 01       	movw	r18, r6
    525a:	82 01       	movw	r16, r4
    525c:	04 1b       	sub	r16, r20
    525e:	15 0b       	sbc	r17, r21
    5260:	26 0b       	sbc	r18, r22
    5262:	37 0b       	sbc	r19, r23
    5264:	08 17       	cp	r16, r24
    5266:	19 07       	cpc	r17, r25
    5268:	2a 07       	cpc	r18, r26
    526a:	3b 07       	cpc	r19, r27
    526c:	08 f0       	brcs	.+2      	; 0x5270 <remove_chain+0x5c0>
    526e:	d6 ce       	rjmp	.-596    	; 0x501c <remove_chain+0x36c>
    5270:	e2 80       	ldd	r14, Z+2	; 0x02
    5272:	f1 2c       	mov	r15, r1
    5274:	12 e0       	ldi	r17, 0x02	; 2
    5276:	e1 16       	cp	r14, r17
    5278:	f1 04       	cpc	r15, r1
    527a:	38 f4       	brcc	.+14     	; 0x528a <remove_chain+0x5da>
    527c:	cf ce       	rjmp	.-610    	; 0x501c <remove_chain+0x36c>
    527e:	eb 89       	ldd	r30, Y+19	; 0x13
    5280:	fc 89       	ldd	r31, Y+20	; 0x14
    5282:	83 8d       	ldd	r24, Z+27	; 0x1b
    5284:	94 8d       	ldd	r25, Z+28	; 0x1c
    5286:	a5 8d       	ldd	r26, Z+29	; 0x1d
    5288:	b6 8d       	ldd	r27, Z+30	; 0x1e
    528a:	48 0e       	add	r4, r24
    528c:	59 1e       	adc	r5, r25
    528e:	6a 1e       	adc	r6, r26
    5290:	7b 1e       	adc	r7, r27
    5292:	01 e0       	ldi	r16, 0x01	; 1
    5294:	10 e0       	ldi	r17, 0x00	; 0
    5296:	a3 01       	movw	r20, r6
    5298:	92 01       	movw	r18, r4
    529a:	b1 01       	movw	r22, r2
    529c:	ab 89       	ldd	r26, Y+19	; 0x13
    529e:	bc 89       	ldd	r27, Y+20	; 0x14
    52a0:	11 96       	adiw	r26, 0x01	; 1
    52a2:	8c 91       	ld	r24, X
    52a4:	0e 94 6d 3b 	call	0x76da	; 0x76da <disk_write>
    52a8:	b1 e0       	ldi	r27, 0x01	; 1
    52aa:	eb 1a       	sub	r14, r27
    52ac:	f1 08       	sbc	r15, r1
    52ae:	e1 e0       	ldi	r30, 0x01	; 1
    52b0:	ee 16       	cp	r14, r30
    52b2:	f1 04       	cpc	r15, r1
    52b4:	21 f7       	brne	.-56     	; 0x527e <remove_chain+0x5ce>
    52b6:	b2 ce       	rjmp	.-668    	; 0x501c <remove_chain+0x36c>
    52b8:	1d 01       	movw	r2, r26
    52ba:	13 e3       	ldi	r17, 0x33	; 51
    52bc:	21 0e       	add	r2, r17
    52be:	31 1c       	adc	r3, r1
    52c0:	01 e0       	ldi	r16, 0x01	; 1
    52c2:	10 e0       	ldi	r17, 0x00	; 0
    52c4:	a3 01       	movw	r20, r6
    52c6:	92 01       	movw	r18, r4
    52c8:	b1 01       	movw	r22, r2
    52ca:	11 96       	adiw	r26, 0x01	; 1
    52cc:	8c 91       	ld	r24, X
    52ce:	0e 94 6d 3b 	call	0x76da	; 0x76da <disk_write>
    52d2:	81 11       	cpse	r24, r1
    52d4:	55 cf       	rjmp	.-342    	; 0x5180 <remove_chain+0x4d0>
    52d6:	ab 89       	ldd	r26, Y+19	; 0x13
    52d8:	bc 89       	ldd	r27, Y+20	; 0x14
    52da:	13 96       	adiw	r26, 0x03	; 3
    52dc:	1c 92       	st	X, r1
    52de:	13 97       	sbiw	r26, 0x03	; 3
    52e0:	fd 01       	movw	r30, r26
    52e2:	83 8d       	ldd	r24, Z+27	; 0x1b
    52e4:	94 8d       	ldd	r25, Z+28	; 0x1c
    52e6:	a5 8d       	ldd	r26, Z+29	; 0x1d
    52e8:	b6 8d       	ldd	r27, Z+30	; 0x1e
    52ea:	43 a1       	ldd	r20, Z+35	; 0x23
    52ec:	54 a1       	ldd	r21, Z+36	; 0x24
    52ee:	65 a1       	ldd	r22, Z+37	; 0x25
    52f0:	76 a1       	ldd	r23, Z+38	; 0x26
    52f2:	93 01       	movw	r18, r6
    52f4:	82 01       	movw	r16, r4
    52f6:	04 1b       	sub	r16, r20
    52f8:	15 0b       	sbc	r17, r21
    52fa:	26 0b       	sbc	r18, r22
    52fc:	37 0b       	sbc	r19, r23
    52fe:	08 17       	cp	r16, r24
    5300:	19 07       	cpc	r17, r25
    5302:	2a 07       	cpc	r18, r26
    5304:	3b 07       	cpc	r19, r27
    5306:	08 f0       	brcs	.+2      	; 0x530a <remove_chain+0x65a>
    5308:	e5 cd       	rjmp	.-1078   	; 0x4ed4 <remove_chain+0x224>
    530a:	e2 80       	ldd	r14, Z+2	; 0x02
    530c:	f1 2c       	mov	r15, r1
    530e:	12 e0       	ldi	r17, 0x02	; 2
    5310:	e1 16       	cp	r14, r17
    5312:	f1 04       	cpc	r15, r1
    5314:	38 f4       	brcc	.+14     	; 0x5324 <remove_chain+0x674>
    5316:	de cd       	rjmp	.-1092   	; 0x4ed4 <remove_chain+0x224>
    5318:	eb 89       	ldd	r30, Y+19	; 0x13
    531a:	fc 89       	ldd	r31, Y+20	; 0x14
    531c:	83 8d       	ldd	r24, Z+27	; 0x1b
    531e:	94 8d       	ldd	r25, Z+28	; 0x1c
    5320:	a5 8d       	ldd	r26, Z+29	; 0x1d
    5322:	b6 8d       	ldd	r27, Z+30	; 0x1e
    5324:	48 0e       	add	r4, r24
    5326:	59 1e       	adc	r5, r25
    5328:	6a 1e       	adc	r6, r26
    532a:	7b 1e       	adc	r7, r27
    532c:	01 e0       	ldi	r16, 0x01	; 1
    532e:	10 e0       	ldi	r17, 0x00	; 0
    5330:	a3 01       	movw	r20, r6
    5332:	92 01       	movw	r18, r4
    5334:	b1 01       	movw	r22, r2
    5336:	ab 89       	ldd	r26, Y+19	; 0x13
    5338:	bc 89       	ldd	r27, Y+20	; 0x14
    533a:	11 96       	adiw	r26, 0x01	; 1
    533c:	8c 91       	ld	r24, X
    533e:	0e 94 6d 3b 	call	0x76da	; 0x76da <disk_write>
    5342:	b1 e0       	ldi	r27, 0x01	; 1
    5344:	eb 1a       	sub	r14, r27
    5346:	f1 08       	sbc	r15, r1
    5348:	e1 e0       	ldi	r30, 0x01	; 1
    534a:	ee 16       	cp	r14, r30
    534c:	f1 04       	cpc	r15, r1
    534e:	21 f7       	brne	.-56     	; 0x5318 <remove_chain+0x668>
    5350:	c1 cd       	rjmp	.-1150   	; 0x4ed4 <remove_chain+0x224>
    5352:	fd 01       	movw	r30, r26
    5354:	1d 01       	movw	r2, r26
    5356:	b3 e3       	ldi	r27, 0x33	; 51
    5358:	2b 0e       	add	r2, r27
    535a:	31 1c       	adc	r3, r1
    535c:	01 e0       	ldi	r16, 0x01	; 1
    535e:	10 e0       	ldi	r17, 0x00	; 0
    5360:	2b 81       	ldd	r18, Y+3	; 0x03
    5362:	3c 81       	ldd	r19, Y+4	; 0x04
    5364:	4d 81       	ldd	r20, Y+5	; 0x05
    5366:	5e 81       	ldd	r21, Y+6	; 0x06
    5368:	b1 01       	movw	r22, r2
    536a:	81 81       	ldd	r24, Z+1	; 0x01
    536c:	0e 94 6d 3b 	call	0x76da	; 0x76da <disk_write>
    5370:	81 11       	cpse	r24, r1
    5372:	06 cf       	rjmp	.-500    	; 0x5180 <remove_chain+0x4d0>
    5374:	ab 89       	ldd	r26, Y+19	; 0x13
    5376:	bc 89       	ldd	r27, Y+20	; 0x14
    5378:	13 96       	adiw	r26, 0x03	; 3
    537a:	1c 92       	st	X, r1
    537c:	13 97       	sbiw	r26, 0x03	; 3
    537e:	fd 01       	movw	r30, r26
    5380:	83 8d       	ldd	r24, Z+27	; 0x1b
    5382:	94 8d       	ldd	r25, Z+28	; 0x1c
    5384:	a5 8d       	ldd	r26, Z+29	; 0x1d
    5386:	b6 8d       	ldd	r27, Z+30	; 0x1e
    5388:	43 a1       	ldd	r20, Z+35	; 0x23
    538a:	54 a1       	ldd	r21, Z+36	; 0x24
    538c:	65 a1       	ldd	r22, Z+37	; 0x25
    538e:	76 a1       	ldd	r23, Z+38	; 0x26
    5390:	0b 81       	ldd	r16, Y+3	; 0x03
    5392:	1c 81       	ldd	r17, Y+4	; 0x04
    5394:	2d 81       	ldd	r18, Y+5	; 0x05
    5396:	3e 81       	ldd	r19, Y+6	; 0x06
    5398:	04 1b       	sub	r16, r20
    539a:	15 0b       	sbc	r17, r21
    539c:	26 0b       	sbc	r18, r22
    539e:	37 0b       	sbc	r19, r23
    53a0:	08 17       	cp	r16, r24
    53a2:	19 07       	cpc	r17, r25
    53a4:	2a 07       	cpc	r18, r26
    53a6:	3b 07       	cpc	r19, r27
    53a8:	08 f0       	brcs	.+2      	; 0x53ac <remove_chain+0x6fc>
    53aa:	e1 cd       	rjmp	.-1086   	; 0x4f6e <remove_chain+0x2be>
    53ac:	e2 80       	ldd	r14, Z+2	; 0x02
    53ae:	f1 2c       	mov	r15, r1
    53b0:	12 e0       	ldi	r17, 0x02	; 2
    53b2:	e1 16       	cp	r14, r17
    53b4:	f1 04       	cpc	r15, r1
    53b6:	08 f4       	brcc	.+2      	; 0x53ba <remove_chain+0x70a>
    53b8:	da cd       	rjmp	.-1100   	; 0x4f6e <remove_chain+0x2be>
    53ba:	4b 86       	std	Y+11, r4	; 0x0b
    53bc:	5c 86       	std	Y+12, r5	; 0x0c
    53be:	6d 86       	std	Y+13, r6	; 0x0d
    53c0:	7e 86       	std	Y+14, r7	; 0x0e
    53c2:	26 01       	movw	r4, r12
    53c4:	8f 86       	std	Y+15, r8	; 0x0f
    53c6:	98 8a       	std	Y+16, r9	; 0x10
    53c8:	a9 8a       	std	Y+17, r10	; 0x11
    53ca:	ba 8a       	std	Y+18, r11	; 0x12
    53cc:	57 01       	movw	r10, r14
    53ce:	cb 80       	ldd	r12, Y+3	; 0x03
    53d0:	dc 80       	ldd	r13, Y+4	; 0x04
    53d2:	ed 80       	ldd	r14, Y+5	; 0x05
    53d4:	fe 80       	ldd	r15, Y+6	; 0x06
    53d6:	06 c0       	rjmp	.+12     	; 0x53e4 <remove_chain+0x734>
    53d8:	eb 89       	ldd	r30, Y+19	; 0x13
    53da:	fc 89       	ldd	r31, Y+20	; 0x14
    53dc:	83 8d       	ldd	r24, Z+27	; 0x1b
    53de:	94 8d       	ldd	r25, Z+28	; 0x1c
    53e0:	a5 8d       	ldd	r26, Z+29	; 0x1d
    53e2:	b6 8d       	ldd	r27, Z+30	; 0x1e
    53e4:	c8 0e       	add	r12, r24
    53e6:	d9 1e       	adc	r13, r25
    53e8:	ea 1e       	adc	r14, r26
    53ea:	fb 1e       	adc	r15, r27
    53ec:	01 e0       	ldi	r16, 0x01	; 1
    53ee:	10 e0       	ldi	r17, 0x00	; 0
    53f0:	a7 01       	movw	r20, r14
    53f2:	96 01       	movw	r18, r12
    53f4:	b1 01       	movw	r22, r2
    53f6:	ab 89       	ldd	r26, Y+19	; 0x13
    53f8:	bc 89       	ldd	r27, Y+20	; 0x14
    53fa:	11 96       	adiw	r26, 0x01	; 1
    53fc:	8c 91       	ld	r24, X
    53fe:	0e 94 6d 3b 	call	0x76da	; 0x76da <disk_write>
    5402:	b1 e0       	ldi	r27, 0x01	; 1
    5404:	ab 1a       	sub	r10, r27
    5406:	b1 08       	sbc	r11, r1
    5408:	e1 e0       	ldi	r30, 0x01	; 1
    540a:	ae 16       	cp	r10, r30
    540c:	b1 04       	cpc	r11, r1
    540e:	21 f7       	brne	.-56     	; 0x53d8 <remove_chain+0x728>
    5410:	62 01       	movw	r12, r4
    5412:	4b 84       	ldd	r4, Y+11	; 0x0b
    5414:	5c 84       	ldd	r5, Y+12	; 0x0c
    5416:	6d 84       	ldd	r6, Y+13	; 0x0d
    5418:	7e 84       	ldd	r7, Y+14	; 0x0e
    541a:	8f 84       	ldd	r8, Y+15	; 0x0f
    541c:	98 88       	ldd	r9, Y+16	; 0x10
    541e:	a9 88       	ldd	r10, Y+17	; 0x11
    5420:	ba 88       	ldd	r11, Y+18	; 0x12
    5422:	a5 cd       	rjmp	.-1206   	; 0x4f6e <remove_chain+0x2be>
    5424:	af e0       	ldi	r26, 0x0F	; 15
    5426:	5a 22       	and	r5, r26
    5428:	61 2c       	mov	r6, r1
    542a:	71 2c       	mov	r7, r1
    542c:	3b ce       	rjmp	.-906    	; 0x50a4 <remove_chain+0x3f4>

0000542e <f_mount>:
    542e:	cf 93       	push	r28
    5430:	df 93       	push	r29
    5432:	00 d0       	rcall	.+0      	; 0x5434 <f_mount+0x6>
    5434:	1f 92       	push	r1
    5436:	cd b7       	in	r28, 0x3d	; 61
    5438:	de b7       	in	r29, 0x3e	; 62
    543a:	89 83       	std	Y+1, r24	; 0x01
    543c:	9a 83       	std	Y+2, r25	; 0x02
    543e:	6b 83       	std	Y+3, r22	; 0x03
    5440:	7c 83       	std	Y+4, r23	; 0x04
    5442:	e6 2f       	mov	r30, r22
    5444:	f7 2f       	mov	r31, r23
    5446:	30 97       	sbiw	r30, 0x00	; 0
    5448:	61 f1       	breq	.+88     	; 0x54a2 <f_mount+0x74>
    544a:	90 81       	ld	r25, Z
    544c:	91 32       	cpi	r25, 0x21	; 33
    544e:	68 f0       	brcs	.+26     	; 0x546a <f_mount+0x3c>
    5450:	9a 33       	cpi	r25, 0x3A	; 58
    5452:	39 f1       	breq	.+78     	; 0x54a2 <f_mount+0x74>
    5454:	bf 01       	movw	r22, r30
    5456:	6f 5f       	subi	r22, 0xFF	; 255
    5458:	7f 4f       	sbci	r23, 0xFF	; 255
    545a:	fb 01       	movw	r30, r22
    545c:	02 c0       	rjmp	.+4      	; 0x5462 <f_mount+0x34>
    545e:	8a 33       	cpi	r24, 0x3A	; 58
    5460:	e9 f0       	breq	.+58     	; 0x549c <f_mount+0x6e>
    5462:	9f 01       	movw	r18, r30
    5464:	81 91       	ld	r24, Z+
    5466:	81 32       	cpi	r24, 0x21	; 33
    5468:	d0 f7       	brcc	.-12     	; 0x545e <f_mount+0x30>
    546a:	e0 91 9a 26 	lds	r30, 0x269A	; 0x80269a <FatFs>
    546e:	f0 91 9b 26 	lds	r31, 0x269B	; 0x80269b <FatFs+0x1>
    5472:	30 97       	sbiw	r30, 0x00	; 0
    5474:	09 f0       	breq	.+2      	; 0x5478 <f_mount+0x4a>
    5476:	10 82       	st	Z, r1
    5478:	e9 81       	ldd	r30, Y+1	; 0x01
    547a:	fa 81       	ldd	r31, Y+2	; 0x02
    547c:	30 97       	sbiw	r30, 0x00	; 0
    547e:	31 f1       	breq	.+76     	; 0x54cc <f_mount+0x9e>
    5480:	10 82       	st	Z, r1
    5482:	e0 93 9a 26 	sts	0x269A, r30	; 0x80269a <FatFs>
    5486:	f0 93 9b 26 	sts	0x269B, r31	; 0x80269b <FatFs+0x1>
    548a:	41 30       	cpi	r20, 0x01	; 1
    548c:	89 f0       	breq	.+34     	; 0x54b0 <f_mount+0x82>
    548e:	80 e0       	ldi	r24, 0x00	; 0
    5490:	24 96       	adiw	r28, 0x04	; 4
    5492:	cd bf       	out	0x3d, r28	; 61
    5494:	de bf       	out	0x3e, r29	; 62
    5496:	df 91       	pop	r29
    5498:	cf 91       	pop	r28
    549a:	08 95       	ret
    549c:	26 17       	cp	r18, r22
    549e:	37 07       	cpc	r19, r23
    54a0:	d1 f0       	breq	.+52     	; 0x54d6 <f_mount+0xa8>
    54a2:	8b e0       	ldi	r24, 0x0B	; 11
    54a4:	24 96       	adiw	r28, 0x04	; 4
    54a6:	cd bf       	out	0x3d, r28	; 61
    54a8:	de bf       	out	0x3e, r29	; 62
    54aa:	df 91       	pop	r29
    54ac:	cf 91       	pop	r28
    54ae:	08 95       	ret
    54b0:	40 e0       	ldi	r20, 0x00	; 0
    54b2:	be 01       	movw	r22, r28
    54b4:	6f 5f       	subi	r22, 0xFF	; 255
    54b6:	7f 4f       	sbci	r23, 0xFF	; 255
    54b8:	ce 01       	movw	r24, r28
    54ba:	03 96       	adiw	r24, 0x03	; 3
    54bc:	0e 94 da 0b 	call	0x17b4	; 0x17b4 <find_volume>
    54c0:	24 96       	adiw	r28, 0x04	; 4
    54c2:	cd bf       	out	0x3d, r28	; 61
    54c4:	de bf       	out	0x3e, r29	; 62
    54c6:	df 91       	pop	r29
    54c8:	cf 91       	pop	r28
    54ca:	08 95       	ret
    54cc:	10 92 9a 26 	sts	0x269A, r1	; 0x80269a <FatFs>
    54d0:	10 92 9b 26 	sts	0x269B, r1	; 0x80269b <FatFs+0x1>
    54d4:	dc cf       	rjmp	.-72     	; 0x548e <f_mount+0x60>
    54d6:	90 33       	cpi	r25, 0x30	; 48
    54d8:	41 f2       	breq	.-112    	; 0x546a <f_mount+0x3c>
    54da:	e3 cf       	rjmp	.-58     	; 0x54a2 <f_mount+0x74>

000054dc <f_open>:
    54dc:	2f 92       	push	r2
    54de:	3f 92       	push	r3
    54e0:	4f 92       	push	r4
    54e2:	5f 92       	push	r5
    54e4:	6f 92       	push	r6
    54e6:	7f 92       	push	r7
    54e8:	8f 92       	push	r8
    54ea:	9f 92       	push	r9
    54ec:	af 92       	push	r10
    54ee:	bf 92       	push	r11
    54f0:	df 92       	push	r13
    54f2:	ef 92       	push	r14
    54f4:	ff 92       	push	r15
    54f6:	0f 93       	push	r16
    54f8:	1f 93       	push	r17
    54fa:	cf 93       	push	r28
    54fc:	df 93       	push	r29
    54fe:	cd b7       	in	r28, 0x3d	; 61
    5500:	de b7       	in	r29, 0x3e	; 62
    5502:	ac 97       	sbiw	r28, 0x2c	; 44
    5504:	cd bf       	out	0x3d, r28	; 61
    5506:	de bf       	out	0x3e, r29	; 62
    5508:	6b a7       	std	Y+43, r22	; 0x2b
    550a:	7c a7       	std	Y+44, r23	; 0x2c
    550c:	00 97       	sbiw	r24, 0x00	; 0
    550e:	39 f1       	breq	.+78     	; 0x555e <f_open+0x82>
    5510:	14 2f       	mov	r17, r20
    5512:	7c 01       	movw	r14, r24
    5514:	24 2f       	mov	r18, r20
    5516:	2f 73       	andi	r18, 0x3F	; 63
    5518:	d2 2e       	mov	r13, r18
    551a:	42 2f       	mov	r20, r18
    551c:	be 01       	movw	r22, r28
    551e:	67 5d       	subi	r22, 0xD7	; 215
    5520:	7f 4f       	sbci	r23, 0xFF	; 255
    5522:	ce 01       	movw	r24, r28
    5524:	8b 96       	adiw	r24, 0x2b	; 43
    5526:	0e 94 da 0b 	call	0x17b4	; 0x17b4 <find_volume>
    552a:	88 23       	and	r24, r24
    552c:	d1 f0       	breq	.+52     	; 0x5562 <f_open+0x86>
    552e:	f7 01       	movw	r30, r14
    5530:	10 82       	st	Z, r1
    5532:	11 82       	std	Z+1, r1	; 0x01
    5534:	ac 96       	adiw	r28, 0x2c	; 44
    5536:	cd bf       	out	0x3d, r28	; 61
    5538:	de bf       	out	0x3e, r29	; 62
    553a:	df 91       	pop	r29
    553c:	cf 91       	pop	r28
    553e:	1f 91       	pop	r17
    5540:	0f 91       	pop	r16
    5542:	ff 90       	pop	r15
    5544:	ef 90       	pop	r14
    5546:	df 90       	pop	r13
    5548:	bf 90       	pop	r11
    554a:	af 90       	pop	r10
    554c:	9f 90       	pop	r9
    554e:	8f 90       	pop	r8
    5550:	7f 90       	pop	r7
    5552:	6f 90       	pop	r6
    5554:	5f 90       	pop	r5
    5556:	4f 90       	pop	r4
    5558:	3f 90       	pop	r3
    555a:	2f 90       	pop	r2
    555c:	08 95       	ret
    555e:	89 e0       	ldi	r24, 0x09	; 9
    5560:	e9 cf       	rjmp	.-46     	; 0x5534 <f_open+0x58>
    5562:	89 a5       	ldd	r24, Y+41	; 0x29
    5564:	9a a5       	ldd	r25, Y+42	; 0x2a
    5566:	89 83       	std	Y+1, r24	; 0x01
    5568:	9a 83       	std	Y+2, r25	; 0x02
    556a:	6b a5       	ldd	r22, Y+43	; 0x2b
    556c:	7c a5       	ldd	r23, Y+44	; 0x2c
    556e:	ce 01       	movw	r24, r28
    5570:	01 96       	adiw	r24, 0x01	; 1
    5572:	0e 94 8d 1f 	call	0x3f1a	; 0x3f1a <follow_path>
    5576:	81 11       	cpse	r24, r1
    5578:	19 c0       	rjmp	.+50     	; 0x55ac <f_open+0xd0>
    557a:	88 a5       	ldd	r24, Y+40	; 0x28
    557c:	87 fd       	sbrc	r24, 7
    557e:	69 c1       	rjmp	.+722    	; 0x5852 <f_open+0x376>
    5580:	81 2f       	mov	r24, r17
    5582:	8c 71       	andi	r24, 0x1C	; 28
    5584:	09 f0       	breq	.+2      	; 0x5588 <f_open+0xac>
    5586:	3e c1       	rjmp	.+636    	; 0x5804 <f_open+0x328>
    5588:	8d 81       	ldd	r24, Y+5	; 0x05
    558a:	84 fd       	sbrc	r24, 4
    558c:	64 c1       	rjmp	.+712    	; 0x5856 <f_open+0x37a>
    558e:	11 ff       	sbrs	r17, 1
    5590:	02 c0       	rjmp	.+4      	; 0x5596 <f_open+0xba>
    5592:	80 fd       	sbrc	r24, 0
    5594:	49 c1       	rjmp	.+658    	; 0x5828 <f_open+0x34c>
    5596:	18 70       	andi	r17, 0x08	; 8
    5598:	e9 a5       	ldd	r30, Y+41	; 0x29
    559a:	fa a5       	ldd	r31, Y+42	; 0x2a
    559c:	2b 8d       	ldd	r18, Y+27	; 0x1b
    559e:	3c 8d       	ldd	r19, Y+28	; 0x1c
    55a0:	11 23       	and	r17, r17
    55a2:	c1 f0       	breq	.+48     	; 0x55d4 <f_open+0xf8>
    55a4:	8d 2d       	mov	r24, r13
    55a6:	80 64       	ori	r24, 0x40	; 64
    55a8:	d8 2e       	mov	r13, r24
    55aa:	14 c0       	rjmp	.+40     	; 0x55d4 <f_open+0xf8>
    55ac:	1c 71       	andi	r17, 0x1C	; 28
    55ae:	09 f4       	brne	.+2      	; 0x55b2 <f_open+0xd6>
    55b0:	be cf       	rjmp	.-132    	; 0x552e <f_open+0x52>
    55b2:	84 30       	cpi	r24, 0x04	; 4
    55b4:	09 f0       	breq	.+2      	; 0x55b8 <f_open+0xdc>
    55b6:	bb cf       	rjmp	.-138    	; 0x552e <f_open+0x52>
    55b8:	ce 01       	movw	r24, r28
    55ba:	01 96       	adiw	r24, 0x01	; 1
    55bc:	25 d8       	rcall	.-4022   	; 0x4608 <dir_register>
    55be:	3d 2d       	mov	r19, r13
    55c0:	38 60       	ori	r19, 0x08	; 8
    55c2:	d3 2e       	mov	r13, r19
    55c4:	81 11       	cpse	r24, r1
    55c6:	b3 cf       	rjmp	.-154    	; 0x552e <f_open+0x52>
    55c8:	d3 fc       	sbrc	r13, 3
    55ca:	47 c1       	rjmp	.+654    	; 0x585a <f_open+0x37e>
    55cc:	e9 a5       	ldd	r30, Y+41	; 0x29
    55ce:	fa a5       	ldd	r31, Y+42	; 0x2a
    55d0:	2b 8d       	ldd	r18, Y+27	; 0x1b
    55d2:	3c 8d       	ldd	r19, Y+28	; 0x1c
    55d4:	47 a5       	ldd	r20, Z+47	; 0x2f
    55d6:	50 a9       	ldd	r21, Z+48	; 0x30
    55d8:	61 a9       	ldd	r22, Z+49	; 0x31
    55da:	72 a9       	ldd	r23, Z+50	; 0x32
    55dc:	d7 01       	movw	r26, r14
    55de:	5c 96       	adiw	r26, 0x1c	; 28
    55e0:	4d 93       	st	X+, r20
    55e2:	5d 93       	st	X+, r21
    55e4:	6d 93       	st	X+, r22
    55e6:	7c 93       	st	X, r23
    55e8:	5f 97       	sbiw	r26, 0x1f	; 31
    55ea:	90 96       	adiw	r26, 0x20	; 32
    55ec:	2d 93       	st	X+, r18
    55ee:	3c 93       	st	X, r19
    55f0:	91 97       	sbiw	r26, 0x21	; 33
    55f2:	d9 01       	movw	r26, r18
    55f4:	5b 96       	adiw	r26, 0x1b	; 27
    55f6:	8c 91       	ld	r24, X
    55f8:	5b 97       	sbiw	r26, 0x1b	; 27
    55fa:	90 e0       	ldi	r25, 0x00	; 0
    55fc:	98 2f       	mov	r25, r24
    55fe:	88 27       	eor	r24, r24
    5600:	5a 96       	adiw	r26, 0x1a	; 26
    5602:	4c 91       	ld	r20, X
    5604:	5a 97       	sbiw	r26, 0x1a	; 26
    5606:	84 2b       	or	r24, r20
    5608:	4c 01       	movw	r8, r24
    560a:	a1 2c       	mov	r10, r1
    560c:	b1 2c       	mov	r11, r1
    560e:	40 81       	ld	r20, Z
    5610:	43 30       	cpi	r20, 0x03	; 3
    5612:	09 f4       	brne	.+2      	; 0x5616 <f_open+0x13a>
    5614:	0b c1       	rjmp	.+534    	; 0x582c <f_open+0x350>
    5616:	d7 01       	movw	r26, r14
    5618:	16 96       	adiw	r26, 0x06	; 6
    561a:	8d 92       	st	X+, r8
    561c:	9d 92       	st	X+, r9
    561e:	ad 92       	st	X+, r10
    5620:	bc 92       	st	X, r11
    5622:	19 97       	sbiw	r26, 0x09	; 9
    5624:	d9 01       	movw	r26, r18
    5626:	5f 96       	adiw	r26, 0x1f	; 31
    5628:	8c 91       	ld	r24, X
    562a:	90 e0       	ldi	r25, 0x00	; 0
    562c:	a0 e0       	ldi	r26, 0x00	; 0
    562e:	b0 e0       	ldi	r27, 0x00	; 0
    5630:	88 24       	eor	r8, r8
    5632:	98 2e       	mov	r9, r24
    5634:	a9 2e       	mov	r10, r25
    5636:	ba 2e       	mov	r11, r26
    5638:	d9 01       	movw	r26, r18
    563a:	5e 96       	adiw	r26, 0x1e	; 30
    563c:	4c 91       	ld	r20, X
    563e:	d5 01       	movw	r26, r10
    5640:	c4 01       	movw	r24, r8
    5642:	84 2b       	or	r24, r20
    5644:	88 24       	eor	r8, r8
    5646:	98 2e       	mov	r9, r24
    5648:	a9 2e       	mov	r10, r25
    564a:	ba 2e       	mov	r11, r26
    564c:	d9 01       	movw	r26, r18
    564e:	5d 96       	adiw	r26, 0x1d	; 29
    5650:	4c 91       	ld	r20, X
    5652:	d5 01       	movw	r26, r10
    5654:	c4 01       	movw	r24, r8
    5656:	84 2b       	or	r24, r20
    5658:	44 27       	eor	r20, r20
    565a:	58 2f       	mov	r21, r24
    565c:	69 2f       	mov	r22, r25
    565e:	7a 2f       	mov	r23, r26
    5660:	d9 01       	movw	r26, r18
    5662:	5c 96       	adiw	r26, 0x1c	; 28
    5664:	2c 91       	ld	r18, X
    5666:	42 2b       	or	r20, r18
    5668:	d7 01       	movw	r26, r14
    566a:	1a 96       	adiw	r26, 0x0a	; 10
    566c:	4d 93       	st	X+, r20
    566e:	5d 93       	st	X+, r21
    5670:	6d 93       	st	X+, r22
    5672:	7c 93       	st	X, r23
    5674:	1d 97       	sbiw	r26, 0x0d	; 13
    5676:	ed 93       	st	X+, r30
    5678:	fc 93       	st	X, r31
    567a:	11 97       	sbiw	r26, 0x01	; 1
    567c:	85 81       	ldd	r24, Z+5	; 0x05
    567e:	96 81       	ldd	r25, Z+6	; 0x06
    5680:	12 96       	adiw	r26, 0x02	; 2
    5682:	8d 93       	st	X+, r24
    5684:	9c 93       	st	X, r25
    5686:	13 97       	sbiw	r26, 0x03	; 3
    5688:	1e 96       	adiw	r26, 0x0e	; 14
    568a:	dc 92       	st	X, r13
    568c:	1e 97       	sbiw	r26, 0x0e	; 14
    568e:	1f 96       	adiw	r26, 0x0f	; 15
    5690:	1c 92       	st	X, r1
    5692:	1f 97       	sbiw	r26, 0x0f	; 15
    5694:	58 96       	adiw	r26, 0x18	; 24
    5696:	1d 92       	st	X+, r1
    5698:	1d 92       	st	X+, r1
    569a:	1d 92       	st	X+, r1
    569c:	1c 92       	st	X, r1
    569e:	5b 97       	sbiw	r26, 0x1b	; 27
    56a0:	50 96       	adiw	r26, 0x10	; 16
    56a2:	1d 92       	st	X+, r1
    56a4:	1d 92       	st	X+, r1
    56a6:	1d 92       	st	X+, r1
    56a8:	1c 92       	st	X, r1
    56aa:	53 97       	sbiw	r26, 0x13	; 19
    56ac:	17 01       	movw	r2, r14
    56ae:	b2 e2       	ldi	r27, 0x22	; 34
    56b0:	2b 0e       	add	r2, r27
    56b2:	31 1c       	adc	r3, r1
    56b4:	80 e0       	ldi	r24, 0x00	; 0
    56b6:	92 e0       	ldi	r25, 0x02	; 2
    56b8:	d1 01       	movw	r26, r2
    56ba:	9c 01       	movw	r18, r24
    56bc:	1d 92       	st	X+, r1
    56be:	21 50       	subi	r18, 0x01	; 1
    56c0:	30 40       	sbci	r19, 0x00	; 0
    56c2:	e1 f7       	brne	.-8      	; 0x56bc <f_open+0x1e0>
    56c4:	d5 fe       	sbrs	r13, 5
    56c6:	a5 c0       	rjmp	.+330    	; 0x5812 <f_open+0x336>
    56c8:	d7 01       	movw	r26, r14
    56ca:	1a 96       	adiw	r26, 0x0a	; 10
    56cc:	4d 90       	ld	r4, X+
    56ce:	5d 90       	ld	r5, X+
    56d0:	6d 90       	ld	r6, X+
    56d2:	7c 90       	ld	r7, X
    56d4:	1d 97       	sbiw	r26, 0x0d	; 13
    56d6:	41 14       	cp	r4, r1
    56d8:	51 04       	cpc	r5, r1
    56da:	61 04       	cpc	r6, r1
    56dc:	71 04       	cpc	r7, r1
    56de:	09 f4       	brne	.+2      	; 0x56e2 <f_open+0x206>
    56e0:	98 c0       	rjmp	.+304    	; 0x5812 <f_open+0x336>
    56e2:	50 96       	adiw	r26, 0x10	; 16
    56e4:	4d 92       	st	X+, r4
    56e6:	5d 92       	st	X+, r5
    56e8:	6d 92       	st	X+, r6
    56ea:	7c 92       	st	X, r7
    56ec:	53 97       	sbiw	r26, 0x13	; 19
    56ee:	81 85       	ldd	r24, Z+9	; 0x09
    56f0:	92 85       	ldd	r25, Z+10	; 0x0a
    56f2:	a0 e0       	ldi	r26, 0x00	; 0
    56f4:	b0 e0       	ldi	r27, 0x00	; 0
    56f6:	4c 01       	movw	r8, r24
    56f8:	5d 01       	movw	r10, r26
    56fa:	39 e0       	ldi	r19, 0x09	; 9
    56fc:	88 0c       	add	r8, r8
    56fe:	99 1c       	adc	r9, r9
    5700:	aa 1c       	adc	r10, r10
    5702:	bb 1c       	adc	r11, r11
    5704:	3a 95       	dec	r19
    5706:	d1 f7       	brne	.-12     	; 0x56fc <f_open+0x220>
    5708:	f7 01       	movw	r30, r14
    570a:	46 81       	ldd	r20, Z+6	; 0x06
    570c:	57 81       	ldd	r21, Z+7	; 0x07
    570e:	60 85       	ldd	r22, Z+8	; 0x08
    5710:	71 85       	ldd	r23, Z+9	; 0x09
    5712:	84 14       	cp	r8, r4
    5714:	95 04       	cpc	r9, r5
    5716:	a6 04       	cpc	r10, r6
    5718:	b7 04       	cpc	r11, r7
    571a:	e8 f4       	brcc	.+58     	; 0x5756 <f_open+0x27a>
    571c:	d7 01       	movw	r26, r14
    571e:	8d 91       	ld	r24, X+
    5720:	9c 91       	ld	r25, X
    5722:	0e 94 6c 14 	call	0x28d8	; 0x28d8 <get_fat.isra.8>
    5726:	ab 01       	movw	r20, r22
    5728:	bc 01       	movw	r22, r24
    572a:	42 30       	cpi	r20, 0x02	; 2
    572c:	51 05       	cpc	r21, r1
    572e:	61 05       	cpc	r22, r1
    5730:	71 05       	cpc	r23, r1
    5732:	08 f4       	brcc	.+2      	; 0x5736 <f_open+0x25a>
    5734:	77 c0       	rjmp	.+238    	; 0x5824 <f_open+0x348>
    5736:	4f 3f       	cpi	r20, 0xFF	; 255
    5738:	bf ef       	ldi	r27, 0xFF	; 255
    573a:	5b 07       	cpc	r21, r27
    573c:	6b 07       	cpc	r22, r27
    573e:	7b 07       	cpc	r23, r27
    5740:	09 f4       	brne	.+2      	; 0x5744 <f_open+0x268>
    5742:	69 c0       	rjmp	.+210    	; 0x5816 <f_open+0x33a>
    5744:	48 18       	sub	r4, r8
    5746:	59 08       	sbc	r5, r9
    5748:	6a 08       	sbc	r6, r10
    574a:	7b 08       	sbc	r7, r11
    574c:	84 14       	cp	r8, r4
    574e:	95 04       	cpc	r9, r5
    5750:	a6 04       	cpc	r10, r6
    5752:	b7 04       	cpc	r11, r7
    5754:	18 f3       	brcs	.-58     	; 0x571c <f_open+0x240>
    5756:	d7 01       	movw	r26, r14
    5758:	54 96       	adiw	r26, 0x14	; 20
    575a:	4d 93       	st	X+, r20
    575c:	5d 93       	st	X+, r21
    575e:	6d 93       	st	X+, r22
    5760:	7c 93       	st	X, r23
    5762:	57 97       	sbiw	r26, 0x17	; 23
    5764:	d3 01       	movw	r26, r6
    5766:	c2 01       	movw	r24, r4
    5768:	91 70       	andi	r25, 0x01	; 1
    576a:	aa 27       	eor	r26, r26
    576c:	bb 27       	eor	r27, r27
    576e:	89 2b       	or	r24, r25
    5770:	8a 2b       	or	r24, r26
    5772:	8b 2b       	or	r24, r27
    5774:	09 f4       	brne	.+2      	; 0x5778 <f_open+0x29c>
    5776:	4d c0       	rjmp	.+154    	; 0x5812 <f_open+0x336>
    5778:	e9 a5       	ldd	r30, Y+41	; 0x29
    577a:	fa a5       	ldd	r31, Y+42	; 0x2a
    577c:	9a 01       	movw	r18, r20
    577e:	ab 01       	movw	r20, r22
    5780:	22 50       	subi	r18, 0x02	; 2
    5782:	31 09       	sbc	r19, r1
    5784:	41 09       	sbc	r20, r1
    5786:	51 09       	sbc	r21, r1
    5788:	87 89       	ldd	r24, Z+23	; 0x17
    578a:	90 8d       	ldd	r25, Z+24	; 0x18
    578c:	a1 8d       	ldd	r26, Z+25	; 0x19
    578e:	b2 8d       	ldd	r27, Z+26	; 0x1a
    5790:	02 97       	sbiw	r24, 0x02	; 2
    5792:	a1 09       	sbc	r26, r1
    5794:	b1 09       	sbc	r27, r1
    5796:	28 17       	cp	r18, r24
    5798:	39 07       	cpc	r19, r25
    579a:	4a 07       	cpc	r20, r26
    579c:	5b 07       	cpc	r21, r27
    579e:	08 f0       	brcs	.+2      	; 0x57a2 <f_open+0x2c6>
    57a0:	d3 c0       	rjmp	.+422    	; 0x5948 <f_open+0x46c>
    57a2:	a1 85       	ldd	r26, Z+9	; 0x09
    57a4:	b2 85       	ldd	r27, Z+10	; 0x0a
    57a6:	0e 94 1d 44 	call	0x883a	; 0x883a <__muluhisi3>
    57aa:	83 a4       	ldd	r8, Z+43	; 0x2b
    57ac:	94 a4       	ldd	r9, Z+44	; 0x2c
    57ae:	a5 a4       	ldd	r10, Z+45	; 0x2d
    57b0:	b6 a4       	ldd	r11, Z+46	; 0x2e
    57b2:	dc 01       	movw	r26, r24
    57b4:	cb 01       	movw	r24, r22
    57b6:	88 0d       	add	r24, r8
    57b8:	99 1d       	adc	r25, r9
    57ba:	aa 1d       	adc	r26, r10
    57bc:	bb 1d       	adc	r27, r11
    57be:	00 97       	sbiw	r24, 0x00	; 0
    57c0:	a1 05       	cpc	r26, r1
    57c2:	b1 05       	cpc	r27, r1
    57c4:	09 f4       	brne	.+2      	; 0x57c8 <f_open+0x2ec>
    57c6:	c0 c0       	rjmp	.+384    	; 0x5948 <f_open+0x46c>
    57c8:	29 e0       	ldi	r18, 0x09	; 9
    57ca:	76 94       	lsr	r7
    57cc:	67 94       	ror	r6
    57ce:	57 94       	ror	r5
    57d0:	47 94       	ror	r4
    57d2:	2a 95       	dec	r18
    57d4:	d1 f7       	brne	.-12     	; 0x57ca <f_open+0x2ee>
    57d6:	9c 01       	movw	r18, r24
    57d8:	ad 01       	movw	r20, r26
    57da:	24 0d       	add	r18, r4
    57dc:	35 1d       	adc	r19, r5
    57de:	46 1d       	adc	r20, r6
    57e0:	57 1d       	adc	r21, r7
    57e2:	d7 01       	movw	r26, r14
    57e4:	58 96       	adiw	r26, 0x18	; 24
    57e6:	2d 93       	st	X+, r18
    57e8:	3d 93       	st	X+, r19
    57ea:	4d 93       	st	X+, r20
    57ec:	5c 93       	st	X, r21
    57ee:	5b 97       	sbiw	r26, 0x1b	; 27
    57f0:	01 e0       	ldi	r16, 0x01	; 1
    57f2:	10 e0       	ldi	r17, 0x00	; 0
    57f4:	b1 01       	movw	r22, r2
    57f6:	81 81       	ldd	r24, Z+1	; 0x01
    57f8:	0e 94 59 3b 	call	0x76b2	; 0x76b2 <disk_read>
    57fc:	88 23       	and	r24, r24
    57fe:	49 f0       	breq	.+18     	; 0x5812 <f_open+0x336>
    5800:	81 e0       	ldi	r24, 0x01	; 1
    5802:	95 ce       	rjmp	.-726    	; 0x552e <f_open+0x52>
    5804:	8d 81       	ldd	r24, Y+5	; 0x05
    5806:	81 71       	andi	r24, 0x11	; 17
    5808:	79 f4       	brne	.+30     	; 0x5828 <f_open+0x34c>
    580a:	12 ff       	sbrs	r17, 2
    580c:	dd ce       	rjmp	.-582    	; 0x55c8 <f_open+0xec>
    580e:	88 e0       	ldi	r24, 0x08	; 8
    5810:	8e ce       	rjmp	.-740    	; 0x552e <f_open+0x52>
    5812:	80 e0       	ldi	r24, 0x00	; 0
    5814:	8f ce       	rjmp	.-738    	; 0x5534 <f_open+0x58>
    5816:	81 e0       	ldi	r24, 0x01	; 1
    5818:	f7 01       	movw	r30, r14
    581a:	44 8b       	std	Z+20, r20	; 0x14
    581c:	55 8b       	std	Z+21, r21	; 0x15
    581e:	66 8b       	std	Z+22, r22	; 0x16
    5820:	77 8b       	std	Z+23, r23	; 0x17
    5822:	85 ce       	rjmp	.-758    	; 0x552e <f_open+0x52>
    5824:	82 e0       	ldi	r24, 0x02	; 2
    5826:	f8 cf       	rjmp	.-16     	; 0x5818 <f_open+0x33c>
    5828:	87 e0       	ldi	r24, 0x07	; 7
    582a:	81 ce       	rjmp	.-766    	; 0x552e <f_open+0x52>
    582c:	55 96       	adiw	r26, 0x15	; 21
    582e:	4c 91       	ld	r20, X
    5830:	55 97       	sbiw	r26, 0x15	; 21
    5832:	50 e0       	ldi	r21, 0x00	; 0
    5834:	54 2f       	mov	r21, r20
    5836:	44 27       	eor	r20, r20
    5838:	54 96       	adiw	r26, 0x14	; 20
    583a:	6c 91       	ld	r22, X
    583c:	46 2b       	or	r20, r22
    583e:	60 e0       	ldi	r22, 0x00	; 0
    5840:	70 e0       	ldi	r23, 0x00	; 0
    5842:	ba 01       	movw	r22, r20
    5844:	55 27       	eor	r21, r21
    5846:	44 27       	eor	r20, r20
    5848:	84 2a       	or	r8, r20
    584a:	95 2a       	or	r9, r21
    584c:	a6 2a       	or	r10, r22
    584e:	b7 2a       	or	r11, r23
    5850:	e2 ce       	rjmp	.-572    	; 0x5616 <f_open+0x13a>
    5852:	86 e0       	ldi	r24, 0x06	; 6
    5854:	6c ce       	rjmp	.-808    	; 0x552e <f_open+0x52>
    5856:	84 e0       	ldi	r24, 0x04	; 4
    5858:	6a ce       	rjmp	.-812    	; 0x552e <f_open+0x52>
    585a:	0e 94 71 3c 	call	0x78e2	; 0x78e2 <get_fattime>
    585e:	eb 8d       	ldd	r30, Y+27	; 0x1b
    5860:	fc 8d       	ldd	r31, Y+28	; 0x1c
    5862:	66 87       	std	Z+14, r22	; 0x0e
    5864:	87 2e       	mov	r8, r23
    5866:	98 2e       	mov	r9, r24
    5868:	a9 2e       	mov	r10, r25
    586a:	bb 24       	eor	r11, r11
    586c:	87 86       	std	Z+15, r8	; 0x0f
    586e:	8c 01       	movw	r16, r24
    5870:	22 27       	eor	r18, r18
    5872:	33 27       	eor	r19, r19
    5874:	00 8b       	std	Z+16, r16	; 0x10
    5876:	49 2e       	mov	r4, r25
    5878:	55 24       	eor	r5, r5
    587a:	66 24       	eor	r6, r6
    587c:	77 24       	eor	r7, r7
    587e:	41 8a       	std	Z+17, r4	; 0x11
    5880:	eb 8d       	ldd	r30, Y+27	; 0x1b
    5882:	fc 8d       	ldd	r31, Y+28	; 0x1c
    5884:	66 8b       	std	Z+22, r22	; 0x16
    5886:	87 8a       	std	Z+23, r8	; 0x17
    5888:	00 8f       	std	Z+24, r16	; 0x18
    588a:	41 8e       	std	Z+25, r4	; 0x19
    588c:	eb 8d       	ldd	r30, Y+27	; 0x1b
    588e:	fc 8d       	ldd	r31, Y+28	; 0x1c
    5890:	80 e2       	ldi	r24, 0x20	; 32
    5892:	83 87       	std	Z+11, r24	; 0x0b
    5894:	2b 8d       	ldd	r18, Y+27	; 0x1b
    5896:	3c 8d       	ldd	r19, Y+28	; 0x1c
    5898:	e9 a5       	ldd	r30, Y+41	; 0x29
    589a:	fa a5       	ldd	r31, Y+42	; 0x2a
    589c:	d9 01       	movw	r26, r18
    589e:	5b 96       	adiw	r26, 0x1b	; 27
    58a0:	4c 90       	ld	r4, X
    58a2:	5b 97       	sbiw	r26, 0x1b	; 27
    58a4:	51 2c       	mov	r5, r1
    58a6:	54 2c       	mov	r5, r4
    58a8:	44 24       	eor	r4, r4
    58aa:	5a 96       	adiw	r26, 0x1a	; 26
    58ac:	8c 91       	ld	r24, X
    58ae:	5a 97       	sbiw	r26, 0x1a	; 26
    58b0:	48 2a       	or	r4, r24
    58b2:	61 2c       	mov	r6, r1
    58b4:	71 2c       	mov	r7, r1
    58b6:	80 81       	ld	r24, Z
    58b8:	83 30       	cpi	r24, 0x03	; 3
    58ba:	09 f4       	brne	.+2      	; 0x58be <f_open+0x3e2>
    58bc:	4d c0       	rjmp	.+154    	; 0x5958 <f_open+0x47c>
    58be:	d9 01       	movw	r26, r18
    58c0:	5a 96       	adiw	r26, 0x1a	; 26
    58c2:	1c 92       	st	X, r1
    58c4:	5a 97       	sbiw	r26, 0x1a	; 26
    58c6:	5b 96       	adiw	r26, 0x1b	; 27
    58c8:	1c 92       	st	X, r1
    58ca:	5b 97       	sbiw	r26, 0x1b	; 27
    58cc:	80 81       	ld	r24, Z
    58ce:	83 30       	cpi	r24, 0x03	; 3
    58d0:	09 f4       	brne	.+2      	; 0x58d4 <f_open+0x3f8>
    58d2:	3c c0       	rjmp	.+120    	; 0x594c <f_open+0x470>
    58d4:	2b 8d       	ldd	r18, Y+27	; 0x1b
    58d6:	3c 8d       	ldd	r19, Y+28	; 0x1c
    58d8:	d9 01       	movw	r26, r18
    58da:	5c 96       	adiw	r26, 0x1c	; 28
    58dc:	1c 92       	st	X, r1
    58de:	5c 97       	sbiw	r26, 0x1c	; 28
    58e0:	5d 96       	adiw	r26, 0x1d	; 29
    58e2:	1c 92       	st	X, r1
    58e4:	5d 97       	sbiw	r26, 0x1d	; 29
    58e6:	5e 96       	adiw	r26, 0x1e	; 30
    58e8:	1c 92       	st	X, r1
    58ea:	5e 97       	sbiw	r26, 0x1e	; 30
    58ec:	5f 96       	adiw	r26, 0x1f	; 31
    58ee:	1c 92       	st	X, r1
    58f0:	81 e0       	ldi	r24, 0x01	; 1
    58f2:	83 83       	std	Z+3, r24	; 0x03
    58f4:	41 14       	cp	r4, r1
    58f6:	51 04       	cpc	r5, r1
    58f8:	61 04       	cpc	r6, r1
    58fa:	71 04       	cpc	r7, r1
    58fc:	09 f4       	brne	.+2      	; 0x5900 <f_open+0x424>
    58fe:	52 ce       	rjmp	.-860    	; 0x55a4 <f_open+0xc8>
    5900:	87 a4       	ldd	r8, Z+47	; 0x2f
    5902:	90 a8       	ldd	r9, Z+48	; 0x30
    5904:	a1 a8       	ldd	r10, Z+49	; 0x31
    5906:	b2 a8       	ldd	r11, Z+50	; 0x32
    5908:	00 e0       	ldi	r16, 0x00	; 0
    590a:	10 e0       	ldi	r17, 0x00	; 0
    590c:	98 01       	movw	r18, r16
    590e:	b3 01       	movw	r22, r6
    5910:	a2 01       	movw	r20, r4
    5912:	ce 01       	movw	r24, r28
    5914:	01 96       	adiw	r24, 0x01	; 1
    5916:	cc d9       	rcall	.-3176   	; 0x4cb0 <remove_chain>
    5918:	81 11       	cpse	r24, r1
    591a:	09 ce       	rjmp	.-1006   	; 0x552e <f_open+0x52>
    591c:	b5 01       	movw	r22, r10
    591e:	a4 01       	movw	r20, r8
    5920:	89 a5       	ldd	r24, Y+41	; 0x29
    5922:	9a a5       	ldd	r25, Y+42	; 0x2a
    5924:	0e 94 83 0a 	call	0x1506	; 0x1506 <move_window>
    5928:	e9 a5       	ldd	r30, Y+41	; 0x29
    592a:	fa a5       	ldd	r31, Y+42	; 0x2a
    592c:	b1 e0       	ldi	r27, 0x01	; 1
    592e:	4b 1a       	sub	r4, r27
    5930:	51 08       	sbc	r5, r1
    5932:	61 08       	sbc	r6, r1
    5934:	71 08       	sbc	r7, r1
    5936:	43 86       	std	Z+11, r4	; 0x0b
    5938:	54 86       	std	Z+12, r5	; 0x0c
    593a:	65 86       	std	Z+13, r6	; 0x0d
    593c:	76 86       	std	Z+14, r7	; 0x0e
    593e:	81 11       	cpse	r24, r1
    5940:	f6 cd       	rjmp	.-1044   	; 0x552e <f_open+0x52>
    5942:	2b 8d       	ldd	r18, Y+27	; 0x1b
    5944:	3c 8d       	ldd	r19, Y+28	; 0x1c
    5946:	2e ce       	rjmp	.-932    	; 0x55a4 <f_open+0xc8>
    5948:	82 e0       	ldi	r24, 0x02	; 2
    594a:	f1 cd       	rjmp	.-1054   	; 0x552e <f_open+0x52>
    594c:	54 96       	adiw	r26, 0x14	; 20
    594e:	1c 92       	st	X, r1
    5950:	54 97       	sbiw	r26, 0x14	; 20
    5952:	55 96       	adiw	r26, 0x15	; 21
    5954:	1c 92       	st	X, r1
    5956:	be cf       	rjmp	.-132    	; 0x58d4 <f_open+0x3f8>
    5958:	55 96       	adiw	r26, 0x15	; 21
    595a:	8c 91       	ld	r24, X
    595c:	55 97       	sbiw	r26, 0x15	; 21
    595e:	90 e0       	ldi	r25, 0x00	; 0
    5960:	98 2f       	mov	r25, r24
    5962:	88 27       	eor	r24, r24
    5964:	54 96       	adiw	r26, 0x14	; 20
    5966:	4c 91       	ld	r20, X
    5968:	84 2b       	or	r24, r20
    596a:	a0 e0       	ldi	r26, 0x00	; 0
    596c:	b0 e0       	ldi	r27, 0x00	; 0
    596e:	dc 01       	movw	r26, r24
    5970:	99 27       	eor	r25, r25
    5972:	88 27       	eor	r24, r24
    5974:	48 2a       	or	r4, r24
    5976:	59 2a       	or	r5, r25
    5978:	6a 2a       	or	r6, r26
    597a:	7b 2a       	or	r7, r27
    597c:	a0 cf       	rjmp	.-192    	; 0x58be <f_open+0x3e2>

0000597e <f_write>:
    597e:	2f 92       	push	r2
    5980:	3f 92       	push	r3
    5982:	4f 92       	push	r4
    5984:	5f 92       	push	r5
    5986:	6f 92       	push	r6
    5988:	7f 92       	push	r7
    598a:	8f 92       	push	r8
    598c:	9f 92       	push	r9
    598e:	af 92       	push	r10
    5990:	bf 92       	push	r11
    5992:	cf 92       	push	r12
    5994:	df 92       	push	r13
    5996:	ef 92       	push	r14
    5998:	ff 92       	push	r15
    599a:	0f 93       	push	r16
    599c:	1f 93       	push	r17
    599e:	cf 93       	push	r28
    59a0:	df 93       	push	r29
    59a2:	cd b7       	in	r28, 0x3d	; 61
    59a4:	de b7       	in	r29, 0x3e	; 62
    59a6:	28 97       	sbiw	r28, 0x08	; 8
    59a8:	cd bf       	out	0x3d, r28	; 61
    59aa:	de bf       	out	0x3e, r29	; 62
    59ac:	7c 01       	movw	r14, r24
    59ae:	4b 01       	movw	r8, r22
    59b0:	5a 01       	movw	r10, r20
    59b2:	19 01       	movw	r2, r18
    59b4:	d9 01       	movw	r26, r18
    59b6:	1d 92       	st	X+, r1
    59b8:	1c 92       	st	X, r1
    59ba:	00 97       	sbiw	r24, 0x00	; 0
    59bc:	49 f0       	breq	.+18     	; 0x59d0 <f_write+0x52>
    59be:	dc 01       	movw	r26, r24
    59c0:	ed 91       	ld	r30, X+
    59c2:	fc 91       	ld	r31, X
    59c4:	11 97       	sbiw	r26, 0x01	; 1
    59c6:	30 97       	sbiw	r30, 0x00	; 0
    59c8:	19 f0       	breq	.+6      	; 0x59d0 <f_write+0x52>
    59ca:	80 81       	ld	r24, Z
    59cc:	81 11       	cpse	r24, r1
    59ce:	17 c0       	rjmp	.+46     	; 0x59fe <f_write+0x80>
    59d0:	89 e0       	ldi	r24, 0x09	; 9
    59d2:	28 96       	adiw	r28, 0x08	; 8
    59d4:	cd bf       	out	0x3d, r28	; 61
    59d6:	de bf       	out	0x3e, r29	; 62
    59d8:	df 91       	pop	r29
    59da:	cf 91       	pop	r28
    59dc:	1f 91       	pop	r17
    59de:	0f 91       	pop	r16
    59e0:	ff 90       	pop	r15
    59e2:	ef 90       	pop	r14
    59e4:	df 90       	pop	r13
    59e6:	cf 90       	pop	r12
    59e8:	bf 90       	pop	r11
    59ea:	af 90       	pop	r10
    59ec:	9f 90       	pop	r9
    59ee:	8f 90       	pop	r8
    59f0:	7f 90       	pop	r7
    59f2:	6f 90       	pop	r6
    59f4:	5f 90       	pop	r5
    59f6:	4f 90       	pop	r4
    59f8:	3f 90       	pop	r3
    59fa:	2f 90       	pop	r2
    59fc:	08 95       	ret
    59fe:	25 81       	ldd	r18, Z+5	; 0x05
    5a00:	36 81       	ldd	r19, Z+6	; 0x06
    5a02:	12 96       	adiw	r26, 0x02	; 2
    5a04:	8d 91       	ld	r24, X+
    5a06:	9c 91       	ld	r25, X
    5a08:	13 97       	sbiw	r26, 0x03	; 3
    5a0a:	28 17       	cp	r18, r24
    5a0c:	39 07       	cpc	r19, r25
    5a0e:	01 f7       	brne	.-64     	; 0x59d0 <f_write+0x52>
    5a10:	81 81       	ldd	r24, Z+1	; 0x01
    5a12:	0e 94 52 3b 	call	0x76a4	; 0x76a4 <disk_status>
    5a16:	80 fd       	sbrc	r24, 0
    5a18:	db cf       	rjmp	.-74     	; 0x59d0 <f_write+0x52>
    5a1a:	f7 01       	movw	r30, r14
    5a1c:	01 90       	ld	r0, Z+
    5a1e:	f0 81       	ld	r31, Z
    5a20:	e0 2d       	mov	r30, r0
    5a22:	e9 83       	std	Y+1, r30	; 0x01
    5a24:	fa 83       	std	Y+2, r31	; 0x02
    5a26:	d7 01       	movw	r26, r14
    5a28:	1f 96       	adiw	r26, 0x0f	; 15
    5a2a:	8c 91       	ld	r24, X
    5a2c:	1f 97       	sbiw	r26, 0x0f	; 15
    5a2e:	81 11       	cpse	r24, r1
    5a30:	d0 cf       	rjmp	.-96     	; 0x59d2 <f_write+0x54>
    5a32:	1e 96       	adiw	r26, 0x0e	; 14
    5a34:	2c 91       	ld	r18, X
    5a36:	1e 97       	sbiw	r26, 0x0e	; 14
    5a38:	21 fd       	sbrc	r18, 1
    5a3a:	02 c0       	rjmp	.+4      	; 0x5a40 <f_write+0xc2>
    5a3c:	87 e0       	ldi	r24, 0x07	; 7
    5a3e:	c9 cf       	rjmp	.-110    	; 0x59d2 <f_write+0x54>
    5a40:	50 96       	adiw	r26, 0x10	; 16
    5a42:	8d 91       	ld	r24, X+
    5a44:	9d 91       	ld	r25, X+
    5a46:	0d 90       	ld	r0, X+
    5a48:	bc 91       	ld	r27, X
    5a4a:	a0 2d       	mov	r26, r0
    5a4c:	ac 01       	movw	r20, r24
    5a4e:	bd 01       	movw	r22, r26
    5a50:	4a 0d       	add	r20, r10
    5a52:	5b 1d       	adc	r21, r11
    5a54:	61 1d       	adc	r22, r1
    5a56:	71 1d       	adc	r23, r1
    5a58:	48 17       	cp	r20, r24
    5a5a:	59 07       	cpc	r21, r25
    5a5c:	6a 07       	cpc	r22, r26
    5a5e:	7b 07       	cpc	r23, r27
    5a60:	18 f4       	brcc	.+6      	; 0x5a68 <f_write+0xea>
    5a62:	5c 01       	movw	r10, r24
    5a64:	a0 94       	com	r10
    5a66:	b0 94       	com	r11
    5a68:	a1 14       	cp	r10, r1
    5a6a:	b1 04       	cpc	r11, r1
    5a6c:	09 f4       	brne	.+2      	; 0x5a70 <f_write+0xf2>
    5a6e:	56 c1       	rjmp	.+684    	; 0x5d1c <f_write+0x39e>
    5a70:	f7 01       	movw	r30, r14
    5a72:	b2 96       	adiw	r30, 0x22	; 34
    5a74:	eb 83       	std	Y+3, r30	; 0x03
    5a76:	fc 83       	std	Y+4, r31	; 0x04
    5a78:	97 01       	movw	r18, r14
    5a7a:	2e 5d       	subi	r18, 0xDE	; 222
    5a7c:	3d 4f       	sbci	r19, 0xFD	; 253
    5a7e:	2d 83       	std	Y+5, r18	; 0x05
    5a80:	3e 83       	std	Y+6, r19	; 0x06
    5a82:	ef 82       	std	Y+7, r14	; 0x07
    5a84:	f8 86       	std	Y+8, r15	; 0x08
    5a86:	e0 c0       	rjmp	.+448    	; 0x5c48 <f_write+0x2ca>
    5a88:	e9 81       	ldd	r30, Y+1	; 0x01
    5a8a:	fa 81       	ldd	r31, Y+2	; 0x02
    5a8c:	e1 84       	ldd	r14, Z+9	; 0x09
    5a8e:	f2 84       	ldd	r15, Z+10	; 0x0a
    5a90:	f1 e0       	ldi	r31, 0x01	; 1
    5a92:	ef 1a       	sub	r14, r31
    5a94:	f1 08       	sbc	r15, r1
    5a96:	ac 01       	movw	r20, r24
    5a98:	bd 01       	movw	r22, r26
    5a9a:	39 e0       	ldi	r19, 0x09	; 9
    5a9c:	76 95       	lsr	r23
    5a9e:	67 95       	ror	r22
    5aa0:	57 95       	ror	r21
    5aa2:	47 95       	ror	r20
    5aa4:	3a 95       	dec	r19
    5aa6:	d1 f7       	brne	.-12     	; 0x5a9c <f_write+0x11e>
    5aa8:	e4 22       	and	r14, r20
    5aaa:	f5 22       	and	r15, r21
    5aac:	e1 14       	cp	r14, r1
    5aae:	f1 04       	cpc	r15, r1
    5ab0:	91 f5       	brne	.+100    	; 0x5b16 <f_write+0x198>
    5ab2:	89 2b       	or	r24, r25
    5ab4:	8a 2b       	or	r24, r26
    5ab6:	8b 2b       	or	r24, r27
    5ab8:	09 f0       	breq	.+2      	; 0x5abc <f_write+0x13e>
    5aba:	1c c1       	rjmp	.+568    	; 0x5cf4 <f_write+0x376>
    5abc:	af 81       	ldd	r26, Y+7	; 0x07
    5abe:	b8 85       	ldd	r27, Y+8	; 0x08
    5ac0:	16 96       	adiw	r26, 0x06	; 6
    5ac2:	6d 91       	ld	r22, X+
    5ac4:	7d 91       	ld	r23, X+
    5ac6:	8d 91       	ld	r24, X+
    5ac8:	9c 91       	ld	r25, X
    5aca:	19 97       	sbiw	r26, 0x09	; 9
    5acc:	61 15       	cp	r22, r1
    5ace:	71 05       	cpc	r23, r1
    5ad0:	81 05       	cpc	r24, r1
    5ad2:	91 05       	cpc	r25, r1
    5ad4:	09 f4       	brne	.+2      	; 0x5ad8 <f_write+0x15a>
    5ad6:	42 c1       	rjmp	.+644    	; 0x5d5c <f_write+0x3de>
    5ad8:	61 30       	cpi	r22, 0x01	; 1
    5ada:	71 05       	cpc	r23, r1
    5adc:	81 05       	cpc	r24, r1
    5ade:	91 05       	cpc	r25, r1
    5ae0:	09 f4       	brne	.+2      	; 0x5ae4 <f_write+0x166>
    5ae2:	75 c1       	rjmp	.+746    	; 0x5dce <f_write+0x450>
    5ae4:	6f 3f       	cpi	r22, 0xFF	; 255
    5ae6:	ff ef       	ldi	r31, 0xFF	; 255
    5ae8:	7f 07       	cpc	r23, r31
    5aea:	8f 07       	cpc	r24, r31
    5aec:	9f 07       	cpc	r25, r31
    5aee:	09 f4       	brne	.+2      	; 0x5af2 <f_write+0x174>
    5af0:	fa c0       	rjmp	.+500    	; 0x5ce6 <f_write+0x368>
    5af2:	ef 81       	ldd	r30, Y+7	; 0x07
    5af4:	f8 85       	ldd	r31, Y+8	; 0x08
    5af6:	64 8b       	std	Z+20, r22	; 0x14
    5af8:	75 8b       	std	Z+21, r23	; 0x15
    5afa:	86 8b       	std	Z+22, r24	; 0x16
    5afc:	97 8b       	std	Z+23, r25	; 0x17
    5afe:	46 80       	ldd	r4, Z+6	; 0x06
    5b00:	57 80       	ldd	r5, Z+7	; 0x07
    5b02:	60 84       	ldd	r6, Z+8	; 0x08
    5b04:	71 84       	ldd	r7, Z+9	; 0x09
    5b06:	45 28       	or	r4, r5
    5b08:	46 28       	or	r4, r6
    5b0a:	47 28       	or	r4, r7
    5b0c:	21 f4       	brne	.+8      	; 0x5b16 <f_write+0x198>
    5b0e:	66 83       	std	Z+6, r22	; 0x06
    5b10:	77 83       	std	Z+7, r23	; 0x07
    5b12:	80 87       	std	Z+8, r24	; 0x08
    5b14:	91 87       	std	Z+9, r25	; 0x09
    5b16:	ef 81       	ldd	r30, Y+7	; 0x07
    5b18:	f8 85       	ldd	r31, Y+8	; 0x08
    5b1a:	86 85       	ldd	r24, Z+14	; 0x0e
    5b1c:	87 fd       	sbrc	r24, 7
    5b1e:	08 c1       	rjmp	.+528    	; 0x5d30 <f_write+0x3b2>
    5b20:	84 89       	ldd	r24, Z+20	; 0x14
    5b22:	95 89       	ldd	r25, Z+21	; 0x15
    5b24:	a6 89       	ldd	r26, Z+22	; 0x16
    5b26:	b7 89       	ldd	r27, Z+23	; 0x17
    5b28:	9c 01       	movw	r18, r24
    5b2a:	ad 01       	movw	r20, r26
    5b2c:	22 50       	subi	r18, 0x02	; 2
    5b2e:	31 09       	sbc	r19, r1
    5b30:	41 09       	sbc	r20, r1
    5b32:	51 09       	sbc	r21, r1
    5b34:	e9 81       	ldd	r30, Y+1	; 0x01
    5b36:	fa 81       	ldd	r31, Y+2	; 0x02
    5b38:	87 89       	ldd	r24, Z+23	; 0x17
    5b3a:	90 8d       	ldd	r25, Z+24	; 0x18
    5b3c:	a1 8d       	ldd	r26, Z+25	; 0x19
    5b3e:	b2 8d       	ldd	r27, Z+26	; 0x1a
    5b40:	02 97       	sbiw	r24, 0x02	; 2
    5b42:	a1 09       	sbc	r26, r1
    5b44:	b1 09       	sbc	r27, r1
    5b46:	28 17       	cp	r18, r24
    5b48:	39 07       	cpc	r19, r25
    5b4a:	4a 07       	cpc	r20, r26
    5b4c:	5b 07       	cpc	r21, r27
    5b4e:	08 f0       	brcs	.+2      	; 0x5b52 <f_write+0x1d4>
    5b50:	3e c1       	rjmp	.+636    	; 0x5dce <f_write+0x450>
    5b52:	01 85       	ldd	r16, Z+9	; 0x09
    5b54:	12 85       	ldd	r17, Z+10	; 0x0a
    5b56:	d8 01       	movw	r26, r16
    5b58:	0e 94 1d 44 	call	0x883a	; 0x883a <__muluhisi3>
    5b5c:	43 a4       	ldd	r4, Z+43	; 0x2b
    5b5e:	54 a4       	ldd	r5, Z+44	; 0x2c
    5b60:	65 a4       	ldd	r6, Z+45	; 0x2d
    5b62:	76 a4       	ldd	r7, Z+46	; 0x2e
    5b64:	46 0e       	add	r4, r22
    5b66:	57 1e       	adc	r5, r23
    5b68:	68 1e       	adc	r6, r24
    5b6a:	79 1e       	adc	r7, r25
    5b6c:	41 14       	cp	r4, r1
    5b6e:	51 04       	cpc	r5, r1
    5b70:	61 04       	cpc	r6, r1
    5b72:	71 04       	cpc	r7, r1
    5b74:	09 f4       	brne	.+2      	; 0x5b78 <f_write+0x1fa>
    5b76:	2b c1       	rjmp	.+598    	; 0x5dce <f_write+0x450>
    5b78:	4e 0c       	add	r4, r14
    5b7a:	5f 1c       	adc	r5, r15
    5b7c:	61 1c       	adc	r6, r1
    5b7e:	71 1c       	adc	r7, r1
    5b80:	65 01       	movw	r12, r10
    5b82:	cd 2c       	mov	r12, r13
    5b84:	dd 24       	eor	r13, r13
    5b86:	c6 94       	lsr	r12
    5b88:	c1 14       	cp	r12, r1
    5b8a:	d1 04       	cpc	r13, r1
    5b8c:	09 f4       	brne	.+2      	; 0x5b90 <f_write+0x212>
    5b8e:	8b c0       	rjmp	.+278    	; 0x5ca6 <f_write+0x328>
    5b90:	c7 01       	movw	r24, r14
    5b92:	8c 0d       	add	r24, r12
    5b94:	9d 1d       	adc	r25, r13
    5b96:	08 17       	cp	r16, r24
    5b98:	19 07       	cpc	r17, r25
    5b9a:	18 f4       	brcc	.+6      	; 0x5ba2 <f_write+0x224>
    5b9c:	68 01       	movw	r12, r16
    5b9e:	ce 18       	sub	r12, r14
    5ba0:	df 08       	sbc	r13, r15
    5ba2:	86 01       	movw	r16, r12
    5ba4:	a3 01       	movw	r20, r6
    5ba6:	92 01       	movw	r18, r4
    5ba8:	b4 01       	movw	r22, r8
    5baa:	a9 81       	ldd	r26, Y+1	; 0x01
    5bac:	ba 81       	ldd	r27, Y+2	; 0x02
    5bae:	11 96       	adiw	r26, 0x01	; 1
    5bb0:	8c 91       	ld	r24, X
    5bb2:	0e 94 6d 3b 	call	0x76da	; 0x76da <disk_write>
    5bb6:	81 11       	cpse	r24, r1
    5bb8:	96 c0       	rjmp	.+300    	; 0x5ce6 <f_write+0x368>
    5bba:	ef 81       	ldd	r30, Y+7	; 0x07
    5bbc:	f8 85       	ldd	r31, Y+8	; 0x08
    5bbe:	80 8d       	ldd	r24, Z+24	; 0x18
    5bc0:	91 8d       	ldd	r25, Z+25	; 0x19
    5bc2:	a2 8d       	ldd	r26, Z+26	; 0x1a
    5bc4:	b3 8d       	ldd	r27, Z+27	; 0x1b
    5bc6:	84 19       	sub	r24, r4
    5bc8:	95 09       	sbc	r25, r5
    5bca:	a6 09       	sbc	r26, r6
    5bcc:	b7 09       	sbc	r27, r7
    5bce:	a6 01       	movw	r20, r12
    5bd0:	60 e0       	ldi	r22, 0x00	; 0
    5bd2:	70 e0       	ldi	r23, 0x00	; 0
    5bd4:	84 17       	cp	r24, r20
    5bd6:	95 07       	cpc	r25, r21
    5bd8:	a6 07       	cpc	r26, r22
    5bda:	b7 07       	cpc	r27, r23
    5bdc:	08 f4       	brcc	.+2      	; 0x5be0 <f_write+0x262>
    5bde:	da c0       	rjmp	.+436    	; 0x5d94 <f_write+0x416>
    5be0:	96 01       	movw	r18, r12
    5be2:	32 2f       	mov	r19, r18
    5be4:	22 27       	eor	r18, r18
    5be6:	33 0f       	add	r19, r19
    5be8:	ef 81       	ldd	r30, Y+7	; 0x07
    5bea:	f8 85       	ldd	r31, Y+8	; 0x08
    5bec:	82 0e       	add	r8, r18
    5bee:	93 1e       	adc	r9, r19
    5bf0:	80 89       	ldd	r24, Z+16	; 0x10
    5bf2:	91 89       	ldd	r25, Z+17	; 0x11
    5bf4:	a2 89       	ldd	r26, Z+18	; 0x12
    5bf6:	b3 89       	ldd	r27, Z+19	; 0x13
    5bf8:	82 0f       	add	r24, r18
    5bfa:	93 1f       	adc	r25, r19
    5bfc:	a1 1d       	adc	r26, r1
    5bfe:	b1 1d       	adc	r27, r1
    5c00:	80 8b       	std	Z+16, r24	; 0x10
    5c02:	91 8b       	std	Z+17, r25	; 0x11
    5c04:	a2 8b       	std	Z+18, r26	; 0x12
    5c06:	b3 8b       	std	Z+19, r27	; 0x13
    5c08:	42 85       	ldd	r20, Z+10	; 0x0a
    5c0a:	53 85       	ldd	r21, Z+11	; 0x0b
    5c0c:	64 85       	ldd	r22, Z+12	; 0x0c
    5c0e:	75 85       	ldd	r23, Z+13	; 0x0d
    5c10:	7c 01       	movw	r14, r24
    5c12:	1a 2f       	mov	r17, r26
    5c14:	0b 2f       	mov	r16, r27
    5c16:	84 17       	cp	r24, r20
    5c18:	95 07       	cpc	r25, r21
    5c1a:	a6 07       	cpc	r26, r22
    5c1c:	b7 07       	cpc	r27, r23
    5c1e:	28 f4       	brcc	.+10     	; 0x5c2a <f_write+0x2ac>
    5c20:	7a 01       	movw	r14, r20
    5c22:	16 2f       	mov	r17, r22
    5c24:	07 2f       	mov	r16, r23
    5c26:	ef 81       	ldd	r30, Y+7	; 0x07
    5c28:	f8 85       	ldd	r31, Y+8	; 0x08
    5c2a:	e2 86       	std	Z+10, r14	; 0x0a
    5c2c:	f3 86       	std	Z+11, r15	; 0x0b
    5c2e:	14 87       	std	Z+12, r17	; 0x0c
    5c30:	05 87       	std	Z+13, r16	; 0x0d
    5c32:	f1 01       	movw	r30, r2
    5c34:	40 81       	ld	r20, Z
    5c36:	51 81       	ldd	r21, Z+1	; 0x01
    5c38:	42 0f       	add	r20, r18
    5c3a:	53 1f       	adc	r21, r19
    5c3c:	40 83       	st	Z, r20
    5c3e:	51 83       	std	Z+1, r21	; 0x01
    5c40:	a2 1a       	sub	r10, r18
    5c42:	b3 0a       	sbc	r11, r19
    5c44:	09 f4       	brne	.+2      	; 0x5c48 <f_write+0x2ca>
    5c46:	65 c0       	rjmp	.+202    	; 0x5d12 <f_write+0x394>
    5c48:	ac 01       	movw	r20, r24
    5c4a:	bd 01       	movw	r22, r26
    5c4c:	51 70       	andi	r21, 0x01	; 1
    5c4e:	66 27       	eor	r22, r22
    5c50:	77 27       	eor	r23, r23
    5c52:	45 2b       	or	r20, r21
    5c54:	46 2b       	or	r20, r22
    5c56:	47 2b       	or	r20, r23
    5c58:	09 f4       	brne	.+2      	; 0x5c5c <f_write+0x2de>
    5c5a:	16 cf       	rjmp	.-468    	; 0x5a88 <f_write+0x10a>
    5c5c:	91 70       	andi	r25, 0x01	; 1
    5c5e:	20 e0       	ldi	r18, 0x00	; 0
    5c60:	32 e0       	ldi	r19, 0x02	; 2
    5c62:	28 1b       	sub	r18, r24
    5c64:	39 0b       	sbc	r19, r25
    5c66:	a2 16       	cp	r10, r18
    5c68:	b3 06       	cpc	r11, r19
    5c6a:	08 f4       	brcc	.+2      	; 0x5c6e <f_write+0x2f0>
    5c6c:	95 01       	movw	r18, r10
    5c6e:	82 96       	adiw	r24, 0x22	; 34
    5c70:	d4 01       	movw	r26, r8
    5c72:	ef 81       	ldd	r30, Y+7	; 0x07
    5c74:	f8 85       	ldd	r31, Y+8	; 0x08
    5c76:	e8 0f       	add	r30, r24
    5c78:	f9 1f       	adc	r31, r25
    5c7a:	cf 01       	movw	r24, r30
    5c7c:	82 0f       	add	r24, r18
    5c7e:	93 1f       	adc	r25, r19
    5c80:	ac 01       	movw	r20, r24
    5c82:	6f 81       	ldd	r22, Y+7	; 0x07
    5c84:	78 85       	ldd	r23, Y+8	; 0x08
    5c86:	9d 91       	ld	r25, X+
    5c88:	91 93       	st	Z+, r25
    5c8a:	e4 17       	cp	r30, r20
    5c8c:	f5 07       	cpc	r31, r21
    5c8e:	d9 f7       	brne	.-10     	; 0x5c86 <f_write+0x308>
    5c90:	6f 83       	std	Y+7, r22	; 0x07
    5c92:	78 87       	std	Y+8, r23	; 0x08
    5c94:	db 01       	movw	r26, r22
    5c96:	1e 96       	adiw	r26, 0x0e	; 14
    5c98:	8c 91       	ld	r24, X
    5c9a:	1e 97       	sbiw	r26, 0x0e	; 14
    5c9c:	80 68       	ori	r24, 0x80	; 128
    5c9e:	1e 96       	adiw	r26, 0x0e	; 14
    5ca0:	8c 93       	st	X, r24
    5ca2:	fb 01       	movw	r30, r22
    5ca4:	a3 cf       	rjmp	.-186    	; 0x5bec <f_write+0x26e>
    5ca6:	ef 81       	ldd	r30, Y+7	; 0x07
    5ca8:	f8 85       	ldd	r31, Y+8	; 0x08
    5caa:	80 8d       	ldd	r24, Z+24	; 0x18
    5cac:	91 8d       	ldd	r25, Z+25	; 0x19
    5cae:	a2 8d       	ldd	r26, Z+26	; 0x1a
    5cb0:	b3 8d       	ldd	r27, Z+27	; 0x1b
    5cb2:	84 15       	cp	r24, r4
    5cb4:	95 05       	cpc	r25, r5
    5cb6:	a6 05       	cpc	r26, r6
    5cb8:	b7 05       	cpc	r27, r7
    5cba:	a9 f1       	breq	.+106    	; 0x5d26 <f_write+0x3a8>
    5cbc:	80 89       	ldd	r24, Z+16	; 0x10
    5cbe:	91 89       	ldd	r25, Z+17	; 0x11
    5cc0:	a2 89       	ldd	r26, Z+18	; 0x12
    5cc2:	b3 89       	ldd	r27, Z+19	; 0x13
    5cc4:	42 85       	ldd	r20, Z+10	; 0x0a
    5cc6:	53 85       	ldd	r21, Z+11	; 0x0b
    5cc8:	64 85       	ldd	r22, Z+12	; 0x0c
    5cca:	75 85       	ldd	r23, Z+13	; 0x0d
    5ccc:	84 17       	cp	r24, r20
    5cce:	95 07       	cpc	r25, r21
    5cd0:	a6 07       	cpc	r26, r22
    5cd2:	b7 07       	cpc	r27, r23
    5cd4:	08 f4       	brcc	.+2      	; 0x5cd8 <f_write+0x35a>
    5cd6:	49 c0       	rjmp	.+146    	; 0x5d6a <f_write+0x3ec>
    5cd8:	ef 81       	ldd	r30, Y+7	; 0x07
    5cda:	f8 85       	ldd	r31, Y+8	; 0x08
    5cdc:	40 8e       	std	Z+24, r4	; 0x18
    5cde:	51 8e       	std	Z+25, r5	; 0x19
    5ce0:	62 8e       	std	Z+26, r6	; 0x1a
    5ce2:	73 8e       	std	Z+27, r7	; 0x1b
    5ce4:	bb cf       	rjmp	.-138    	; 0x5c5c <f_write+0x2de>
    5ce6:	ef 80       	ldd	r14, Y+7	; 0x07
    5ce8:	f8 84       	ldd	r15, Y+8	; 0x08
    5cea:	81 e0       	ldi	r24, 0x01	; 1
    5cec:	d7 01       	movw	r26, r14
    5cee:	1f 96       	adiw	r26, 0x0f	; 15
    5cf0:	8c 93       	st	X, r24
    5cf2:	6f ce       	rjmp	.-802    	; 0x59d2 <f_write+0x54>
    5cf4:	ef 81       	ldd	r30, Y+7	; 0x07
    5cf6:	f8 85       	ldd	r31, Y+8	; 0x08
    5cf8:	44 89       	ldd	r20, Z+20	; 0x14
    5cfa:	55 89       	ldd	r21, Z+21	; 0x15
    5cfc:	66 89       	ldd	r22, Z+22	; 0x16
    5cfe:	77 89       	ldd	r23, Z+23	; 0x17
    5d00:	cf 01       	movw	r24, r30
    5d02:	0e 94 73 17 	call	0x2ee6	; 0x2ee6 <create_chain>
    5d06:	61 15       	cp	r22, r1
    5d08:	71 05       	cpc	r23, r1
    5d0a:	81 05       	cpc	r24, r1
    5d0c:	91 05       	cpc	r25, r1
    5d0e:	09 f0       	breq	.+2      	; 0x5d12 <f_write+0x394>
    5d10:	e3 ce       	rjmp	.-570    	; 0x5ad8 <f_write+0x15a>
    5d12:	ef 80       	ldd	r14, Y+7	; 0x07
    5d14:	f8 84       	ldd	r15, Y+8	; 0x08
    5d16:	d7 01       	movw	r26, r14
    5d18:	1e 96       	adiw	r26, 0x0e	; 14
    5d1a:	2c 91       	ld	r18, X
    5d1c:	20 64       	ori	r18, 0x40	; 64
    5d1e:	f7 01       	movw	r30, r14
    5d20:	26 87       	std	Z+14, r18	; 0x0e
    5d22:	80 e0       	ldi	r24, 0x00	; 0
    5d24:	56 ce       	rjmp	.-852    	; 0x59d2 <f_write+0x54>
    5d26:	80 89       	ldd	r24, Z+16	; 0x10
    5d28:	91 89       	ldd	r25, Z+17	; 0x11
    5d2a:	a2 89       	ldd	r26, Z+18	; 0x12
    5d2c:	b3 89       	ldd	r27, Z+19	; 0x13
    5d2e:	d4 cf       	rjmp	.-88     	; 0x5cd8 <f_write+0x35a>
    5d30:	20 8d       	ldd	r18, Z+24	; 0x18
    5d32:	31 8d       	ldd	r19, Z+25	; 0x19
    5d34:	42 8d       	ldd	r20, Z+26	; 0x1a
    5d36:	53 8d       	ldd	r21, Z+27	; 0x1b
    5d38:	01 e0       	ldi	r16, 0x01	; 1
    5d3a:	10 e0       	ldi	r17, 0x00	; 0
    5d3c:	6b 81       	ldd	r22, Y+3	; 0x03
    5d3e:	7c 81       	ldd	r23, Y+4	; 0x04
    5d40:	a9 81       	ldd	r26, Y+1	; 0x01
    5d42:	ba 81       	ldd	r27, Y+2	; 0x02
    5d44:	11 96       	adiw	r26, 0x01	; 1
    5d46:	8c 91       	ld	r24, X
    5d48:	0e 94 6d 3b 	call	0x76da	; 0x76da <disk_write>
    5d4c:	81 11       	cpse	r24, r1
    5d4e:	cb cf       	rjmp	.-106    	; 0x5ce6 <f_write+0x368>
    5d50:	ef 81       	ldd	r30, Y+7	; 0x07
    5d52:	f8 85       	ldd	r31, Y+8	; 0x08
    5d54:	86 85       	ldd	r24, Z+14	; 0x0e
    5d56:	8f 77       	andi	r24, 0x7F	; 127
    5d58:	86 87       	std	Z+14, r24	; 0x0e
    5d5a:	e2 ce       	rjmp	.-572    	; 0x5b20 <f_write+0x1a2>
    5d5c:	40 e0       	ldi	r20, 0x00	; 0
    5d5e:	50 e0       	ldi	r21, 0x00	; 0
    5d60:	ba 01       	movw	r22, r20
    5d62:	cd 01       	movw	r24, r26
    5d64:	0e 94 73 17 	call	0x2ee6	; 0x2ee6 <create_chain>
    5d68:	ce cf       	rjmp	.-100    	; 0x5d06 <f_write+0x388>
    5d6a:	01 e0       	ldi	r16, 0x01	; 1
    5d6c:	10 e0       	ldi	r17, 0x00	; 0
    5d6e:	a3 01       	movw	r20, r6
    5d70:	92 01       	movw	r18, r4
    5d72:	6b 81       	ldd	r22, Y+3	; 0x03
    5d74:	7c 81       	ldd	r23, Y+4	; 0x04
    5d76:	a9 81       	ldd	r26, Y+1	; 0x01
    5d78:	ba 81       	ldd	r27, Y+2	; 0x02
    5d7a:	11 96       	adiw	r26, 0x01	; 1
    5d7c:	8c 91       	ld	r24, X
    5d7e:	0e 94 59 3b 	call	0x76b2	; 0x76b2 <disk_read>
    5d82:	81 11       	cpse	r24, r1
    5d84:	b0 cf       	rjmp	.-160    	; 0x5ce6 <f_write+0x368>
    5d86:	ef 81       	ldd	r30, Y+7	; 0x07
    5d88:	f8 85       	ldd	r31, Y+8	; 0x08
    5d8a:	80 89       	ldd	r24, Z+16	; 0x10
    5d8c:	91 89       	ldd	r25, Z+17	; 0x11
    5d8e:	a2 89       	ldd	r26, Z+18	; 0x12
    5d90:	b3 89       	ldd	r27, Z+19	; 0x13
    5d92:	a2 cf       	rjmp	.-188    	; 0x5cd8 <f_write+0x35a>
    5d94:	bf 01       	movw	r22, r30
    5d96:	fc 01       	movw	r30, r24
    5d98:	fe 2f       	mov	r31, r30
    5d9a:	ee 27       	eor	r30, r30
    5d9c:	ff 0f       	add	r31, r31
    5d9e:	af 01       	movw	r20, r30
    5da0:	48 0d       	add	r20, r8
    5da2:	59 1d       	adc	r21, r9
    5da4:	ab 81       	ldd	r26, Y+3	; 0x03
    5da6:	bc 81       	ldd	r27, Y+4	; 0x04
    5da8:	2d 81       	ldd	r18, Y+5	; 0x05
    5daa:	3e 81       	ldd	r19, Y+6	; 0x06
    5dac:	fa 01       	movw	r30, r20
    5dae:	81 91       	ld	r24, Z+
    5db0:	af 01       	movw	r20, r30
    5db2:	8d 93       	st	X+, r24
    5db4:	a2 17       	cp	r26, r18
    5db6:	b3 07       	cpc	r27, r19
    5db8:	c9 f7       	brne	.-14     	; 0x5dac <f_write+0x42e>
    5dba:	6f 83       	std	Y+7, r22	; 0x07
    5dbc:	78 87       	std	Y+8, r23	; 0x08
    5dbe:	db 01       	movw	r26, r22
    5dc0:	1e 96       	adiw	r26, 0x0e	; 14
    5dc2:	8c 91       	ld	r24, X
    5dc4:	1e 97       	sbiw	r26, 0x0e	; 14
    5dc6:	8f 77       	andi	r24, 0x7F	; 127
    5dc8:	1e 96       	adiw	r26, 0x0e	; 14
    5dca:	8c 93       	st	X, r24
    5dcc:	09 cf       	rjmp	.-494    	; 0x5be0 <f_write+0x262>
    5dce:	ef 80       	ldd	r14, Y+7	; 0x07
    5dd0:	f8 84       	ldd	r15, Y+8	; 0x08
    5dd2:	82 e0       	ldi	r24, 0x02	; 2
    5dd4:	f7 01       	movw	r30, r14
    5dd6:	87 87       	std	Z+15, r24	; 0x0f
    5dd8:	fc cd       	rjmp	.-1032   	; 0x59d2 <f_write+0x54>

00005dda <f_close>:
    5dda:	2f 92       	push	r2
    5ddc:	3f 92       	push	r3
    5dde:	4f 92       	push	r4
    5de0:	5f 92       	push	r5
    5de2:	6f 92       	push	r6
    5de4:	7f 92       	push	r7
    5de6:	8f 92       	push	r8
    5de8:	9f 92       	push	r9
    5dea:	af 92       	push	r10
    5dec:	bf 92       	push	r11
    5dee:	cf 92       	push	r12
    5df0:	df 92       	push	r13
    5df2:	ef 92       	push	r14
    5df4:	ff 92       	push	r15
    5df6:	0f 93       	push	r16
    5df8:	1f 93       	push	r17
    5dfa:	cf 93       	push	r28
    5dfc:	df 93       	push	r29
    5dfe:	00 d0       	rcall	.+0      	; 0x5e00 <f_close+0x26>
    5e00:	00 d0       	rcall	.+0      	; 0x5e02 <f_close+0x28>
    5e02:	cd b7       	in	r28, 0x3d	; 61
    5e04:	de b7       	in	r29, 0x3e	; 62
    5e06:	00 97       	sbiw	r24, 0x00	; 0
    5e08:	49 f0       	breq	.+18     	; 0x5e1c <f_close+0x42>
    5e0a:	dc 01       	movw	r26, r24
    5e0c:	ed 91       	ld	r30, X+
    5e0e:	fc 91       	ld	r31, X
    5e10:	11 97       	sbiw	r26, 0x01	; 1
    5e12:	30 97       	sbiw	r30, 0x00	; 0
    5e14:	19 f0       	breq	.+6      	; 0x5e1c <f_close+0x42>
    5e16:	20 81       	ld	r18, Z
    5e18:	21 11       	cpse	r18, r1
    5e1a:	17 c0       	rjmp	.+46     	; 0x5e4a <f_close+0x70>
    5e1c:	89 e0       	ldi	r24, 0x09	; 9
    5e1e:	26 96       	adiw	r28, 0x06	; 6
    5e20:	cd bf       	out	0x3d, r28	; 61
    5e22:	de bf       	out	0x3e, r29	; 62
    5e24:	df 91       	pop	r29
    5e26:	cf 91       	pop	r28
    5e28:	1f 91       	pop	r17
    5e2a:	0f 91       	pop	r16
    5e2c:	ff 90       	pop	r15
    5e2e:	ef 90       	pop	r14
    5e30:	df 90       	pop	r13
    5e32:	cf 90       	pop	r12
    5e34:	bf 90       	pop	r11
    5e36:	af 90       	pop	r10
    5e38:	9f 90       	pop	r9
    5e3a:	8f 90       	pop	r8
    5e3c:	7f 90       	pop	r7
    5e3e:	6f 90       	pop	r6
    5e40:	5f 90       	pop	r5
    5e42:	4f 90       	pop	r4
    5e44:	3f 90       	pop	r3
    5e46:	2f 90       	pop	r2
    5e48:	08 95       	ret
    5e4a:	45 81       	ldd	r20, Z+5	; 0x05
    5e4c:	56 81       	ldd	r21, Z+6	; 0x06
    5e4e:	12 96       	adiw	r26, 0x02	; 2
    5e50:	2d 91       	ld	r18, X+
    5e52:	3c 91       	ld	r19, X
    5e54:	13 97       	sbiw	r26, 0x03	; 3
    5e56:	42 17       	cp	r20, r18
    5e58:	53 07       	cpc	r21, r19
    5e5a:	01 f7       	brne	.-64     	; 0x5e1c <f_close+0x42>
    5e5c:	8d 83       	std	Y+5, r24	; 0x05
    5e5e:	9e 83       	std	Y+6, r25	; 0x06
    5e60:	81 81       	ldd	r24, Z+1	; 0x01
    5e62:	0e 94 52 3b 	call	0x76a4	; 0x76a4 <disk_status>
    5e66:	80 fd       	sbrc	r24, 0
    5e68:	d9 cf       	rjmp	.-78     	; 0x5e1c <f_close+0x42>
    5e6a:	ed 81       	ldd	r30, Y+5	; 0x05
    5e6c:	fe 81       	ldd	r31, Y+6	; 0x06
    5e6e:	e0 80       	ld	r14, Z
    5e70:	f1 80       	ldd	r15, Z+1	; 0x01
    5e72:	86 85       	ldd	r24, Z+14	; 0x0e
    5e74:	86 fd       	sbrc	r24, 6
    5e76:	1c c0       	rjmp	.+56     	; 0x5eb0 <f_close+0xd6>
    5e78:	f7 01       	movw	r30, r14
    5e7a:	30 97       	sbiw	r30, 0x00	; 0
    5e7c:	79 f2       	breq	.-98     	; 0x5e1c <f_close+0x42>
    5e7e:	80 81       	ld	r24, Z
    5e80:	88 23       	and	r24, r24
    5e82:	61 f2       	breq	.-104    	; 0x5e1c <f_close+0x42>
    5e84:	25 81       	ldd	r18, Z+5	; 0x05
    5e86:	36 81       	ldd	r19, Z+6	; 0x06
    5e88:	ad 81       	ldd	r26, Y+5	; 0x05
    5e8a:	be 81       	ldd	r27, Y+6	; 0x06
    5e8c:	12 96       	adiw	r26, 0x02	; 2
    5e8e:	8d 91       	ld	r24, X+
    5e90:	9c 91       	ld	r25, X
    5e92:	13 97       	sbiw	r26, 0x03	; 3
    5e94:	28 17       	cp	r18, r24
    5e96:	39 07       	cpc	r19, r25
    5e98:	09 f6       	brne	.-126    	; 0x5e1c <f_close+0x42>
    5e9a:	81 81       	ldd	r24, Z+1	; 0x01
    5e9c:	0e 94 52 3b 	call	0x76a4	; 0x76a4 <disk_status>
    5ea0:	80 fd       	sbrc	r24, 0
    5ea2:	bc cf       	rjmp	.-136    	; 0x5e1c <f_close+0x42>
    5ea4:	ad 81       	ldd	r26, Y+5	; 0x05
    5ea6:	be 81       	ldd	r27, Y+6	; 0x06
    5ea8:	1d 92       	st	X+, r1
    5eaa:	1c 92       	st	X, r1
    5eac:	80 e0       	ldi	r24, 0x00	; 0
    5eae:	b7 cf       	rjmp	.-146    	; 0x5e1e <f_close+0x44>
    5eb0:	87 fd       	sbrc	r24, 7
    5eb2:	80 c0       	rjmp	.+256    	; 0x5fb4 <f_close+0x1da>
    5eb4:	0e 94 71 3c 	call	0x78e2	; 0x78e2 <get_fattime>
    5eb8:	69 83       	std	Y+1, r22	; 0x01
    5eba:	7a 83       	std	Y+2, r23	; 0x02
    5ebc:	8b 83       	std	Y+3, r24	; 0x03
    5ebe:	9c 83       	std	Y+4, r25	; 0x04
    5ec0:	ad 81       	ldd	r26, Y+5	; 0x05
    5ec2:	be 81       	ldd	r27, Y+6	; 0x06
    5ec4:	5c 96       	adiw	r26, 0x1c	; 28
    5ec6:	4d 90       	ld	r4, X+
    5ec8:	5d 90       	ld	r5, X+
    5eca:	6d 90       	ld	r6, X+
    5ecc:	7c 90       	ld	r7, X
    5ece:	5f 97       	sbiw	r26, 0x1f	; 31
    5ed0:	f7 01       	movw	r30, r14
    5ed2:	87 a4       	ldd	r8, Z+47	; 0x2f
    5ed4:	90 a8       	ldd	r9, Z+48	; 0x30
    5ed6:	a1 a8       	ldd	r10, Z+49	; 0x31
    5ed8:	b2 a8       	ldd	r11, Z+50	; 0x32
    5eda:	48 14       	cp	r4, r8
    5edc:	59 04       	cpc	r5, r9
    5ede:	6a 04       	cpc	r6, r10
    5ee0:	7b 04       	cpc	r7, r11
    5ee2:	29 f1       	breq	.+74     	; 0x5f2e <f_close+0x154>
    5ee4:	83 81       	ldd	r24, Z+3	; 0x03
    5ee6:	17 01       	movw	r2, r14
    5ee8:	81 11       	cpse	r24, r1
    5eea:	7a c0       	rjmp	.+244    	; 0x5fe0 <f_close+0x206>
    5eec:	b3 e3       	ldi	r27, 0x33	; 51
    5eee:	2b 0e       	add	r2, r27
    5ef0:	31 1c       	adc	r3, r1
    5ef2:	01 e0       	ldi	r16, 0x01	; 1
    5ef4:	10 e0       	ldi	r17, 0x00	; 0
    5ef6:	a3 01       	movw	r20, r6
    5ef8:	92 01       	movw	r18, r4
    5efa:	b1 01       	movw	r22, r2
    5efc:	f7 01       	movw	r30, r14
    5efe:	81 81       	ldd	r24, Z+1	; 0x01
    5f00:	0e 94 59 3b 	call	0x76b2	; 0x76b2 <disk_read>
    5f04:	88 23       	and	r24, r24
    5f06:	51 f0       	breq	.+20     	; 0x5f1c <f_close+0x142>
    5f08:	8f ef       	ldi	r24, 0xFF	; 255
    5f0a:	9f ef       	ldi	r25, 0xFF	; 255
    5f0c:	dc 01       	movw	r26, r24
    5f0e:	f7 01       	movw	r30, r14
    5f10:	87 a7       	std	Z+47, r24	; 0x2f
    5f12:	90 ab       	std	Z+48, r25	; 0x30
    5f14:	a1 ab       	std	Z+49, r26	; 0x31
    5f16:	b2 ab       	std	Z+50, r27	; 0x32
    5f18:	81 e0       	ldi	r24, 0x01	; 1
    5f1a:	81 cf       	rjmp	.-254    	; 0x5e1e <f_close+0x44>
    5f1c:	d7 01       	movw	r26, r14
    5f1e:	9f 96       	adiw	r26, 0x2f	; 47
    5f20:	4d 92       	st	X+, r4
    5f22:	5d 92       	st	X+, r5
    5f24:	6d 92       	st	X+, r6
    5f26:	7c 92       	st	X, r7
    5f28:	d2 97       	sbiw	r26, 0x32	; 50
    5f2a:	ad 81       	ldd	r26, Y+5	; 0x05
    5f2c:	be 81       	ldd	r27, Y+6	; 0x06
    5f2e:	90 96       	adiw	r26, 0x20	; 32
    5f30:	ed 91       	ld	r30, X+
    5f32:	fc 91       	ld	r31, X
    5f34:	91 97       	sbiw	r26, 0x21	; 33
    5f36:	83 85       	ldd	r24, Z+11	; 0x0b
    5f38:	80 62       	ori	r24, 0x20	; 32
    5f3a:	83 87       	std	Z+11, r24	; 0x0b
    5f3c:	16 96       	adiw	r26, 0x06	; 6
    5f3e:	4d 91       	ld	r20, X+
    5f40:	5d 91       	ld	r21, X+
    5f42:	6d 91       	ld	r22, X+
    5f44:	7c 91       	ld	r23, X
    5f46:	19 97       	sbiw	r26, 0x09	; 9
    5f48:	2d 91       	ld	r18, X+
    5f4a:	3c 91       	ld	r19, X
    5f4c:	42 8f       	std	Z+26, r20	; 0x1a
    5f4e:	53 8f       	std	Z+27, r21	; 0x1b
    5f50:	d9 01       	movw	r26, r18
    5f52:	2c 91       	ld	r18, X
    5f54:	23 30       	cpi	r18, 0x03	; 3
    5f56:	09 f4       	brne	.+2      	; 0x5f5a <f_close+0x180>
    5f58:	8a c0       	rjmp	.+276    	; 0x606e <f_close+0x294>
    5f5a:	ad 81       	ldd	r26, Y+5	; 0x05
    5f5c:	be 81       	ldd	r27, Y+6	; 0x06
    5f5e:	1a 96       	adiw	r26, 0x0a	; 10
    5f60:	3c 91       	ld	r19, X
    5f62:	1a 97       	sbiw	r26, 0x0a	; 10
    5f64:	1b 96       	adiw	r26, 0x0b	; 11
    5f66:	2c 91       	ld	r18, X
    5f68:	1b 97       	sbiw	r26, 0x0b	; 11
    5f6a:	1c 96       	adiw	r26, 0x0c	; 12
    5f6c:	9c 91       	ld	r25, X
    5f6e:	1c 97       	sbiw	r26, 0x0c	; 12
    5f70:	1d 96       	adiw	r26, 0x0d	; 13
    5f72:	8c 91       	ld	r24, X
    5f74:	34 8f       	std	Z+28, r19	; 0x1c
    5f76:	25 8f       	std	Z+29, r18	; 0x1d
    5f78:	96 8f       	std	Z+30, r25	; 0x1e
    5f7a:	87 8f       	std	Z+31, r24	; 0x1f
    5f7c:	b9 81       	ldd	r27, Y+1	; 0x01
    5f7e:	b6 8b       	std	Z+22, r27	; 0x16
    5f80:	0a 81       	ldd	r16, Y+2	; 0x02
    5f82:	07 8b       	std	Z+23, r16	; 0x17
    5f84:	1b 81       	ldd	r17, Y+3	; 0x03
    5f86:	10 8f       	std	Z+24, r17	; 0x18
    5f88:	2c 81       	ldd	r18, Y+4	; 0x04
    5f8a:	21 8f       	std	Z+25, r18	; 0x19
    5f8c:	12 8a       	std	Z+18, r1	; 0x12
    5f8e:	13 8a       	std	Z+19, r1	; 0x13
    5f90:	81 e0       	ldi	r24, 0x01	; 1
    5f92:	d7 01       	movw	r26, r14
    5f94:	13 96       	adiw	r26, 0x03	; 3
    5f96:	8c 93       	st	X, r24
    5f98:	c7 01       	movw	r24, r14
    5f9a:	0e 94 11 0b 	call	0x1622	; 0x1622 <sync_fs>
    5f9e:	ed 81       	ldd	r30, Y+5	; 0x05
    5fa0:	fe 81       	ldd	r31, Y+6	; 0x06
    5fa2:	96 85       	ldd	r25, Z+14	; 0x0e
    5fa4:	9f 7b       	andi	r25, 0xBF	; 191
    5fa6:	96 87       	std	Z+14, r25	; 0x0e
    5fa8:	81 11       	cpse	r24, r1
    5faa:	39 cf       	rjmp	.-398    	; 0x5e1e <f_close+0x44>
    5fac:	01 90       	ld	r0, Z+
    5fae:	f0 81       	ld	r31, Z
    5fb0:	e0 2d       	mov	r30, r0
    5fb2:	63 cf       	rjmp	.-314    	; 0x5e7a <f_close+0xa0>
    5fb4:	20 8d       	ldd	r18, Z+24	; 0x18
    5fb6:	31 8d       	ldd	r19, Z+25	; 0x19
    5fb8:	42 8d       	ldd	r20, Z+26	; 0x1a
    5fba:	53 8d       	ldd	r21, Z+27	; 0x1b
    5fbc:	01 e0       	ldi	r16, 0x01	; 1
    5fbe:	10 e0       	ldi	r17, 0x00	; 0
    5fc0:	bf 01       	movw	r22, r30
    5fc2:	6e 5d       	subi	r22, 0xDE	; 222
    5fc4:	7f 4f       	sbci	r23, 0xFF	; 255
    5fc6:	d7 01       	movw	r26, r14
    5fc8:	11 96       	adiw	r26, 0x01	; 1
    5fca:	8c 91       	ld	r24, X
    5fcc:	0e 94 6d 3b 	call	0x76da	; 0x76da <disk_write>
    5fd0:	81 11       	cpse	r24, r1
    5fd2:	a2 cf       	rjmp	.-188    	; 0x5f18 <f_close+0x13e>
    5fd4:	ed 81       	ldd	r30, Y+5	; 0x05
    5fd6:	fe 81       	ldd	r31, Y+6	; 0x06
    5fd8:	86 85       	ldd	r24, Z+14	; 0x0e
    5fda:	8f 77       	andi	r24, 0x7F	; 127
    5fdc:	86 87       	std	Z+14, r24	; 0x0e
    5fde:	6a cf       	rjmp	.-300    	; 0x5eb4 <f_close+0xda>
    5fe0:	f3 e3       	ldi	r31, 0x33	; 51
    5fe2:	2f 0e       	add	r2, r31
    5fe4:	31 1c       	adc	r3, r1
    5fe6:	01 e0       	ldi	r16, 0x01	; 1
    5fe8:	10 e0       	ldi	r17, 0x00	; 0
    5fea:	a5 01       	movw	r20, r10
    5fec:	94 01       	movw	r18, r8
    5fee:	b1 01       	movw	r22, r2
    5ff0:	d7 01       	movw	r26, r14
    5ff2:	11 96       	adiw	r26, 0x01	; 1
    5ff4:	8c 91       	ld	r24, X
    5ff6:	0e 94 6d 3b 	call	0x76da	; 0x76da <disk_write>
    5ffa:	81 11       	cpse	r24, r1
    5ffc:	8d cf       	rjmp	.-230    	; 0x5f18 <f_close+0x13e>
    5ffe:	f7 01       	movw	r30, r14
    6000:	13 82       	std	Z+3, r1	; 0x03
    6002:	83 8d       	ldd	r24, Z+27	; 0x1b
    6004:	94 8d       	ldd	r25, Z+28	; 0x1c
    6006:	a5 8d       	ldd	r26, Z+29	; 0x1d
    6008:	b6 8d       	ldd	r27, Z+30	; 0x1e
    600a:	43 a1       	ldd	r20, Z+35	; 0x23
    600c:	54 a1       	ldd	r21, Z+36	; 0x24
    600e:	65 a1       	ldd	r22, Z+37	; 0x25
    6010:	76 a1       	ldd	r23, Z+38	; 0x26
    6012:	95 01       	movw	r18, r10
    6014:	84 01       	movw	r16, r8
    6016:	04 1b       	sub	r16, r20
    6018:	15 0b       	sbc	r17, r21
    601a:	26 0b       	sbc	r18, r22
    601c:	37 0b       	sbc	r19, r23
    601e:	08 17       	cp	r16, r24
    6020:	19 07       	cpc	r17, r25
    6022:	2a 07       	cpc	r18, r26
    6024:	3b 07       	cpc	r19, r27
    6026:	08 f0       	brcs	.+2      	; 0x602a <f_close+0x250>
    6028:	64 cf       	rjmp	.-312    	; 0x5ef2 <f_close+0x118>
    602a:	c2 80       	ldd	r12, Z+2	; 0x02
    602c:	d1 2c       	mov	r13, r1
    602e:	12 e0       	ldi	r17, 0x02	; 2
    6030:	c1 16       	cp	r12, r17
    6032:	d1 04       	cpc	r13, r1
    6034:	30 f4       	brcc	.+12     	; 0x6042 <f_close+0x268>
    6036:	5d cf       	rjmp	.-326    	; 0x5ef2 <f_close+0x118>
    6038:	f7 01       	movw	r30, r14
    603a:	83 8d       	ldd	r24, Z+27	; 0x1b
    603c:	94 8d       	ldd	r25, Z+28	; 0x1c
    603e:	a5 8d       	ldd	r26, Z+29	; 0x1d
    6040:	b6 8d       	ldd	r27, Z+30	; 0x1e
    6042:	88 0e       	add	r8, r24
    6044:	99 1e       	adc	r9, r25
    6046:	aa 1e       	adc	r10, r26
    6048:	bb 1e       	adc	r11, r27
    604a:	01 e0       	ldi	r16, 0x01	; 1
    604c:	10 e0       	ldi	r17, 0x00	; 0
    604e:	a5 01       	movw	r20, r10
    6050:	94 01       	movw	r18, r8
    6052:	b1 01       	movw	r22, r2
    6054:	d7 01       	movw	r26, r14
    6056:	11 96       	adiw	r26, 0x01	; 1
    6058:	8c 91       	ld	r24, X
    605a:	0e 94 6d 3b 	call	0x76da	; 0x76da <disk_write>
    605e:	b1 e0       	ldi	r27, 0x01	; 1
    6060:	cb 1a       	sub	r12, r27
    6062:	d1 08       	sbc	r13, r1
    6064:	e1 e0       	ldi	r30, 0x01	; 1
    6066:	ce 16       	cp	r12, r30
    6068:	d1 04       	cpc	r13, r1
    606a:	31 f7       	brne	.-52     	; 0x6038 <f_close+0x25e>
    606c:	42 cf       	rjmp	.-380    	; 0x5ef2 <f_close+0x118>
    606e:	cb 01       	movw	r24, r22
    6070:	aa 27       	eor	r26, r26
    6072:	bb 27       	eor	r27, r27
    6074:	84 8b       	std	Z+20, r24	; 0x14
    6076:	95 8b       	std	Z+21, r25	; 0x15
    6078:	70 cf       	rjmp	.-288    	; 0x5f5a <f_close+0x180>

0000607a <f_stat>:

FRESULT f_stat (
	const TCHAR* path,	/* Pointer to the file path */
	FILINFO* fno		/* Pointer to file information to return */
)
{
    607a:	2f 92       	push	r2
    607c:	3f 92       	push	r3
    607e:	4f 92       	push	r4
    6080:	5f 92       	push	r5
    6082:	6f 92       	push	r6
    6084:	7f 92       	push	r7
    6086:	8f 92       	push	r8
    6088:	9f 92       	push	r9
    608a:	af 92       	push	r10
    608c:	bf 92       	push	r11
    608e:	cf 92       	push	r12
    6090:	df 92       	push	r13
    6092:	ef 92       	push	r14
    6094:	ff 92       	push	r15
    6096:	0f 93       	push	r16
    6098:	1f 93       	push	r17
    609a:	cf 93       	push	r28
    609c:	df 93       	push	r29
    609e:	cd b7       	in	r28, 0x3d	; 61
    60a0:	de b7       	in	r29, 0x3e	; 62
    60a2:	cf 54       	subi	r28, 0x4F	; 79
    60a4:	d1 09       	sbc	r29, r1
    60a6:	cd bf       	out	0x3d, r28	; 61
    60a8:	de bf       	out	0x3e, r29	; 62
    60aa:	6c 01       	movw	r12, r24
    60ac:	5b 01       	movw	r10, r22
	FATFS *fs;
	UINT i;


	/* Get logical drive number */
	*rfs = 0;
    60ae:	19 82       	std	Y+1, r1	; 0x01
    60b0:	1a 82       	std	Y+2, r1	; 0x02
	char c;
	TCHAR tc;
#endif


	if (*path) {	/* If the pointer is not a null */
    60b2:	00 97       	sbiw	r24, 0x00	; 0
    60b4:	09 f4       	brne	.+2      	; 0x60b8 <f_stat+0x3e>
    60b6:	53 c1       	rjmp	.+678    	; 0x635e <f_stat+0x2e4>
		for (tt = *path; (UINT)*tt >= (_USE_LFN ? ' ' : '!') && *tt != ':'; tt++) ;	/* Find ':' in the path */
    60b8:	dc 01       	movw	r26, r24
    60ba:	9c 91       	ld	r25, X
    60bc:	91 32       	cpi	r25, 0x21	; 33
    60be:	78 f0       	brcs	.+30     	; 0x60de <f_stat+0x64>
    60c0:	9a 33       	cpi	r25, 0x3A	; 58
    60c2:	09 f4       	brne	.+2      	; 0x60c6 <f_stat+0x4c>
    60c4:	4c c1       	rjmp	.+664    	; 0x635e <f_stat+0x2e4>
    60c6:	a6 01       	movw	r20, r12
    60c8:	4f 5f       	subi	r20, 0xFF	; 255
    60ca:	5f 4f       	sbci	r21, 0xFF	; 255
    60cc:	fa 01       	movw	r30, r20
    60ce:	03 c0       	rjmp	.+6      	; 0x60d6 <f_stat+0x5c>
    60d0:	8a 33       	cpi	r24, 0x3A	; 58
    60d2:	09 f4       	brne	.+2      	; 0x60d6 <f_stat+0x5c>
    60d4:	41 c1       	rjmp	.+642    	; 0x6358 <f_stat+0x2de>
    60d6:	9f 01       	movw	r18, r30
    60d8:	81 91       	ld	r24, Z+
    60da:	81 32       	cpi	r24, 0x21	; 33
    60dc:	c8 f7       	brcc	.-14     	; 0x60d0 <f_stat+0x56>
	*rfs = 0;
	vol = get_ldnumber(path);
	if (vol < 0) return FR_INVALID_DRIVE;

	/* Check if the file system object is valid or not */
	fs = FatFs[vol];					/* Get pointer to the file system object */
    60de:	e0 90 9a 26 	lds	r14, 0x269A	; 0x80269a <FatFs>
    60e2:	f0 90 9b 26 	lds	r15, 0x269B	; 0x80269b <FatFs+0x1>
	if (!fs) return FR_NOT_ENABLED;		/* Is the file system object available? */
    60e6:	e1 14       	cp	r14, r1
    60e8:	f1 04       	cpc	r15, r1
    60ea:	09 f4       	brne	.+2      	; 0x60ee <f_stat+0x74>
    60ec:	3a c1       	rjmp	.+628    	; 0x6362 <f_stat+0x2e8>

	ENTER_FF(fs);						/* Lock the volume */
	*rfs = fs;							/* Return pointer to the file system object */
    60ee:	e9 82       	std	Y+1, r14	; 0x01
    60f0:	fa 82       	std	Y+2, r15	; 0x02

	mode &= (BYTE)~FA_READ;				/* Desired access mode, write access or not */
	if (fs->fs_type) {					/* If the volume has been mounted */
    60f2:	f7 01       	movw	r30, r14
    60f4:	80 81       	ld	r24, Z
    60f6:	88 23       	and	r24, r24
    60f8:	09 f4       	brne	.+2      	; 0x60fc <f_stat+0x82>
    60fa:	0d c1       	rjmp	.+538    	; 0x6316 <f_stat+0x29c>
		stat = disk_status(fs->drv);
    60fc:	f7 01       	movw	r30, r14
    60fe:	81 81       	ldd	r24, Z+1	; 0x01
    6100:	0e 94 52 3b 	call	0x76a4	; 0x76a4 <disk_status>
		if (!(stat & STA_NOINIT)) {		/* and the physical drive is kept initialized */
    6104:	80 fd       	sbrc	r24, 0
    6106:	07 c1       	rjmp	.+526    	; 0x6316 <f_stat+0x29c>

	/* Get logical drive */
	res = find_volume(&path, &dj.obj.fs, 0);
	if (res == FR_OK) {
		INIT_NAMBUF(dj.obj.fs);
		res = follow_path(&dj, path);	/* Follow the file path */
    6108:	b6 01       	movw	r22, r12
    610a:	ce 01       	movw	r24, r28
    610c:	01 96       	adiw	r24, 0x01	; 1
    610e:	0e 94 8d 1f 	call	0x3f1a	; 0x3f1a <follow_path>
		if (res == FR_OK) {				/* Follow completed */
    6112:	81 11       	cpse	r24, r1
    6114:	0a c1       	rjmp	.+532    	; 0x632a <f_stat+0x2b0>
			if (dj.fn[NSFLAG] & NS_NONAME) {	/* It is origin directory */
    6116:	98 a5       	ldd	r25, Y+40	; 0x28
    6118:	97 fd       	sbrc	r25, 7
    611a:	25 c1       	rjmp	.+586    	; 0x6366 <f_stat+0x2ec>
				res = FR_INVALID_NAME;
			} else {							/* Found an object */
				if (fno) get_fileinfo(&dj, fno);
    611c:	a1 14       	cp	r10, r1
    611e:	b1 04       	cpc	r11, r1
    6120:	09 f4       	brne	.+2      	; 0x6124 <f_stat+0xaa>
    6122:	03 c1       	rjmp	.+518    	; 0x632a <f_stat+0x2b0>
	WCHAR w, lfv;
	FATFS *fs = dp->obj.fs;
#endif


	fno->fname[0] = 0;		/* Invaidate file info */
    6124:	d5 01       	movw	r26, r10
    6126:	19 96       	adiw	r26, 0x09	; 9
    6128:	1c 92       	st	X, r1
	if (!dp->sect) return;	/* Exit if read pointer has reached end of directory */
    612a:	4f 89       	ldd	r20, Y+23	; 0x17
    612c:	58 8d       	ldd	r21, Y+24	; 0x18
    612e:	69 8d       	ldd	r22, Y+25	; 0x19
    6130:	7a 8d       	ldd	r23, Y+26	; 0x1a
    6132:	45 2b       	or	r20, r21
    6134:	46 2b       	or	r20, r22
    6136:	47 2b       	or	r20, r23
    6138:	09 f4       	brne	.+2      	; 0x613c <f_stat+0xc2>
    613a:	f7 c0       	rjmp	.+494    	; 0x632a <f_stat+0x2b0>
    613c:	eb 8d       	ldd	r30, Y+27	; 0x1b
    613e:	fc 8d       	ldd	r31, Y+28	; 0x1c
	fno->altname[j] = 0;	/* Terminate the SFN */

#else	/* Non-LFN configuration */
	i = j = 0;
	while (i < 11) {		/* Copy name body and extension */
		c = (TCHAR)dp->dir[i++];
    6140:	90 81       	ld	r25, Z
		if (c == ' ') continue;				/* Skip padding spaces */
    6142:	90 32       	cpi	r25, 0x20	; 32
    6144:	09 f4       	brne	.+2      	; 0x6148 <f_stat+0xce>
    6146:	2b c2       	rjmp	.+1110   	; 0x659e <f_stat+0x524>
		if (c == RDDEM) c = (TCHAR)DDEM;	/* Restore replaced DDEM character */
    6148:	95 30       	cpi	r25, 0x05	; 5
    614a:	09 f4       	brne	.+2      	; 0x614e <f_stat+0xd4>
    614c:	41 c2       	rjmp	.+1154   	; 0x65d0 <f_stat+0x556>
		if (i == 9) fno->fname[j++] = '.';	/* Insert a . if extension is exist */
		fno->fname[j++] = c;
    614e:	d5 01       	movw	r26, r10
    6150:	19 96       	adiw	r26, 0x09	; 9
    6152:	9c 93       	st	X, r25
    6154:	41 e0       	ldi	r20, 0x01	; 1
    6156:	50 e0       	ldi	r21, 0x00	; 0
	fno->altname[j] = 0;	/* Terminate the SFN */

#else	/* Non-LFN configuration */
	i = j = 0;
	while (i < 11) {		/* Copy name body and extension */
		c = (TCHAR)dp->dir[i++];
    6158:	91 81       	ldd	r25, Z+1	; 0x01
		if (c == ' ') continue;				/* Skip padding spaces */
    615a:	90 32       	cpi	r25, 0x20	; 32
    615c:	09 f4       	brne	.+2      	; 0x6160 <f_stat+0xe6>
    615e:	2c c2       	rjmp	.+1112   	; 0x65b8 <f_stat+0x53e>
		if (c == RDDEM) c = (TCHAR)DDEM;	/* Restore replaced DDEM character */
    6160:	95 30       	cpi	r25, 0x05	; 5
    6162:	09 f4       	brne	.+2      	; 0x6166 <f_stat+0xec>
    6164:	33 c2       	rjmp	.+1126   	; 0x65cc <f_stat+0x552>
		if (i == 9) fno->fname[j++] = '.';	/* Insert a . if extension is exist */
		fno->fname[j++] = c;
    6166:	9a 01       	movw	r18, r20
    6168:	2f 5f       	subi	r18, 0xFF	; 255
    616a:	3f 4f       	sbci	r19, 0xFF	; 255
    616c:	d5 01       	movw	r26, r10
    616e:	a4 0f       	add	r26, r20
    6170:	b5 1f       	adc	r27, r21
    6172:	19 96       	adiw	r26, 0x09	; 9
    6174:	9c 93       	st	X, r25
	fno->altname[j] = 0;	/* Terminate the SFN */

#else	/* Non-LFN configuration */
	i = j = 0;
	while (i < 11) {		/* Copy name body and extension */
		c = (TCHAR)dp->dir[i++];
    6176:	92 81       	ldd	r25, Z+2	; 0x02
		if (c == ' ') continue;				/* Skip padding spaces */
    6178:	90 32       	cpi	r25, 0x20	; 32
    617a:	09 f4       	brne	.+2      	; 0x617e <f_stat+0x104>
    617c:	1b c2       	rjmp	.+1078   	; 0x65b4 <f_stat+0x53a>
		if (c == RDDEM) c = (TCHAR)DDEM;	/* Restore replaced DDEM character */
    617e:	95 30       	cpi	r25, 0x05	; 5
    6180:	09 f4       	brne	.+2      	; 0x6184 <f_stat+0x10a>
    6182:	22 c2       	rjmp	.+1092   	; 0x65c8 <f_stat+0x54e>
		if (i == 9) fno->fname[j++] = '.';	/* Insert a . if extension is exist */
		fno->fname[j++] = c;
    6184:	a9 01       	movw	r20, r18
    6186:	4f 5f       	subi	r20, 0xFF	; 255
    6188:	5f 4f       	sbci	r21, 0xFF	; 255
    618a:	d5 01       	movw	r26, r10
    618c:	a2 0f       	add	r26, r18
    618e:	b3 1f       	adc	r27, r19
    6190:	19 96       	adiw	r26, 0x09	; 9
    6192:	9c 93       	st	X, r25
	fno->altname[j] = 0;	/* Terminate the SFN */

#else	/* Non-LFN configuration */
	i = j = 0;
	while (i < 11) {		/* Copy name body and extension */
		c = (TCHAR)dp->dir[i++];
    6194:	93 81       	ldd	r25, Z+3	; 0x03
		if (c == ' ') continue;				/* Skip padding spaces */
    6196:	90 32       	cpi	r25, 0x20	; 32
    6198:	09 f4       	brne	.+2      	; 0x619c <f_stat+0x122>
    619a:	0a c2       	rjmp	.+1044   	; 0x65b0 <f_stat+0x536>
		if (c == RDDEM) c = (TCHAR)DDEM;	/* Restore replaced DDEM character */
    619c:	95 30       	cpi	r25, 0x05	; 5
    619e:	09 f4       	brne	.+2      	; 0x61a2 <f_stat+0x128>
    61a0:	21 c2       	rjmp	.+1090   	; 0x65e4 <f_stat+0x56a>
		if (i == 9) fno->fname[j++] = '.';	/* Insert a . if extension is exist */
		fno->fname[j++] = c;
    61a2:	9a 01       	movw	r18, r20
    61a4:	2f 5f       	subi	r18, 0xFF	; 255
    61a6:	3f 4f       	sbci	r19, 0xFF	; 255
    61a8:	d5 01       	movw	r26, r10
    61aa:	a4 0f       	add	r26, r20
    61ac:	b5 1f       	adc	r27, r21
    61ae:	19 96       	adiw	r26, 0x09	; 9
    61b0:	9c 93       	st	X, r25
	fno->altname[j] = 0;	/* Terminate the SFN */

#else	/* Non-LFN configuration */
	i = j = 0;
	while (i < 11) {		/* Copy name body and extension */
		c = (TCHAR)dp->dir[i++];
    61b2:	94 81       	ldd	r25, Z+4	; 0x04
		if (c == ' ') continue;				/* Skip padding spaces */
    61b4:	90 32       	cpi	r25, 0x20	; 32
    61b6:	09 f4       	brne	.+2      	; 0x61ba <f_stat+0x140>
    61b8:	f9 c1       	rjmp	.+1010   	; 0x65ac <f_stat+0x532>
		if (c == RDDEM) c = (TCHAR)DDEM;	/* Restore replaced DDEM character */
    61ba:	95 30       	cpi	r25, 0x05	; 5
    61bc:	09 f4       	brne	.+2      	; 0x61c0 <f_stat+0x146>
    61be:	10 c2       	rjmp	.+1056   	; 0x65e0 <f_stat+0x566>
		if (i == 9) fno->fname[j++] = '.';	/* Insert a . if extension is exist */
		fno->fname[j++] = c;
    61c0:	a9 01       	movw	r20, r18
    61c2:	4f 5f       	subi	r20, 0xFF	; 255
    61c4:	5f 4f       	sbci	r21, 0xFF	; 255
    61c6:	d5 01       	movw	r26, r10
    61c8:	a2 0f       	add	r26, r18
    61ca:	b3 1f       	adc	r27, r19
    61cc:	19 96       	adiw	r26, 0x09	; 9
    61ce:	9c 93       	st	X, r25
	fno->altname[j] = 0;	/* Terminate the SFN */

#else	/* Non-LFN configuration */
	i = j = 0;
	while (i < 11) {		/* Copy name body and extension */
		c = (TCHAR)dp->dir[i++];
    61d0:	95 81       	ldd	r25, Z+5	; 0x05
		if (c == ' ') continue;				/* Skip padding spaces */
    61d2:	90 32       	cpi	r25, 0x20	; 32
    61d4:	09 f4       	brne	.+2      	; 0x61d8 <f_stat+0x15e>
    61d6:	e8 c1       	rjmp	.+976    	; 0x65a8 <f_stat+0x52e>
		if (c == RDDEM) c = (TCHAR)DDEM;	/* Restore replaced DDEM character */
    61d8:	95 30       	cpi	r25, 0x05	; 5
    61da:	09 f4       	brne	.+2      	; 0x61de <f_stat+0x164>
    61dc:	ff c1       	rjmp	.+1022   	; 0x65dc <f_stat+0x562>
		if (i == 9) fno->fname[j++] = '.';	/* Insert a . if extension is exist */
		fno->fname[j++] = c;
    61de:	9a 01       	movw	r18, r20
    61e0:	2f 5f       	subi	r18, 0xFF	; 255
    61e2:	3f 4f       	sbci	r19, 0xFF	; 255
    61e4:	d5 01       	movw	r26, r10
    61e6:	a4 0f       	add	r26, r20
    61e8:	b5 1f       	adc	r27, r21
    61ea:	19 96       	adiw	r26, 0x09	; 9
    61ec:	9c 93       	st	X, r25
	fno->altname[j] = 0;	/* Terminate the SFN */

#else	/* Non-LFN configuration */
	i = j = 0;
	while (i < 11) {		/* Copy name body and extension */
		c = (TCHAR)dp->dir[i++];
    61ee:	96 81       	ldd	r25, Z+6	; 0x06
		if (c == ' ') continue;				/* Skip padding spaces */
    61f0:	90 32       	cpi	r25, 0x20	; 32
    61f2:	09 f4       	brne	.+2      	; 0x61f6 <f_stat+0x17c>
    61f4:	d7 c1       	rjmp	.+942    	; 0x65a4 <f_stat+0x52a>
		if (c == RDDEM) c = (TCHAR)DDEM;	/* Restore replaced DDEM character */
    61f6:	95 30       	cpi	r25, 0x05	; 5
    61f8:	09 f4       	brne	.+2      	; 0x61fc <f_stat+0x182>
    61fa:	f8 c1       	rjmp	.+1008   	; 0x65ec <f_stat+0x572>
		if (i == 9) fno->fname[j++] = '.';	/* Insert a . if extension is exist */
		fno->fname[j++] = c;
    61fc:	a9 01       	movw	r20, r18
    61fe:	4f 5f       	subi	r20, 0xFF	; 255
    6200:	5f 4f       	sbci	r21, 0xFF	; 255
    6202:	d5 01       	movw	r26, r10
    6204:	a2 0f       	add	r26, r18
    6206:	b3 1f       	adc	r27, r19
    6208:	19 96       	adiw	r26, 0x09	; 9
    620a:	9c 93       	st	X, r25
	fno->altname[j] = 0;	/* Terminate the SFN */

#else	/* Non-LFN configuration */
	i = j = 0;
	while (i < 11) {		/* Copy name body and extension */
		c = (TCHAR)dp->dir[i++];
    620c:	97 81       	ldd	r25, Z+7	; 0x07
		if (c == ' ') continue;				/* Skip padding spaces */
    620e:	90 32       	cpi	r25, 0x20	; 32
    6210:	09 f4       	brne	.+2      	; 0x6214 <f_stat+0x19a>
    6212:	c3 c1       	rjmp	.+902    	; 0x659a <f_stat+0x520>
		if (c == RDDEM) c = (TCHAR)DDEM;	/* Restore replaced DDEM character */
    6214:	95 30       	cpi	r25, 0x05	; 5
    6216:	09 f4       	brne	.+2      	; 0x621a <f_stat+0x1a0>
    6218:	e7 c1       	rjmp	.+974    	; 0x65e8 <f_stat+0x56e>
		if (i == 9) fno->fname[j++] = '.';	/* Insert a . if extension is exist */
		fno->fname[j++] = c;
    621a:	9a 01       	movw	r18, r20
    621c:	2f 5f       	subi	r18, 0xFF	; 255
    621e:	3f 4f       	sbci	r19, 0xFF	; 255
    6220:	d5 01       	movw	r26, r10
    6222:	a4 0f       	add	r26, r20
    6224:	b5 1f       	adc	r27, r21
    6226:	19 96       	adiw	r26, 0x09	; 9
    6228:	9c 93       	st	X, r25
	fno->altname[j] = 0;	/* Terminate the SFN */

#else	/* Non-LFN configuration */
	i = j = 0;
	while (i < 11) {		/* Copy name body and extension */
		c = (TCHAR)dp->dir[i++];
    622a:	90 85       	ldd	r25, Z+8	; 0x08
		if (c == ' ') continue;				/* Skip padding spaces */
    622c:	90 32       	cpi	r25, 0x20	; 32
    622e:	89 f0       	breq	.+34     	; 0x6252 <f_stat+0x1d8>
		if (c == RDDEM) c = (TCHAR)DDEM;	/* Restore replaced DDEM character */
    6230:	95 30       	cpi	r25, 0x05	; 5
    6232:	09 f4       	brne	.+2      	; 0x6236 <f_stat+0x1bc>
    6234:	d1 c1       	rjmp	.+930    	; 0x65d8 <f_stat+0x55e>
		if (i == 9) fno->fname[j++] = '.';	/* Insert a . if extension is exist */
    6236:	d5 01       	movw	r26, r10
    6238:	a2 0f       	add	r26, r18
    623a:	b3 1f       	adc	r27, r19
    623c:	4e e2       	ldi	r20, 0x2E	; 46
    623e:	19 96       	adiw	r26, 0x09	; 9
    6240:	4c 93       	st	X, r20
		fno->fname[j++] = c;
    6242:	d9 01       	movw	r26, r18
    6244:	11 96       	adiw	r26, 0x01	; 1
    6246:	aa 0d       	add	r26, r10
    6248:	bb 1d       	adc	r27, r11
    624a:	2e 5f       	subi	r18, 0xFE	; 254
    624c:	3f 4f       	sbci	r19, 0xFF	; 255
    624e:	19 96       	adiw	r26, 0x09	; 9
    6250:	9c 93       	st	X, r25
	fno->altname[j] = 0;	/* Terminate the SFN */

#else	/* Non-LFN configuration */
	i = j = 0;
	while (i < 11) {		/* Copy name body and extension */
		c = (TCHAR)dp->dir[i++];
    6252:	91 85       	ldd	r25, Z+9	; 0x09
		if (c == ' ') continue;				/* Skip padding spaces */
    6254:	90 32       	cpi	r25, 0x20	; 32
    6256:	09 f4       	brne	.+2      	; 0x625a <f_stat+0x1e0>
    6258:	b3 c1       	rjmp	.+870    	; 0x65c0 <f_stat+0x546>
		if (c == RDDEM) c = (TCHAR)DDEM;	/* Restore replaced DDEM character */
    625a:	95 30       	cpi	r25, 0x05	; 5
    625c:	09 f4       	brne	.+2      	; 0x6260 <f_stat+0x1e6>
    625e:	b2 c1       	rjmp	.+868    	; 0x65c4 <f_stat+0x54a>
		if (i == 9) fno->fname[j++] = '.';	/* Insert a . if extension is exist */
		fno->fname[j++] = c;
    6260:	a9 01       	movw	r20, r18
    6262:	4f 5f       	subi	r20, 0xFF	; 255
    6264:	5f 4f       	sbci	r21, 0xFF	; 255
    6266:	d5 01       	movw	r26, r10
    6268:	a2 0f       	add	r26, r18
    626a:	b3 1f       	adc	r27, r19
    626c:	19 96       	adiw	r26, 0x09	; 9
    626e:	9c 93       	st	X, r25
	fno->altname[j] = 0;	/* Terminate the SFN */

#else	/* Non-LFN configuration */
	i = j = 0;
	while (i < 11) {		/* Copy name body and extension */
		c = (TCHAR)dp->dir[i++];
    6270:	92 85       	ldd	r25, Z+10	; 0x0a
		if (c == ' ') continue;				/* Skip padding spaces */
    6272:	90 32       	cpi	r25, 0x20	; 32
    6274:	09 f4       	brne	.+2      	; 0x6278 <f_stat+0x1fe>
    6276:	a2 c1       	rjmp	.+836    	; 0x65bc <f_stat+0x542>
		if (c == RDDEM) c = (TCHAR)DDEM;	/* Restore replaced DDEM character */
    6278:	95 30       	cpi	r25, 0x05	; 5
    627a:	09 f4       	brne	.+2      	; 0x627e <f_stat+0x204>
    627c:	ab c1       	rjmp	.+854    	; 0x65d4 <f_stat+0x55a>
		if (i == 9) fno->fname[j++] = '.';	/* Insert a . if extension is exist */
		fno->fname[j++] = c;
    627e:	9a 01       	movw	r18, r20
    6280:	2f 5f       	subi	r18, 0xFF	; 255
    6282:	3f 4f       	sbci	r19, 0xFF	; 255
    6284:	d5 01       	movw	r26, r10
    6286:	a4 0f       	add	r26, r20
    6288:	b5 1f       	adc	r27, r21
    628a:	19 96       	adiw	r26, 0x09	; 9
    628c:	9c 93       	st	X, r25
	}
	fno->fname[j] = 0;
    628e:	d5 01       	movw	r26, r10
    6290:	a2 0f       	add	r26, r18
    6292:	b3 1f       	adc	r27, r19
    6294:	19 96       	adiw	r26, 0x09	; 9
    6296:	1c 92       	st	X, r1
#endif

	fno->fattrib = dp->dir[DIR_Attr];				/* Attribute */
    6298:	93 85       	ldd	r25, Z+11	; 0x0b
    629a:	d5 01       	movw	r26, r10
    629c:	18 96       	adiw	r26, 0x08	; 8
    629e:	9c 93       	st	X, r25
    62a0:	18 97       	sbiw	r26, 0x08	; 8
static
DWORD ld_dword (const BYTE* ptr)	/* Load a 4-byte little-endian word */
{
	DWORD rv;

	rv = ptr[3];
    62a2:	47 8d       	ldd	r20, Z+31	; 0x1f
    62a4:	50 e0       	ldi	r21, 0x00	; 0
    62a6:	60 e0       	ldi	r22, 0x00	; 0
    62a8:	70 e0       	ldi	r23, 0x00	; 0
	rv = rv << 8 | ptr[2];
    62aa:	76 2f       	mov	r23, r22
    62ac:	65 2f       	mov	r22, r21
    62ae:	54 2f       	mov	r21, r20
    62b0:	44 27       	eor	r20, r20
    62b2:	96 8d       	ldd	r25, Z+30	; 0x1e
    62b4:	49 2b       	or	r20, r25
	rv = rv << 8 | ptr[1];
    62b6:	76 2f       	mov	r23, r22
    62b8:	65 2f       	mov	r22, r21
    62ba:	54 2f       	mov	r21, r20
    62bc:	44 27       	eor	r20, r20
    62be:	95 8d       	ldd	r25, Z+29	; 0x1d
    62c0:	49 2b       	or	r20, r25
	rv = rv << 8 | ptr[0];
    62c2:	76 2f       	mov	r23, r22
    62c4:	65 2f       	mov	r22, r21
    62c6:	54 2f       	mov	r21, r20
    62c8:	44 27       	eor	r20, r20
    62ca:	94 8d       	ldd	r25, Z+28	; 0x1c
    62cc:	49 2b       	or	r20, r25
	}
	fno->fname[j] = 0;
#endif

	fno->fattrib = dp->dir[DIR_Attr];				/* Attribute */
	fno->fsize = ld_dword(dp->dir + DIR_FileSize);	/* Size */
    62ce:	4d 93       	st	X+, r20
    62d0:	5d 93       	st	X+, r21
    62d2:	6d 93       	st	X+, r22
    62d4:	7c 93       	st	X, r23
    62d6:	13 97       	sbiw	r26, 0x03	; 3
static
DWORD ld_dword (const BYTE* ptr)	/* Load a 4-byte little-endian word */
{
	DWORD rv;

	rv = ptr[3];
    62d8:	41 8d       	ldd	r20, Z+25	; 0x19
    62da:	50 e0       	ldi	r21, 0x00	; 0
    62dc:	60 e0       	ldi	r22, 0x00	; 0
    62de:	70 e0       	ldi	r23, 0x00	; 0
	rv = rv << 8 | ptr[2];
    62e0:	76 2f       	mov	r23, r22
    62e2:	65 2f       	mov	r22, r21
    62e4:	54 2f       	mov	r21, r20
    62e6:	44 27       	eor	r20, r20
    62e8:	90 8d       	ldd	r25, Z+24	; 0x18
    62ea:	49 2b       	or	r20, r25
	rv = rv << 8 | ptr[1];
    62ec:	76 2f       	mov	r23, r22
    62ee:	65 2f       	mov	r22, r21
    62f0:	54 2f       	mov	r21, r20
    62f2:	44 27       	eor	r20, r20
    62f4:	97 89       	ldd	r25, Z+23	; 0x17
    62f6:	49 2b       	or	r20, r25
	rv = rv << 8 | ptr[0];
    62f8:	76 2f       	mov	r23, r22
    62fa:	65 2f       	mov	r22, r21
    62fc:	54 2f       	mov	r21, r20
    62fe:	44 27       	eor	r20, r20
    6300:	96 89       	ldd	r25, Z+22	; 0x16
    6302:	49 2b       	or	r20, r25
#endif

	fno->fattrib = dp->dir[DIR_Attr];				/* Attribute */
	fno->fsize = ld_dword(dp->dir + DIR_FileSize);	/* Size */
	tm = ld_dword(dp->dir + DIR_ModTime);			/* Timestamp */
	fno->ftime = (WORD)tm; fno->fdate = (WORD)(tm >> 16);
    6304:	16 96       	adiw	r26, 0x06	; 6
    6306:	4d 93       	st	X+, r20
    6308:	5c 93       	st	X, r21
    630a:	17 97       	sbiw	r26, 0x07	; 7
    630c:	14 96       	adiw	r26, 0x04	; 4
    630e:	6d 93       	st	X+, r22
    6310:	7c 93       	st	X, r23
    6312:	15 97       	sbiw	r26, 0x05	; 5
    6314:	0a c0       	rjmp	.+20     	; 0x632a <f_stat+0x2b0>
	}

	/* The file system object is not valid. */
	/* Following code attempts to mount the volume. (analyze BPB and initialize the fs object) */

	fs->fs_type = 0;					/* Clear the file system object */
    6316:	d7 01       	movw	r26, r14
    6318:	1c 92       	st	X, r1
	fs->drv = LD2PD(vol);				/* Bind the logical drive and a physical drive */
    631a:	11 96       	adiw	r26, 0x01	; 1
    631c:	1c 92       	st	X, r1
	stat = disk_initialize(fs->drv);	/* Initialize the physical drive */
    631e:	80 e0       	ldi	r24, 0x00	; 0
    6320:	0e 94 4a 3b 	call	0x7694	; 0x7694 <disk_initialize>
	if (stat & STA_NOINIT) { 			/* Check if the initialization succeeded */
    6324:	80 ff       	sbrs	r24, 0
    6326:	21 c0       	rjmp	.+66     	; 0x636a <f_stat+0x2f0>
		return FR_NOT_READY;			/* Failed to initialize due to no medium or hard error */
    6328:	83 e0       	ldi	r24, 0x03	; 3
		}
		FREE_NAMBUF();
	}

	LEAVE_FF(dj.obj.fs, res);
}
    632a:	c1 5b       	subi	r28, 0xB1	; 177
    632c:	df 4f       	sbci	r29, 0xFF	; 255
    632e:	cd bf       	out	0x3d, r28	; 61
    6330:	de bf       	out	0x3e, r29	; 62
    6332:	df 91       	pop	r29
    6334:	cf 91       	pop	r28
    6336:	1f 91       	pop	r17
    6338:	0f 91       	pop	r16
    633a:	ff 90       	pop	r15
    633c:	ef 90       	pop	r14
    633e:	df 90       	pop	r13
    6340:	cf 90       	pop	r12
    6342:	bf 90       	pop	r11
    6344:	af 90       	pop	r10
    6346:	9f 90       	pop	r9
    6348:	8f 90       	pop	r8
    634a:	7f 90       	pop	r7
    634c:	6f 90       	pop	r6
    634e:	5f 90       	pop	r5
    6350:	4f 90       	pop	r4
    6352:	3f 90       	pop	r3
    6354:	2f 90       	pop	r2
    6356:	08 95       	ret
	if (*path) {	/* If the pointer is not a null */
		for (tt = *path; (UINT)*tt >= (_USE_LFN ? ' ' : '!') && *tt != ':'; tt++) ;	/* Find ':' in the path */
		if (*tt == ':') {	/* If a ':' is exist in the path name */
			tp = *path;
			i = *tp++ - '0'; 
			if (i < 10 && tp == tt) {	/* Is there a numeric drive id? */
    6358:	24 17       	cp	r18, r20
    635a:	35 07       	cpc	r19, r21
    635c:	41 f1       	breq	.+80     	; 0x63ae <f_stat+0x334>


	/* Get logical drive number */
	*rfs = 0;
	vol = get_ldnumber(path);
	if (vol < 0) return FR_INVALID_DRIVE;
    635e:	8b e0       	ldi	r24, 0x0B	; 11
    6360:	e4 cf       	rjmp	.-56     	; 0x632a <f_stat+0x2b0>

	/* Check if the file system object is valid or not */
	fs = FatFs[vol];					/* Get pointer to the file system object */
	if (!fs) return FR_NOT_ENABLED;		/* Is the file system object available? */
    6362:	8c e0       	ldi	r24, 0x0C	; 12
    6364:	e2 cf       	rjmp	.-60     	; 0x632a <f_stat+0x2b0>
	if (res == FR_OK) {
		INIT_NAMBUF(dj.obj.fs);
		res = follow_path(&dj, path);	/* Follow the file path */
		if (res == FR_OK) {				/* Follow completed */
			if (dj.fn[NSFLAG] & NS_NONAME) {	/* It is origin directory */
				res = FR_INVALID_NAME;
    6366:	86 e0       	ldi	r24, 0x06	; 6
    6368:	e0 cf       	rjmp	.-64     	; 0x632a <f_stat+0x2b0>
BYTE check_fs (	/* 0:FAT, 1:exFAT, 2:Valid BS but not FAT, 3:Not a BS, 4:Disk error */
	FATFS* fs,	/* File system object */
	DWORD sect	/* Sector# (lba) to check if it is an FAT-VBR or not */
)
{
	fs->wflag = 0; fs->winsect = 0xFFFFFFFF;		/* Invaidate window */
    636a:	d7 01       	movw	r26, r14
    636c:	13 96       	adiw	r26, 0x03	; 3
    636e:	1c 92       	st	X, r1
    6370:	44 24       	eor	r4, r4
    6372:	4a 94       	dec	r4
    6374:	54 2c       	mov	r5, r4
    6376:	32 01       	movw	r6, r4
    6378:	f7 01       	movw	r30, r14
    637a:	47 a6       	std	Z+47, r4	; 0x2f
    637c:	50 aa       	std	Z+48, r5	; 0x30
    637e:	61 aa       	std	Z+49, r6	; 0x31
    6380:	72 aa       	std	Z+50, r7	; 0x32
	if (sector != fs->winsect) {	/* Window offset changed? */
#if !_FS_READONLY
		res = sync_window(fs);		/* Write-back changes */
#endif
		if (res == FR_OK) {			/* Fill sector window with new data */
			if (disk_read(fs->drv, fs->win, sector, 1) != RES_OK) {
    6382:	01 e0       	ldi	r16, 0x01	; 1
    6384:	10 e0       	ldi	r17, 0x00	; 0
    6386:	20 e0       	ldi	r18, 0x00	; 0
    6388:	30 e0       	ldi	r19, 0x00	; 0
    638a:	a9 01       	movw	r20, r18
    638c:	b7 01       	movw	r22, r14
    638e:	6d 5c       	subi	r22, 0xCD	; 205
    6390:	7f 4f       	sbci	r23, 0xFF	; 255
    6392:	81 81       	ldd	r24, Z+1	; 0x01
    6394:	0e 94 59 3b 	call	0x76b2	; 0x76b2 <disk_read>
    6398:	88 23       	and	r24, r24
    639a:	81 f0       	breq	.+32     	; 0x63bc <f_stat+0x342>
				sector = 0xFFFFFFFF;	/* Invalidate window if data is not reliable */
				res = FR_DISK_ERR;
			}
			fs->winsect = sector;
    639c:	d7 01       	movw	r26, r14
    639e:	9f 96       	adiw	r26, 0x2f	; 47
    63a0:	4d 92       	st	X+, r4
    63a2:	5d 92       	st	X+, r5
    63a4:	6d 92       	st	X+, r6
    63a6:	7c 92       	st	X, r7
    63a8:	d2 97       	sbiw	r26, 0x32	; 50
		do {								/* Find an FAT volume */
			bsect = br[i];
			fmt = bsect ? check_fs(fs, bsect) : 3;	/* Check the partition */
		} while (!LD2PT(vol) && fmt >= 2 && ++i < 4);
	}
	if (fmt == 4) return FR_DISK_ERR;		/* An error occured in the disk I/O layer */
    63aa:	81 e0       	ldi	r24, 0x01	; 1
    63ac:	be cf       	rjmp	.-132    	; 0x632a <f_stat+0x2b0>
		for (tt = *path; (UINT)*tt >= (_USE_LFN ? ' ' : '!') && *tt != ':'; tt++) ;	/* Find ':' in the path */
		if (*tt == ':') {	/* If a ':' is exist in the path name */
			tp = *path;
			i = *tp++ - '0'; 
			if (i < 10 && tp == tt) {	/* Is there a numeric drive id? */
				if (i < _VOLUMES) {	/* If a drive id is found, get the value and strip it */
    63ae:	90 33       	cpi	r25, 0x30	; 48
    63b0:	b1 f6       	brne	.-84     	; 0x635e <f_stat+0x2e4>
					vol = (int)i;
					*path = ++tt;
    63b2:	6a 01       	movw	r12, r20
    63b4:	bf ef       	ldi	r27, 0xFF	; 255
    63b6:	cb 1a       	sub	r12, r27
    63b8:	db 0a       	sbc	r13, r27
    63ba:	91 ce       	rjmp	.-734    	; 0x60de <f_stat+0x64>
		if (res == FR_OK) {			/* Fill sector window with new data */
			if (disk_read(fs->drv, fs->win, sector, 1) != RES_OK) {
				sector = 0xFFFFFFFF;	/* Invalidate window if data is not reliable */
				res = FR_DISK_ERR;
			}
			fs->winsect = sector;
    63bc:	f7 01       	movw	r30, r14
    63be:	17 a6       	std	Z+47, r1	; 0x2f
    63c0:	10 aa       	std	Z+48, r1	; 0x30
    63c2:	11 aa       	std	Z+49, r1	; 0x31
    63c4:	12 aa       	std	Z+50, r1	; 0x32
static
WORD ld_word (const BYTE* ptr)	/*	 Load a 2-byte little-endian word */
{
	WORD rv;

	rv = ptr[1];
    63c6:	47 01       	movw	r8, r14
    63c8:	fe ec       	ldi	r31, 0xCE	; 206
    63ca:	8f 1a       	sub	r8, r31
    63cc:	fd ef       	ldi	r31, 0xFD	; 253
    63ce:	9f 0a       	sbc	r9, r31
    63d0:	d4 01       	movw	r26, r8
    63d2:	8c 91       	ld	r24, X
    63d4:	90 e0       	ldi	r25, 0x00	; 0
	rv = rv << 8 | ptr[0];
    63d6:	98 2f       	mov	r25, r24
    63d8:	88 27       	eor	r24, r24
    63da:	17 01       	movw	r2, r14
    63dc:	bf ec       	ldi	r27, 0xCF	; 207
    63de:	2b 1a       	sub	r2, r27
    63e0:	bd ef       	ldi	r27, 0xFD	; 253
    63e2:	3b 0a       	sbc	r3, r27
    63e4:	f1 01       	movw	r30, r2
    63e6:	20 81       	ld	r18, Z
    63e8:	82 2b       	or	r24, r18
)
{
	fs->wflag = 0; fs->winsect = 0xFFFFFFFF;		/* Invaidate window */
	if (move_window(fs, sect) != FR_OK) return 4;	/* Load boot record */

	if (ld_word(fs->win + BS_55AA) != 0xAA55) return 3;	/* Check boot record signature (always placed at offset 510 even if the sector size is >512) */
    63ea:	85 35       	cpi	r24, 0x55	; 85
    63ec:	9a 4a       	sbci	r25, 0xAA	; 170
    63ee:	11 f0       	breq	.+4      	; 0x63f4 <f_stat+0x37a>
			bsect = br[i];
			fmt = bsect ? check_fs(fs, bsect) : 3;	/* Check the partition */
		} while (!LD2PT(vol) && fmt >= 2 && ++i < 4);
	}
	if (fmt == 4) return FR_DISK_ERR;		/* An error occured in the disk I/O layer */
	if (fmt >= 2) return FR_NO_FILESYSTEM;	/* No FAT volume is found */
    63f0:	8d e0       	ldi	r24, 0x0D	; 13
    63f2:	9b cf       	rjmp	.-202    	; 0x632a <f_stat+0x2b0>
	fs->wflag = 0; fs->winsect = 0xFFFFFFFF;		/* Invaidate window */
	if (move_window(fs, sect) != FR_OK) return 4;	/* Load boot record */

	if (ld_word(fs->win + BS_55AA) != 0xAA55) return 3;	/* Check boot record signature (always placed at offset 510 even if the sector size is >512) */

	if (fs->win[BS_JmpBoot] == 0xE9 || (fs->win[BS_JmpBoot] == 0xEB && fs->win[BS_JmpBoot + 2] == 0x90)) {
    63f4:	d7 01       	movw	r26, r14
    63f6:	d3 96       	adiw	r26, 0x33	; 51
    63f8:	8c 91       	ld	r24, X
    63fa:	d3 97       	sbiw	r26, 0x33	; 51
    63fc:	89 3e       	cpi	r24, 0xE9	; 233
    63fe:	09 f4       	brne	.+2      	; 0x6402 <f_stat+0x388>
    6400:	25 c1       	rjmp	.+586    	; 0x664c <f_stat+0x5d2>
    6402:	8b 3e       	cpi	r24, 0xEB	; 235
    6404:	09 f4       	brne	.+2      	; 0x6408 <f_stat+0x38e>
    6406:	1d c1       	rjmp	.+570    	; 0x6642 <f_stat+0x5c8>
	bsect = 0;
	fmt = check_fs(fs, bsect);			/* Load sector 0 and check if it is an FAT-VBR as SFD */
	if (fmt == 2 || (fmt < 2 && LD2PT(vol) != 0)) {	/* Not an FAT-VBR or forced partition number */
		for (i = 0; i < 4; i++) {			/* Get partition offset */
			pt = fs->win + (MBR_Table + i * SZ_PTE);
			br[i] = pt[PTE_System] ? ld_dword(pt + PTE_StLba) : 0;
    6408:	f7 01       	movw	r30, r14
    640a:	eb 50       	subi	r30, 0x0B	; 11
    640c:	fe 4f       	sbci	r31, 0xFE	; 254
    640e:	80 81       	ld	r24, Z
    6410:	88 23       	and	r24, r24
    6412:	09 f4       	brne	.+2      	; 0x6416 <f_stat+0x39c>
    6414:	12 c1       	rjmp	.+548    	; 0x663a <f_stat+0x5c0>
static
DWORD ld_dword (const BYTE* ptr)	/* Load a 4-byte little-endian word */
{
	DWORD rv;

	rv = ptr[3];
    6416:	37 96       	adiw	r30, 0x07	; 7
    6418:	80 81       	ld	r24, Z
    641a:	90 e0       	ldi	r25, 0x00	; 0
    641c:	a0 e0       	ldi	r26, 0x00	; 0
    641e:	b0 e0       	ldi	r27, 0x00	; 0
	rv = rv << 8 | ptr[2];
    6420:	ba 2f       	mov	r27, r26
    6422:	a9 2f       	mov	r26, r25
    6424:	98 2f       	mov	r25, r24
    6426:	88 27       	eor	r24, r24
    6428:	31 97       	sbiw	r30, 0x01	; 1
    642a:	20 81       	ld	r18, Z
    642c:	82 2b       	or	r24, r18
	rv = rv << 8 | ptr[1];
    642e:	ba 2f       	mov	r27, r26
    6430:	a9 2f       	mov	r26, r25
    6432:	98 2f       	mov	r25, r24
    6434:	88 27       	eor	r24, r24
    6436:	31 97       	sbiw	r30, 0x01	; 1
    6438:	20 81       	ld	r18, Z
    643a:	82 2b       	or	r24, r18
	rv = rv << 8 | ptr[0];
    643c:	ba 2f       	mov	r27, r26
    643e:	a9 2f       	mov	r26, r25
    6440:	98 2f       	mov	r25, r24
    6442:	88 27       	eor	r24, r24
    6444:	31 97       	sbiw	r30, 0x01	; 1
    6446:	20 81       	ld	r18, Z
    6448:	82 2b       	or	r24, r18
	bsect = 0;
	fmt = check_fs(fs, bsect);			/* Load sector 0 and check if it is an FAT-VBR as SFD */
	if (fmt == 2 || (fmt < 2 && LD2PT(vol) != 0)) {	/* Not an FAT-VBR or forced partition number */
		for (i = 0; i < 4; i++) {			/* Get partition offset */
			pt = fs->win + (MBR_Table + i * SZ_PTE);
			br[i] = pt[PTE_System] ? ld_dword(pt + PTE_StLba) : 0;
    644a:	89 a7       	std	Y+41, r24	; 0x29
    644c:	9a a7       	std	Y+42, r25	; 0x2a
    644e:	ab a7       	std	Y+43, r26	; 0x2b
    6450:	bc a7       	std	Y+44, r27	; 0x2c
    6452:	f7 01       	movw	r30, r14
    6454:	eb 5f       	subi	r30, 0xFB	; 251
    6456:	fd 4f       	sbci	r31, 0xFD	; 253
    6458:	80 81       	ld	r24, Z
    645a:	88 23       	and	r24, r24
    645c:	09 f4       	brne	.+2      	; 0x6460 <f_stat+0x3e6>
    645e:	e9 c0       	rjmp	.+466    	; 0x6632 <f_stat+0x5b8>
static
DWORD ld_dword (const BYTE* ptr)	/* Load a 4-byte little-endian word */
{
	DWORD rv;

	rv = ptr[3];
    6460:	37 96       	adiw	r30, 0x07	; 7
    6462:	80 81       	ld	r24, Z
    6464:	90 e0       	ldi	r25, 0x00	; 0
    6466:	a0 e0       	ldi	r26, 0x00	; 0
    6468:	b0 e0       	ldi	r27, 0x00	; 0
	rv = rv << 8 | ptr[2];
    646a:	ba 2f       	mov	r27, r26
    646c:	a9 2f       	mov	r26, r25
    646e:	98 2f       	mov	r25, r24
    6470:	88 27       	eor	r24, r24
    6472:	31 97       	sbiw	r30, 0x01	; 1
    6474:	20 81       	ld	r18, Z
    6476:	82 2b       	or	r24, r18
	rv = rv << 8 | ptr[1];
    6478:	ba 2f       	mov	r27, r26
    647a:	a9 2f       	mov	r26, r25
    647c:	98 2f       	mov	r25, r24
    647e:	88 27       	eor	r24, r24
    6480:	31 97       	sbiw	r30, 0x01	; 1
    6482:	20 81       	ld	r18, Z
    6484:	82 2b       	or	r24, r18
	rv = rv << 8 | ptr[0];
    6486:	ba 2f       	mov	r27, r26
    6488:	a9 2f       	mov	r26, r25
    648a:	98 2f       	mov	r25, r24
    648c:	88 27       	eor	r24, r24
    648e:	31 97       	sbiw	r30, 0x01	; 1
    6490:	20 81       	ld	r18, Z
    6492:	82 2b       	or	r24, r18
	bsect = 0;
	fmt = check_fs(fs, bsect);			/* Load sector 0 and check if it is an FAT-VBR as SFD */
	if (fmt == 2 || (fmt < 2 && LD2PT(vol) != 0)) {	/* Not an FAT-VBR or forced partition number */
		for (i = 0; i < 4; i++) {			/* Get partition offset */
			pt = fs->win + (MBR_Table + i * SZ_PTE);
			br[i] = pt[PTE_System] ? ld_dword(pt + PTE_StLba) : 0;
    6494:	8d a7       	std	Y+45, r24	; 0x2d
    6496:	9e a7       	std	Y+46, r25	; 0x2e
    6498:	af a7       	std	Y+47, r26	; 0x2f
    649a:	b8 ab       	std	Y+48, r27	; 0x30
    649c:	f7 01       	movw	r30, r14
    649e:	eb 5e       	subi	r30, 0xEB	; 235
    64a0:	fd 4f       	sbci	r31, 0xFD	; 253
    64a2:	80 81       	ld	r24, Z
    64a4:	88 23       	and	r24, r24
    64a6:	09 f4       	brne	.+2      	; 0x64aa <f_stat+0x430>
    64a8:	c0 c0       	rjmp	.+384    	; 0x662a <f_stat+0x5b0>
static
DWORD ld_dword (const BYTE* ptr)	/* Load a 4-byte little-endian word */
{
	DWORD rv;

	rv = ptr[3];
    64aa:	37 96       	adiw	r30, 0x07	; 7
    64ac:	80 81       	ld	r24, Z
    64ae:	90 e0       	ldi	r25, 0x00	; 0
    64b0:	a0 e0       	ldi	r26, 0x00	; 0
    64b2:	b0 e0       	ldi	r27, 0x00	; 0
	rv = rv << 8 | ptr[2];
    64b4:	ba 2f       	mov	r27, r26
    64b6:	a9 2f       	mov	r26, r25
    64b8:	98 2f       	mov	r25, r24
    64ba:	88 27       	eor	r24, r24
    64bc:	31 97       	sbiw	r30, 0x01	; 1
    64be:	20 81       	ld	r18, Z
    64c0:	82 2b       	or	r24, r18
	rv = rv << 8 | ptr[1];
    64c2:	ba 2f       	mov	r27, r26
    64c4:	a9 2f       	mov	r26, r25
    64c6:	98 2f       	mov	r25, r24
    64c8:	88 27       	eor	r24, r24
    64ca:	31 97       	sbiw	r30, 0x01	; 1
    64cc:	20 81       	ld	r18, Z
    64ce:	82 2b       	or	r24, r18
	rv = rv << 8 | ptr[0];
    64d0:	ba 2f       	mov	r27, r26
    64d2:	a9 2f       	mov	r26, r25
    64d4:	98 2f       	mov	r25, r24
    64d6:	88 27       	eor	r24, r24
    64d8:	31 97       	sbiw	r30, 0x01	; 1
    64da:	20 81       	ld	r18, Z
    64dc:	82 2b       	or	r24, r18
	bsect = 0;
	fmt = check_fs(fs, bsect);			/* Load sector 0 and check if it is an FAT-VBR as SFD */
	if (fmt == 2 || (fmt < 2 && LD2PT(vol) != 0)) {	/* Not an FAT-VBR or forced partition number */
		for (i = 0; i < 4; i++) {			/* Get partition offset */
			pt = fs->win + (MBR_Table + i * SZ_PTE);
			br[i] = pt[PTE_System] ? ld_dword(pt + PTE_StLba) : 0;
    64de:	89 ab       	std	Y+49, r24	; 0x31
    64e0:	9a ab       	std	Y+50, r25	; 0x32
    64e2:	ab ab       	std	Y+51, r26	; 0x33
    64e4:	bc ab       	std	Y+52, r27	; 0x34
    64e6:	f7 01       	movw	r30, r14
    64e8:	eb 5d       	subi	r30, 0xDB	; 219
    64ea:	fd 4f       	sbci	r31, 0xFD	; 253
    64ec:	80 81       	ld	r24, Z
    64ee:	81 11       	cpse	r24, r1
    64f0:	7f c0       	rjmp	.+254    	; 0x65f0 <f_stat+0x576>
    64f2:	80 e0       	ldi	r24, 0x00	; 0
    64f4:	90 e0       	ldi	r25, 0x00	; 0
    64f6:	dc 01       	movw	r26, r24
    64f8:	8d ab       	std	Y+53, r24	; 0x35
    64fa:	9e ab       	std	Y+54, r25	; 0x36
    64fc:	af ab       	std	Y+55, r26	; 0x37
    64fe:	b8 af       	std	Y+56, r27	; 0x38
		}
		i = LD2PT(vol);						/* Partition number: 0:auto, 1-4:forced */
		if (i) i--;
		do {								/* Find an FAT volume */
			bsect = br[i];
    6500:	49 a4       	ldd	r4, Y+41	; 0x29
    6502:	5a a4       	ldd	r5, Y+42	; 0x2a
    6504:	6b a4       	ldd	r6, Y+43	; 0x2b
    6506:	7c a4       	ldd	r7, Y+44	; 0x2c
    6508:	2d 96       	adiw	r28, 0x0d	; 13
    650a:	4c ae       	std	Y+60, r4	; 0x3c
    650c:	5d ae       	std	Y+61, r5	; 0x3d
    650e:	6e ae       	std	Y+62, r6	; 0x3e
    6510:	7f ae       	std	Y+63, r7	; 0x3f
    6512:	2d 97       	sbiw	r28, 0x0d	; 13
			fmt = bsect ? check_fs(fs, bsect) : 3;	/* Check the partition */
    6514:	41 14       	cp	r4, r1
    6516:	51 04       	cpc	r5, r1
    6518:	61 04       	cpc	r6, r1
    651a:	71 04       	cpc	r7, r1
    651c:	09 f0       	breq	.+2      	; 0x6520 <f_stat+0x4a6>
    651e:	a3 c2       	rjmp	.+1350   	; 0x6a66 <f_stat+0x9ec>
			br[i] = pt[PTE_System] ? ld_dword(pt + PTE_StLba) : 0;
		}
		i = LD2PT(vol);						/* Partition number: 0:auto, 1-4:forced */
		if (i) i--;
		do {								/* Find an FAT volume */
			bsect = br[i];
    6520:	4d a4       	ldd	r4, Y+45	; 0x2d
    6522:	5e a4       	ldd	r5, Y+46	; 0x2e
    6524:	6f a4       	ldd	r6, Y+47	; 0x2f
    6526:	78 a8       	ldd	r7, Y+48	; 0x30
    6528:	2d 96       	adiw	r28, 0x0d	; 13
    652a:	4c ae       	std	Y+60, r4	; 0x3c
    652c:	5d ae       	std	Y+61, r5	; 0x3d
    652e:	6e ae       	std	Y+62, r6	; 0x3e
    6530:	7f ae       	std	Y+63, r7	; 0x3f
    6532:	2d 97       	sbiw	r28, 0x0d	; 13
			fmt = bsect ? check_fs(fs, bsect) : 3;	/* Check the partition */
    6534:	41 14       	cp	r4, r1
    6536:	51 04       	cpc	r5, r1
    6538:	61 04       	cpc	r6, r1
    653a:	71 04       	cpc	r7, r1
    653c:	09 f0       	breq	.+2      	; 0x6540 <f_stat+0x4c6>
    653e:	8a c2       	rjmp	.+1300   	; 0x6a54 <f_stat+0x9da>
			br[i] = pt[PTE_System] ? ld_dword(pt + PTE_StLba) : 0;
		}
		i = LD2PT(vol);						/* Partition number: 0:auto, 1-4:forced */
		if (i) i--;
		do {								/* Find an FAT volume */
			bsect = br[i];
    6540:	49 a8       	ldd	r4, Y+49	; 0x31
    6542:	5a a8       	ldd	r5, Y+50	; 0x32
    6544:	6b a8       	ldd	r6, Y+51	; 0x33
    6546:	7c a8       	ldd	r7, Y+52	; 0x34
    6548:	2d 96       	adiw	r28, 0x0d	; 13
    654a:	4c ae       	std	Y+60, r4	; 0x3c
    654c:	5d ae       	std	Y+61, r5	; 0x3d
    654e:	6e ae       	std	Y+62, r6	; 0x3e
    6550:	7f ae       	std	Y+63, r7	; 0x3f
    6552:	2d 97       	sbiw	r28, 0x0d	; 13
			fmt = bsect ? check_fs(fs, bsect) : 3;	/* Check the partition */
    6554:	41 14       	cp	r4, r1
    6556:	51 04       	cpc	r5, r1
    6558:	61 04       	cpc	r6, r1
    655a:	71 04       	cpc	r7, r1
    655c:	09 f0       	breq	.+2      	; 0x6560 <f_stat+0x4e6>
    655e:	71 c2       	rjmp	.+1250   	; 0x6a42 <f_stat+0x9c8>
			br[i] = pt[PTE_System] ? ld_dword(pt + PTE_StLba) : 0;
		}
		i = LD2PT(vol);						/* Partition number: 0:auto, 1-4:forced */
		if (i) i--;
		do {								/* Find an FAT volume */
			bsect = br[i];
    6560:	4d a8       	ldd	r4, Y+53	; 0x35
    6562:	5e a8       	ldd	r5, Y+54	; 0x36
    6564:	6f a8       	ldd	r6, Y+55	; 0x37
    6566:	78 ac       	ldd	r7, Y+56	; 0x38
    6568:	2d 96       	adiw	r28, 0x0d	; 13
    656a:	4c ae       	std	Y+60, r4	; 0x3c
    656c:	5d ae       	std	Y+61, r5	; 0x3d
    656e:	6e ae       	std	Y+62, r6	; 0x3e
    6570:	7f ae       	std	Y+63, r7	; 0x3f
    6572:	2d 97       	sbiw	r28, 0x0d	; 13
			fmt = bsect ? check_fs(fs, bsect) : 3;	/* Check the partition */
    6574:	41 14       	cp	r4, r1
    6576:	51 04       	cpc	r5, r1
    6578:	61 04       	cpc	r6, r1
    657a:	71 04       	cpc	r7, r1
    657c:	09 f4       	brne	.+2      	; 0x6580 <f_stat+0x506>
    657e:	38 cf       	rjmp	.-400    	; 0x63f0 <f_stat+0x376>
    6580:	b3 01       	movw	r22, r6
    6582:	a2 01       	movw	r20, r4
    6584:	c7 01       	movw	r24, r14
    6586:	0e 94 e5 09 	call	0x13ca	; 0x13ca <check_fs>
		} while (!LD2PT(vol) && fmt >= 2 && ++i < 4);
    658a:	82 30       	cpi	r24, 0x02	; 2
    658c:	08 f4       	brcc	.+2      	; 0x6590 <f_stat+0x516>
    658e:	a8 c0       	rjmp	.+336    	; 0x66e0 <f_stat+0x666>
	}
	if (fmt == 4) return FR_DISK_ERR;		/* An error occured in the disk I/O layer */
    6590:	84 30       	cpi	r24, 0x04	; 4
    6592:	09 f0       	breq	.+2      	; 0x6596 <f_stat+0x51c>
    6594:	2d cf       	rjmp	.-422    	; 0x63f0 <f_stat+0x376>
    6596:	81 e0       	ldi	r24, 0x01	; 1
    6598:	c8 ce       	rjmp	.-624    	; 0x632a <f_stat+0x2b0>

#else	/* Non-LFN configuration */
	i = j = 0;
	while (i < 11) {		/* Copy name body and extension */
		c = (TCHAR)dp->dir[i++];
		if (c == ' ') continue;				/* Skip padding spaces */
    659a:	9a 01       	movw	r18, r20
    659c:	46 ce       	rjmp	.-884    	; 0x622a <f_stat+0x1b0>
    659e:	40 e0       	ldi	r20, 0x00	; 0
    65a0:	50 e0       	ldi	r21, 0x00	; 0
    65a2:	da cd       	rjmp	.-1100   	; 0x6158 <f_stat+0xde>
    65a4:	a9 01       	movw	r20, r18
    65a6:	32 ce       	rjmp	.-924    	; 0x620c <f_stat+0x192>
    65a8:	9a 01       	movw	r18, r20
    65aa:	21 ce       	rjmp	.-958    	; 0x61ee <f_stat+0x174>
    65ac:	a9 01       	movw	r20, r18
    65ae:	10 ce       	rjmp	.-992    	; 0x61d0 <f_stat+0x156>
    65b0:	9a 01       	movw	r18, r20
    65b2:	ff cd       	rjmp	.-1026   	; 0x61b2 <f_stat+0x138>
    65b4:	a9 01       	movw	r20, r18
    65b6:	ee cd       	rjmp	.-1060   	; 0x6194 <f_stat+0x11a>
    65b8:	9a 01       	movw	r18, r20
    65ba:	dd cd       	rjmp	.-1094   	; 0x6176 <f_stat+0xfc>
    65bc:	9a 01       	movw	r18, r20
    65be:	67 ce       	rjmp	.-818    	; 0x628e <f_stat+0x214>
    65c0:	a9 01       	movw	r20, r18
    65c2:	56 ce       	rjmp	.-852    	; 0x6270 <f_stat+0x1f6>
		if (c == RDDEM) c = (TCHAR)DDEM;	/* Restore replaced DDEM character */
    65c4:	95 ee       	ldi	r25, 0xE5	; 229
    65c6:	4c ce       	rjmp	.-872    	; 0x6260 <f_stat+0x1e6>
    65c8:	95 ee       	ldi	r25, 0xE5	; 229
    65ca:	dc cd       	rjmp	.-1096   	; 0x6184 <f_stat+0x10a>
    65cc:	95 ee       	ldi	r25, 0xE5	; 229
    65ce:	cb cd       	rjmp	.-1130   	; 0x6166 <f_stat+0xec>
    65d0:	95 ee       	ldi	r25, 0xE5	; 229
    65d2:	bd cd       	rjmp	.-1158   	; 0x614e <f_stat+0xd4>
    65d4:	95 ee       	ldi	r25, 0xE5	; 229
    65d6:	53 ce       	rjmp	.-858    	; 0x627e <f_stat+0x204>
    65d8:	95 ee       	ldi	r25, 0xE5	; 229
    65da:	2d ce       	rjmp	.-934    	; 0x6236 <f_stat+0x1bc>
    65dc:	95 ee       	ldi	r25, 0xE5	; 229
    65de:	ff cd       	rjmp	.-1026   	; 0x61de <f_stat+0x164>
    65e0:	95 ee       	ldi	r25, 0xE5	; 229
    65e2:	ee cd       	rjmp	.-1060   	; 0x61c0 <f_stat+0x146>
    65e4:	95 ee       	ldi	r25, 0xE5	; 229
    65e6:	dd cd       	rjmp	.-1094   	; 0x61a2 <f_stat+0x128>
    65e8:	95 ee       	ldi	r25, 0xE5	; 229
    65ea:	17 ce       	rjmp	.-978    	; 0x621a <f_stat+0x1a0>
    65ec:	95 ee       	ldi	r25, 0xE5	; 229
    65ee:	06 ce       	rjmp	.-1012   	; 0x61fc <f_stat+0x182>
static
DWORD ld_dword (const BYTE* ptr)	/* Load a 4-byte little-endian word */
{
	DWORD rv;

	rv = ptr[3];
    65f0:	f7 01       	movw	r30, r14
    65f2:	e4 5d       	subi	r30, 0xD4	; 212
    65f4:	fd 4f       	sbci	r31, 0xFD	; 253
    65f6:	80 81       	ld	r24, Z
    65f8:	90 e0       	ldi	r25, 0x00	; 0
    65fa:	a0 e0       	ldi	r26, 0x00	; 0
    65fc:	b0 e0       	ldi	r27, 0x00	; 0
	rv = rv << 8 | ptr[2];
    65fe:	ba 2f       	mov	r27, r26
    6600:	a9 2f       	mov	r26, r25
    6602:	98 2f       	mov	r25, r24
    6604:	88 27       	eor	r24, r24
    6606:	31 97       	sbiw	r30, 0x01	; 1
    6608:	20 81       	ld	r18, Z
    660a:	82 2b       	or	r24, r18
	rv = rv << 8 | ptr[1];
    660c:	ba 2f       	mov	r27, r26
    660e:	a9 2f       	mov	r26, r25
    6610:	98 2f       	mov	r25, r24
    6612:	88 27       	eor	r24, r24
    6614:	31 97       	sbiw	r30, 0x01	; 1
    6616:	20 81       	ld	r18, Z
    6618:	82 2b       	or	r24, r18
	rv = rv << 8 | ptr[0];
    661a:	ba 2f       	mov	r27, r26
    661c:	a9 2f       	mov	r26, r25
    661e:	98 2f       	mov	r25, r24
    6620:	88 27       	eor	r24, r24
    6622:	31 97       	sbiw	r30, 0x01	; 1
    6624:	20 81       	ld	r18, Z
    6626:	82 2b       	or	r24, r18
    6628:	67 cf       	rjmp	.-306    	; 0x64f8 <f_stat+0x47e>
	bsect = 0;
	fmt = check_fs(fs, bsect);			/* Load sector 0 and check if it is an FAT-VBR as SFD */
	if (fmt == 2 || (fmt < 2 && LD2PT(vol) != 0)) {	/* Not an FAT-VBR or forced partition number */
		for (i = 0; i < 4; i++) {			/* Get partition offset */
			pt = fs->win + (MBR_Table + i * SZ_PTE);
			br[i] = pt[PTE_System] ? ld_dword(pt + PTE_StLba) : 0;
    662a:	80 e0       	ldi	r24, 0x00	; 0
    662c:	90 e0       	ldi	r25, 0x00	; 0
    662e:	dc 01       	movw	r26, r24
    6630:	56 cf       	rjmp	.-340    	; 0x64de <f_stat+0x464>
    6632:	80 e0       	ldi	r24, 0x00	; 0
    6634:	90 e0       	ldi	r25, 0x00	; 0
    6636:	dc 01       	movw	r26, r24
    6638:	2d cf       	rjmp	.-422    	; 0x6494 <f_stat+0x41a>
    663a:	80 e0       	ldi	r24, 0x00	; 0
    663c:	90 e0       	ldi	r25, 0x00	; 0
    663e:	dc 01       	movw	r26, r24
    6640:	04 cf       	rjmp	.-504    	; 0x644a <f_stat+0x3d0>
	fs->wflag = 0; fs->winsect = 0xFFFFFFFF;		/* Invaidate window */
	if (move_window(fs, sect) != FR_OK) return 4;	/* Load boot record */

	if (ld_word(fs->win + BS_55AA) != 0xAA55) return 3;	/* Check boot record signature (always placed at offset 510 even if the sector size is >512) */

	if (fs->win[BS_JmpBoot] == 0xE9 || (fs->win[BS_JmpBoot] == 0xEB && fs->win[BS_JmpBoot + 2] == 0x90)) {
    6642:	d5 96       	adiw	r26, 0x35	; 53
    6644:	8c 91       	ld	r24, X
    6646:	80 39       	cpi	r24, 0x90	; 144
    6648:	09 f0       	breq	.+2      	; 0x664c <f_stat+0x5d2>
    664a:	de ce       	rjmp	.-580    	; 0x6408 <f_stat+0x38e>
static
DWORD ld_dword (const BYTE* ptr)	/* Load a 4-byte little-endian word */
{
	DWORD rv;

	rv = ptr[3];
    664c:	f7 01       	movw	r30, r14
    664e:	e4 59       	subi	r30, 0x94	; 148
    6650:	ff 4f       	sbci	r31, 0xFF	; 255
    6652:	80 81       	ld	r24, Z
    6654:	90 e0       	ldi	r25, 0x00	; 0
    6656:	a0 e0       	ldi	r26, 0x00	; 0
    6658:	b0 e0       	ldi	r27, 0x00	; 0
	rv = rv << 8 | ptr[2];
    665a:	ba 2f       	mov	r27, r26
    665c:	a9 2f       	mov	r26, r25
    665e:	98 2f       	mov	r25, r24
    6660:	88 27       	eor	r24, r24
    6662:	31 97       	sbiw	r30, 0x01	; 1
    6664:	20 81       	ld	r18, Z
    6666:	82 2b       	or	r24, r18
	rv = rv << 8 | ptr[1];
    6668:	ba 2f       	mov	r27, r26
    666a:	a9 2f       	mov	r26, r25
    666c:	98 2f       	mov	r25, r24
    666e:	88 27       	eor	r24, r24
    6670:	31 97       	sbiw	r30, 0x01	; 1
    6672:	20 81       	ld	r18, Z
    6674:	82 2b       	or	r24, r18
	rv = rv << 8 | ptr[0];
    6676:	ba 2f       	mov	r27, r26
    6678:	a9 2f       	mov	r26, r25
    667a:	98 2f       	mov	r25, r24
    667c:	88 27       	eor	r24, r24
    667e:	31 97       	sbiw	r30, 0x01	; 1
    6680:	20 81       	ld	r18, Z
    6682:	82 2b       	or	r24, r18
	if (move_window(fs, sect) != FR_OK) return 4;	/* Load boot record */

	if (ld_word(fs->win + BS_55AA) != 0xAA55) return 3;	/* Check boot record signature (always placed at offset 510 even if the sector size is >512) */

	if (fs->win[BS_JmpBoot] == 0xE9 || (fs->win[BS_JmpBoot] == 0xEB && fs->win[BS_JmpBoot + 2] == 0x90)) {
		if ((ld_dword(fs->win + BS_FilSysType) & 0xFFFFFF) == 0x544146) return 0;	/* Check "FAT" string */
    6684:	bb 27       	eor	r27, r27
    6686:	86 34       	cpi	r24, 0x46	; 70
    6688:	91 44       	sbci	r25, 0x41	; 65
    668a:	a4 45       	sbci	r26, 0x54	; 84
    668c:	b1 05       	cpc	r27, r1
    668e:	11 f1       	breq	.+68     	; 0x66d4 <f_stat+0x65a>
static
DWORD ld_dword (const BYTE* ptr)	/* Load a 4-byte little-endian word */
{
	DWORD rv;

	rv = ptr[3];
    6690:	f7 01       	movw	r30, r14
    6692:	e8 57       	subi	r30, 0x78	; 120
    6694:	ff 4f       	sbci	r31, 0xFF	; 255
    6696:	80 81       	ld	r24, Z
    6698:	90 e0       	ldi	r25, 0x00	; 0
    669a:	a0 e0       	ldi	r26, 0x00	; 0
    669c:	b0 e0       	ldi	r27, 0x00	; 0
	rv = rv << 8 | ptr[2];
    669e:	ba 2f       	mov	r27, r26
    66a0:	a9 2f       	mov	r26, r25
    66a2:	98 2f       	mov	r25, r24
    66a4:	88 27       	eor	r24, r24
    66a6:	31 97       	sbiw	r30, 0x01	; 1
    66a8:	20 81       	ld	r18, Z
    66aa:	82 2b       	or	r24, r18
	rv = rv << 8 | ptr[1];
    66ac:	ba 2f       	mov	r27, r26
    66ae:	a9 2f       	mov	r26, r25
    66b0:	98 2f       	mov	r25, r24
    66b2:	88 27       	eor	r24, r24
    66b4:	31 97       	sbiw	r30, 0x01	; 1
    66b6:	20 81       	ld	r18, Z
    66b8:	82 2b       	or	r24, r18
	rv = rv << 8 | ptr[0];
    66ba:	ba 2f       	mov	r27, r26
    66bc:	a9 2f       	mov	r26, r25
    66be:	98 2f       	mov	r25, r24
    66c0:	88 27       	eor	r24, r24
    66c2:	31 97       	sbiw	r30, 0x01	; 1
    66c4:	20 81       	ld	r18, Z
    66c6:	82 2b       	or	r24, r18

	if (ld_word(fs->win + BS_55AA) != 0xAA55) return 3;	/* Check boot record signature (always placed at offset 510 even if the sector size is >512) */

	if (fs->win[BS_JmpBoot] == 0xE9 || (fs->win[BS_JmpBoot] == 0xEB && fs->win[BS_JmpBoot + 2] == 0x90)) {
		if ((ld_dword(fs->win + BS_FilSysType) & 0xFFFFFF) == 0x544146) return 0;	/* Check "FAT" string */
		if (ld_dword(fs->win + BS_FilSysType32) == 0x33544146) return 0;			/* Check "FAT3" string */
    66c8:	86 34       	cpi	r24, 0x46	; 70
    66ca:	91 44       	sbci	r25, 0x41	; 65
    66cc:	a4 45       	sbci	r26, 0x54	; 84
    66ce:	b3 43       	sbci	r27, 0x33	; 51
    66d0:	09 f0       	breq	.+2      	; 0x66d4 <f_stat+0x65a>
    66d2:	9a ce       	rjmp	.-716    	; 0x6408 <f_stat+0x38e>
#if _MAX_SS != _MIN_SS						/* Get sector size (multiple sector size cfg only) */
	if (disk_ioctl(fs->drv, GET_SECTOR_SIZE, &SS(fs)) != RES_OK) return FR_DISK_ERR;
	if (SS(fs) > _MAX_SS || SS(fs) < _MIN_SS || (SS(fs) & (SS(fs) - 1))) return FR_DISK_ERR;
#endif
	/* Find an FAT partition on the drive. Supports only generic partitioning, FDISK and SFD. */
	bsect = 0;
    66d4:	2d 96       	adiw	r28, 0x0d	; 13
    66d6:	1c ae       	std	Y+60, r1	; 0x3c
    66d8:	1d ae       	std	Y+61, r1	; 0x3d
    66da:	1e ae       	std	Y+62, r1	; 0x3e
    66dc:	1f ae       	std	Y+63, r1	; 0x3f
    66de:	2d 97       	sbiw	r28, 0x0d	; 13
static
WORD ld_word (const BYTE* ptr)	/*	 Load a 2-byte little-endian word */
{
	WORD rv;

	rv = ptr[1];
    66e0:	d7 01       	movw	r26, r14
    66e2:	df 96       	adiw	r26, 0x3f	; 63
    66e4:	8c 91       	ld	r24, X
    66e6:	df 97       	sbiw	r26, 0x3f	; 63
    66e8:	90 e0       	ldi	r25, 0x00	; 0
	rv = rv << 8 | ptr[0];
    66ea:	98 2f       	mov	r25, r24
    66ec:	88 27       	eor	r24, r24
    66ee:	de 96       	adiw	r26, 0x3e	; 62
    66f0:	2c 91       	ld	r18, X
    66f2:	82 2b       	or	r24, r18
#endif
		fmt = FS_EXFAT;			/* FAT sub-type */
	} else
#endif	/* _FS_EXFAT */
	{
		if (ld_word(fs->win + BPB_BytsPerSec) != SS(fs)) return FR_NO_FILESYSTEM;	/* (BPB_BytsPerSec must be equal to the physical sector size) */
    66f4:	81 15       	cp	r24, r1
    66f6:	92 40       	sbci	r25, 0x02	; 2
    66f8:	09 f0       	breq	.+2      	; 0x66fc <f_stat+0x682>
    66fa:	7a ce       	rjmp	.-780    	; 0x63f0 <f_stat+0x376>
static
WORD ld_word (const BYTE* ptr)	/*	 Load a 2-byte little-endian word */
{
	WORD rv;

	rv = ptr[1];
    66fc:	f7 01       	movw	r30, r14
    66fe:	e6 5b       	subi	r30, 0xB6	; 182
    6700:	ff 4f       	sbci	r31, 0xFF	; 255
    6702:	80 81       	ld	r24, Z
    6704:	90 e0       	ldi	r25, 0x00	; 0
	rv = rv << 8 | ptr[0];
    6706:	98 2f       	mov	r25, r24
    6708:	88 27       	eor	r24, r24
    670a:	31 97       	sbiw	r30, 0x01	; 1
    670c:	20 81       	ld	r18, Z
    670e:	82 2b       	or	r24, r18
	} else
#endif	/* _FS_EXFAT */
	{
		if (ld_word(fs->win + BPB_BytsPerSec) != SS(fs)) return FR_NO_FILESYSTEM;	/* (BPB_BytsPerSec must be equal to the physical sector size) */

		fasize = ld_word(fs->win + BPB_FATSz16);			/* Number of sectors per FAT */
    6710:	2c 01       	movw	r4, r24
    6712:	61 2c       	mov	r6, r1
    6714:	71 2c       	mov	r7, r1
    6716:	49 ae       	std	Y+57, r4	; 0x39
    6718:	5a ae       	std	Y+58, r5	; 0x3a
    671a:	6b ae       	std	Y+59, r6	; 0x3b
    671c:	7c ae       	std	Y+60, r7	; 0x3c
		if (fasize == 0) fasize = ld_dword(fs->win + BPB_FATSz32);
    671e:	89 2b       	or	r24, r25
    6720:	01 f5       	brne	.+64     	; 0x6762 <f_stat+0x6e8>
static
DWORD ld_dword (const BYTE* ptr)	/* Load a 4-byte little-endian word */
{
	DWORD rv;

	rv = ptr[3];
    6722:	71 96       	adiw	r30, 0x11	; 17
    6724:	80 81       	ld	r24, Z
    6726:	90 e0       	ldi	r25, 0x00	; 0
    6728:	a0 e0       	ldi	r26, 0x00	; 0
    672a:	b0 e0       	ldi	r27, 0x00	; 0
	rv = rv << 8 | ptr[2];
    672c:	ba 2f       	mov	r27, r26
    672e:	a9 2f       	mov	r26, r25
    6730:	98 2f       	mov	r25, r24
    6732:	88 27       	eor	r24, r24
    6734:	31 97       	sbiw	r30, 0x01	; 1
    6736:	20 81       	ld	r18, Z
    6738:	82 2b       	or	r24, r18
	rv = rv << 8 | ptr[1];
    673a:	ba 2f       	mov	r27, r26
    673c:	a9 2f       	mov	r26, r25
    673e:	98 2f       	mov	r25, r24
    6740:	88 27       	eor	r24, r24
    6742:	31 97       	sbiw	r30, 0x01	; 1
    6744:	20 81       	ld	r18, Z
    6746:	82 2b       	or	r24, r18
	rv = rv << 8 | ptr[0];
    6748:	ba 2f       	mov	r27, r26
    674a:	a9 2f       	mov	r26, r25
    674c:	98 2f       	mov	r25, r24
    674e:	88 27       	eor	r24, r24
    6750:	31 97       	sbiw	r30, 0x01	; 1
    6752:	20 81       	ld	r18, Z
    6754:	2c 01       	movw	r4, r24
    6756:	3d 01       	movw	r6, r26
    6758:	42 2a       	or	r4, r18
    675a:	49 ae       	std	Y+57, r4	; 0x39
    675c:	5a ae       	std	Y+58, r5	; 0x3a
    675e:	6b ae       	std	Y+59, r6	; 0x3b
    6760:	7c ae       	std	Y+60, r7	; 0x3c
	{
		if (ld_word(fs->win + BPB_BytsPerSec) != SS(fs)) return FR_NO_FILESYSTEM;	/* (BPB_BytsPerSec must be equal to the physical sector size) */

		fasize = ld_word(fs->win + BPB_FATSz16);			/* Number of sectors per FAT */
		if (fasize == 0) fasize = ld_dword(fs->win + BPB_FATSz32);
		fs->fsize = fasize;
    6762:	09 ad       	ldd	r16, Y+57	; 0x39
    6764:	1a ad       	ldd	r17, Y+58	; 0x3a
    6766:	2b ad       	ldd	r18, Y+59	; 0x3b
    6768:	3c ad       	ldd	r19, Y+60	; 0x3c
    676a:	d7 01       	movw	r26, r14
    676c:	5b 96       	adiw	r26, 0x1b	; 27
    676e:	0d 93       	st	X+, r16
    6770:	1d 93       	st	X+, r17
    6772:	2d 93       	st	X+, r18
    6774:	3c 93       	st	X, r19
    6776:	5e 97       	sbiw	r26, 0x1e	; 30

		fs->n_fats = fs->win[BPB_NumFATs];					/* Number of FATs */
    6778:	f7 01       	movw	r30, r14
    677a:	ed 5b       	subi	r30, 0xBD	; 189
    677c:	ff 4f       	sbci	r31, 0xFF	; 255
    677e:	a0 81       	ld	r26, Z
    6780:	f7 01       	movw	r30, r14
    6782:	a2 83       	std	Z+2, r26	; 0x02
		if (fs->n_fats != 1 && fs->n_fats != 2) return FR_NO_FILESYSTEM;	/* (Must be 1 or 2) */
    6784:	8f ef       	ldi	r24, 0xFF	; 255
    6786:	8a 0f       	add	r24, r26
    6788:	82 30       	cpi	r24, 0x02	; 2
    678a:	08 f0       	brcs	.+2      	; 0x678e <f_stat+0x714>
    678c:	31 ce       	rjmp	.-926    	; 0x63f0 <f_stat+0x376>
		fasize *= fs->n_fats;								/* Number of sectors for FAT area */
    678e:	b0 e0       	ldi	r27, 0x00	; 0
    6790:	a9 01       	movw	r20, r18
    6792:	98 01       	movw	r18, r16
    6794:	0e 94 1d 44 	call	0x883a	; 0x883a <__muluhisi3>
    6798:	29 96       	adiw	r28, 0x09	; 9
    679a:	6c af       	std	Y+60, r22	; 0x3c
    679c:	7d af       	std	Y+61, r23	; 0x3d
    679e:	8e af       	std	Y+62, r24	; 0x3e
    67a0:	9f af       	std	Y+63, r25	; 0x3f
    67a2:	29 97       	sbiw	r28, 0x09	; 9

		fs->csize = fs->win[BPB_SecPerClus];				/* Cluster size */
    67a4:	e0 5c       	subi	r30, 0xC0	; 192
    67a6:	ff 4f       	sbci	r31, 0xFF	; 255
    67a8:	40 80       	ld	r4, Z
    67aa:	2e 96       	adiw	r28, 0x0e	; 14
    67ac:	4f ae       	std	Y+63, r4	; 0x3f
    67ae:	2e 97       	sbiw	r28, 0x0e	; 14
    67b0:	84 2d       	mov	r24, r4
    67b2:	90 e0       	ldi	r25, 0x00	; 0
    67b4:	d7 01       	movw	r26, r14
    67b6:	19 96       	adiw	r26, 0x09	; 9
    67b8:	8d 93       	st	X+, r24
    67ba:	9c 93       	st	X, r25
    67bc:	1a 97       	sbiw	r26, 0x0a	; 10
		if (fs->csize == 0 || (fs->csize & (fs->csize - 1))) return FR_NO_FILESYSTEM;	/* (Must be power of 2) */
    67be:	00 97       	sbiw	r24, 0x00	; 0
    67c0:	09 f4       	brne	.+2      	; 0x67c4 <f_stat+0x74a>
    67c2:	16 ce       	rjmp	.-980    	; 0x63f0 <f_stat+0x376>
    67c4:	ac 01       	movw	r20, r24
    67c6:	41 50       	subi	r20, 0x01	; 1
    67c8:	51 09       	sbc	r21, r1
    67ca:	84 23       	and	r24, r20
    67cc:	95 23       	and	r25, r21
    67ce:	89 2b       	or	r24, r25
    67d0:	09 f0       	breq	.+2      	; 0x67d4 <f_stat+0x75a>
    67d2:	0e ce       	rjmp	.-996    	; 0x63f0 <f_stat+0x376>
static
WORD ld_word (const BYTE* ptr)	/*	 Load a 2-byte little-endian word */
{
	WORD rv;

	rv = ptr[1];
    67d4:	35 96       	adiw	r30, 0x05	; 5
    67d6:	00 81       	ld	r16, Z
    67d8:	10 e0       	ldi	r17, 0x00	; 0
	rv = rv << 8 | ptr[0];
    67da:	10 2f       	mov	r17, r16
    67dc:	00 27       	eor	r16, r16
    67de:	31 97       	sbiw	r30, 0x01	; 1
    67e0:	80 81       	ld	r24, Z
    67e2:	28 01       	movw	r4, r16
    67e4:	48 2a       	or	r4, r24
    67e6:	60 96       	adiw	r28, 0x10	; 16
    67e8:	4e ae       	std	Y+62, r4	; 0x3e
    67ea:	5f ae       	std	Y+63, r5	; 0x3f
    67ec:	60 97       	sbiw	r28, 0x10	; 16
		fasize *= fs->n_fats;								/* Number of sectors for FAT area */

		fs->csize = fs->win[BPB_SecPerClus];				/* Cluster size */
		if (fs->csize == 0 || (fs->csize & (fs->csize - 1))) return FR_NO_FILESYSTEM;	/* (Must be power of 2) */

		fs->n_rootdir = ld_word(fs->win + BPB_RootEntCnt);	/* Number of root directory entries */
    67ee:	17 96       	adiw	r26, 0x07	; 7
    67f0:	4d 92       	st	X+, r4
    67f2:	5c 92       	st	X, r5
    67f4:	18 97       	sbiw	r26, 0x08	; 8
		if (fs->n_rootdir % (SS(fs) / SZDIRE)) return FR_NO_FILESYSTEM;	/* (Must be sector aligned) */
    67f6:	c2 01       	movw	r24, r4
    67f8:	8f 70       	andi	r24, 0x0F	; 15
    67fa:	99 27       	eor	r25, r25
    67fc:	89 2b       	or	r24, r25
    67fe:	09 f0       	breq	.+2      	; 0x6802 <f_stat+0x788>
    6800:	f7 cd       	rjmp	.-1042   	; 0x63f0 <f_stat+0x376>
static
WORD ld_word (const BYTE* ptr)	/*	 Load a 2-byte little-endian word */
{
	WORD rv;

	rv = ptr[1];
    6802:	33 96       	adiw	r30, 0x03	; 3
    6804:	80 81       	ld	r24, Z
    6806:	90 e0       	ldi	r25, 0x00	; 0
	rv = rv << 8 | ptr[0];
    6808:	98 2f       	mov	r25, r24
    680a:	88 27       	eor	r24, r24
    680c:	31 97       	sbiw	r30, 0x01	; 1
    680e:	30 81       	ld	r19, Z
    6810:	83 2b       	or	r24, r19
		if (fs->csize == 0 || (fs->csize & (fs->csize - 1))) return FR_NO_FILESYSTEM;	/* (Must be power of 2) */

		fs->n_rootdir = ld_word(fs->win + BPB_RootEntCnt);	/* Number of root directory entries */
		if (fs->n_rootdir % (SS(fs) / SZDIRE)) return FR_NO_FILESYSTEM;	/* (Must be sector aligned) */

		tsect = ld_word(fs->win + BPB_TotSec16);			/* Number of sectors on the volume */
    6812:	ac 01       	movw	r20, r24
    6814:	60 e0       	ldi	r22, 0x00	; 0
    6816:	70 e0       	ldi	r23, 0x00	; 0
		if (tsect == 0) tsect = ld_dword(fs->win + BPB_TotSec32);
    6818:	89 2b       	or	r24, r25
    681a:	d1 f4       	brne	.+52     	; 0x6850 <f_stat+0x7d6>
static
DWORD ld_dword (const BYTE* ptr)	/* Load a 4-byte little-endian word */
{
	DWORD rv;

	rv = ptr[3];
    681c:	70 96       	adiw	r30, 0x10	; 16
    681e:	40 81       	ld	r20, Z
    6820:	50 e0       	ldi	r21, 0x00	; 0
    6822:	60 e0       	ldi	r22, 0x00	; 0
    6824:	70 e0       	ldi	r23, 0x00	; 0
	rv = rv << 8 | ptr[2];
    6826:	76 2f       	mov	r23, r22
    6828:	65 2f       	mov	r22, r21
    682a:	54 2f       	mov	r21, r20
    682c:	44 27       	eor	r20, r20
    682e:	31 97       	sbiw	r30, 0x01	; 1
    6830:	80 81       	ld	r24, Z
    6832:	48 2b       	or	r20, r24
	rv = rv << 8 | ptr[1];
    6834:	76 2f       	mov	r23, r22
    6836:	65 2f       	mov	r22, r21
    6838:	54 2f       	mov	r21, r20
    683a:	44 27       	eor	r20, r20
    683c:	31 97       	sbiw	r30, 0x01	; 1
    683e:	80 81       	ld	r24, Z
    6840:	48 2b       	or	r20, r24
	rv = rv << 8 | ptr[0];
    6842:	76 2f       	mov	r23, r22
    6844:	65 2f       	mov	r22, r21
    6846:	54 2f       	mov	r21, r20
    6848:	44 27       	eor	r20, r20
    684a:	31 97       	sbiw	r30, 0x01	; 1
    684c:	80 81       	ld	r24, Z
    684e:	48 2b       	or	r20, r24
static
WORD ld_word (const BYTE* ptr)	/*	 Load a 2-byte little-endian word */
{
	WORD rv;

	rv = ptr[1];
    6850:	f7 01       	movw	r30, r14
    6852:	ee 5b       	subi	r30, 0xBE	; 190
    6854:	ff 4f       	sbci	r31, 0xFF	; 255
    6856:	80 81       	ld	r24, Z
    6858:	90 e0       	ldi	r25, 0x00	; 0
	rv = rv << 8 | ptr[0];
    685a:	98 2f       	mov	r25, r24
    685c:	88 27       	eor	r24, r24
    685e:	31 97       	sbiw	r30, 0x01	; 1
    6860:	30 81       	ld	r19, Z
    6862:	2c 01       	movw	r4, r24
    6864:	43 2a       	or	r4, r19

		tsect = ld_word(fs->win + BPB_TotSec16);			/* Number of sectors on the volume */
		if (tsect == 0) tsect = ld_dword(fs->win + BPB_TotSec32);

		nrsv = ld_word(fs->win + BPB_RsvdSecCnt);			/* Number of reserved sectors */
		if (nrsv == 0) return FR_NO_FILESYSTEM;				/* (Must not be 0) */
    6866:	41 14       	cp	r4, r1
    6868:	51 04       	cpc	r5, r1
    686a:	09 f4       	brne	.+2      	; 0x686e <f_stat+0x7f4>
    686c:	c1 cd       	rjmp	.-1150   	; 0x63f0 <f_stat+0x376>

		/* Determine the FAT sub type */
		sysect = nrsv + fasize + fs->n_rootdir / (SS(fs) / SZDIRE);	/* RSV + FAT + DIR */
    686e:	61 2c       	mov	r6, r1
    6870:	71 2c       	mov	r7, r1
    6872:	60 96       	adiw	r28, 0x10	; 16
    6874:	2e ad       	ldd	r18, Y+62	; 0x3e
    6876:	3f ad       	ldd	r19, Y+63	; 0x3f
    6878:	60 97       	sbiw	r28, 0x10	; 16
    687a:	32 95       	swap	r19
    687c:	22 95       	swap	r18
    687e:	2f 70       	andi	r18, 0x0F	; 15
    6880:	23 27       	eor	r18, r19
    6882:	3f 70       	andi	r19, 0x0F	; 15
    6884:	23 27       	eor	r18, r19
    6886:	d3 01       	movw	r26, r6
    6888:	c2 01       	movw	r24, r4
    688a:	82 0f       	add	r24, r18
    688c:	93 1f       	adc	r25, r19
    688e:	a1 1d       	adc	r26, r1
    6890:	b1 1d       	adc	r27, r1
    6892:	8c 01       	movw	r16, r24
    6894:	9d 01       	movw	r18, r26
    6896:	29 96       	adiw	r28, 0x09	; 9
    6898:	8c ad       	ldd	r24, Y+60	; 0x3c
    689a:	9d ad       	ldd	r25, Y+61	; 0x3d
    689c:	ae ad       	ldd	r26, Y+62	; 0x3e
    689e:	bf ad       	ldd	r27, Y+63	; 0x3f
    68a0:	29 97       	sbiw	r28, 0x09	; 9
    68a2:	80 0f       	add	r24, r16
    68a4:	91 1f       	adc	r25, r17
    68a6:	a2 1f       	adc	r26, r18
    68a8:	b3 1f       	adc	r27, r19
    68aa:	21 96       	adiw	r28, 0x01	; 1
    68ac:	8c af       	std	Y+60, r24	; 0x3c
    68ae:	9d af       	std	Y+61, r25	; 0x3d
    68b0:	ae af       	std	Y+62, r26	; 0x3e
    68b2:	bf af       	std	Y+63, r27	; 0x3f
    68b4:	21 97       	sbiw	r28, 0x01	; 1
		if (tsect < sysect) return FR_NO_FILESYSTEM;		/* (Invalid volume size) */
    68b6:	48 17       	cp	r20, r24
    68b8:	59 07       	cpc	r21, r25
    68ba:	6a 07       	cpc	r22, r26
    68bc:	7b 07       	cpc	r23, r27
    68be:	08 f4       	brcc	.+2      	; 0x68c2 <f_stat+0x848>
    68c0:	97 cd       	rjmp	.-1234   	; 0x63f0 <f_stat+0x376>
		nclst = (tsect - sysect) / fs->csize;				/* Number of clusters */
    68c2:	cb 01       	movw	r24, r22
    68c4:	ba 01       	movw	r22, r20
    68c6:	21 96       	adiw	r28, 0x01	; 1
    68c8:	0c ad       	ldd	r16, Y+60	; 0x3c
    68ca:	1d ad       	ldd	r17, Y+61	; 0x3d
    68cc:	2e ad       	ldd	r18, Y+62	; 0x3e
    68ce:	3f ad       	ldd	r19, Y+63	; 0x3f
    68d0:	21 97       	sbiw	r28, 0x01	; 1
    68d2:	60 1b       	sub	r22, r16
    68d4:	71 0b       	sbc	r23, r17
    68d6:	82 0b       	sbc	r24, r18
    68d8:	93 0b       	sbc	r25, r19
    68da:	2e 96       	adiw	r28, 0x0e	; 14
    68dc:	1f ad       	ldd	r17, Y+63	; 0x3f
    68de:	2e 97       	sbiw	r28, 0x0e	; 14
    68e0:	21 2f       	mov	r18, r17
    68e2:	30 e0       	ldi	r19, 0x00	; 0
    68e4:	40 e0       	ldi	r20, 0x00	; 0
    68e6:	50 e0       	ldi	r21, 0x00	; 0
    68e8:	0e 94 e4 43 	call	0x87c8	; 0x87c8 <__udivmodsi4>
		if (nclst == 0) return FR_NO_FILESYSTEM;			/* (Invalid volume size) */
    68ec:	21 15       	cp	r18, r1
    68ee:	31 05       	cpc	r19, r1
    68f0:	41 05       	cpc	r20, r1
    68f2:	51 05       	cpc	r21, r1
    68f4:	09 f4       	brne	.+2      	; 0x68f8 <f_stat+0x87e>
    68f6:	7c cd       	rjmp	.-1288   	; 0x63f0 <f_stat+0x376>
		fmt = FS_FAT32;
		if (nclst <= MAX_FAT16) fmt = FS_FAT16;
    68f8:	26 3f       	cpi	r18, 0xF6	; 246
    68fa:	6f ef       	ldi	r22, 0xFF	; 255
    68fc:	36 07       	cpc	r19, r22
    68fe:	41 05       	cpc	r20, r1
    6900:	51 05       	cpc	r21, r1
    6902:	08 f0       	brcs	.+2      	; 0x6906 <f_stat+0x88c>
    6904:	2e c1       	rjmp	.+604    	; 0x6b62 <f_stat+0xae8>
		if (nclst <= MAX_FAT12) fmt = FS_FAT12;
    6906:	26 3f       	cpi	r18, 0xF6	; 246
    6908:	7f e0       	ldi	r23, 0x0F	; 15
    690a:	37 07       	cpc	r19, r23
    690c:	41 05       	cpc	r20, r1
    690e:	51 05       	cpc	r21, r1
    6910:	08 f0       	brcs	.+2      	; 0x6914 <f_stat+0x89a>
    6912:	b2 c0       	rjmp	.+356    	; 0x6a78 <f_stat+0x9fe>

		/* Boundaries and Limits */
		fs->n_fatent = nclst + 2;							/* Number of FAT entries */
    6914:	2e 5f       	subi	r18, 0xFE	; 254
    6916:	3f 4f       	sbci	r19, 0xFF	; 255
    6918:	4f 4f       	sbci	r20, 0xFF	; 255
    691a:	5f 4f       	sbci	r21, 0xFF	; 255
    691c:	f7 01       	movw	r30, r14
    691e:	27 8b       	std	Z+23, r18	; 0x17
    6920:	30 8f       	std	Z+24, r19	; 0x18
    6922:	41 8f       	std	Z+25, r20	; 0x19
    6924:	52 8f       	std	Z+26, r21	; 0x1a
		fs->volbase = bsect;								/* Volume start sector */
    6926:	2d 96       	adiw	r28, 0x0d	; 13
    6928:	6c ad       	ldd	r22, Y+60	; 0x3c
    692a:	7d ad       	ldd	r23, Y+61	; 0x3d
    692c:	8e ad       	ldd	r24, Y+62	; 0x3e
    692e:	9f ad       	ldd	r25, Y+63	; 0x3f
    6930:	2d 97       	sbiw	r28, 0x0d	; 13
    6932:	67 8f       	std	Z+31, r22	; 0x1f
    6934:	70 a3       	std	Z+32, r23	; 0x20
    6936:	81 a3       	std	Z+33, r24	; 0x21
    6938:	92 a3       	std	Z+34, r25	; 0x22
		fs->fatbase = bsect + nrsv; 						/* FAT start sector */
    693a:	dc 01       	movw	r26, r24
    693c:	cb 01       	movw	r24, r22
    693e:	84 0d       	add	r24, r4
    6940:	95 1d       	adc	r25, r5
    6942:	a6 1d       	adc	r26, r6
    6944:	b7 1d       	adc	r27, r7
    6946:	83 a3       	std	Z+35, r24	; 0x23
    6948:	94 a3       	std	Z+36, r25	; 0x24
    694a:	a5 a3       	std	Z+37, r26	; 0x25
    694c:	b6 a3       	std	Z+38, r27	; 0x26
		fs->database = bsect + sysect;						/* Data start sector */
    694e:	2d 96       	adiw	r28, 0x0d	; 13
    6950:	2c ac       	ldd	r2, Y+60	; 0x3c
    6952:	3d ac       	ldd	r3, Y+61	; 0x3d
    6954:	4e ac       	ldd	r4, Y+62	; 0x3e
    6956:	5f ac       	ldd	r5, Y+63	; 0x3f
    6958:	2d 97       	sbiw	r28, 0x0d	; 13
    695a:	21 96       	adiw	r28, 0x01	; 1
    695c:	6c ac       	ldd	r6, Y+60	; 0x3c
    695e:	7d ac       	ldd	r7, Y+61	; 0x3d
    6960:	8e ac       	ldd	r8, Y+62	; 0x3e
    6962:	9f ac       	ldd	r9, Y+63	; 0x3f
    6964:	21 97       	sbiw	r28, 0x01	; 1
    6966:	26 0c       	add	r2, r6
    6968:	37 1c       	adc	r3, r7
    696a:	48 1c       	adc	r4, r8
    696c:	59 1c       	adc	r5, r9
    696e:	23 a6       	std	Z+43, r2	; 0x2b
    6970:	34 a6       	std	Z+44, r3	; 0x2c
    6972:	45 a6       	std	Z+45, r4	; 0x2d
    6974:	56 a6       	std	Z+46, r5	; 0x2e
			if (ld_word(fs->win + BPB_FSVer32) != 0) return FR_NO_FILESYSTEM;	/* (Must be FAT32 revision 0.0) */
			if (fs->n_rootdir) return FR_NO_FILESYSTEM;		/* (BPB_RootEntCnt must be 0) */
			fs->dirbase = ld_dword(fs->win + BPB_RootClus32);	/* Root directory start cluster */
			szbfat = fs->n_fatent * 4;						/* (Needed FAT size) */
		} else {
			if (fs->n_rootdir == 0)	return FR_NO_FILESYSTEM;/* (BPB_RootEntCnt must not be 0) */
    6976:	60 96       	adiw	r28, 0x10	; 16
    6978:	2e ac       	ldd	r2, Y+62	; 0x3e
    697a:	3f ac       	ldd	r3, Y+63	; 0x3f
    697c:	60 97       	sbiw	r28, 0x10	; 16
    697e:	23 28       	or	r2, r3
    6980:	09 f4       	brne	.+2      	; 0x6984 <f_stat+0x90a>
    6982:	36 cd       	rjmp	.-1428   	; 0x63f0 <f_stat+0x376>
			fs->dirbase = fs->fatbase + fasize;				/* Root directory start sector */
    6984:	29 96       	adiw	r28, 0x09	; 9
    6986:	2c ac       	ldd	r2, Y+60	; 0x3c
    6988:	3d ac       	ldd	r3, Y+61	; 0x3d
    698a:	4e ac       	ldd	r4, Y+62	; 0x3e
    698c:	5f ac       	ldd	r5, Y+63	; 0x3f
    698e:	29 97       	sbiw	r28, 0x09	; 9
    6990:	82 0d       	add	r24, r2
    6992:	93 1d       	adc	r25, r3
    6994:	a4 1d       	adc	r26, r4
    6996:	b5 1d       	adc	r27, r5
    6998:	f7 01       	movw	r30, r14
    699a:	87 a3       	std	Z+39, r24	; 0x27
    699c:	90 a7       	std	Z+40, r25	; 0x28
    699e:	a1 a7       	std	Z+41, r26	; 0x29
    69a0:	b2 a7       	std	Z+42, r27	; 0x2a
			szbfat = (fmt == FS_FAT16) ?					/* (Needed FAT size) */
				fs->n_fatent * 2 : fs->n_fatent * 3 / 2 + (fs->n_fatent & 1);
    69a2:	29 01       	movw	r4, r18
    69a4:	3a 01       	movw	r6, r20
    69a6:	f1 e0       	ldi	r31, 0x01	; 1
    69a8:	4f 22       	and	r4, r31
    69aa:	55 24       	eor	r5, r5
    69ac:	66 24       	eor	r6, r6
    69ae:	77 24       	eor	r7, r7
    69b0:	0f ef       	ldi	r16, 0xFF	; 255
    69b2:	40 0e       	add	r4, r16
    69b4:	01 e0       	ldi	r16, 0x01	; 1
    69b6:	50 1e       	adc	r5, r16
    69b8:	61 1c       	adc	r6, r1
    69ba:	71 1c       	adc	r7, r1
    69bc:	a3 e0       	ldi	r26, 0x03	; 3
    69be:	b0 e0       	ldi	r27, 0x00	; 0
    69c0:	0e 94 1d 44 	call	0x883a	; 0x883a <__muluhisi3>
    69c4:	dc 01       	movw	r26, r24
    69c6:	cb 01       	movw	r24, r22
    69c8:	b6 95       	lsr	r27
    69ca:	a7 95       	ror	r26
    69cc:	97 95       	ror	r25
    69ce:	87 95       	ror	r24
		}
		if (fs->fsize < (szbfat + (SS(fs) - 1)) / SS(fs)) return FR_NO_FILESYSTEM;	/* (BPB_FATSz must not be less than the size needed) */
    69d0:	48 0e       	add	r4, r24
    69d2:	59 1e       	adc	r5, r25
    69d4:	6a 1e       	adc	r6, r26
    69d6:	7b 1e       	adc	r7, r27
    69d8:	49 e0       	ldi	r20, 0x09	; 9
    69da:	76 94       	lsr	r7
    69dc:	67 94       	ror	r6
    69de:	57 94       	ror	r5
    69e0:	47 94       	ror	r4
    69e2:	4a 95       	dec	r20
    69e4:	d1 f7       	brne	.-12     	; 0x69da <f_stat+0x960>
    69e6:	09 ad       	ldd	r16, Y+57	; 0x39
    69e8:	1a ad       	ldd	r17, Y+58	; 0x3a
    69ea:	2b ad       	ldd	r18, Y+59	; 0x3b
    69ec:	3c ad       	ldd	r19, Y+60	; 0x3c
    69ee:	04 15       	cp	r16, r4
    69f0:	15 05       	cpc	r17, r5
    69f2:	26 05       	cpc	r18, r6
    69f4:	37 05       	cpc	r19, r7
    69f6:	08 f4       	brcc	.+2      	; 0x69fa <f_stat+0x980>
    69f8:	fb cc       	rjmp	.-1546   	; 0x63f0 <f_stat+0x376>

#if !_FS_READONLY
		/* Get FSINFO if available */
		fs->last_clst = fs->free_clst = 0xFFFFFFFF;		/* Initialize cluster allocation information */
    69fa:	8f ef       	ldi	r24, 0xFF	; 255
    69fc:	9f ef       	ldi	r25, 0xFF	; 255
    69fe:	dc 01       	movw	r26, r24
    6a00:	f7 01       	movw	r30, r14
    6a02:	87 87       	std	Z+15, r24	; 0x0f
    6a04:	90 8b       	std	Z+16, r25	; 0x10
    6a06:	a1 8b       	std	Z+17, r26	; 0x11
    6a08:	b2 8b       	std	Z+18, r27	; 0x12
    6a0a:	83 87       	std	Z+11, r24	; 0x0b
    6a0c:	94 87       	std	Z+12, r25	; 0x0c
    6a0e:	a5 87       	std	Z+13, r26	; 0x0d
    6a10:	b6 87       	std	Z+14, r27	; 0x0e
		fs->fsi_flag = 0x80;
    6a12:	80 e8       	ldi	r24, 0x80	; 128
    6a14:	84 83       	std	Z+4, r24	; 0x04
    6a16:	81 e0       	ldi	r24, 0x01	; 1
		}
#endif	/* (_FS_NOFSINFO & 3) != 3 */
#endif	/* !_FS_READONLY */
	}

	fs->fs_type = fmt;	/* FAT sub-type */
    6a18:	d7 01       	movw	r26, r14
    6a1a:	8c 93       	st	X, r24
	fs->id = ++Fsid;	/* File system mount ID */
    6a1c:	80 91 98 26 	lds	r24, 0x2698	; 0x802698 <Fsid>
    6a20:	90 91 99 26 	lds	r25, 0x2699	; 0x802699 <Fsid+0x1>
    6a24:	01 96       	adiw	r24, 0x01	; 1
    6a26:	80 93 98 26 	sts	0x2698, r24	; 0x802698 <Fsid>
    6a2a:	90 93 99 26 	sts	0x2699, r25	; 0x802699 <Fsid+0x1>
    6a2e:	15 96       	adiw	r26, 0x05	; 5
    6a30:	8d 93       	st	X+, r24
    6a32:	9c 93       	st	X, r25
    6a34:	16 97       	sbiw	r26, 0x06	; 6
#if _FS_EXFAT
	fs->dirbuf = DirBuf;	/* Static directory block working buuffer */
#endif
#endif
#if _FS_RPATH != 0
	fs->cdir = 0;		/* Initialize current directory */
    6a36:	f7 01       	movw	r30, r14
    6a38:	13 8a       	std	Z+19, r1	; 0x13
    6a3a:	14 8a       	std	Z+20, r1	; 0x14
    6a3c:	15 8a       	std	Z+21, r1	; 0x15
    6a3e:	16 8a       	std	Z+22, r1	; 0x16
    6a40:	63 cb       	rjmp	.-2362   	; 0x6108 <f_stat+0x8e>
		}
		i = LD2PT(vol);						/* Partition number: 0:auto, 1-4:forced */
		if (i) i--;
		do {								/* Find an FAT volume */
			bsect = br[i];
			fmt = bsect ? check_fs(fs, bsect) : 3;	/* Check the partition */
    6a42:	b3 01       	movw	r22, r6
    6a44:	a2 01       	movw	r20, r4
    6a46:	c7 01       	movw	r24, r14
    6a48:	0e 94 e5 09 	call	0x13ca	; 0x13ca <check_fs>
		} while (!LD2PT(vol) && fmt >= 2 && ++i < 4);
    6a4c:	82 30       	cpi	r24, 0x02	; 2
    6a4e:	08 f0       	brcs	.+2      	; 0x6a52 <f_stat+0x9d8>
    6a50:	87 cd       	rjmp	.-1266   	; 0x6560 <f_stat+0x4e6>
    6a52:	46 ce       	rjmp	.-884    	; 0x66e0 <f_stat+0x666>
		}
		i = LD2PT(vol);						/* Partition number: 0:auto, 1-4:forced */
		if (i) i--;
		do {								/* Find an FAT volume */
			bsect = br[i];
			fmt = bsect ? check_fs(fs, bsect) : 3;	/* Check the partition */
    6a54:	b3 01       	movw	r22, r6
    6a56:	a2 01       	movw	r20, r4
    6a58:	c7 01       	movw	r24, r14
    6a5a:	0e 94 e5 09 	call	0x13ca	; 0x13ca <check_fs>
		} while (!LD2PT(vol) && fmt >= 2 && ++i < 4);
    6a5e:	82 30       	cpi	r24, 0x02	; 2
    6a60:	08 f0       	brcs	.+2      	; 0x6a64 <f_stat+0x9ea>
    6a62:	6e cd       	rjmp	.-1316   	; 0x6540 <f_stat+0x4c6>
    6a64:	3d ce       	rjmp	.-902    	; 0x66e0 <f_stat+0x666>
		}
		i = LD2PT(vol);						/* Partition number: 0:auto, 1-4:forced */
		if (i) i--;
		do {								/* Find an FAT volume */
			bsect = br[i];
			fmt = bsect ? check_fs(fs, bsect) : 3;	/* Check the partition */
    6a66:	b3 01       	movw	r22, r6
    6a68:	a2 01       	movw	r20, r4
    6a6a:	c7 01       	movw	r24, r14
    6a6c:	0e 94 e5 09 	call	0x13ca	; 0x13ca <check_fs>
		} while (!LD2PT(vol) && fmt >= 2 && ++i < 4);
    6a70:	82 30       	cpi	r24, 0x02	; 2
    6a72:	08 f0       	brcs	.+2      	; 0x6a76 <f_stat+0x9fc>
    6a74:	55 cd       	rjmp	.-1366   	; 0x6520 <f_stat+0x4a6>
    6a76:	34 ce       	rjmp	.-920    	; 0x66e0 <f_stat+0x666>
		fmt = FS_FAT32;
		if (nclst <= MAX_FAT16) fmt = FS_FAT16;
		if (nclst <= MAX_FAT12) fmt = FS_FAT12;

		/* Boundaries and Limits */
		fs->n_fatent = nclst + 2;							/* Number of FAT entries */
    6a78:	ba 01       	movw	r22, r20
    6a7a:	a9 01       	movw	r20, r18
    6a7c:	4e 5f       	subi	r20, 0xFE	; 254
    6a7e:	5f 4f       	sbci	r21, 0xFF	; 255
    6a80:	6f 4f       	sbci	r22, 0xFF	; 255
    6a82:	7f 4f       	sbci	r23, 0xFF	; 255
    6a84:	d7 01       	movw	r26, r14
    6a86:	57 96       	adiw	r26, 0x17	; 23
    6a88:	4d 93       	st	X+, r20
    6a8a:	5d 93       	st	X+, r21
    6a8c:	6d 93       	st	X+, r22
    6a8e:	7c 93       	st	X, r23
    6a90:	5a 97       	sbiw	r26, 0x1a	; 26
		fs->volbase = bsect;								/* Volume start sector */
    6a92:	2d 96       	adiw	r28, 0x0d	; 13
    6a94:	0c ad       	ldd	r16, Y+60	; 0x3c
    6a96:	1d ad       	ldd	r17, Y+61	; 0x3d
    6a98:	2e ad       	ldd	r18, Y+62	; 0x3e
    6a9a:	3f ad       	ldd	r19, Y+63	; 0x3f
    6a9c:	2d 97       	sbiw	r28, 0x0d	; 13
    6a9e:	5f 96       	adiw	r26, 0x1f	; 31
    6aa0:	0d 93       	st	X+, r16
    6aa2:	1d 93       	st	X+, r17
    6aa4:	2d 93       	st	X+, r18
    6aa6:	3c 93       	st	X, r19
    6aa8:	92 97       	sbiw	r26, 0x22	; 34
		fs->fatbase = bsect + nrsv; 						/* FAT start sector */
    6aaa:	d9 01       	movw	r26, r18
    6aac:	c8 01       	movw	r24, r16
    6aae:	84 0d       	add	r24, r4
    6ab0:	95 1d       	adc	r25, r5
    6ab2:	a6 1d       	adc	r26, r6
    6ab4:	b7 1d       	adc	r27, r7
    6ab6:	f7 01       	movw	r30, r14
    6ab8:	83 a3       	std	Z+35, r24	; 0x23
    6aba:	94 a3       	std	Z+36, r25	; 0x24
    6abc:	a5 a3       	std	Z+37, r26	; 0x25
    6abe:	b6 a3       	std	Z+38, r27	; 0x26
		fs->database = bsect + sysect;						/* Data start sector */
    6ac0:	28 01       	movw	r4, r16
    6ac2:	39 01       	movw	r6, r18
    6ac4:	21 96       	adiw	r28, 0x01	; 1
    6ac6:	0c ad       	ldd	r16, Y+60	; 0x3c
    6ac8:	1d ad       	ldd	r17, Y+61	; 0x3d
    6aca:	2e ad       	ldd	r18, Y+62	; 0x3e
    6acc:	3f ad       	ldd	r19, Y+63	; 0x3f
    6ace:	21 97       	sbiw	r28, 0x01	; 1
    6ad0:	40 0e       	add	r4, r16
    6ad2:	51 1e       	adc	r5, r17
    6ad4:	62 1e       	adc	r6, r18
    6ad6:	73 1e       	adc	r7, r19
    6ad8:	43 a6       	std	Z+43, r4	; 0x2b
    6ada:	54 a6       	std	Z+44, r5	; 0x2c
    6adc:	65 a6       	std	Z+45, r6	; 0x2d
    6ade:	76 a6       	std	Z+46, r7	; 0x2e
			if (ld_word(fs->win + BPB_FSVer32) != 0) return FR_NO_FILESYSTEM;	/* (Must be FAT32 revision 0.0) */
			if (fs->n_rootdir) return FR_NO_FILESYSTEM;		/* (BPB_RootEntCnt must be 0) */
			fs->dirbase = ld_dword(fs->win + BPB_RootClus32);	/* Root directory start cluster */
			szbfat = fs->n_fatent * 4;						/* (Needed FAT size) */
		} else {
			if (fs->n_rootdir == 0)	return FR_NO_FILESYSTEM;/* (BPB_RootEntCnt must not be 0) */
    6ae0:	60 96       	adiw	r28, 0x10	; 16
    6ae2:	2e ac       	ldd	r2, Y+62	; 0x3e
    6ae4:	3f ac       	ldd	r3, Y+63	; 0x3f
    6ae6:	60 97       	sbiw	r28, 0x10	; 16
    6ae8:	23 28       	or	r2, r3
    6aea:	09 f4       	brne	.+2      	; 0x6aee <f_stat+0xa74>
    6aec:	81 cc       	rjmp	.-1790   	; 0x63f0 <f_stat+0x376>
			fs->dirbase = fs->fatbase + fasize;				/* Root directory start sector */
    6aee:	29 96       	adiw	r28, 0x09	; 9
    6af0:	6c ac       	ldd	r6, Y+60	; 0x3c
    6af2:	7d ac       	ldd	r7, Y+61	; 0x3d
    6af4:	8e ac       	ldd	r8, Y+62	; 0x3e
    6af6:	9f ac       	ldd	r9, Y+63	; 0x3f
    6af8:	29 97       	sbiw	r28, 0x09	; 9
    6afa:	86 0d       	add	r24, r6
    6afc:	97 1d       	adc	r25, r7
    6afe:	a8 1d       	adc	r26, r8
    6b00:	b9 1d       	adc	r27, r9
    6b02:	f7 01       	movw	r30, r14
    6b04:	87 a3       	std	Z+39, r24	; 0x27
    6b06:	90 a7       	std	Z+40, r25	; 0x28
    6b08:	a1 a7       	std	Z+41, r26	; 0x29
    6b0a:	b2 a7       	std	Z+42, r27	; 0x2a
			szbfat = (fmt == FS_FAT16) ?					/* (Needed FAT size) */
				fs->n_fatent * 2 : fs->n_fatent * 3 / 2 + (fs->n_fatent & 1);
    6b0c:	db 01       	movw	r26, r22
    6b0e:	ca 01       	movw	r24, r20
    6b10:	88 0f       	add	r24, r24
    6b12:	99 1f       	adc	r25, r25
    6b14:	aa 1f       	adc	r26, r26
    6b16:	bb 1f       	adc	r27, r27
		}
		if (fs->fsize < (szbfat + (SS(fs) - 1)) / SS(fs)) return FR_NO_FILESYSTEM;	/* (BPB_FATSz must not be less than the size needed) */
    6b18:	81 50       	subi	r24, 0x01	; 1
    6b1a:	9e 4f       	sbci	r25, 0xFE	; 254
    6b1c:	af 4f       	sbci	r26, 0xFF	; 255
    6b1e:	bf 4f       	sbci	r27, 0xFF	; 255
    6b20:	79 e0       	ldi	r23, 0x09	; 9
    6b22:	b6 95       	lsr	r27
    6b24:	a7 95       	ror	r26
    6b26:	97 95       	ror	r25
    6b28:	87 95       	ror	r24
    6b2a:	7a 95       	dec	r23
    6b2c:	d1 f7       	brne	.-12     	; 0x6b22 <f_stat+0xaa8>
    6b2e:	29 ac       	ldd	r2, Y+57	; 0x39
    6b30:	3a ac       	ldd	r3, Y+58	; 0x3a
    6b32:	4b ac       	ldd	r4, Y+59	; 0x3b
    6b34:	5c ac       	ldd	r5, Y+60	; 0x3c
    6b36:	28 16       	cp	r2, r24
    6b38:	39 06       	cpc	r3, r25
    6b3a:	4a 06       	cpc	r4, r26
    6b3c:	5b 06       	cpc	r5, r27
    6b3e:	08 f4       	brcc	.+2      	; 0x6b42 <f_stat+0xac8>
    6b40:	57 cc       	rjmp	.-1874   	; 0x63f0 <f_stat+0x376>

#if !_FS_READONLY
		/* Get FSINFO if available */
		fs->last_clst = fs->free_clst = 0xFFFFFFFF;		/* Initialize cluster allocation information */
    6b42:	8f ef       	ldi	r24, 0xFF	; 255
    6b44:	9f ef       	ldi	r25, 0xFF	; 255
    6b46:	dc 01       	movw	r26, r24
    6b48:	f7 01       	movw	r30, r14
    6b4a:	87 87       	std	Z+15, r24	; 0x0f
    6b4c:	90 8b       	std	Z+16, r25	; 0x10
    6b4e:	a1 8b       	std	Z+17, r26	; 0x11
    6b50:	b2 8b       	std	Z+18, r27	; 0x12
    6b52:	83 87       	std	Z+11, r24	; 0x0b
    6b54:	94 87       	std	Z+12, r25	; 0x0c
    6b56:	a5 87       	std	Z+13, r26	; 0x0d
    6b58:	b6 87       	std	Z+14, r27	; 0x0e
		fs->fsi_flag = 0x80;
    6b5a:	80 e8       	ldi	r24, 0x80	; 128
    6b5c:	84 83       	std	Z+4, r24	; 0x04
    6b5e:	82 e0       	ldi	r24, 0x02	; 2
    6b60:	5b cf       	rjmp	.-330    	; 0x6a18 <f_stat+0x99e>
		fmt = FS_FAT32;
		if (nclst <= MAX_FAT16) fmt = FS_FAT16;
		if (nclst <= MAX_FAT12) fmt = FS_FAT12;

		/* Boundaries and Limits */
		fs->n_fatent = nclst + 2;							/* Number of FAT entries */
    6b62:	2e 5f       	subi	r18, 0xFE	; 254
    6b64:	3f 4f       	sbci	r19, 0xFF	; 255
    6b66:	4f 4f       	sbci	r20, 0xFF	; 255
    6b68:	5f 4f       	sbci	r21, 0xFF	; 255
    6b6a:	d7 01       	movw	r26, r14
    6b6c:	57 96       	adiw	r26, 0x17	; 23
    6b6e:	2d 93       	st	X+, r18
    6b70:	3d 93       	st	X+, r19
    6b72:	4d 93       	st	X+, r20
    6b74:	5c 93       	st	X, r21
    6b76:	5a 97       	sbiw	r26, 0x1a	; 26
		fs->volbase = bsect;								/* Volume start sector */
    6b78:	2d 96       	adiw	r28, 0x0d	; 13
    6b7a:	6c ad       	ldd	r22, Y+60	; 0x3c
    6b7c:	7d ad       	ldd	r23, Y+61	; 0x3d
    6b7e:	8e ad       	ldd	r24, Y+62	; 0x3e
    6b80:	9f ad       	ldd	r25, Y+63	; 0x3f
    6b82:	2d 97       	sbiw	r28, 0x0d	; 13
    6b84:	5f 96       	adiw	r26, 0x1f	; 31
    6b86:	6d 93       	st	X+, r22
    6b88:	7d 93       	st	X+, r23
    6b8a:	8d 93       	st	X+, r24
    6b8c:	9c 93       	st	X, r25
    6b8e:	92 97       	sbiw	r26, 0x22	; 34
		fs->fatbase = bsect + nrsv; 						/* FAT start sector */
    6b90:	dc 01       	movw	r26, r24
    6b92:	cb 01       	movw	r24, r22
    6b94:	84 0d       	add	r24, r4
    6b96:	95 1d       	adc	r25, r5
    6b98:	a6 1d       	adc	r26, r6
    6b9a:	b7 1d       	adc	r27, r7
    6b9c:	f7 01       	movw	r30, r14
    6b9e:	83 a3       	std	Z+35, r24	; 0x23
    6ba0:	94 a3       	std	Z+36, r25	; 0x24
    6ba2:	a5 a3       	std	Z+37, r26	; 0x25
    6ba4:	b6 a3       	std	Z+38, r27	; 0x26
		fs->database = bsect + sysect;						/* Data start sector */
    6ba6:	21 96       	adiw	r28, 0x01	; 1
    6ba8:	8c ad       	ldd	r24, Y+60	; 0x3c
    6baa:	9d ad       	ldd	r25, Y+61	; 0x3d
    6bac:	ae ad       	ldd	r26, Y+62	; 0x3e
    6bae:	bf ad       	ldd	r27, Y+63	; 0x3f
    6bb0:	21 97       	sbiw	r28, 0x01	; 1
    6bb2:	2d 96       	adiw	r28, 0x0d	; 13
    6bb4:	4c ac       	ldd	r4, Y+60	; 0x3c
    6bb6:	5d ac       	ldd	r5, Y+61	; 0x3d
    6bb8:	6e ac       	ldd	r6, Y+62	; 0x3e
    6bba:	7f ac       	ldd	r7, Y+63	; 0x3f
    6bbc:	2d 97       	sbiw	r28, 0x0d	; 13
    6bbe:	84 0d       	add	r24, r4
    6bc0:	95 1d       	adc	r25, r5
    6bc2:	a6 1d       	adc	r26, r6
    6bc4:	b7 1d       	adc	r27, r7
    6bc6:	83 a7       	std	Z+43, r24	; 0x2b
    6bc8:	94 a7       	std	Z+44, r25	; 0x2c
    6bca:	a5 a7       	std	Z+45, r26	; 0x2d
    6bcc:	b6 a7       	std	Z+46, r27	; 0x2e
static
WORD ld_word (const BYTE* ptr)	/*	 Load a 2-byte little-endian word */
{
	WORD rv;

	rv = ptr[1];
    6bce:	e2 5a       	subi	r30, 0xA2	; 162
    6bd0:	ff 4f       	sbci	r31, 0xFF	; 255
    6bd2:	80 81       	ld	r24, Z
    6bd4:	90 e0       	ldi	r25, 0x00	; 0
	rv = rv << 8 | ptr[0];
    6bd6:	98 2f       	mov	r25, r24
    6bd8:	88 27       	eor	r24, r24
    6bda:	31 97       	sbiw	r30, 0x01	; 1
    6bdc:	60 81       	ld	r22, Z
    6bde:	86 2b       	or	r24, r22
		fs->n_fatent = nclst + 2;							/* Number of FAT entries */
		fs->volbase = bsect;								/* Volume start sector */
		fs->fatbase = bsect + nrsv; 						/* FAT start sector */
		fs->database = bsect + sysect;						/* Data start sector */
		if (fmt == FS_FAT32) {
			if (ld_word(fs->win + BPB_FSVer32) != 0) return FR_NO_FILESYSTEM;	/* (Must be FAT32 revision 0.0) */
    6be0:	89 2b       	or	r24, r25
    6be2:	09 f0       	breq	.+2      	; 0x6be6 <f_stat+0xb6c>
    6be4:	05 cc       	rjmp	.-2038   	; 0x63f0 <f_stat+0x376>
			if (fs->n_rootdir) return FR_NO_FILESYSTEM;		/* (BPB_RootEntCnt must be 0) */
    6be6:	60 96       	adiw	r28, 0x10	; 16
    6be8:	4e ac       	ldd	r4, Y+62	; 0x3e
    6bea:	5f ac       	ldd	r5, Y+63	; 0x3f
    6bec:	60 97       	sbiw	r28, 0x10	; 16
    6bee:	45 28       	or	r4, r5
    6bf0:	09 f0       	breq	.+2      	; 0x6bf4 <f_stat+0xb7a>
    6bf2:	fe cb       	rjmp	.-2052   	; 0x63f0 <f_stat+0x376>
static
DWORD ld_dword (const BYTE* ptr)	/* Load a 4-byte little-endian word */
{
	DWORD rv;

	rv = ptr[3];
    6bf4:	f7 01       	movw	r30, r14
    6bf6:	ee 59       	subi	r30, 0x9E	; 158
    6bf8:	ff 4f       	sbci	r31, 0xFF	; 255
    6bfa:	80 81       	ld	r24, Z
    6bfc:	90 e0       	ldi	r25, 0x00	; 0
    6bfe:	a0 e0       	ldi	r26, 0x00	; 0
    6c00:	b0 e0       	ldi	r27, 0x00	; 0
	rv = rv << 8 | ptr[2];
    6c02:	ba 2f       	mov	r27, r26
    6c04:	a9 2f       	mov	r26, r25
    6c06:	98 2f       	mov	r25, r24
    6c08:	88 27       	eor	r24, r24
    6c0a:	31 97       	sbiw	r30, 0x01	; 1
    6c0c:	60 81       	ld	r22, Z
    6c0e:	86 2b       	or	r24, r22
	rv = rv << 8 | ptr[1];
    6c10:	ba 2f       	mov	r27, r26
    6c12:	a9 2f       	mov	r26, r25
    6c14:	98 2f       	mov	r25, r24
    6c16:	88 27       	eor	r24, r24
    6c18:	31 97       	sbiw	r30, 0x01	; 1
    6c1a:	60 81       	ld	r22, Z
    6c1c:	86 2b       	or	r24, r22
	rv = rv << 8 | ptr[0];
    6c1e:	ba 2f       	mov	r27, r26
    6c20:	a9 2f       	mov	r26, r25
    6c22:	98 2f       	mov	r25, r24
    6c24:	88 27       	eor	r24, r24
    6c26:	31 97       	sbiw	r30, 0x01	; 1
    6c28:	60 81       	ld	r22, Z
    6c2a:	86 2b       	or	r24, r22
		fs->fatbase = bsect + nrsv; 						/* FAT start sector */
		fs->database = bsect + sysect;						/* Data start sector */
		if (fmt == FS_FAT32) {
			if (ld_word(fs->win + BPB_FSVer32) != 0) return FR_NO_FILESYSTEM;	/* (Must be FAT32 revision 0.0) */
			if (fs->n_rootdir) return FR_NO_FILESYSTEM;		/* (BPB_RootEntCnt must be 0) */
			fs->dirbase = ld_dword(fs->win + BPB_RootClus32);	/* Root directory start cluster */
    6c2c:	f7 01       	movw	r30, r14
    6c2e:	87 a3       	std	Z+39, r24	; 0x27
    6c30:	90 a7       	std	Z+40, r25	; 0x28
    6c32:	a1 a7       	std	Z+41, r26	; 0x29
    6c34:	b2 a7       	std	Z+42, r27	; 0x2a
			szbfat = fs->n_fatent * 4;						/* (Needed FAT size) */
    6c36:	da 01       	movw	r26, r20
    6c38:	c9 01       	movw	r24, r18
    6c3a:	88 0f       	add	r24, r24
    6c3c:	99 1f       	adc	r25, r25
    6c3e:	aa 1f       	adc	r26, r26
    6c40:	bb 1f       	adc	r27, r27
    6c42:	88 0f       	add	r24, r24
    6c44:	99 1f       	adc	r25, r25
    6c46:	aa 1f       	adc	r26, r26
    6c48:	bb 1f       	adc	r27, r27
			if (fs->n_rootdir == 0)	return FR_NO_FILESYSTEM;/* (BPB_RootEntCnt must not be 0) */
			fs->dirbase = fs->fatbase + fasize;				/* Root directory start sector */
			szbfat = (fmt == FS_FAT16) ?					/* (Needed FAT size) */
				fs->n_fatent * 2 : fs->n_fatent * 3 / 2 + (fs->n_fatent & 1);
		}
		if (fs->fsize < (szbfat + (SS(fs) - 1)) / SS(fs)) return FR_NO_FILESYSTEM;	/* (BPB_FATSz must not be less than the size needed) */
    6c4a:	81 50       	subi	r24, 0x01	; 1
    6c4c:	9e 4f       	sbci	r25, 0xFE	; 254
    6c4e:	af 4f       	sbci	r26, 0xFF	; 255
    6c50:	bf 4f       	sbci	r27, 0xFF	; 255
    6c52:	e9 e0       	ldi	r30, 0x09	; 9
    6c54:	b6 95       	lsr	r27
    6c56:	a7 95       	ror	r26
    6c58:	97 95       	ror	r25
    6c5a:	87 95       	ror	r24
    6c5c:	ea 95       	dec	r30
    6c5e:	d1 f7       	brne	.-12     	; 0x6c54 <f_stat+0xbda>
    6c60:	49 ac       	ldd	r4, Y+57	; 0x39
    6c62:	5a ac       	ldd	r5, Y+58	; 0x3a
    6c64:	6b ac       	ldd	r6, Y+59	; 0x3b
    6c66:	7c ac       	ldd	r7, Y+60	; 0x3c
    6c68:	48 16       	cp	r4, r24
    6c6a:	59 06       	cpc	r5, r25
    6c6c:	6a 06       	cpc	r6, r26
    6c6e:	7b 06       	cpc	r7, r27
    6c70:	08 f4       	brcc	.+2      	; 0x6c74 <f_stat+0xbfa>
    6c72:	be cb       	rjmp	.-2180   	; 0x63f0 <f_stat+0x376>

#if !_FS_READONLY
		/* Get FSINFO if available */
		fs->last_clst = fs->free_clst = 0xFFFFFFFF;		/* Initialize cluster allocation information */
    6c74:	8f ef       	ldi	r24, 0xFF	; 255
    6c76:	9f ef       	ldi	r25, 0xFF	; 255
    6c78:	dc 01       	movw	r26, r24
    6c7a:	f7 01       	movw	r30, r14
    6c7c:	87 87       	std	Z+15, r24	; 0x0f
    6c7e:	90 8b       	std	Z+16, r25	; 0x10
    6c80:	a1 8b       	std	Z+17, r26	; 0x11
    6c82:	b2 8b       	std	Z+18, r27	; 0x12
    6c84:	83 87       	std	Z+11, r24	; 0x0b
    6c86:	94 87       	std	Z+12, r25	; 0x0c
    6c88:	a5 87       	std	Z+13, r26	; 0x0d
    6c8a:	b6 87       	std	Z+14, r27	; 0x0e
		fs->fsi_flag = 0x80;
    6c8c:	80 e8       	ldi	r24, 0x80	; 128
    6c8e:	84 83       	std	Z+4, r24	; 0x04
static
WORD ld_word (const BYTE* ptr)	/*	 Load a 2-byte little-endian word */
{
	WORD rv;

	rv = ptr[1];
    6c90:	ec 59       	subi	r30, 0x9C	; 156
    6c92:	ff 4f       	sbci	r31, 0xFF	; 255
    6c94:	80 81       	ld	r24, Z
    6c96:	90 e0       	ldi	r25, 0x00	; 0
	rv = rv << 8 | ptr[0];
    6c98:	98 2f       	mov	r25, r24
    6c9a:	88 27       	eor	r24, r24
    6c9c:	31 97       	sbiw	r30, 0x01	; 1
    6c9e:	20 81       	ld	r18, Z
    6ca0:	82 2b       	or	r24, r18
		/* Get FSINFO if available */
		fs->last_clst = fs->free_clst = 0xFFFFFFFF;		/* Initialize cluster allocation information */
		fs->fsi_flag = 0x80;
#if (_FS_NOFSINFO & 3) != 3
		if (fmt == FS_FAT32				/* Enable FSINFO only if FAT32 and BPB_FSInfo32 == 1 */
			&& ld_word(fs->win + BPB_FSInfo32) == 1
    6ca2:	01 97       	sbiw	r24, 0x01	; 1
    6ca4:	11 f0       	breq	.+4      	; 0x6caa <f_stat+0xc30>
			{
#if (_FS_NOFSINFO & 1) == 0
				fs->free_clst = ld_dword(fs->win + FSI_Free_Count);
#endif
#if (_FS_NOFSINFO & 2) == 0
				fs->last_clst = ld_dword(fs->win + FSI_Nxt_Free);
    6ca6:	83 e0       	ldi	r24, 0x03	; 3
    6ca8:	b7 ce       	rjmp	.-658    	; 0x6a18 <f_stat+0x99e>
		fs->last_clst = fs->free_clst = 0xFFFFFFFF;		/* Initialize cluster allocation information */
		fs->fsi_flag = 0x80;
#if (_FS_NOFSINFO & 3) != 3
		if (fmt == FS_FAT32				/* Enable FSINFO only if FAT32 and BPB_FSInfo32 == 1 */
			&& ld_word(fs->win + BPB_FSInfo32) == 1
			&& move_window(fs, bsect + 1) == FR_OK)
    6caa:	2d 96       	adiw	r28, 0x0d	; 13
    6cac:	4c ad       	ldd	r20, Y+60	; 0x3c
    6cae:	5d ad       	ldd	r21, Y+61	; 0x3d
    6cb0:	6e ad       	ldd	r22, Y+62	; 0x3e
    6cb2:	7f ad       	ldd	r23, Y+63	; 0x3f
    6cb4:	2d 97       	sbiw	r28, 0x0d	; 13
    6cb6:	4f 5f       	subi	r20, 0xFF	; 255
    6cb8:	5f 4f       	sbci	r21, 0xFF	; 255
    6cba:	6f 4f       	sbci	r22, 0xFF	; 255
    6cbc:	7f 4f       	sbci	r23, 0xFF	; 255
    6cbe:	c7 01       	movw	r24, r14
    6cc0:	0e 94 83 0a 	call	0x1506	; 0x1506 <move_window>
    6cc4:	81 11       	cpse	r24, r1
    6cc6:	ef cf       	rjmp	.-34     	; 0x6ca6 <f_stat+0xc2c>
		{
			fs->fsi_flag = 0;
    6cc8:	d7 01       	movw	r26, r14
    6cca:	14 96       	adiw	r26, 0x04	; 4
    6ccc:	1c 92       	st	X, r1
static
WORD ld_word (const BYTE* ptr)	/*	 Load a 2-byte little-endian word */
{
	WORD rv;

	rv = ptr[1];
    6cce:	f4 01       	movw	r30, r8
    6cd0:	80 81       	ld	r24, Z
    6cd2:	90 e0       	ldi	r25, 0x00	; 0
	rv = rv << 8 | ptr[0];
    6cd4:	98 2f       	mov	r25, r24
    6cd6:	88 27       	eor	r24, r24
    6cd8:	d1 01       	movw	r26, r2
    6cda:	2c 91       	ld	r18, X
    6cdc:	82 2b       	or	r24, r18
		if (fmt == FS_FAT32				/* Enable FSINFO only if FAT32 and BPB_FSInfo32 == 1 */
			&& ld_word(fs->win + BPB_FSInfo32) == 1
			&& move_window(fs, bsect + 1) == FR_OK)
		{
			fs->fsi_flag = 0;
			if (ld_word(fs->win + BS_55AA) == 0xAA55	/* Load FSINFO data if available */
    6cde:	85 35       	cpi	r24, 0x55	; 85
    6ce0:	9a 4a       	sbci	r25, 0xAA	; 170
    6ce2:	09 f7       	brne	.-62     	; 0x6ca6 <f_stat+0xc2c>
static
DWORD ld_dword (const BYTE* ptr)	/* Load a 4-byte little-endian word */
{
	DWORD rv;

	rv = ptr[3];
    6ce4:	f7 01       	movw	r30, r14
    6ce6:	86 a9       	ldd	r24, Z+54	; 0x36
    6ce8:	90 e0       	ldi	r25, 0x00	; 0
    6cea:	a0 e0       	ldi	r26, 0x00	; 0
    6cec:	b0 e0       	ldi	r27, 0x00	; 0
	rv = rv << 8 | ptr[2];
    6cee:	ba 2f       	mov	r27, r26
    6cf0:	a9 2f       	mov	r26, r25
    6cf2:	98 2f       	mov	r25, r24
    6cf4:	88 27       	eor	r24, r24
    6cf6:	25 a9       	ldd	r18, Z+53	; 0x35
    6cf8:	82 2b       	or	r24, r18
	rv = rv << 8 | ptr[1];
    6cfa:	ba 2f       	mov	r27, r26
    6cfc:	a9 2f       	mov	r26, r25
    6cfe:	98 2f       	mov	r25, r24
    6d00:	88 27       	eor	r24, r24
    6d02:	24 a9       	ldd	r18, Z+52	; 0x34
    6d04:	82 2b       	or	r24, r18
	rv = rv << 8 | ptr[0];
    6d06:	ba 2f       	mov	r27, r26
    6d08:	a9 2f       	mov	r26, r25
    6d0a:	98 2f       	mov	r25, r24
    6d0c:	88 27       	eor	r24, r24
    6d0e:	23 a9       	ldd	r18, Z+51	; 0x33
    6d10:	82 2b       	or	r24, r18
			&& ld_word(fs->win + BPB_FSInfo32) == 1
			&& move_window(fs, bsect + 1) == FR_OK)
		{
			fs->fsi_flag = 0;
			if (ld_word(fs->win + BS_55AA) == 0xAA55	/* Load FSINFO data if available */
				&& ld_dword(fs->win + FSI_LeadSig) == 0x41615252
    6d12:	82 35       	cpi	r24, 0x52	; 82
    6d14:	92 45       	sbci	r25, 0x52	; 82
    6d16:	a1 46       	sbci	r26, 0x61	; 97
    6d18:	b1 44       	sbci	r27, 0x41	; 65
    6d1a:	29 f6       	brne	.-118    	; 0x6ca6 <f_stat+0xc2c>
static
DWORD ld_dword (const BYTE* ptr)	/* Load a 4-byte little-endian word */
{
	DWORD rv;

	rv = ptr[3];
    6d1c:	f7 01       	movw	r30, r14
    6d1e:	e6 5e       	subi	r30, 0xE6	; 230
    6d20:	fd 4f       	sbci	r31, 0xFD	; 253
    6d22:	80 81       	ld	r24, Z
    6d24:	90 e0       	ldi	r25, 0x00	; 0
    6d26:	a0 e0       	ldi	r26, 0x00	; 0
    6d28:	b0 e0       	ldi	r27, 0x00	; 0
	rv = rv << 8 | ptr[2];
    6d2a:	ba 2f       	mov	r27, r26
    6d2c:	a9 2f       	mov	r26, r25
    6d2e:	98 2f       	mov	r25, r24
    6d30:	88 27       	eor	r24, r24
    6d32:	31 97       	sbiw	r30, 0x01	; 1
    6d34:	20 81       	ld	r18, Z
    6d36:	82 2b       	or	r24, r18
	rv = rv << 8 | ptr[1];
    6d38:	ba 2f       	mov	r27, r26
    6d3a:	a9 2f       	mov	r26, r25
    6d3c:	98 2f       	mov	r25, r24
    6d3e:	88 27       	eor	r24, r24
    6d40:	31 97       	sbiw	r30, 0x01	; 1
    6d42:	20 81       	ld	r18, Z
    6d44:	82 2b       	or	r24, r18
	rv = rv << 8 | ptr[0];
    6d46:	ba 2f       	mov	r27, r26
    6d48:	a9 2f       	mov	r26, r25
    6d4a:	98 2f       	mov	r25, r24
    6d4c:	88 27       	eor	r24, r24
    6d4e:	31 97       	sbiw	r30, 0x01	; 1
    6d50:	20 81       	ld	r18, Z
    6d52:	82 2b       	or	r24, r18
			&& move_window(fs, bsect + 1) == FR_OK)
		{
			fs->fsi_flag = 0;
			if (ld_word(fs->win + BS_55AA) == 0xAA55	/* Load FSINFO data if available */
				&& ld_dword(fs->win + FSI_LeadSig) == 0x41615252
				&& ld_dword(fs->win + FSI_StrucSig) == 0x61417272)
    6d54:	82 37       	cpi	r24, 0x72	; 114
    6d56:	92 47       	sbci	r25, 0x72	; 114
    6d58:	a1 44       	sbci	r26, 0x41	; 65
    6d5a:	b1 46       	sbci	r27, 0x61	; 97
    6d5c:	09 f0       	breq	.+2      	; 0x6d60 <f_stat+0xce6>
    6d5e:	a3 cf       	rjmp	.-186    	; 0x6ca6 <f_stat+0xc2c>
static
DWORD ld_dword (const BYTE* ptr)	/* Load a 4-byte little-endian word */
{
	DWORD rv;

	rv = ptr[3];
    6d60:	37 96       	adiw	r30, 0x07	; 7
    6d62:	80 81       	ld	r24, Z
    6d64:	90 e0       	ldi	r25, 0x00	; 0
    6d66:	a0 e0       	ldi	r26, 0x00	; 0
    6d68:	b0 e0       	ldi	r27, 0x00	; 0
	rv = rv << 8 | ptr[2];
    6d6a:	ba 2f       	mov	r27, r26
    6d6c:	a9 2f       	mov	r26, r25
    6d6e:	98 2f       	mov	r25, r24
    6d70:	88 27       	eor	r24, r24
    6d72:	31 97       	sbiw	r30, 0x01	; 1
    6d74:	20 81       	ld	r18, Z
    6d76:	82 2b       	or	r24, r18
	rv = rv << 8 | ptr[1];
    6d78:	ba 2f       	mov	r27, r26
    6d7a:	a9 2f       	mov	r26, r25
    6d7c:	98 2f       	mov	r25, r24
    6d7e:	88 27       	eor	r24, r24
    6d80:	31 97       	sbiw	r30, 0x01	; 1
    6d82:	20 81       	ld	r18, Z
    6d84:	82 2b       	or	r24, r18
	rv = rv << 8 | ptr[0];
    6d86:	ba 2f       	mov	r27, r26
    6d88:	a9 2f       	mov	r26, r25
    6d8a:	98 2f       	mov	r25, r24
    6d8c:	88 27       	eor	r24, r24
    6d8e:	31 97       	sbiw	r30, 0x01	; 1
    6d90:	20 81       	ld	r18, Z
    6d92:	82 2b       	or	r24, r18
			if (ld_word(fs->win + BS_55AA) == 0xAA55	/* Load FSINFO data if available */
				&& ld_dword(fs->win + FSI_LeadSig) == 0x41615252
				&& ld_dword(fs->win + FSI_StrucSig) == 0x61417272)
			{
#if (_FS_NOFSINFO & 1) == 0
				fs->free_clst = ld_dword(fs->win + FSI_Free_Count);
    6d94:	f7 01       	movw	r30, r14
    6d96:	87 87       	std	Z+15, r24	; 0x0f
    6d98:	90 8b       	std	Z+16, r25	; 0x10
    6d9a:	a1 8b       	std	Z+17, r26	; 0x11
    6d9c:	b2 8b       	std	Z+18, r27	; 0x12
static
DWORD ld_dword (const BYTE* ptr)	/* Load a 4-byte little-endian word */
{
	DWORD rv;

	rv = ptr[3];
    6d9e:	ee 5d       	subi	r30, 0xDE	; 222
    6da0:	fd 4f       	sbci	r31, 0xFD	; 253
    6da2:	80 81       	ld	r24, Z
    6da4:	90 e0       	ldi	r25, 0x00	; 0
    6da6:	a0 e0       	ldi	r26, 0x00	; 0
    6da8:	b0 e0       	ldi	r27, 0x00	; 0
	rv = rv << 8 | ptr[2];
    6daa:	ba 2f       	mov	r27, r26
    6dac:	a9 2f       	mov	r26, r25
    6dae:	98 2f       	mov	r25, r24
    6db0:	88 27       	eor	r24, r24
    6db2:	31 97       	sbiw	r30, 0x01	; 1
    6db4:	20 81       	ld	r18, Z
    6db6:	82 2b       	or	r24, r18
	rv = rv << 8 | ptr[1];
    6db8:	ba 2f       	mov	r27, r26
    6dba:	a9 2f       	mov	r26, r25
    6dbc:	98 2f       	mov	r25, r24
    6dbe:	88 27       	eor	r24, r24
    6dc0:	31 97       	sbiw	r30, 0x01	; 1
    6dc2:	20 81       	ld	r18, Z
    6dc4:	82 2b       	or	r24, r18
	rv = rv << 8 | ptr[0];
    6dc6:	ba 2f       	mov	r27, r26
    6dc8:	a9 2f       	mov	r26, r25
    6dca:	98 2f       	mov	r25, r24
    6dcc:	88 27       	eor	r24, r24
    6dce:	31 97       	sbiw	r30, 0x01	; 1
    6dd0:	20 81       	ld	r18, Z
    6dd2:	82 2b       	or	r24, r18
			{
#if (_FS_NOFSINFO & 1) == 0
				fs->free_clst = ld_dword(fs->win + FSI_Free_Count);
#endif
#if (_FS_NOFSINFO & 2) == 0
				fs->last_clst = ld_dword(fs->win + FSI_Nxt_Free);
    6dd4:	f7 01       	movw	r30, r14
    6dd6:	83 87       	std	Z+11, r24	; 0x0b
    6dd8:	94 87       	std	Z+12, r25	; 0x0c
    6dda:	a5 87       	std	Z+13, r26	; 0x0d
    6ddc:	b6 87       	std	Z+14, r27	; 0x0e
    6dde:	63 cf       	rjmp	.-314    	; 0x6ca6 <f_stat+0xc2c>

00006de0 <getRTC_us>:
    return 0;
}

uint32_t getRTC_us(void) {
//	EVSYS_STROBE=(1<<1);				//Wygeneruj zdarzenie w kanale 1
	return (uint32_t)TCD1_CNT;			//Zwr warto CNT
    6de0:	60 91 60 09 	lds	r22, 0x0960	; 0x800960 <__TEXT_REGION_LENGTH__+0x700960>
    6de4:	70 91 61 09 	lds	r23, 0x0961	; 0x800961 <__TEXT_REGION_LENGTH__+0x700961>
    6de8:	80 e0       	ldi	r24, 0x00	; 0
    6dea:	90 e0       	ldi	r25, 0x00	; 0
}
    6dec:	08 95       	ret

00006dee <initRTC>:

void initRTC(void) {
	//------------------ Okres timera wynosi 1.19 h z rozdzielczoci 2us ---------------------------------------
	EVSYS_CH0MUX = EVSYS_CHMUX_TCC1_OVF_gc;
    6dee:	88 ec       	ldi	r24, 0xC8	; 200
    6df0:	80 93 80 01 	sts	0x0180, r24	; 0x800180 <__TEXT_REGION_LENGTH__+0x700180>
	EVSYS_CH1MUX = EVSYS_CHMUX_OFF_gc;								//adne zdarzenie nie jest zwizane z kanaem 1
    6df4:	10 92 81 01 	sts	0x0181, r1	; 0x800181 <__TEXT_REGION_LENGTH__+0x700181>
	TCD1.CTRLA = TC_CLKSEL_EVCH0_gc;								//wybr rda taktowania
    6df8:	e0 e4       	ldi	r30, 0x40	; 64
    6dfa:	f9 e0       	ldi	r31, 0x09	; 9
    6dfc:	88 e0       	ldi	r24, 0x08	; 8
    6dfe:	80 83       	st	Z, r24
	TCD1.CTRLB = TC_WGMODE_NORMAL_gc | TC1_CCAEN_bm;				//tryb normalny i wczenie przechwytywania kanau A timera
    6e00:	80 e1       	ldi	r24, 0x10	; 16
    6e02:	81 83       	std	Z+1, r24	; 0x01
	TCD1.CTRLD = TC_EVACT_CAPT_gc | TC_EVSEL_CH1_gc;				//Opnij zdarzenie o 1 takt CLKper, przechwytywanie
    6e04:	89 e2       	ldi	r24, 0x29	; 41
    6e06:	83 83       	std	Z+3, r24	; 0x03
	TCD1.CNT = 0;
    6e08:	10 a2       	std	Z+32, r1	; 0x20
    6e0a:	11 a2       	std	Z+33, r1	; 0x21
	TCD1.PER = 0xFFFF;												//ograniczenie zakresu do 2^16 -> 6.5536s
    6e0c:	8f ef       	ldi	r24, 0xFF	; 255
    6e0e:	9f ef       	ldi	r25, 0xFF	; 255
    6e10:	86 a3       	std	Z+38, r24	; 0x26
    6e12:	97 a3       	std	Z+39, r25	; 0x27
	
	TCC1.CNT = 0;
    6e14:	e0 e4       	ldi	r30, 0x40	; 64
    6e16:	f8 e0       	ldi	r31, 0x08	; 8
    6e18:	10 a2       	std	Z+32, r1	; 0x20
    6e1a:	11 a2       	std	Z+33, r1	; 0x21
	TCC1.PER = 3200;												//10kHz -> PER=3200, PRE=1@32MHz
    6e1c:	80 e8       	ldi	r24, 0x80	; 128
    6e1e:	9c e0       	ldi	r25, 0x0C	; 12
    6e20:	86 a3       	std	Z+38, r24	; 0x26
    6e22:	97 a3       	std	Z+39, r25	; 0x27
	TCC1.CTRLB=TC_WGMODE_NORMAL_gc;									//tryb normalny
    6e24:	11 82       	std	Z+1, r1	; 0x01
	TCC1.CTRLA=TC_CLKSEL_DIV1_gc;									//wybr rda taktowania
    6e26:	81 e0       	ldi	r24, 0x01	; 1
    6e28:	80 83       	st	Z, r24
    6e2a:	08 95       	ret

00006e2c <MemorySPIInit>:
    return DS_disk_write(buff, sector, count);
}

_Bool SD_GetResponse(void *buf, uint8_t size) {
    uint8_t i = 10;
    while((SPI_RW_Byte(0xff) != 0xfe) && (--i));
    6e2c:	88 eb       	ldi	r24, 0xB8	; 184
    6e2e:	80 93 81 06 	sts	0x0681, r24	; 0x800681 <__TEXT_REGION_LENGTH__+0x700681>
    6e32:	82 e5       	ldi	r24, 0x52	; 82
    6e34:	80 93 c0 0a 	sts	0x0AC0, r24	; 0x800ac0 <__TEXT_REGION_LENGTH__+0x700ac0>
    6e38:	81 e0       	ldi	r24, 0x01	; 1
    6e3a:	80 93 1f 2b 	sts	0x2B1F, r24	; 0x802b1f <SD_Status>
    6e3e:	08 95       	ret

00006e40 <SD_SendCMD>:
    6e40:	cf 92       	push	r12
    6e42:	df 92       	push	r13
    6e44:	ef 92       	push	r14
    6e46:	ff 92       	push	r15
    6e48:	cf 93       	push	r28
    6e4a:	c8 2f       	mov	r28, r24
    6e4c:	6a 01       	movw	r12, r20
    6e4e:	7b 01       	movw	r14, r22
    6e50:	87 fd       	sbrc	r24, 7
    6e52:	dd c0       	rjmp	.+442    	; 0x700e <SD_SendCMD+0x1ce>
    6e54:	88 e0       	ldi	r24, 0x08	; 8
    6e56:	80 93 85 06 	sts	0x0685, r24	; 0x800685 <__TEXT_REGION_LENGTH__+0x700685>
    6e5a:	8f ef       	ldi	r24, 0xFF	; 255
    6e5c:	80 93 c3 0a 	sts	0x0AC3, r24	; 0x800ac3 <__TEXT_REGION_LENGTH__+0x700ac3>
    6e60:	90 91 c2 0a 	lds	r25, 0x0AC2	; 0x800ac2 <__TEXT_REGION_LENGTH__+0x700ac2>
    6e64:	97 ff       	sbrs	r25, 7
    6e66:	fc cf       	rjmp	.-8      	; 0x6e60 <SD_SendCMD+0x20>
    6e68:	80 e8       	ldi	r24, 0x80	; 128
    6e6a:	80 93 c2 0a 	sts	0x0AC2, r24	; 0x800ac2 <__TEXT_REGION_LENGTH__+0x700ac2>
    6e6e:	80 91 c3 0a 	lds	r24, 0x0AC3	; 0x800ac3 <__TEXT_REGION_LENGTH__+0x700ac3>
    6e72:	88 e0       	ldi	r24, 0x08	; 8
    6e74:	80 93 86 06 	sts	0x0686, r24	; 0x800686 <__TEXT_REGION_LENGTH__+0x700686>
    6e78:	8f ef       	ldi	r24, 0xFF	; 255
    6e7a:	80 93 c3 0a 	sts	0x0AC3, r24	; 0x800ac3 <__TEXT_REGION_LENGTH__+0x700ac3>
    6e7e:	90 91 c2 0a 	lds	r25, 0x0AC2	; 0x800ac2 <__TEXT_REGION_LENGTH__+0x700ac2>
    6e82:	97 ff       	sbrs	r25, 7
    6e84:	fc cf       	rjmp	.-8      	; 0x6e7e <SD_SendCMD+0x3e>
    6e86:	80 e8       	ldi	r24, 0x80	; 128
    6e88:	80 93 c2 0a 	sts	0x0AC2, r24	; 0x800ac2 <__TEXT_REGION_LENGTH__+0x700ac2>
    6e8c:	80 91 c3 0a 	lds	r24, 0x0AC3	; 0x800ac3 <__TEXT_REGION_LENGTH__+0x700ac3>
    6e90:	28 e8       	ldi	r18, 0x88	; 136
    6e92:	33 e1       	ldi	r19, 0x13	; 19
    6e94:	5f ef       	ldi	r21, 0xFF	; 255
    6e96:	40 e8       	ldi	r20, 0x80	; 128
    6e98:	50 93 c3 0a 	sts	0x0AC3, r21	; 0x800ac3 <__TEXT_REGION_LENGTH__+0x700ac3>
    6e9c:	90 91 c2 0a 	lds	r25, 0x0AC2	; 0x800ac2 <__TEXT_REGION_LENGTH__+0x700ac2>
    6ea0:	97 ff       	sbrs	r25, 7
    6ea2:	fc cf       	rjmp	.-8      	; 0x6e9c <SD_SendCMD+0x5c>
    6ea4:	40 93 c2 0a 	sts	0x0AC2, r20	; 0x800ac2 <__TEXT_REGION_LENGTH__+0x700ac2>
    6ea8:	90 91 c3 0a 	lds	r25, 0x0AC3	; 0x800ac3 <__TEXT_REGION_LENGTH__+0x700ac3>
    6eac:	9f 3f       	cpi	r25, 0xFF	; 255
    6eae:	49 f0       	breq	.+18     	; 0x6ec2 <SD_SendCMD+0x82>
    6eb0:	8f e1       	ldi	r24, 0x1F	; 31
    6eb2:	93 e0       	ldi	r25, 0x03	; 3
    6eb4:	01 97       	sbiw	r24, 0x01	; 1
    6eb6:	f1 f7       	brne	.-4      	; 0x6eb4 <SD_SendCMD+0x74>
    6eb8:	00 c0       	rjmp	.+0      	; 0x6eba <SD_SendCMD+0x7a>
    6eba:	00 00       	nop
    6ebc:	21 50       	subi	r18, 0x01	; 1
    6ebe:	31 09       	sbc	r19, r1
    6ec0:	59 f7       	brne	.-42     	; 0x6e98 <SD_SendCMD+0x58>
    6ec2:	8c 2f       	mov	r24, r28
    6ec4:	80 64       	ori	r24, 0x40	; 64
    6ec6:	80 93 c3 0a 	sts	0x0AC3, r24	; 0x800ac3 <__TEXT_REGION_LENGTH__+0x700ac3>
    6eca:	90 91 c2 0a 	lds	r25, 0x0AC2	; 0x800ac2 <__TEXT_REGION_LENGTH__+0x700ac2>
    6ece:	97 ff       	sbrs	r25, 7
    6ed0:	fc cf       	rjmp	.-8      	; 0x6eca <SD_SendCMD+0x8a>
    6ed2:	90 e8       	ldi	r25, 0x80	; 128
    6ed4:	90 93 c2 0a 	sts	0x0AC2, r25	; 0x800ac2 <__TEXT_REGION_LENGTH__+0x700ac2>
    6ed8:	90 91 c3 0a 	lds	r25, 0x0AC3	; 0x800ac3 <__TEXT_REGION_LENGTH__+0x700ac3>
    6edc:	28 2f       	mov	r18, r24
    6ede:	22 0f       	add	r18, r18
    6ee0:	22 0f       	add	r18, r18
    6ee2:	85 ff       	sbrs	r24, 5
    6ee4:	92 c0       	rjmp	.+292    	; 0x700a <SD_SendCMD+0x1ca>
    6ee6:	8b e1       	ldi	r24, 0x1B	; 27
    6ee8:	88 0f       	add	r24, r24
    6eea:	38 2f       	mov	r19, r24
    6eec:	39 60       	ori	r19, 0x09	; 9
    6eee:	92 2f       	mov	r25, r18
    6ef0:	99 0f       	add	r25, r25
    6ef2:	26 fd       	sbrc	r18, 6
    6ef4:	83 2f       	mov	r24, r19
    6ef6:	99 0f       	add	r25, r25
    6ef8:	88 0f       	add	r24, r24
    6efa:	39 2f       	mov	r19, r25
    6efc:	38 27       	eor	r19, r24
    6efe:	29 e0       	ldi	r18, 0x09	; 9
    6f00:	28 27       	eor	r18, r24
    6f02:	37 fd       	sbrc	r19, 7
    6f04:	82 2f       	mov	r24, r18
    6f06:	99 0f       	add	r25, r25
    6f08:	88 0f       	add	r24, r24
    6f0a:	39 2f       	mov	r19, r25
    6f0c:	38 27       	eor	r19, r24
    6f0e:	29 e0       	ldi	r18, 0x09	; 9
    6f10:	28 27       	eor	r18, r24
    6f12:	37 fd       	sbrc	r19, 7
    6f14:	82 2f       	mov	r24, r18
    6f16:	99 0f       	add	r25, r25
    6f18:	88 0f       	add	r24, r24
    6f1a:	39 2f       	mov	r19, r25
    6f1c:	38 27       	eor	r19, r24
    6f1e:	29 e0       	ldi	r18, 0x09	; 9
    6f20:	28 27       	eor	r18, r24
    6f22:	37 fd       	sbrc	r19, 7
    6f24:	82 2f       	mov	r24, r18
    6f26:	88 0f       	add	r24, r24
    6f28:	99 0f       	add	r25, r25
    6f2a:	98 27       	eor	r25, r24
    6f2c:	29 e0       	ldi	r18, 0x09	; 9
    6f2e:	28 27       	eor	r18, r24
    6f30:	97 fd       	sbrc	r25, 7
    6f32:	82 2f       	mov	r24, r18
    6f34:	34 e0       	ldi	r19, 0x04	; 4
    6f36:	e0 e8       	ldi	r30, 0x80	; 128
    6f38:	29 e0       	ldi	r18, 0x09	; 9
    6f3a:	4f 2d       	mov	r20, r15
    6f3c:	55 27       	eor	r21, r21
    6f3e:	66 27       	eor	r22, r22
    6f40:	77 27       	eor	r23, r23
    6f42:	40 93 c3 0a 	sts	0x0AC3, r20	; 0x800ac3 <__TEXT_REGION_LENGTH__+0x700ac3>
    6f46:	90 91 c2 0a 	lds	r25, 0x0AC2	; 0x800ac2 <__TEXT_REGION_LENGTH__+0x700ac2>
    6f4a:	97 ff       	sbrs	r25, 7
    6f4c:	fc cf       	rjmp	.-8      	; 0x6f46 <SD_SendCMD+0x106>
    6f4e:	e0 93 c2 0a 	sts	0x0AC2, r30	; 0x800ac2 <__TEXT_REGION_LENGTH__+0x700ac2>
    6f52:	90 91 c3 0a 	lds	r25, 0x0AC3	; 0x800ac3 <__TEXT_REGION_LENGTH__+0x700ac3>
    6f56:	88 0f       	add	r24, r24
    6f58:	98 2f       	mov	r25, r24
    6f5a:	94 27       	eor	r25, r20
    6f5c:	97 fd       	sbrc	r25, 7
    6f5e:	82 27       	eor	r24, r18
    6f60:	44 0f       	add	r20, r20
    6f62:	88 0f       	add	r24, r24
    6f64:	98 2f       	mov	r25, r24
    6f66:	94 27       	eor	r25, r20
    6f68:	97 fd       	sbrc	r25, 7
    6f6a:	82 27       	eor	r24, r18
    6f6c:	94 2f       	mov	r25, r20
    6f6e:	99 0f       	add	r25, r25
    6f70:	88 0f       	add	r24, r24
    6f72:	48 2f       	mov	r20, r24
    6f74:	49 27       	eor	r20, r25
    6f76:	47 fd       	sbrc	r20, 7
    6f78:	82 27       	eor	r24, r18
    6f7a:	99 0f       	add	r25, r25
    6f7c:	88 0f       	add	r24, r24
    6f7e:	48 2f       	mov	r20, r24
    6f80:	49 27       	eor	r20, r25
    6f82:	47 fd       	sbrc	r20, 7
    6f84:	82 27       	eor	r24, r18
    6f86:	99 0f       	add	r25, r25
    6f88:	88 0f       	add	r24, r24
    6f8a:	48 2f       	mov	r20, r24
    6f8c:	49 27       	eor	r20, r25
    6f8e:	47 fd       	sbrc	r20, 7
    6f90:	82 27       	eor	r24, r18
    6f92:	99 0f       	add	r25, r25
    6f94:	88 0f       	add	r24, r24
    6f96:	48 2f       	mov	r20, r24
    6f98:	49 27       	eor	r20, r25
    6f9a:	47 fd       	sbrc	r20, 7
    6f9c:	82 27       	eor	r24, r18
    6f9e:	99 0f       	add	r25, r25
    6fa0:	88 0f       	add	r24, r24
    6fa2:	48 2f       	mov	r20, r24
    6fa4:	49 27       	eor	r20, r25
    6fa6:	47 fd       	sbrc	r20, 7
    6fa8:	82 27       	eor	r24, r18
    6faa:	88 0f       	add	r24, r24
    6fac:	99 0f       	add	r25, r25
    6fae:	98 27       	eor	r25, r24
    6fb0:	97 fd       	sbrc	r25, 7
    6fb2:	82 27       	eor	r24, r18
    6fb4:	fe 2c       	mov	r15, r14
    6fb6:	ed 2c       	mov	r14, r13
    6fb8:	dc 2c       	mov	r13, r12
    6fba:	cc 24       	eor	r12, r12
    6fbc:	31 50       	subi	r19, 0x01	; 1
    6fbe:	09 f0       	breq	.+2      	; 0x6fc2 <SD_SendCMD+0x182>
    6fc0:	bc cf       	rjmp	.-136    	; 0x6f3a <SD_SendCMD+0xfa>
    6fc2:	88 0f       	add	r24, r24
    6fc4:	81 60       	ori	r24, 0x01	; 1
    6fc6:	80 93 c3 0a 	sts	0x0AC3, r24	; 0x800ac3 <__TEXT_REGION_LENGTH__+0x700ac3>
    6fca:	80 91 c2 0a 	lds	r24, 0x0AC2	; 0x800ac2 <__TEXT_REGION_LENGTH__+0x700ac2>
    6fce:	87 ff       	sbrs	r24, 7
    6fd0:	fc cf       	rjmp	.-8      	; 0x6fca <SD_SendCMD+0x18a>
    6fd2:	80 e8       	ldi	r24, 0x80	; 128
    6fd4:	80 93 c2 0a 	sts	0x0AC2, r24	; 0x800ac2 <__TEXT_REGION_LENGTH__+0x700ac2>
    6fd8:	80 91 c3 0a 	lds	r24, 0x0AC3	; 0x800ac3 <__TEXT_REGION_LENGTH__+0x700ac3>
    6fdc:	9a e0       	ldi	r25, 0x0A	; 10
    6fde:	3f ef       	ldi	r19, 0xFF	; 255
    6fe0:	20 e8       	ldi	r18, 0x80	; 128
    6fe2:	30 93 c3 0a 	sts	0x0AC3, r19	; 0x800ac3 <__TEXT_REGION_LENGTH__+0x700ac3>
    6fe6:	80 91 c2 0a 	lds	r24, 0x0AC2	; 0x800ac2 <__TEXT_REGION_LENGTH__+0x700ac2>
    6fea:	87 ff       	sbrs	r24, 7
    6fec:	fc cf       	rjmp	.-8      	; 0x6fe6 <SD_SendCMD+0x1a6>
    6fee:	20 93 c2 0a 	sts	0x0AC2, r18	; 0x800ac2 <__TEXT_REGION_LENGTH__+0x700ac2>
    6ff2:	80 91 c3 0a 	lds	r24, 0x0AC3	; 0x800ac3 <__TEXT_REGION_LENGTH__+0x700ac3>
    6ff6:	87 ff       	sbrs	r24, 7
    6ff8:	02 c0       	rjmp	.+4      	; 0x6ffe <SD_SendCMD+0x1be>
    6ffa:	91 50       	subi	r25, 0x01	; 1
    6ffc:	91 f7       	brne	.-28     	; 0x6fe2 <SD_SendCMD+0x1a2>
    6ffe:	cf 91       	pop	r28
    7000:	ff 90       	pop	r15
    7002:	ef 90       	pop	r14
    7004:	df 90       	pop	r13
    7006:	cf 90       	pop	r12
    7008:	08 95       	ret
    700a:	82 e1       	ldi	r24, 0x12	; 18
    700c:	6d cf       	rjmp	.-294    	; 0x6ee8 <SD_SendCMD+0xa8>
    700e:	40 e0       	ldi	r20, 0x00	; 0
    7010:	50 e0       	ldi	r21, 0x00	; 0
    7012:	ba 01       	movw	r22, r20
    7014:	87 e3       	ldi	r24, 0x37	; 55
    7016:	14 df       	rcall	.-472    	; 0x6e40 <SD_SendCMD>
    7018:	82 30       	cpi	r24, 0x02	; 2
    701a:	88 f7       	brcc	.-30     	; 0x6ffe <SD_SendCMD+0x1be>
    701c:	cf 77       	andi	r28, 0x7F	; 127
    701e:	1a cf       	rjmp	.-460    	; 0x6e54 <SD_SendCMD+0x14>

00007020 <SD_disk_read.part.5>:
    7020:	ef 92       	push	r14
    7022:	ff 92       	push	r15
    7024:	1f 93       	push	r17
    7026:	cf 93       	push	r28
    7028:	df 93       	push	r29
    702a:	1f 92       	push	r1
    702c:	cd b7       	in	r28, 0x3d	; 61
    702e:	de b7       	in	r29, 0x3e	; 62
    7030:	7c 01       	movw	r14, r24
    7032:	80 91 20 2b 	lds	r24, 0x2B20	; 0x802b20 <SD_Type>
    7036:	82 30       	cpi	r24, 0x02	; 2
    7038:	09 f4       	brne	.+2      	; 0x703c <SD_disk_read.part.5+0x1c>
    703a:	7b c0       	rjmp	.+246    	; 0x7132 <SD_disk_read.part.5+0x112>
    703c:	21 30       	cpi	r18, 0x01	; 1
    703e:	09 f4       	brne	.+2      	; 0x7042 <SD_disk_read.part.5+0x22>
    7040:	71 c0       	rjmp	.+226    	; 0x7124 <SD_disk_read.part.5+0x104>
    7042:	82 e1       	ldi	r24, 0x12	; 18
    7044:	29 83       	std	Y+1, r18	; 0x01
    7046:	fc de       	rcall	.-520    	; 0x6e40 <SD_SendCMD>
    7048:	18 2f       	mov	r17, r24
    704a:	29 81       	ldd	r18, Y+1	; 0x01
    704c:	88 23       	and	r24, r24
    704e:	29 f0       	breq	.+10     	; 0x705a <SD_disk_read.part.5+0x3a>
    7050:	11 e0       	ldi	r17, 0x01	; 1
    7052:	21 11       	cpse	r18, r1
    7054:	23 c0       	rjmp	.+70     	; 0x709c <SD_disk_read.part.5+0x7c>
    7056:	10 e0       	ldi	r17, 0x00	; 0
    7058:	21 c0       	rjmp	.+66     	; 0x709c <SD_disk_read.part.5+0x7c>
    705a:	6f ef       	ldi	r22, 0xFF	; 255
    705c:	40 e8       	ldi	r20, 0x80	; 128
    705e:	5f ef       	ldi	r21, 0xFF	; 255
    7060:	39 ec       	ldi	r19, 0xC9	; 201
    7062:	8f e9       	ldi	r24, 0x9F	; 159
    7064:	9f e0       	ldi	r25, 0x0F	; 15
    7066:	01 97       	sbiw	r24, 0x01	; 1
    7068:	f1 f7       	brne	.-4      	; 0x7066 <SD_disk_read.part.5+0x46>
    706a:	00 c0       	rjmp	.+0      	; 0x706c <SD_disk_read.part.5+0x4c>
    706c:	00 00       	nop
    706e:	50 93 c3 0a 	sts	0x0AC3, r21	; 0x800ac3 <__TEXT_REGION_LENGTH__+0x700ac3>
    7072:	90 91 c2 0a 	lds	r25, 0x0AC2	; 0x800ac2 <__TEXT_REGION_LENGTH__+0x700ac2>
    7076:	97 ff       	sbrs	r25, 7
    7078:	fc cf       	rjmp	.-8      	; 0x7072 <SD_disk_read.part.5+0x52>
    707a:	40 93 c2 0a 	sts	0x0AC2, r20	; 0x800ac2 <__TEXT_REGION_LENGTH__+0x700ac2>
    707e:	90 91 c3 0a 	lds	r25, 0x0AC3	; 0x800ac3 <__TEXT_REGION_LENGTH__+0x700ac3>
    7082:	9f 3f       	cpi	r25, 0xFF	; 255
    7084:	11 f5       	brne	.+68     	; 0x70ca <SD_disk_read.part.5+0xaa>
    7086:	31 50       	subi	r19, 0x01	; 1
    7088:	61 f7       	brne	.-40     	; 0x7062 <SD_disk_read.part.5+0x42>
    708a:	11 e0       	ldi	r17, 0x01	; 1
    708c:	21 11       	cpse	r18, r1
    708e:	01 c0       	rjmp	.+2      	; 0x7092 <SD_disk_read.part.5+0x72>
    7090:	10 e0       	ldi	r17, 0x00	; 0
    7092:	40 e0       	ldi	r20, 0x00	; 0
    7094:	50 e0       	ldi	r21, 0x00	; 0
    7096:	ba 01       	movw	r22, r20
    7098:	8c e0       	ldi	r24, 0x0C	; 12
    709a:	d2 de       	rcall	.-604    	; 0x6e40 <SD_SendCMD>
    709c:	88 e0       	ldi	r24, 0x08	; 8
    709e:	80 93 85 06 	sts	0x0685, r24	; 0x800685 <__TEXT_REGION_LENGTH__+0x700685>
    70a2:	8f ef       	ldi	r24, 0xFF	; 255
    70a4:	80 93 c3 0a 	sts	0x0AC3, r24	; 0x800ac3 <__TEXT_REGION_LENGTH__+0x700ac3>
    70a8:	90 91 c2 0a 	lds	r25, 0x0AC2	; 0x800ac2 <__TEXT_REGION_LENGTH__+0x700ac2>
    70ac:	97 ff       	sbrs	r25, 7
    70ae:	fc cf       	rjmp	.-8      	; 0x70a8 <SD_disk_read.part.5+0x88>
    70b0:	80 e8       	ldi	r24, 0x80	; 128
    70b2:	80 93 c2 0a 	sts	0x0AC2, r24	; 0x800ac2 <__TEXT_REGION_LENGTH__+0x700ac2>
    70b6:	80 91 c3 0a 	lds	r24, 0x0AC3	; 0x800ac3 <__TEXT_REGION_LENGTH__+0x700ac3>
    70ba:	81 2f       	mov	r24, r17
    70bc:	0f 90       	pop	r0
    70be:	df 91       	pop	r29
    70c0:	cf 91       	pop	r28
    70c2:	1f 91       	pop	r17
    70c4:	ff 90       	pop	r15
    70c6:	ef 90       	pop	r14
    70c8:	08 95       	ret
    70ca:	9e 3f       	cpi	r25, 0xFE	; 254
    70cc:	f1 f6       	brne	.-68     	; 0x708a <SD_disk_read.part.5+0x6a>
    70ce:	f7 01       	movw	r30, r14
    70d0:	fe 5f       	subi	r31, 0xFE	; 254
    70d2:	60 93 c3 0a 	sts	0x0AC3, r22	; 0x800ac3 <__TEXT_REGION_LENGTH__+0x700ac3>
    70d6:	90 91 c2 0a 	lds	r25, 0x0AC2	; 0x800ac2 <__TEXT_REGION_LENGTH__+0x700ac2>
    70da:	97 ff       	sbrs	r25, 7
    70dc:	fc cf       	rjmp	.-8      	; 0x70d6 <SD_disk_read.part.5+0xb6>
    70de:	40 93 c2 0a 	sts	0x0AC2, r20	; 0x800ac2 <__TEXT_REGION_LENGTH__+0x700ac2>
    70e2:	90 91 c3 0a 	lds	r25, 0x0AC3	; 0x800ac3 <__TEXT_REGION_LENGTH__+0x700ac3>
    70e6:	d7 01       	movw	r26, r14
    70e8:	9d 93       	st	X+, r25
    70ea:	7d 01       	movw	r14, r26
    70ec:	ae 17       	cp	r26, r30
    70ee:	bf 07       	cpc	r27, r31
    70f0:	81 f7       	brne	.-32     	; 0x70d2 <SD_disk_read.part.5+0xb2>
    70f2:	60 93 c3 0a 	sts	0x0AC3, r22	; 0x800ac3 <__TEXT_REGION_LENGTH__+0x700ac3>
    70f6:	90 91 c2 0a 	lds	r25, 0x0AC2	; 0x800ac2 <__TEXT_REGION_LENGTH__+0x700ac2>
    70fa:	97 ff       	sbrs	r25, 7
    70fc:	fc cf       	rjmp	.-8      	; 0x70f6 <SD_disk_read.part.5+0xd6>
    70fe:	40 93 c2 0a 	sts	0x0AC2, r20	; 0x800ac2 <__TEXT_REGION_LENGTH__+0x700ac2>
    7102:	80 91 c3 0a 	lds	r24, 0x0AC3	; 0x800ac3 <__TEXT_REGION_LENGTH__+0x700ac3>
    7106:	60 93 c3 0a 	sts	0x0AC3, r22	; 0x800ac3 <__TEXT_REGION_LENGTH__+0x700ac3>
    710a:	90 91 c2 0a 	lds	r25, 0x0AC2	; 0x800ac2 <__TEXT_REGION_LENGTH__+0x700ac2>
    710e:	97 ff       	sbrs	r25, 7
    7110:	fc cf       	rjmp	.-8      	; 0x710a <SD_disk_read.part.5+0xea>
    7112:	40 93 c2 0a 	sts	0x0AC2, r20	; 0x800ac2 <__TEXT_REGION_LENGTH__+0x700ac2>
    7116:	80 91 c3 0a 	lds	r24, 0x0AC3	; 0x800ac3 <__TEXT_REGION_LENGTH__+0x700ac3>
    711a:	21 50       	subi	r18, 0x01	; 1
    711c:	09 f4       	brne	.+2      	; 0x7120 <SD_disk_read.part.5+0x100>
    711e:	b9 cf       	rjmp	.-142    	; 0x7092 <SD_disk_read.part.5+0x72>
    7120:	7f 01       	movw	r14, r30
    7122:	9e cf       	rjmp	.-196    	; 0x7060 <SD_disk_read.part.5+0x40>
    7124:	81 e1       	ldi	r24, 0x11	; 17
    7126:	8c de       	rcall	.-744    	; 0x6e40 <SD_SendCMD>
    7128:	18 2f       	mov	r17, r24
    712a:	88 23       	and	r24, r24
    712c:	51 f0       	breq	.+20     	; 0x7142 <SD_disk_read.part.5+0x122>
    712e:	11 e0       	ldi	r17, 0x01	; 1
    7130:	b5 cf       	rjmp	.-150    	; 0x709c <SD_disk_read.part.5+0x7c>
    7132:	89 e0       	ldi	r24, 0x09	; 9
    7134:	44 0f       	add	r20, r20
    7136:	55 1f       	adc	r21, r21
    7138:	66 1f       	adc	r22, r22
    713a:	77 1f       	adc	r23, r23
    713c:	8a 95       	dec	r24
    713e:	d1 f7       	brne	.-12     	; 0x7134 <SD_disk_read.part.5+0x114>
    7140:	7d cf       	rjmp	.-262    	; 0x703c <SD_disk_read.part.5+0x1c>
    7142:	89 ec       	ldi	r24, 0xC9	; 201
    7144:	3f ef       	ldi	r19, 0xFF	; 255
    7146:	20 e8       	ldi	r18, 0x80	; 128
    7148:	af e9       	ldi	r26, 0x9F	; 159
    714a:	bf e0       	ldi	r27, 0x0F	; 15
    714c:	11 97       	sbiw	r26, 0x01	; 1
    714e:	f1 f7       	brne	.-4      	; 0x714c <SD_disk_read.part.5+0x12c>
    7150:	00 c0       	rjmp	.+0      	; 0x7152 <SD_disk_read.part.5+0x132>
    7152:	00 00       	nop
    7154:	30 93 c3 0a 	sts	0x0AC3, r19	; 0x800ac3 <__TEXT_REGION_LENGTH__+0x700ac3>
    7158:	90 91 c2 0a 	lds	r25, 0x0AC2	; 0x800ac2 <__TEXT_REGION_LENGTH__+0x700ac2>
    715c:	97 ff       	sbrs	r25, 7
    715e:	fc cf       	rjmp	.-8      	; 0x7158 <SD_disk_read.part.5+0x138>
    7160:	20 93 c2 0a 	sts	0x0AC2, r18	; 0x800ac2 <__TEXT_REGION_LENGTH__+0x700ac2>
    7164:	90 91 c3 0a 	lds	r25, 0x0AC3	; 0x800ac3 <__TEXT_REGION_LENGTH__+0x700ac3>
    7168:	9f 3f       	cpi	r25, 0xFF	; 255
    716a:	21 f4       	brne	.+8      	; 0x7174 <SD_disk_read.part.5+0x154>
    716c:	81 50       	subi	r24, 0x01	; 1
    716e:	61 f7       	brne	.-40     	; 0x7148 <SD_disk_read.part.5+0x128>
    7170:	11 e0       	ldi	r17, 0x01	; 1
    7172:	94 cf       	rjmp	.-216    	; 0x709c <SD_disk_read.part.5+0x7c>
    7174:	9e 3f       	cpi	r25, 0xFE	; 254
    7176:	d9 f6       	brne	.-74     	; 0x712e <SD_disk_read.part.5+0x10e>
    7178:	a7 01       	movw	r20, r14
    717a:	5e 5f       	subi	r21, 0xFE	; 254
    717c:	2f ef       	ldi	r18, 0xFF	; 255
    717e:	90 e8       	ldi	r25, 0x80	; 128
    7180:	20 93 c3 0a 	sts	0x0AC3, r18	; 0x800ac3 <__TEXT_REGION_LENGTH__+0x700ac3>
    7184:	80 91 c2 0a 	lds	r24, 0x0AC2	; 0x800ac2 <__TEXT_REGION_LENGTH__+0x700ac2>
    7188:	87 ff       	sbrs	r24, 7
    718a:	fc cf       	rjmp	.-8      	; 0x7184 <SD_disk_read.part.5+0x164>
    718c:	90 93 c2 0a 	sts	0x0AC2, r25	; 0x800ac2 <__TEXT_REGION_LENGTH__+0x700ac2>
    7190:	80 91 c3 0a 	lds	r24, 0x0AC3	; 0x800ac3 <__TEXT_REGION_LENGTH__+0x700ac3>
    7194:	f7 01       	movw	r30, r14
    7196:	81 93       	st	Z+, r24
    7198:	7f 01       	movw	r14, r30
    719a:	e4 17       	cp	r30, r20
    719c:	f5 07       	cpc	r31, r21
    719e:	81 f7       	brne	.-32     	; 0x7180 <SD_disk_read.part.5+0x160>
    71a0:	8f ef       	ldi	r24, 0xFF	; 255
    71a2:	80 93 c3 0a 	sts	0x0AC3, r24	; 0x800ac3 <__TEXT_REGION_LENGTH__+0x700ac3>
    71a6:	80 91 c2 0a 	lds	r24, 0x0AC2	; 0x800ac2 <__TEXT_REGION_LENGTH__+0x700ac2>
    71aa:	87 ff       	sbrs	r24, 7
    71ac:	fc cf       	rjmp	.-8      	; 0x71a6 <SD_disk_read.part.5+0x186>
    71ae:	80 e8       	ldi	r24, 0x80	; 128
    71b0:	80 93 c2 0a 	sts	0x0AC2, r24	; 0x800ac2 <__TEXT_REGION_LENGTH__+0x700ac2>
    71b4:	80 91 c3 0a 	lds	r24, 0x0AC3	; 0x800ac3 <__TEXT_REGION_LENGTH__+0x700ac3>
    71b8:	8f ef       	ldi	r24, 0xFF	; 255
    71ba:	80 93 c3 0a 	sts	0x0AC3, r24	; 0x800ac3 <__TEXT_REGION_LENGTH__+0x700ac3>
    71be:	80 91 c2 0a 	lds	r24, 0x0AC2	; 0x800ac2 <__TEXT_REGION_LENGTH__+0x700ac2>
    71c2:	87 ff       	sbrs	r24, 7
    71c4:	fc cf       	rjmp	.-8      	; 0x71be <SD_disk_read.part.5+0x19e>
    71c6:	80 e8       	ldi	r24, 0x80	; 128
    71c8:	80 93 c2 0a 	sts	0x0AC2, r24	; 0x800ac2 <__TEXT_REGION_LENGTH__+0x700ac2>
    71cc:	80 91 c3 0a 	lds	r24, 0x0AC3	; 0x800ac3 <__TEXT_REGION_LENGTH__+0x700ac3>
    71d0:	65 cf       	rjmp	.-310    	; 0x709c <SD_disk_read.part.5+0x7c>

000071d2 <DS_disk_write.part.6>:
    71d2:	cf 92       	push	r12
    71d4:	df 92       	push	r13
    71d6:	ef 92       	push	r14
    71d8:	ff 92       	push	r15
    71da:	0f 93       	push	r16
    71dc:	1f 93       	push	r17
    71de:	cf 93       	push	r28
    71e0:	df 93       	push	r29
    71e2:	1f 92       	push	r1
    71e4:	cd b7       	in	r28, 0x3d	; 61
    71e6:	de b7       	in	r29, 0x3e	; 62
    71e8:	8c 01       	movw	r16, r24
    71ea:	6a 01       	movw	r12, r20
    71ec:	7b 01       	movw	r14, r22
    71ee:	80 91 20 2b 	lds	r24, 0x2B20	; 0x802b20 <SD_Type>
    71f2:	82 30       	cpi	r24, 0x02	; 2
    71f4:	09 f4       	brne	.+2      	; 0x71f8 <DS_disk_write.part.6+0x26>
    71f6:	ff c0       	rjmp	.+510    	; 0x73f6 <DS_disk_write.part.6+0x224>
    71f8:	21 30       	cpi	r18, 0x01	; 1
    71fa:	09 f4       	brne	.+2      	; 0x71fe <DS_disk_write.part.6+0x2c>
    71fc:	cf c0       	rjmp	.+414    	; 0x739c <DS_disk_write.part.6+0x1ca>
    71fe:	42 2f       	mov	r20, r18
    7200:	50 e0       	ldi	r21, 0x00	; 0
    7202:	60 e0       	ldi	r22, 0x00	; 0
    7204:	70 e0       	ldi	r23, 0x00	; 0
    7206:	87 e9       	ldi	r24, 0x97	; 151
    7208:	29 83       	std	Y+1, r18	; 0x01
    720a:	1a de       	rcall	.-972    	; 0x6e40 <SD_SendCMD>
    720c:	b7 01       	movw	r22, r14
    720e:	a6 01       	movw	r20, r12
    7210:	89 e1       	ldi	r24, 0x19	; 25
    7212:	16 de       	rcall	.-980    	; 0x6e40 <SD_SendCMD>
    7214:	29 81       	ldd	r18, Y+1	; 0x01
    7216:	81 11       	cpse	r24, r1
    7218:	a4 c0       	rjmp	.+328    	; 0x7362 <DS_disk_write.part.6+0x190>
    721a:	6f ef       	ldi	r22, 0xFF	; 255
    721c:	30 e8       	ldi	r19, 0x80	; 128
    721e:	7c ef       	ldi	r23, 0xFC	; 252
    7220:	60 93 c3 0a 	sts	0x0AC3, r22	; 0x800ac3 <__TEXT_REGION_LENGTH__+0x700ac3>
    7224:	80 91 c2 0a 	lds	r24, 0x0AC2	; 0x800ac2 <__TEXT_REGION_LENGTH__+0x700ac2>
    7228:	87 ff       	sbrs	r24, 7
    722a:	fc cf       	rjmp	.-8      	; 0x7224 <DS_disk_write.part.6+0x52>
    722c:	30 93 c2 0a 	sts	0x0AC2, r19	; 0x800ac2 <__TEXT_REGION_LENGTH__+0x700ac2>
    7230:	80 91 c3 0a 	lds	r24, 0x0AC3	; 0x800ac3 <__TEXT_REGION_LENGTH__+0x700ac3>
    7234:	48 e8       	ldi	r20, 0x88	; 136
    7236:	53 e1       	ldi	r21, 0x13	; 19
    7238:	60 93 c3 0a 	sts	0x0AC3, r22	; 0x800ac3 <__TEXT_REGION_LENGTH__+0x700ac3>
    723c:	90 91 c2 0a 	lds	r25, 0x0AC2	; 0x800ac2 <__TEXT_REGION_LENGTH__+0x700ac2>
    7240:	97 ff       	sbrs	r25, 7
    7242:	fc cf       	rjmp	.-8      	; 0x723c <DS_disk_write.part.6+0x6a>
    7244:	30 93 c2 0a 	sts	0x0AC2, r19	; 0x800ac2 <__TEXT_REGION_LENGTH__+0x700ac2>
    7248:	80 91 c3 0a 	lds	r24, 0x0AC3	; 0x800ac3 <__TEXT_REGION_LENGTH__+0x700ac3>
    724c:	8f 3f       	cpi	r24, 0xFF	; 255
    724e:	89 f1       	breq	.+98     	; 0x72b2 <DS_disk_write.part.6+0xe0>
    7250:	8f e1       	ldi	r24, 0x1F	; 31
    7252:	93 e0       	ldi	r25, 0x03	; 3
    7254:	01 97       	sbiw	r24, 0x01	; 1
    7256:	f1 f7       	brne	.-4      	; 0x7254 <DS_disk_write.part.6+0x82>
    7258:	00 c0       	rjmp	.+0      	; 0x725a <DS_disk_write.part.6+0x88>
    725a:	00 00       	nop
    725c:	41 50       	subi	r20, 0x01	; 1
    725e:	51 09       	sbc	r21, r1
    7260:	59 f7       	brne	.-42     	; 0x7238 <DS_disk_write.part.6+0x66>
    7262:	8f ef       	ldi	r24, 0xFF	; 255
    7264:	80 93 c3 0a 	sts	0x0AC3, r24	; 0x800ac3 <__TEXT_REGION_LENGTH__+0x700ac3>
    7268:	80 91 c2 0a 	lds	r24, 0x0AC2	; 0x800ac2 <__TEXT_REGION_LENGTH__+0x700ac2>
    726c:	87 ff       	sbrs	r24, 7
    726e:	fc cf       	rjmp	.-8      	; 0x7268 <DS_disk_write.part.6+0x96>
    7270:	80 e8       	ldi	r24, 0x80	; 128
    7272:	80 93 c2 0a 	sts	0x0AC2, r24	; 0x800ac2 <__TEXT_REGION_LENGTH__+0x700ac2>
    7276:	80 91 c3 0a 	lds	r24, 0x0AC3	; 0x800ac3 <__TEXT_REGION_LENGTH__+0x700ac3>
    727a:	48 e8       	ldi	r20, 0x88	; 136
    727c:	53 e1       	ldi	r21, 0x13	; 19
    727e:	3f ef       	ldi	r19, 0xFF	; 255
    7280:	90 e8       	ldi	r25, 0x80	; 128
    7282:	30 93 c3 0a 	sts	0x0AC3, r19	; 0x800ac3 <__TEXT_REGION_LENGTH__+0x700ac3>
    7286:	80 91 c2 0a 	lds	r24, 0x0AC2	; 0x800ac2 <__TEXT_REGION_LENGTH__+0x700ac2>
    728a:	87 ff       	sbrs	r24, 7
    728c:	fc cf       	rjmp	.-8      	; 0x7286 <DS_disk_write.part.6+0xb4>
    728e:	90 93 c2 0a 	sts	0x0AC2, r25	; 0x800ac2 <__TEXT_REGION_LENGTH__+0x700ac2>
    7292:	80 91 c3 0a 	lds	r24, 0x0AC3	; 0x800ac3 <__TEXT_REGION_LENGTH__+0x700ac3>
    7296:	8f 3f       	cpi	r24, 0xFF	; 255
    7298:	09 f4       	brne	.+2      	; 0x729c <DS_disk_write.part.6+0xca>
    729a:	54 c0       	rjmp	.+168    	; 0x7344 <DS_disk_write.part.6+0x172>
    729c:	ef e1       	ldi	r30, 0x1F	; 31
    729e:	f3 e0       	ldi	r31, 0x03	; 3
    72a0:	31 97       	sbiw	r30, 0x01	; 1
    72a2:	f1 f7       	brne	.-4      	; 0x72a0 <DS_disk_write.part.6+0xce>
    72a4:	00 c0       	rjmp	.+0      	; 0x72a6 <DS_disk_write.part.6+0xd4>
    72a6:	00 00       	nop
    72a8:	41 50       	subi	r20, 0x01	; 1
    72aa:	51 09       	sbc	r21, r1
    72ac:	51 f7       	brne	.-44     	; 0x7282 <DS_disk_write.part.6+0xb0>
    72ae:	81 e0       	ldi	r24, 0x01	; 1
    72b0:	5c c0       	rjmp	.+184    	; 0x736a <DS_disk_write.part.6+0x198>
    72b2:	45 2b       	or	r20, r21
    72b4:	d9 f1       	breq	.+118    	; 0x732c <DS_disk_write.part.6+0x15a>
    72b6:	70 93 c3 0a 	sts	0x0AC3, r23	; 0x800ac3 <__TEXT_REGION_LENGTH__+0x700ac3>
    72ba:	80 91 c2 0a 	lds	r24, 0x0AC2	; 0x800ac2 <__TEXT_REGION_LENGTH__+0x700ac2>
    72be:	87 ff       	sbrs	r24, 7
    72c0:	fc cf       	rjmp	.-8      	; 0x72ba <DS_disk_write.part.6+0xe8>
    72c2:	30 93 c2 0a 	sts	0x0AC2, r19	; 0x800ac2 <__TEXT_REGION_LENGTH__+0x700ac2>
    72c6:	80 91 c3 0a 	lds	r24, 0x0AC3	; 0x800ac3 <__TEXT_REGION_LENGTH__+0x700ac3>
    72ca:	f8 01       	movw	r30, r16
    72cc:	1e 5f       	subi	r17, 0xFE	; 254
    72ce:	91 91       	ld	r25, Z+
    72d0:	90 93 c3 0a 	sts	0x0AC3, r25	; 0x800ac3 <__TEXT_REGION_LENGTH__+0x700ac3>
    72d4:	90 91 c2 0a 	lds	r25, 0x0AC2	; 0x800ac2 <__TEXT_REGION_LENGTH__+0x700ac2>
    72d8:	97 ff       	sbrs	r25, 7
    72da:	fc cf       	rjmp	.-8      	; 0x72d4 <DS_disk_write.part.6+0x102>
    72dc:	30 93 c2 0a 	sts	0x0AC2, r19	; 0x800ac2 <__TEXT_REGION_LENGTH__+0x700ac2>
    72e0:	80 91 c3 0a 	lds	r24, 0x0AC3	; 0x800ac3 <__TEXT_REGION_LENGTH__+0x700ac3>
    72e4:	e0 17       	cp	r30, r16
    72e6:	f1 07       	cpc	r31, r17
    72e8:	91 f7       	brne	.-28     	; 0x72ce <DS_disk_write.part.6+0xfc>
    72ea:	60 93 c3 0a 	sts	0x0AC3, r22	; 0x800ac3 <__TEXT_REGION_LENGTH__+0x700ac3>
    72ee:	80 91 c2 0a 	lds	r24, 0x0AC2	; 0x800ac2 <__TEXT_REGION_LENGTH__+0x700ac2>
    72f2:	87 ff       	sbrs	r24, 7
    72f4:	fc cf       	rjmp	.-8      	; 0x72ee <DS_disk_write.part.6+0x11c>
    72f6:	30 93 c2 0a 	sts	0x0AC2, r19	; 0x800ac2 <__TEXT_REGION_LENGTH__+0x700ac2>
    72fa:	80 91 c3 0a 	lds	r24, 0x0AC3	; 0x800ac3 <__TEXT_REGION_LENGTH__+0x700ac3>
    72fe:	60 93 c3 0a 	sts	0x0AC3, r22	; 0x800ac3 <__TEXT_REGION_LENGTH__+0x700ac3>
    7302:	80 91 c2 0a 	lds	r24, 0x0AC2	; 0x800ac2 <__TEXT_REGION_LENGTH__+0x700ac2>
    7306:	87 ff       	sbrs	r24, 7
    7308:	fc cf       	rjmp	.-8      	; 0x7302 <DS_disk_write.part.6+0x130>
    730a:	30 93 c2 0a 	sts	0x0AC2, r19	; 0x800ac2 <__TEXT_REGION_LENGTH__+0x700ac2>
    730e:	80 91 c3 0a 	lds	r24, 0x0AC3	; 0x800ac3 <__TEXT_REGION_LENGTH__+0x700ac3>
    7312:	60 93 c3 0a 	sts	0x0AC3, r22	; 0x800ac3 <__TEXT_REGION_LENGTH__+0x700ac3>
    7316:	80 91 c2 0a 	lds	r24, 0x0AC2	; 0x800ac2 <__TEXT_REGION_LENGTH__+0x700ac2>
    731a:	87 ff       	sbrs	r24, 7
    731c:	fc cf       	rjmp	.-8      	; 0x7316 <DS_disk_write.part.6+0x144>
    731e:	30 93 c2 0a 	sts	0x0AC2, r19	; 0x800ac2 <__TEXT_REGION_LENGTH__+0x700ac2>
    7322:	80 91 c3 0a 	lds	r24, 0x0AC3	; 0x800ac3 <__TEXT_REGION_LENGTH__+0x700ac3>
    7326:	8f 71       	andi	r24, 0x1F	; 31
    7328:	85 30       	cpi	r24, 0x05	; 5
    732a:	41 f0       	breq	.+16     	; 0x733c <DS_disk_write.part.6+0x16a>
    732c:	8f ef       	ldi	r24, 0xFF	; 255
    732e:	80 93 c3 0a 	sts	0x0AC3, r24	; 0x800ac3 <__TEXT_REGION_LENGTH__+0x700ac3>
    7332:	80 91 c2 0a 	lds	r24, 0x0AC2	; 0x800ac2 <__TEXT_REGION_LENGTH__+0x700ac2>
    7336:	87 ff       	sbrs	r24, 7
    7338:	97 cf       	rjmp	.-210    	; 0x7268 <DS_disk_write.part.6+0x96>
    733a:	9a cf       	rjmp	.-204    	; 0x7270 <DS_disk_write.part.6+0x9e>
    733c:	21 50       	subi	r18, 0x01	; 1
    733e:	09 f0       	breq	.+2      	; 0x7342 <DS_disk_write.part.6+0x170>
    7340:	6f cf       	rjmp	.-290    	; 0x7220 <DS_disk_write.part.6+0x4e>
    7342:	f4 cf       	rjmp	.-24     	; 0x732c <DS_disk_write.part.6+0x15a>
    7344:	45 2b       	or	r20, r21
    7346:	09 f4       	brne	.+2      	; 0x734a <DS_disk_write.part.6+0x178>
    7348:	b2 cf       	rjmp	.-156    	; 0x72ae <DS_disk_write.part.6+0xdc>
    734a:	8d ef       	ldi	r24, 0xFD	; 253
    734c:	80 93 c3 0a 	sts	0x0AC3, r24	; 0x800ac3 <__TEXT_REGION_LENGTH__+0x700ac3>
    7350:	80 91 c2 0a 	lds	r24, 0x0AC2	; 0x800ac2 <__TEXT_REGION_LENGTH__+0x700ac2>
    7354:	87 ff       	sbrs	r24, 7
    7356:	fc cf       	rjmp	.-8      	; 0x7350 <DS_disk_write.part.6+0x17e>
    7358:	80 e8       	ldi	r24, 0x80	; 128
    735a:	80 93 c2 0a 	sts	0x0AC2, r24	; 0x800ac2 <__TEXT_REGION_LENGTH__+0x700ac2>
    735e:	80 91 c3 0a 	lds	r24, 0x0AC3	; 0x800ac3 <__TEXT_REGION_LENGTH__+0x700ac3>
    7362:	81 e0       	ldi	r24, 0x01	; 1
    7364:	21 11       	cpse	r18, r1
    7366:	01 c0       	rjmp	.+2      	; 0x736a <DS_disk_write.part.6+0x198>
    7368:	80 e0       	ldi	r24, 0x00	; 0
    736a:	98 e0       	ldi	r25, 0x08	; 8
    736c:	90 93 85 06 	sts	0x0685, r25	; 0x800685 <__TEXT_REGION_LENGTH__+0x700685>
    7370:	9f ef       	ldi	r25, 0xFF	; 255
    7372:	90 93 c3 0a 	sts	0x0AC3, r25	; 0x800ac3 <__TEXT_REGION_LENGTH__+0x700ac3>
    7376:	90 91 c2 0a 	lds	r25, 0x0AC2	; 0x800ac2 <__TEXT_REGION_LENGTH__+0x700ac2>
    737a:	97 ff       	sbrs	r25, 7
    737c:	fc cf       	rjmp	.-8      	; 0x7376 <DS_disk_write.part.6+0x1a4>
    737e:	90 e8       	ldi	r25, 0x80	; 128
    7380:	90 93 c2 0a 	sts	0x0AC2, r25	; 0x800ac2 <__TEXT_REGION_LENGTH__+0x700ac2>
    7384:	90 91 c3 0a 	lds	r25, 0x0AC3	; 0x800ac3 <__TEXT_REGION_LENGTH__+0x700ac3>
    7388:	0f 90       	pop	r0
    738a:	df 91       	pop	r29
    738c:	cf 91       	pop	r28
    738e:	1f 91       	pop	r17
    7390:	0f 91       	pop	r16
    7392:	ff 90       	pop	r15
    7394:	ef 90       	pop	r14
    7396:	df 90       	pop	r13
    7398:	cf 90       	pop	r12
    739a:	08 95       	ret
    739c:	b7 01       	movw	r22, r14
    739e:	a6 01       	movw	r20, r12
    73a0:	88 e1       	ldi	r24, 0x18	; 24
    73a2:	4e dd       	rcall	.-1380   	; 0x6e40 <SD_SendCMD>
    73a4:	81 11       	cpse	r24, r1
    73a6:	83 cf       	rjmp	.-250    	; 0x72ae <DS_disk_write.part.6+0xdc>
    73a8:	9f ef       	ldi	r25, 0xFF	; 255
    73aa:	90 93 c3 0a 	sts	0x0AC3, r25	; 0x800ac3 <__TEXT_REGION_LENGTH__+0x700ac3>
    73ae:	90 91 c2 0a 	lds	r25, 0x0AC2	; 0x800ac2 <__TEXT_REGION_LENGTH__+0x700ac2>
    73b2:	97 ff       	sbrs	r25, 7
    73b4:	fc cf       	rjmp	.-8      	; 0x73ae <DS_disk_write.part.6+0x1dc>
    73b6:	90 e8       	ldi	r25, 0x80	; 128
    73b8:	90 93 c2 0a 	sts	0x0AC2, r25	; 0x800ac2 <__TEXT_REGION_LENGTH__+0x700ac2>
    73bc:	90 91 c3 0a 	lds	r25, 0x0AC3	; 0x800ac3 <__TEXT_REGION_LENGTH__+0x700ac3>
    73c0:	28 e8       	ldi	r18, 0x88	; 136
    73c2:	33 e1       	ldi	r19, 0x13	; 19
    73c4:	5f ef       	ldi	r21, 0xFF	; 255
    73c6:	40 e8       	ldi	r20, 0x80	; 128
    73c8:	50 93 c3 0a 	sts	0x0AC3, r21	; 0x800ac3 <__TEXT_REGION_LENGTH__+0x700ac3>
    73cc:	90 91 c2 0a 	lds	r25, 0x0AC2	; 0x800ac2 <__TEXT_REGION_LENGTH__+0x700ac2>
    73d0:	97 ff       	sbrs	r25, 7
    73d2:	fc cf       	rjmp	.-8      	; 0x73cc <DS_disk_write.part.6+0x1fa>
    73d4:	40 93 c2 0a 	sts	0x0AC2, r20	; 0x800ac2 <__TEXT_REGION_LENGTH__+0x700ac2>
    73d8:	90 91 c3 0a 	lds	r25, 0x0AC3	; 0x800ac3 <__TEXT_REGION_LENGTH__+0x700ac3>
    73dc:	9f 3f       	cpi	r25, 0xFF	; 255
    73de:	99 f0       	breq	.+38     	; 0x7406 <DS_disk_write.part.6+0x234>
    73e0:	ef e1       	ldi	r30, 0x1F	; 31
    73e2:	f3 e0       	ldi	r31, 0x03	; 3
    73e4:	31 97       	sbiw	r30, 0x01	; 1
    73e6:	f1 f7       	brne	.-4      	; 0x73e4 <DS_disk_write.part.6+0x212>
    73e8:	00 c0       	rjmp	.+0      	; 0x73ea <DS_disk_write.part.6+0x218>
    73ea:	00 00       	nop
    73ec:	21 50       	subi	r18, 0x01	; 1
    73ee:	31 09       	sbc	r19, r1
    73f0:	59 f7       	brne	.-42     	; 0x73c8 <DS_disk_write.part.6+0x1f6>
    73f2:	81 e0       	ldi	r24, 0x01	; 1
    73f4:	ba cf       	rjmp	.-140    	; 0x736a <DS_disk_write.part.6+0x198>
    73f6:	89 e0       	ldi	r24, 0x09	; 9
    73f8:	cc 0c       	add	r12, r12
    73fa:	dd 1c       	adc	r13, r13
    73fc:	ee 1c       	adc	r14, r14
    73fe:	ff 1c       	adc	r15, r15
    7400:	8a 95       	dec	r24
    7402:	d1 f7       	brne	.-12     	; 0x73f8 <DS_disk_write.part.6+0x226>
    7404:	f9 ce       	rjmp	.-526    	; 0x71f8 <DS_disk_write.part.6+0x26>
    7406:	23 2b       	or	r18, r19
    7408:	09 f4       	brne	.+2      	; 0x740c <DS_disk_write.part.6+0x23a>
    740a:	51 cf       	rjmp	.-350    	; 0x72ae <DS_disk_write.part.6+0xdc>
    740c:	9e ef       	ldi	r25, 0xFE	; 254
    740e:	90 93 c3 0a 	sts	0x0AC3, r25	; 0x800ac3 <__TEXT_REGION_LENGTH__+0x700ac3>
    7412:	90 91 c2 0a 	lds	r25, 0x0AC2	; 0x800ac2 <__TEXT_REGION_LENGTH__+0x700ac2>
    7416:	97 ff       	sbrs	r25, 7
    7418:	fc cf       	rjmp	.-8      	; 0x7412 <DS_disk_write.part.6+0x240>
    741a:	90 e8       	ldi	r25, 0x80	; 128
    741c:	90 93 c2 0a 	sts	0x0AC2, r25	; 0x800ac2 <__TEXT_REGION_LENGTH__+0x700ac2>
    7420:	90 91 c3 0a 	lds	r25, 0x0AC3	; 0x800ac3 <__TEXT_REGION_LENGTH__+0x700ac3>
    7424:	f8 01       	movw	r30, r16
    7426:	a8 01       	movw	r20, r16
    7428:	5e 5f       	subi	r21, 0xFE	; 254
    742a:	20 e8       	ldi	r18, 0x80	; 128
    742c:	91 91       	ld	r25, Z+
    742e:	90 93 c3 0a 	sts	0x0AC3, r25	; 0x800ac3 <__TEXT_REGION_LENGTH__+0x700ac3>
    7432:	90 91 c2 0a 	lds	r25, 0x0AC2	; 0x800ac2 <__TEXT_REGION_LENGTH__+0x700ac2>
    7436:	97 ff       	sbrs	r25, 7
    7438:	fc cf       	rjmp	.-8      	; 0x7432 <DS_disk_write.part.6+0x260>
    743a:	20 93 c2 0a 	sts	0x0AC2, r18	; 0x800ac2 <__TEXT_REGION_LENGTH__+0x700ac2>
    743e:	90 91 c3 0a 	lds	r25, 0x0AC3	; 0x800ac3 <__TEXT_REGION_LENGTH__+0x700ac3>
    7442:	e4 17       	cp	r30, r20
    7444:	f5 07       	cpc	r31, r21
    7446:	91 f7       	brne	.-28     	; 0x742c <DS_disk_write.part.6+0x25a>
    7448:	9f ef       	ldi	r25, 0xFF	; 255
    744a:	90 93 c3 0a 	sts	0x0AC3, r25	; 0x800ac3 <__TEXT_REGION_LENGTH__+0x700ac3>
    744e:	90 91 c2 0a 	lds	r25, 0x0AC2	; 0x800ac2 <__TEXT_REGION_LENGTH__+0x700ac2>
    7452:	97 ff       	sbrs	r25, 7
    7454:	fc cf       	rjmp	.-8      	; 0x744e <DS_disk_write.part.6+0x27c>
    7456:	90 e8       	ldi	r25, 0x80	; 128
    7458:	90 93 c2 0a 	sts	0x0AC2, r25	; 0x800ac2 <__TEXT_REGION_LENGTH__+0x700ac2>
    745c:	90 91 c3 0a 	lds	r25, 0x0AC3	; 0x800ac3 <__TEXT_REGION_LENGTH__+0x700ac3>
    7460:	9f ef       	ldi	r25, 0xFF	; 255
    7462:	90 93 c3 0a 	sts	0x0AC3, r25	; 0x800ac3 <__TEXT_REGION_LENGTH__+0x700ac3>
    7466:	90 91 c2 0a 	lds	r25, 0x0AC2	; 0x800ac2 <__TEXT_REGION_LENGTH__+0x700ac2>
    746a:	97 ff       	sbrs	r25, 7
    746c:	fc cf       	rjmp	.-8      	; 0x7466 <DS_disk_write.part.6+0x294>
    746e:	90 e8       	ldi	r25, 0x80	; 128
    7470:	90 93 c2 0a 	sts	0x0AC2, r25	; 0x800ac2 <__TEXT_REGION_LENGTH__+0x700ac2>
    7474:	90 91 c3 0a 	lds	r25, 0x0AC3	; 0x800ac3 <__TEXT_REGION_LENGTH__+0x700ac3>
    7478:	9f ef       	ldi	r25, 0xFF	; 255
    747a:	90 93 c3 0a 	sts	0x0AC3, r25	; 0x800ac3 <__TEXT_REGION_LENGTH__+0x700ac3>
    747e:	90 91 c2 0a 	lds	r25, 0x0AC2	; 0x800ac2 <__TEXT_REGION_LENGTH__+0x700ac2>
    7482:	97 ff       	sbrs	r25, 7
    7484:	fc cf       	rjmp	.-8      	; 0x747e <DS_disk_write.part.6+0x2ac>
    7486:	90 e8       	ldi	r25, 0x80	; 128
    7488:	90 93 c2 0a 	sts	0x0AC2, r25	; 0x800ac2 <__TEXT_REGION_LENGTH__+0x700ac2>
    748c:	90 91 c3 0a 	lds	r25, 0x0AC3	; 0x800ac3 <__TEXT_REGION_LENGTH__+0x700ac3>
    7490:	9f 71       	andi	r25, 0x1F	; 31
    7492:	95 30       	cpi	r25, 0x05	; 5
    7494:	09 f4       	brne	.+2      	; 0x7498 <DS_disk_write.part.6+0x2c6>
    7496:	69 cf       	rjmp	.-302    	; 0x736a <DS_disk_write.part.6+0x198>
    7498:	81 e0       	ldi	r24, 0x01	; 1
    749a:	67 cf       	rjmp	.-306    	; 0x736a <DS_disk_write.part.6+0x198>

0000749c <SD_CardInitV2>:
    749c:	ef 92       	push	r14
    749e:	ff 92       	push	r15
    74a0:	0f 93       	push	r16
    74a2:	1f 93       	push	r17
    74a4:	cf 93       	push	r28
    74a6:	24 e0       	ldi	r18, 0x04	; 4
    74a8:	80 e0       	ldi	r24, 0x00	; 0
    74aa:	90 e0       	ldi	r25, 0x00	; 0
    74ac:	dc 01       	movw	r26, r24
    74ae:	ef ef       	ldi	r30, 0xFF	; 255
    74b0:	30 e8       	ldi	r19, 0x80	; 128
    74b2:	44 27       	eor	r20, r20
    74b4:	58 2f       	mov	r21, r24
    74b6:	69 2f       	mov	r22, r25
    74b8:	7a 2f       	mov	r23, r26
    74ba:	e0 93 c3 0a 	sts	0x0AC3, r30	; 0x800ac3 <__TEXT_REGION_LENGTH__+0x700ac3>
    74be:	80 91 c2 0a 	lds	r24, 0x0AC2	; 0x800ac2 <__TEXT_REGION_LENGTH__+0x700ac2>
    74c2:	87 ff       	sbrs	r24, 7
    74c4:	fc cf       	rjmp	.-8      	; 0x74be <SD_CardInitV2+0x22>
    74c6:	30 93 c2 0a 	sts	0x0AC2, r19	; 0x800ac2 <__TEXT_REGION_LENGTH__+0x700ac2>
    74ca:	80 91 c3 0a 	lds	r24, 0x0AC3	; 0x800ac3 <__TEXT_REGION_LENGTH__+0x700ac3>
    74ce:	7a 01       	movw	r14, r20
    74d0:	8b 01       	movw	r16, r22
    74d2:	e8 2a       	or	r14, r24
    74d4:	d8 01       	movw	r26, r16
    74d6:	c7 01       	movw	r24, r14
    74d8:	21 50       	subi	r18, 0x01	; 1
    74da:	59 f7       	brne	.-42     	; 0x74b2 <SD_CardInitV2+0x16>
    74dc:	8a 3a       	cpi	r24, 0xAA	; 170
    74de:	91 40       	sbci	r25, 0x01	; 1
    74e0:	a1 05       	cpc	r26, r1
    74e2:	b1 05       	cpc	r27, r1
    74e4:	39 f0       	breq	.+14     	; 0x74f4 <SD_CardInitV2+0x58>
    74e6:	80 e0       	ldi	r24, 0x00	; 0
    74e8:	cf 91       	pop	r28
    74ea:	1f 91       	pop	r17
    74ec:	0f 91       	pop	r16
    74ee:	ff 90       	pop	r15
    74f0:	ef 90       	pop	r14
    74f2:	08 95       	ret
    74f4:	cf ef       	ldi	r28, 0xFF	; 255
    74f6:	0b c0       	rjmp	.+22     	; 0x750e <SD_CardInitV2+0x72>
    74f8:	1f ef       	ldi	r17, 0xFF	; 255
    74fa:	27 ee       	ldi	r18, 0xE7	; 231
    74fc:	83 e0       	ldi	r24, 0x03	; 3
    74fe:	11 50       	subi	r17, 0x01	; 1
    7500:	20 40       	sbci	r18, 0x00	; 0
    7502:	80 40       	sbci	r24, 0x00	; 0
    7504:	e1 f7       	brne	.-8      	; 0x74fe <SD_CardInitV2+0x62>
    7506:	00 c0       	rjmp	.+0      	; 0x7508 <SD_CardInitV2+0x6c>
    7508:	00 00       	nop
    750a:	c1 50       	subi	r28, 0x01	; 1
    750c:	61 f3       	breq	.-40     	; 0x74e6 <SD_CardInitV2+0x4a>
    750e:	40 e0       	ldi	r20, 0x00	; 0
    7510:	50 e0       	ldi	r21, 0x00	; 0
    7512:	60 e0       	ldi	r22, 0x00	; 0
    7514:	70 e4       	ldi	r23, 0x40	; 64
    7516:	89 ea       	ldi	r24, 0xA9	; 169
    7518:	93 dc       	rcall	.-1754   	; 0x6e40 <SD_SendCMD>
    751a:	81 11       	cpse	r24, r1
    751c:	ed cf       	rjmp	.-38     	; 0x74f8 <SD_CardInitV2+0x5c>
    751e:	40 e0       	ldi	r20, 0x00	; 0
    7520:	50 e0       	ldi	r21, 0x00	; 0
    7522:	ba 01       	movw	r22, r20
    7524:	8a e3       	ldi	r24, 0x3A	; 58
    7526:	8c dc       	rcall	.-1768   	; 0x6e40 <SD_SendCMD>
    7528:	81 11       	cpse	r24, r1
    752a:	24 c0       	rjmp	.+72     	; 0x7574 <SD_CardInitV2+0xd8>
    752c:	10 92 1f 2b 	sts	0x2B1F, r1	; 0x802b1f <SD_Status>
    7530:	24 e0       	ldi	r18, 0x04	; 4
    7532:	80 e0       	ldi	r24, 0x00	; 0
    7534:	90 e0       	ldi	r25, 0x00	; 0
    7536:	dc 01       	movw	r26, r24
    7538:	ef ef       	ldi	r30, 0xFF	; 255
    753a:	30 e8       	ldi	r19, 0x80	; 128
    753c:	44 27       	eor	r20, r20
    753e:	58 2f       	mov	r21, r24
    7540:	69 2f       	mov	r22, r25
    7542:	7a 2f       	mov	r23, r26
    7544:	e0 93 c3 0a 	sts	0x0AC3, r30	; 0x800ac3 <__TEXT_REGION_LENGTH__+0x700ac3>
    7548:	80 91 c2 0a 	lds	r24, 0x0AC2	; 0x800ac2 <__TEXT_REGION_LENGTH__+0x700ac2>
    754c:	87 ff       	sbrs	r24, 7
    754e:	fc cf       	rjmp	.-8      	; 0x7548 <SD_CardInitV2+0xac>
    7550:	30 93 c2 0a 	sts	0x0AC2, r19	; 0x800ac2 <__TEXT_REGION_LENGTH__+0x700ac2>
    7554:	80 91 c3 0a 	lds	r24, 0x0AC3	; 0x800ac3 <__TEXT_REGION_LENGTH__+0x700ac3>
    7558:	7a 01       	movw	r14, r20
    755a:	8b 01       	movw	r16, r22
    755c:	e8 2a       	or	r14, r24
    755e:	d8 01       	movw	r26, r16
    7560:	c7 01       	movw	r24, r14
    7562:	21 50       	subi	r18, 0x01	; 1
    7564:	59 f7       	brne	.-42     	; 0x753c <SD_CardInitV2+0xa0>
    7566:	b6 fd       	sbrc	r27, 6
    7568:	0c c0       	rjmp	.+24     	; 0x7582 <SD_CardInitV2+0xe6>
    756a:	82 e0       	ldi	r24, 0x02	; 2
    756c:	80 93 20 2b 	sts	0x2B20, r24	; 0x802b20 <SD_Type>
    7570:	81 e0       	ldi	r24, 0x01	; 1
    7572:	ba cf       	rjmp	.-140    	; 0x74e8 <SD_CardInitV2+0x4c>
    7574:	81 e0       	ldi	r24, 0x01	; 1
    7576:	cf 91       	pop	r28
    7578:	1f 91       	pop	r17
    757a:	0f 91       	pop	r16
    757c:	ff 90       	pop	r15
    757e:	ef 90       	pop	r14
    7580:	08 95       	ret
    7582:	84 e0       	ldi	r24, 0x04	; 4
    7584:	80 93 20 2b 	sts	0x2B20, r24	; 0x802b20 <SD_Type>
    7588:	81 e0       	ldi	r24, 0x01	; 1
    758a:	ae cf       	rjmp	.-164    	; 0x74e8 <SD_CardInitV2+0x4c>

0000758c <SD_CardInit>:
    758c:	cf 93       	push	r28
    758e:	80 91 c0 0a 	lds	r24, 0x0AC0	; 0x800ac0 <__TEXT_REGION_LENGTH__+0x700ac0>
    7592:	8c 77       	andi	r24, 0x7C	; 124
    7594:	82 60       	ori	r24, 0x02	; 2
    7596:	80 93 c0 0a 	sts	0x0AC0, r24	; 0x800ac0 <__TEXT_REGION_LENGTH__+0x700ac0>
    759a:	88 e0       	ldi	r24, 0x08	; 8
    759c:	80 93 85 06 	sts	0x0685, r24	; 0x800685 <__TEXT_REGION_LENGTH__+0x700685>
    75a0:	8f ef       	ldi	r24, 0xFF	; 255
    75a2:	80 93 c3 0a 	sts	0x0AC3, r24	; 0x800ac3 <__TEXT_REGION_LENGTH__+0x700ac3>
    75a6:	80 91 c2 0a 	lds	r24, 0x0AC2	; 0x800ac2 <__TEXT_REGION_LENGTH__+0x700ac2>
    75aa:	87 ff       	sbrs	r24, 7
    75ac:	fc cf       	rjmp	.-8      	; 0x75a6 <SD_CardInit+0x1a>
    75ae:	80 e8       	ldi	r24, 0x80	; 128
    75b0:	80 93 c2 0a 	sts	0x0AC2, r24	; 0x800ac2 <__TEXT_REGION_LENGTH__+0x700ac2>
    75b4:	80 91 c3 0a 	lds	r24, 0x0AC3	; 0x800ac3 <__TEXT_REGION_LENGTH__+0x700ac3>
    75b8:	9a e0       	ldi	r25, 0x0A	; 10
    75ba:	3f ef       	ldi	r19, 0xFF	; 255
    75bc:	20 e8       	ldi	r18, 0x80	; 128
    75be:	30 93 c3 0a 	sts	0x0AC3, r19	; 0x800ac3 <__TEXT_REGION_LENGTH__+0x700ac3>
    75c2:	80 91 c2 0a 	lds	r24, 0x0AC2	; 0x800ac2 <__TEXT_REGION_LENGTH__+0x700ac2>
    75c6:	87 ff       	sbrs	r24, 7
    75c8:	fc cf       	rjmp	.-8      	; 0x75c2 <SD_CardInit+0x36>
    75ca:	20 93 c2 0a 	sts	0x0AC2, r18	; 0x800ac2 <__TEXT_REGION_LENGTH__+0x700ac2>
    75ce:	80 91 c3 0a 	lds	r24, 0x0AC3	; 0x800ac3 <__TEXT_REGION_LENGTH__+0x700ac3>
    75d2:	91 50       	subi	r25, 0x01	; 1
    75d4:	a1 f7       	brne	.-24     	; 0x75be <SD_CardInit+0x32>
    75d6:	ca e0       	ldi	r28, 0x0A	; 10
    75d8:	40 e0       	ldi	r20, 0x00	; 0
    75da:	50 e0       	ldi	r21, 0x00	; 0
    75dc:	ba 01       	movw	r22, r20
    75de:	80 e0       	ldi	r24, 0x00	; 0
    75e0:	2f dc       	rcall	.-1954   	; 0x6e40 <SD_SendCMD>
    75e2:	81 30       	cpi	r24, 0x01	; 1
    75e4:	41 f0       	breq	.+16     	; 0x75f6 <SD_CardInit+0x6a>
    75e6:	c1 50       	subi	r28, 0x01	; 1
    75e8:	b9 f7       	brne	.-18     	; 0x75d8 <SD_CardInit+0x4c>
    75ea:	82 e0       	ldi	r24, 0x02	; 2
    75ec:	80 93 1f 2b 	sts	0x2B1F, r24	; 0x802b1f <SD_Status>
    75f0:	80 e0       	ldi	r24, 0x00	; 0
    75f2:	cf 91       	pop	r28
    75f4:	08 95       	ret
    75f6:	cc 23       	and	r28, r28
    75f8:	c1 f3       	breq	.-16     	; 0x75ea <SD_CardInit+0x5e>
    75fa:	ca e0       	ldi	r28, 0x0A	; 10
    75fc:	4a ea       	ldi	r20, 0xAA	; 170
    75fe:	51 e0       	ldi	r21, 0x01	; 1
    7600:	60 e0       	ldi	r22, 0x00	; 0
    7602:	70 e0       	ldi	r23, 0x00	; 0
    7604:	88 e0       	ldi	r24, 0x08	; 8
    7606:	1c dc       	rcall	.-1992   	; 0x6e40 <SD_SendCMD>
    7608:	98 2f       	mov	r25, r24
    760a:	90 7c       	andi	r25, 0xC0	; 192
    760c:	89 f0       	breq	.+34     	; 0x7630 <SD_CardInit+0xa4>
    760e:	c1 50       	subi	r28, 0x01	; 1
    7610:	a9 f7       	brne	.-22     	; 0x75fc <SD_CardInit+0x70>
    7612:	44 df       	rcall	.-376    	; 0x749c <SD_CardInitV2>
    7614:	81 11       	cpse	r24, r1
    7616:	04 c0       	rjmp	.+8      	; 0x7620 <SD_CardInit+0x94>
    7618:	82 e0       	ldi	r24, 0x02	; 2
    761a:	80 93 1f 2b 	sts	0x2B1F, r24	; 0x802b1f <SD_Status>
    761e:	80 e0       	ldi	r24, 0x00	; 0
    7620:	90 91 c0 0a 	lds	r25, 0x0AC0	; 0x800ac0 <__TEXT_REGION_LENGTH__+0x700ac0>
    7624:	9c 77       	andi	r25, 0x7C	; 124
    7626:	90 68       	ori	r25, 0x80	; 128
    7628:	90 93 c0 0a 	sts	0x0AC0, r25	; 0x800ac0 <__TEXT_REGION_LENGTH__+0x700ac0>
    762c:	cf 91       	pop	r28
    762e:	08 95       	ret
    7630:	85 30       	cpi	r24, 0x05	; 5
    7632:	79 f7       	brne	.-34     	; 0x7612 <SD_CardInit+0x86>
    7634:	cf ef       	ldi	r28, 0xFF	; 255
    7636:	0b c0       	rjmp	.+22     	; 0x764e <SD_CardInit+0xc2>
    7638:	2f ef       	ldi	r18, 0xFF	; 255
    763a:	89 ef       	ldi	r24, 0xF9	; 249
    763c:	90 e0       	ldi	r25, 0x00	; 0
    763e:	21 50       	subi	r18, 0x01	; 1
    7640:	80 40       	sbci	r24, 0x00	; 0
    7642:	90 40       	sbci	r25, 0x00	; 0
    7644:	e1 f7       	brne	.-8      	; 0x763e <SD_CardInit+0xb2>
    7646:	00 c0       	rjmp	.+0      	; 0x7648 <SD_CardInit+0xbc>
    7648:	00 00       	nop
    764a:	c1 50       	subi	r28, 0x01	; 1
    764c:	29 f3       	breq	.-54     	; 0x7618 <SD_CardInit+0x8c>
    764e:	40 e0       	ldi	r20, 0x00	; 0
    7650:	50 e0       	ldi	r21, 0x00	; 0
    7652:	ba 01       	movw	r22, r20
    7654:	89 ea       	ldi	r24, 0xA9	; 169
    7656:	f4 db       	rcall	.-2072   	; 0x6e40 <SD_SendCMD>
    7658:	81 11       	cpse	r24, r1
    765a:	ee cf       	rjmp	.-36     	; 0x7638 <SD_CardInit+0xac>
    765c:	94 e0       	ldi	r25, 0x04	; 4
    765e:	3f ef       	ldi	r19, 0xFF	; 255
    7660:	20 e8       	ldi	r18, 0x80	; 128
    7662:	30 93 c3 0a 	sts	0x0AC3, r19	; 0x800ac3 <__TEXT_REGION_LENGTH__+0x700ac3>
    7666:	80 91 c2 0a 	lds	r24, 0x0AC2	; 0x800ac2 <__TEXT_REGION_LENGTH__+0x700ac2>
    766a:	87 ff       	sbrs	r24, 7
    766c:	fc cf       	rjmp	.-8      	; 0x7666 <SD_CardInit+0xda>
    766e:	20 93 c2 0a 	sts	0x0AC2, r18	; 0x800ac2 <__TEXT_REGION_LENGTH__+0x700ac2>
    7672:	80 91 c3 0a 	lds	r24, 0x0AC3	; 0x800ac3 <__TEXT_REGION_LENGTH__+0x700ac3>
    7676:	91 50       	subi	r25, 0x01	; 1
    7678:	a1 f7       	brne	.-24     	; 0x7662 <SD_CardInit+0xd6>
    767a:	40 e0       	ldi	r20, 0x00	; 0
    767c:	52 e0       	ldi	r21, 0x02	; 2
    767e:	60 e0       	ldi	r22, 0x00	; 0
    7680:	70 e0       	ldi	r23, 0x00	; 0
    7682:	80 e1       	ldi	r24, 0x10	; 16
    7684:	dd db       	rcall	.-2118   	; 0x6e40 <SD_SendCMD>
    7686:	10 92 1f 2b 	sts	0x2B1F, r1	; 0x802b1f <SD_Status>
    768a:	82 e0       	ldi	r24, 0x02	; 2
    768c:	80 93 20 2b 	sts	0x2B20, r24	; 0x802b20 <SD_Type>
    7690:	81 e0       	ldi	r24, 0x01	; 1
    7692:	c6 cf       	rjmp	.-116    	; 0x7620 <SD_CardInit+0x94>

00007694 <disk_initialize>:
    7694:	88 23       	and	r24, r24
    7696:	11 f0       	breq	.+4      	; 0x769c <disk_initialize+0x8>
    7698:	81 e0       	ldi	r24, 0x01	; 1
    769a:	08 95       	ret
    769c:	77 df       	rcall	.-274    	; 0x758c <SD_CardInit>
    769e:	80 91 1f 2b 	lds	r24, 0x2B1F	; 0x802b1f <SD_Status>
    76a2:	08 95       	ret

000076a4 <disk_status>:
    76a4:	81 11       	cpse	r24, r1
    76a6:	03 c0       	rjmp	.+6      	; 0x76ae <disk_status+0xa>
    76a8:	80 91 1f 2b 	lds	r24, 0x2B1F	; 0x802b1f <SD_Status>
    76ac:	08 95       	ret
    76ae:	81 e0       	ldi	r24, 0x01	; 1
    76b0:	08 95       	ret

000076b2 <disk_read>:
    76b2:	0f 93       	push	r16
    76b4:	fb 01       	movw	r30, r22
    76b6:	ba 01       	movw	r22, r20
    76b8:	a9 01       	movw	r20, r18
    76ba:	81 11       	cpse	r24, r1
    76bc:	07 c0       	rjmp	.+14     	; 0x76cc <disk_read+0x1a>
    76be:	90 91 1f 2b 	lds	r25, 0x2B1F	; 0x802b1f <SD_Status>
    76c2:	99 23       	and	r25, r25
    76c4:	31 f0       	breq	.+12     	; 0x76d2 <disk_read+0x20>
    76c6:	83 e0       	ldi	r24, 0x03	; 3
    76c8:	0f 91       	pop	r16
    76ca:	08 95       	ret
    76cc:	81 e0       	ldi	r24, 0x01	; 1
    76ce:	0f 91       	pop	r16
    76d0:	08 95       	ret
    76d2:	20 2f       	mov	r18, r16
    76d4:	cf 01       	movw	r24, r30
    76d6:	0f 91       	pop	r16
    76d8:	a3 cc       	rjmp	.-1722   	; 0x7020 <SD_disk_read.part.5>

000076da <disk_write>:
    76da:	0f 93       	push	r16
    76dc:	fb 01       	movw	r30, r22
    76de:	ba 01       	movw	r22, r20
    76e0:	a9 01       	movw	r20, r18
    76e2:	81 11       	cpse	r24, r1
    76e4:	07 c0       	rjmp	.+14     	; 0x76f4 <disk_write+0x1a>
    76e6:	90 91 1f 2b 	lds	r25, 0x2B1F	; 0x802b1f <SD_Status>
    76ea:	99 23       	and	r25, r25
    76ec:	31 f0       	breq	.+12     	; 0x76fa <disk_write+0x20>
    76ee:	83 e0       	ldi	r24, 0x03	; 3
    76f0:	0f 91       	pop	r16
    76f2:	08 95       	ret
    76f4:	81 e0       	ldi	r24, 0x01	; 1
    76f6:	0f 91       	pop	r16
    76f8:	08 95       	ret
    76fa:	20 2f       	mov	r18, r16
    76fc:	cf 01       	movw	r24, r30
    76fe:	0f 91       	pop	r16
    7700:	68 cd       	rjmp	.-1328   	; 0x71d2 <DS_disk_write.part.6>

00007702 <disk_ioctl>:
}

DRESULT disk_ioctl (
    BYTE pdrv,		/* Physical drive nmuber (0..) */
    BYTE cmd,		/* Control code */
    void *buff) {	/* Buffer to send/receive control data */
    7702:	8f 92       	push	r8
    7704:	9f 92       	push	r9
    7706:	af 92       	push	r10
    7708:	bf 92       	push	r11
    770a:	cf 92       	push	r12
    770c:	df 92       	push	r13
    770e:	ef 92       	push	r14
    7710:	ff 92       	push	r15
    7712:	0f 93       	push	r16
    7714:	1f 93       	push	r17
    7716:	cf 93       	push	r28
    7718:	df 93       	push	r29
    771a:	cd b7       	in	r28, 0x3d	; 61
    771c:	de b7       	in	r29, 0x3e	; 62
    771e:	68 97       	sbiw	r28, 0x18	; 24
    7720:	cd bf       	out	0x3d, r28	; 61
    7722:	de bf       	out	0x3e, r29	; 62
    if(SD_Status != 0) return RES_NOTRDY;    //Pami niezainicjowana
    7724:	80 91 1f 2b 	lds	r24, 0x2B1F	; 0x802b1f <SD_Status>
    7728:	88 23       	and	r24, r24
    772a:	89 f0       	breq	.+34     	; 0x774e <disk_ioctl+0x4c>
    772c:	83 e0       	ldi	r24, 0x03	; 3
        break;
    default:
        res = RES_PARERR;            //Nieznane polecenie
    }
    return res;
}
    772e:	68 96       	adiw	r28, 0x18	; 24
    7730:	cd bf       	out	0x3d, r28	; 61
    7732:	de bf       	out	0x3e, r29	; 62
    7734:	df 91       	pop	r29
    7736:	cf 91       	pop	r28
    7738:	1f 91       	pop	r17
    773a:	0f 91       	pop	r16
    773c:	ff 90       	pop	r15
    773e:	ef 90       	pop	r14
    7740:	df 90       	pop	r13
    7742:	cf 90       	pop	r12
    7744:	bf 90       	pop	r11
    7746:	af 90       	pop	r10
    7748:	9f 90       	pop	r9
    774a:	8f 90       	pop	r8
    774c:	08 95       	ret
    BYTE pdrv,		/* Physical drive nmuber (0..) */
    BYTE cmd,		/* Control code */
    void *buff) {	/* Buffer to send/receive control data */
    if(SD_Status != 0) return RES_NOTRDY;    //Pami niezainicjowana
    DRESULT res = RES_OK;
    switch(cmd) {
    774e:	61 30       	cpi	r22, 0x01	; 1
    7750:	59 f0       	breq	.+22     	; 0x7768 <disk_ioctl+0x66>
    7752:	40 f0       	brcs	.+16     	; 0x7764 <disk_ioctl+0x62>
    7754:	62 30       	cpi	r22, 0x02	; 2
    7756:	09 f4       	brne	.+2      	; 0x775a <disk_ioctl+0x58>
    7758:	8e c0       	rjmp	.+284    	; 0x7876 <disk_ioctl+0x174>
    775a:	63 30       	cpi	r22, 0x03	; 3
    775c:	09 f4       	brne	.+2      	; 0x7760 <disk_ioctl+0x5e>
    775e:	80 c0       	rjmp	.+256    	; 0x7860 <disk_ioctl+0x15e>
        *((DWORD*)buff) = 1;         //Ile mona na raz skasowa sektorw
        break;
    case CTRL_SYNC:
        break;
    default:
        res = RES_PARERR;            //Nieznane polecenie
    7760:	84 e0       	ldi	r24, 0x04	; 4
    7762:	e5 cf       	rjmp	.-54     	; 0x772e <disk_ioctl+0x2c>
DRESULT disk_ioctl (
    BYTE pdrv,		/* Physical drive nmuber (0..) */
    BYTE cmd,		/* Control code */
    void *buff) {	/* Buffer to send/receive control data */
    if(SD_Status != 0) return RES_NOTRDY;    //Pami niezainicjowana
    DRESULT res = RES_OK;
    7764:	80 e0       	ldi	r24, 0x00	; 0
    7766:	e3 cf       	rjmp	.-58     	; 0x772e <disk_ioctl+0x2c>
    7768:	4a 01       	movw	r8, r20
        *((DWORD*)buff) = 512;       //Dugo sektora 512 bajtw
        break;
    case GET_SECTOR_COUNT: {
        char buf[16];
        SD_CSDRegv1 *csd = (SD_CSDRegv1*)buf;
        uint8_t r1 = SD_SendCMD(CMD9, 0); //Odczytaj CSD
    776a:	40 e0       	ldi	r20, 0x00	; 0
    776c:	50 e0       	ldi	r21, 0x00	; 0
    776e:	ba 01       	movw	r22, r20
    7770:	89 e0       	ldi	r24, 0x09	; 9
    7772:	66 db       	rcall	.-2356   	; 0x6e40 <SD_SendCMD>
        if(r1 == 0) {
    7774:	81 11       	cpse	r24, r1
    7776:	da cf       	rjmp	.-76     	; 0x772c <disk_ioctl+0x2a>
    7778:	9a e0       	ldi	r25, 0x0A	; 10
void SPI_SetMaxBaudrate() {
    SD_SPI.CTRL = (SD_SPI.CTRL & (~SPI_PRESCALER_gm)) | SPI_PRESCALER_DIV4_gc | SPI_CLK2X_bm;
}

uint8_t SPI_RW_Byte(uint8_t byte) {
    SD_SPI.DATA = byte;
    777a:	3f ef       	ldi	r19, 0xFF	; 255
    while(!(SD_SPI.STATUS & SPI_IF_bm));
    SD_SPI.STATUS = SPI_IF_bm;
    777c:	20 e8       	ldi	r18, 0x80	; 128
void SPI_SetMaxBaudrate() {
    SD_SPI.CTRL = (SD_SPI.CTRL & (~SPI_PRESCALER_gm)) | SPI_PRESCALER_DIV4_gc | SPI_CLK2X_bm;
}

uint8_t SPI_RW_Byte(uint8_t byte) {
    SD_SPI.DATA = byte;
    777e:	30 93 c3 0a 	sts	0x0AC3, r19	; 0x800ac3 <__TEXT_REGION_LENGTH__+0x700ac3>
    while(!(SD_SPI.STATUS & SPI_IF_bm));
    7782:	80 91 c2 0a 	lds	r24, 0x0AC2	; 0x800ac2 <__TEXT_REGION_LENGTH__+0x700ac2>
    7786:	87 ff       	sbrs	r24, 7
    7788:	fc cf       	rjmp	.-8      	; 0x7782 <disk_ioctl+0x80>
    SD_SPI.STATUS = SPI_IF_bm;
    778a:	20 93 c2 0a 	sts	0x0AC2, r18	; 0x800ac2 <__TEXT_REGION_LENGTH__+0x700ac2>
    return SD_SPI.DATA;
    778e:	80 91 c3 0a 	lds	r24, 0x0AC3	; 0x800ac3 <__TEXT_REGION_LENGTH__+0x700ac3>
    return DS_disk_write(buff, sector, count);
}

_Bool SD_GetResponse(void *buf, uint8_t size) {
    uint8_t i = 10;
    while((SPI_RW_Byte(0xff) != 0xfe) && (--i));
    7792:	8e 3f       	cpi	r24, 0xFE	; 254
    7794:	09 f4       	brne	.+2      	; 0x7798 <disk_ioctl+0x96>
    7796:	8c c0       	rjmp	.+280    	; 0x78b0 <disk_ioctl+0x1ae>
    7798:	91 50       	subi	r25, 0x01	; 1
    779a:	89 f7       	brne	.-30     	; 0x777e <disk_ioctl+0x7c>
        SD_CSDRegv1 *csd = (SD_CSDRegv1*)buf;
        uint8_t r1 = SD_SendCMD(CMD9, 0); //Odczytaj CSD
        if(r1 == 0) {
            SD_GetResponse(csd->Reg, 16);
            uint64_t size;  //Rozmiar karty
            if(csd->CSD_Struct == 0)
    779c:	88 89       	ldd	r24, Y+16	; 0x10
    779e:	80 7c       	andi	r24, 0xC0	; 192
    77a0:	09 f0       	breq	.+2      	; 0x77a4 <disk_ioctl+0xa2>
    77a2:	74 c0       	rjmp	.+232    	; 0x788c <disk_ioctl+0x18a>
                size = (csd->C_Size + 1) * (1ULL << csd->Read_Bl_Len) * (1UL << (csd->C_Size_mult + 2));
    77a4:	8e 81       	ldd	r24, Y+6	; 0x06
    77a6:	98 2f       	mov	r25, r24
    77a8:	99 1f       	adc	r25, r25
    77aa:	99 27       	eor	r25, r25
    77ac:	99 1f       	adc	r25, r25
    77ae:	8f 81       	ldd	r24, Y+7	; 0x07
    77b0:	83 70       	andi	r24, 0x03	; 3
    77b2:	88 0f       	add	r24, r24
    77b4:	89 2b       	or	r24, r25
    77b6:	8e 5f       	subi	r24, 0xFE	; 254
    77b8:	41 e0       	ldi	r20, 0x01	; 1
    77ba:	50 e0       	ldi	r21, 0x00	; 0
    77bc:	60 e0       	ldi	r22, 0x00	; 0
    77be:	70 e0       	ldi	r23, 0x00	; 0
    77c0:	8a 01       	movw	r16, r20
    77c2:	9b 01       	movw	r18, r22
    77c4:	04 c0       	rjmp	.+8      	; 0x77ce <disk_ioctl+0xcc>
    77c6:	00 0f       	add	r16, r16
    77c8:	11 1f       	adc	r17, r17
    77ca:	22 1f       	adc	r18, r18
    77cc:	33 1f       	adc	r19, r19
    77ce:	8a 95       	dec	r24
    77d0:	d2 f7       	brpl	.-12     	; 0x77c6 <disk_ioctl+0xc4>
    77d2:	40 e0       	ldi	r20, 0x00	; 0
    77d4:	50 e0       	ldi	r21, 0x00	; 0
    77d6:	ba 01       	movw	r22, r20
    77d8:	09 8b       	std	Y+17, r16	; 0x11
    77da:	1a 8b       	std	Y+18, r17	; 0x12
    77dc:	2b 8b       	std	Y+19, r18	; 0x13
    77de:	3c 8b       	std	Y+20, r19	; 0x14
    77e0:	4d 8b       	std	Y+21, r20	; 0x15
    77e2:	5e 8b       	std	Y+22, r21	; 0x16
    77e4:	6f 8b       	std	Y+23, r22	; 0x17
    77e6:	78 8f       	std	Y+24, r23	; 0x18
    77e8:	98 85       	ldd	r25, Y+8	; 0x08
    77ea:	92 95       	swap	r25
    77ec:	96 95       	lsr	r25
    77ee:	96 95       	lsr	r25
    77f0:	93 70       	andi	r25, 0x03	; 3
    77f2:	89 85       	ldd	r24, Y+9	; 0x09
    77f4:	28 2f       	mov	r18, r24
    77f6:	22 0f       	add	r18, r18
    77f8:	22 0f       	add	r18, r18
    77fa:	e2 2f       	mov	r30, r18
    77fc:	e9 2b       	or	r30, r25
    77fe:	98 2f       	mov	r25, r24
    7800:	92 95       	swap	r25
    7802:	96 95       	lsr	r25
    7804:	96 95       	lsr	r25
    7806:	93 70       	andi	r25, 0x03	; 3
    7808:	8a 85       	ldd	r24, Y+10	; 0x0a
    780a:	83 70       	andi	r24, 0x03	; 3
    780c:	88 0f       	add	r24, r24
    780e:	88 0f       	add	r24, r24
    7810:	f8 2f       	mov	r31, r24
    7812:	f9 2b       	or	r31, r25
    7814:	31 96       	adiw	r30, 0x01	; 1
    7816:	9f 2f       	mov	r25, r31
    7818:	99 0f       	add	r25, r25
    781a:	99 0b       	sbc	r25, r25
    781c:	0b 85       	ldd	r16, Y+11	; 0x0b
    781e:	0f 70       	andi	r16, 0x0F	; 15
    7820:	9f 01       	movw	r18, r30
    7822:	49 2f       	mov	r20, r25
    7824:	59 2f       	mov	r21, r25
    7826:	69 2f       	mov	r22, r25
    7828:	79 2f       	mov	r23, r25
    782a:	89 2f       	mov	r24, r25
    782c:	0e 94 9f 44 	call	0x893e	; 0x893e <__ashldi3>
    7830:	59 01       	movw	r10, r18
    7832:	6a 01       	movw	r12, r20
    7834:	7b 01       	movw	r14, r22
    7836:	8c 01       	movw	r16, r24
    7838:	29 89       	ldd	r18, Y+17	; 0x11
    783a:	3a 89       	ldd	r19, Y+18	; 0x12
    783c:	4b 89       	ldd	r20, Y+19	; 0x13
    783e:	5c 89       	ldd	r21, Y+20	; 0x14
    7840:	60 e0       	ldi	r22, 0x00	; 0
    7842:	70 e0       	ldi	r23, 0x00	; 0
    7844:	80 e0       	ldi	r24, 0x00	; 0
    7846:	90 e0       	ldi	r25, 0x00	; 0
    7848:	0e 94 27 44 	call	0x884e	; 0x884e <__muldi3>
            else {
                size = (((SD_CSDRegv2*)csd)->C_Size + 1) * 524288ULL; //C_Size zawiera liczb blokw po 512 kB
            }
            *((DWORD*)buff) = size / 512;  //Zwracami liczb 512-bajtowych sektorw
    784c:	09 e0       	ldi	r16, 0x09	; 9
    784e:	0e 94 ba 44 	call	0x8974	; 0x8974 <__lshrdi3>
    7852:	f4 01       	movw	r30, r8
    7854:	20 83       	st	Z, r18
    7856:	31 83       	std	Z+1, r19	; 0x01
    7858:	42 83       	std	Z+2, r20	; 0x02
    785a:	53 83       	std	Z+3, r21	; 0x03
DRESULT disk_ioctl (
    BYTE pdrv,		/* Physical drive nmuber (0..) */
    BYTE cmd,		/* Control code */
    void *buff) {	/* Buffer to send/receive control data */
    if(SD_Status != 0) return RES_NOTRDY;    //Pami niezainicjowana
    DRESULT res = RES_OK;
    785c:	80 e0       	ldi	r24, 0x00	; 0
    785e:	67 cf       	rjmp	.-306    	; 0x772e <disk_ioctl+0x2c>
            *((DWORD*)buff) = size / 512;  //Zwracami liczb 512-bajtowych sektorw
        } else res = RES_NOTRDY;
    }
    break;
    case GET_BLOCK_SIZE:
        *((DWORD*)buff) = 1;         //Ile mona na raz skasowa sektorw
    7860:	81 e0       	ldi	r24, 0x01	; 1
    7862:	90 e0       	ldi	r25, 0x00	; 0
    7864:	a0 e0       	ldi	r26, 0x00	; 0
    7866:	b0 e0       	ldi	r27, 0x00	; 0
    7868:	fa 01       	movw	r30, r20
    786a:	80 83       	st	Z, r24
    786c:	91 83       	std	Z+1, r25	; 0x01
    786e:	a2 83       	std	Z+2, r26	; 0x02
    7870:	b3 83       	std	Z+3, r27	; 0x03
DRESULT disk_ioctl (
    BYTE pdrv,		/* Physical drive nmuber (0..) */
    BYTE cmd,		/* Control code */
    void *buff) {	/* Buffer to send/receive control data */
    if(SD_Status != 0) return RES_NOTRDY;    //Pami niezainicjowana
    DRESULT res = RES_OK;
    7872:	80 e0       	ldi	r24, 0x00	; 0
        } else res = RES_NOTRDY;
    }
    break;
    case GET_BLOCK_SIZE:
        *((DWORD*)buff) = 1;         //Ile mona na raz skasowa sektorw
        break;
    7874:	5c cf       	rjmp	.-328    	; 0x772e <disk_ioctl+0x2c>
    void *buff) {	/* Buffer to send/receive control data */
    if(SD_Status != 0) return RES_NOTRDY;    //Pami niezainicjowana
    DRESULT res = RES_OK;
    switch(cmd) {
    case GET_SECTOR_SIZE:
        *((DWORD*)buff) = 512;       //Dugo sektora 512 bajtw
    7876:	80 e0       	ldi	r24, 0x00	; 0
    7878:	92 e0       	ldi	r25, 0x02	; 2
    787a:	a0 e0       	ldi	r26, 0x00	; 0
    787c:	b0 e0       	ldi	r27, 0x00	; 0
    787e:	fa 01       	movw	r30, r20
    7880:	80 83       	st	Z, r24
    7882:	91 83       	std	Z+1, r25	; 0x01
    7884:	a2 83       	std	Z+2, r26	; 0x02
    7886:	b3 83       	std	Z+3, r27	; 0x03
DRESULT disk_ioctl (
    BYTE pdrv,		/* Physical drive nmuber (0..) */
    BYTE cmd,		/* Control code */
    void *buff) {	/* Buffer to send/receive control data */
    if(SD_Status != 0) return RES_NOTRDY;    //Pami niezainicjowana
    DRESULT res = RES_OK;
    7888:	80 e0       	ldi	r24, 0x00	; 0
    switch(cmd) {
    case GET_SECTOR_SIZE:
        *((DWORD*)buff) = 512;       //Dugo sektora 512 bajtw
        break;
    788a:	51 cf       	rjmp	.-350    	; 0x772e <disk_ioctl+0x2c>
            SD_GetResponse(csd->Reg, 16);
            uint64_t size;  //Rozmiar karty
            if(csd->CSD_Struct == 0)
                size = (csd->C_Size + 1) * (1ULL << csd->Read_Bl_Len) * (1UL << (csd->C_Size_mult + 2));
            else {
                size = (((SD_CSDRegv2*)csd)->C_Size + 1) * 524288ULL; //C_Size zawiera liczb blokw po 512 kB
    788c:	8f 81       	ldd	r24, Y+7	; 0x07
    788e:	98 85       	ldd	r25, Y+8	; 0x08
    7890:	29 85       	ldd	r18, Y+9	; 0x09
    7892:	a2 2f       	mov	r26, r18
    7894:	af 73       	andi	r26, 0x3F	; 63
    7896:	01 96       	adiw	r24, 0x01	; 1
    7898:	a1 1d       	adc	r26, r1
    789a:	af 73       	andi	r26, 0x3F	; 63
    789c:	bc 01       	movw	r22, r24
    789e:	8a 2f       	mov	r24, r26
    78a0:	90 e0       	ldi	r25, 0x00	; 0
    78a2:	20 e0       	ldi	r18, 0x00	; 0
    78a4:	30 e0       	ldi	r19, 0x00	; 0
    78a6:	48 e0       	ldi	r20, 0x08	; 8
    78a8:	50 e0       	ldi	r21, 0x00	; 0
    78aa:	0e 94 78 44 	call	0x88f0	; 0x88f0 <__umulsidi3>
    78ae:	ce cf       	rjmp	.-100    	; 0x784c <disk_ioctl+0x14a>
}

_Bool SD_GetResponse(void *buf, uint8_t size) {
    uint8_t i = 10;
    while((SPI_RW_Byte(0xff) != 0xfe) && (--i));
    if(!i) return false;
    78b0:	99 23       	and	r25, r25
    78b2:	09 f4       	brne	.+2      	; 0x78b6 <disk_ioctl+0x1b4>
    78b4:	73 cf       	rjmp	.-282    	; 0x779c <disk_ioctl+0x9a>
    78b6:	fe 01       	movw	r30, r28
    78b8:	71 96       	adiw	r30, 0x11	; 17
    78ba:	ae 01       	movw	r20, r28
    78bc:	4f 5f       	subi	r20, 0xFF	; 255
    78be:	5f 4f       	sbci	r21, 0xFF	; 255
void SPI_SetMaxBaudrate() {
    SD_SPI.CTRL = (SD_SPI.CTRL & (~SPI_PRESCALER_gm)) | SPI_PRESCALER_DIV4_gc | SPI_CLK2X_bm;
}

uint8_t SPI_RW_Byte(uint8_t byte) {
    SD_SPI.DATA = byte;
    78c0:	2f ef       	ldi	r18, 0xFF	; 255
    while(!(SD_SPI.STATUS & SPI_IF_bm));
    SD_SPI.STATUS = SPI_IF_bm;
    78c2:	90 e8       	ldi	r25, 0x80	; 128
void SPI_SetMaxBaudrate() {
    SD_SPI.CTRL = (SD_SPI.CTRL & (~SPI_PRESCALER_gm)) | SPI_PRESCALER_DIV4_gc | SPI_CLK2X_bm;
}

uint8_t SPI_RW_Byte(uint8_t byte) {
    SD_SPI.DATA = byte;
    78c4:	20 93 c3 0a 	sts	0x0AC3, r18	; 0x800ac3 <__TEXT_REGION_LENGTH__+0x700ac3>
    while(!(SD_SPI.STATUS & SPI_IF_bm));
    78c8:	80 91 c2 0a 	lds	r24, 0x0AC2	; 0x800ac2 <__TEXT_REGION_LENGTH__+0x700ac2>
    78cc:	87 ff       	sbrs	r24, 7
    78ce:	fc cf       	rjmp	.-8      	; 0x78c8 <disk_ioctl+0x1c6>
    SD_SPI.STATUS = SPI_IF_bm;
    78d0:	90 93 c2 0a 	sts	0x0AC2, r25	; 0x800ac2 <__TEXT_REGION_LENGTH__+0x700ac2>
    return SD_SPI.DATA;
    78d4:	80 91 c3 0a 	lds	r24, 0x0AC3	; 0x800ac3 <__TEXT_REGION_LENGTH__+0x700ac3>
_Bool SD_GetResponse(void *buf, uint8_t size) {
    uint8_t i = 10;
    while((SPI_RW_Byte(0xff) != 0xfe) && (--i));
    if(!i) return false;
    while(size) {
        ((uint8_t*)buf)[size - 1] = SPI_RW_Byte(0xff);
    78d8:	82 93       	st	-Z, r24

_Bool SD_GetResponse(void *buf, uint8_t size) {
    uint8_t i = 10;
    while((SPI_RW_Byte(0xff) != 0xfe) && (--i));
    if(!i) return false;
    while(size) {
    78da:	e4 17       	cp	r30, r20
    78dc:	f5 07       	cpc	r31, r21
    78de:	91 f7       	brne	.-28     	; 0x78c4 <disk_ioctl+0x1c2>
    78e0:	5d cf       	rjmp	.-326    	; 0x779c <disk_ioctl+0x9a>

000078e2 <get_fattime>:
    | ((DWORD)1 << 21)            /* Month 1 */
    | ((DWORD)11 << 16)            /* Mday 28 */
    | ((DWORD)0 << 11)            /* Hour 0 */
    | ((DWORD)0 << 5)            /* Min 0 */
    | ((DWORD)0 >> 1);            /* Sec 0 */
}
    78e2:	60 e0       	ldi	r22, 0x00	; 0
    78e4:	70 e0       	ldi	r23, 0x00	; 0
    78e6:	8b e2       	ldi	r24, 0x2B	; 43
    78e8:	94 e4       	ldi	r25, 0x44	; 68
    78ea:	08 95       	ret

000078ec <SPI_W_Byte>:
	FLASH_RW_Byte((address>>16) & 0xFF);
	FLASH_RW_Byte((address>>8) & 0xFF);
	FLASH_RW_Byte(address & 0xFF);
	FLASH_RW_Byte(value);
	FLASH_CS(0);
}
    78ec:	cf 93       	push	r28
    78ee:	df 93       	push	r29
    78f0:	1f 92       	push	r1
    78f2:	cd b7       	in	r28, 0x3d	; 61
    78f4:	de b7       	in	r29, 0x3e	; 62
    78f6:	80 93 c3 08 	sts	0x08C3, r24	; 0x8008c3 <__TEXT_REGION_LENGTH__+0x7008c3>
    78fa:	80 91 c2 08 	lds	r24, 0x08C2	; 0x8008c2 <__TEXT_REGION_LENGTH__+0x7008c2>
    78fe:	87 ff       	sbrs	r24, 7
    7900:	fc cf       	rjmp	.-8      	; 0x78fa <SPI_W_Byte+0xe>
    7902:	80 91 c3 08 	lds	r24, 0x08C3	; 0x8008c3 <__TEXT_REGION_LENGTH__+0x7008c3>
    7906:	89 83       	std	Y+1, r24	; 0x01
    7908:	0f 90       	pop	r0
    790a:	df 91       	pop	r29
    790c:	cf 91       	pop	r28
    790e:	08 95       	ret

00007910 <SPI_R_Byte>:
    7910:	10 92 c3 08 	sts	0x08C3, r1	; 0x8008c3 <__TEXT_REGION_LENGTH__+0x7008c3>
    7914:	80 91 c2 08 	lds	r24, 0x08C2	; 0x8008c2 <__TEXT_REGION_LENGTH__+0x7008c2>
    7918:	87 ff       	sbrs	r24, 7
    791a:	fc cf       	rjmp	.-8      	; 0x7914 <SPI_R_Byte+0x4>
    791c:	80 91 c3 08 	lds	r24, 0x08C3	; 0x8008c3 <__TEXT_REGION_LENGTH__+0x7008c3>
    7920:	08 95       	ret

00007922 <FLASH_arrayRead>:
    7922:	8f 92       	push	r8
    7924:	9f 92       	push	r9
    7926:	af 92       	push	r10
    7928:	bf 92       	push	r11
    792a:	cf 92       	push	r12
    792c:	df 92       	push	r13
    792e:	ef 92       	push	r14
    7930:	ff 92       	push	r15
    7932:	0f 93       	push	r16
    7934:	1f 93       	push	r17
    7936:	cf 93       	push	r28
    7938:	4b 01       	movw	r8, r22
    793a:	5c 01       	movw	r10, r24
    793c:	68 01       	movw	r12, r16
    793e:	79 01       	movw	r14, r18
    7940:	20 e1       	ldi	r18, 0x10	; 16
    7942:	35 e0       	ldi	r19, 0x05	; 5
    7944:	90 e8       	ldi	r25, 0x80	; 128
    7946:	80 91 c0 0a 	lds	r24, 0x0AC0	; 0x800ac0 <__TEXT_REGION_LENGTH__+0x700ac0>
    794a:	8c 77       	andi	r24, 0x7C	; 124
    794c:	80 68       	ori	r24, 0x80	; 128
    794e:	80 93 c0 0a 	sts	0x0AC0, r24	; 0x800ac0 <__TEXT_REGION_LENGTH__+0x700ac0>
    7952:	20 93 86 06 	sts	0x0686, r18	; 0x800686 <__TEXT_REGION_LENGTH__+0x700686>
    7956:	30 93 c3 0a 	sts	0x0AC3, r19	; 0x800ac3 <__TEXT_REGION_LENGTH__+0x700ac3>
    795a:	80 91 c2 0a 	lds	r24, 0x0AC2	; 0x800ac2 <__TEXT_REGION_LENGTH__+0x700ac2>
    795e:	87 ff       	sbrs	r24, 7
    7960:	fc cf       	rjmp	.-8      	; 0x795a <FLASH_arrayRead+0x38>
    7962:	90 93 c2 0a 	sts	0x0AC2, r25	; 0x800ac2 <__TEXT_REGION_LENGTH__+0x700ac2>
    7966:	80 91 c3 0a 	lds	r24, 0x0AC3	; 0x800ac3 <__TEXT_REGION_LENGTH__+0x700ac3>
    796a:	10 92 c3 0a 	sts	0x0AC3, r1	; 0x800ac3 <__TEXT_REGION_LENGTH__+0x700ac3>
    796e:	80 91 c2 0a 	lds	r24, 0x0AC2	; 0x800ac2 <__TEXT_REGION_LENGTH__+0x700ac2>
    7972:	87 ff       	sbrs	r24, 7
    7974:	fc cf       	rjmp	.-8      	; 0x796e <FLASH_arrayRead+0x4c>
    7976:	90 93 c2 0a 	sts	0x0AC2, r25	; 0x800ac2 <__TEXT_REGION_LENGTH__+0x700ac2>
    797a:	80 91 c3 0a 	lds	r24, 0x0AC3	; 0x800ac3 <__TEXT_REGION_LENGTH__+0x700ac3>
    797e:	20 93 85 06 	sts	0x0685, r18	; 0x800685 <__TEXT_REGION_LENGTH__+0x700685>
    7982:	80 ff       	sbrs	r24, 0
    7984:	05 c0       	rjmp	.+10     	; 0x7990 <FLASH_arrayRead+0x6e>
    7986:	8a e6       	ldi	r24, 0x6A	; 106
    7988:	8a 95       	dec	r24
    798a:	f1 f7       	brne	.-4      	; 0x7988 <FLASH_arrayRead+0x66>
    798c:	00 c0       	rjmp	.+0      	; 0x798e <FLASH_arrayRead+0x6c>
    798e:	db cf       	rjmp	.-74     	; 0x7946 <FLASH_arrayRead+0x24>
    7990:	80 91 c0 0a 	lds	r24, 0x0AC0	; 0x800ac0 <__TEXT_REGION_LENGTH__+0x700ac0>
    7994:	8c 77       	andi	r24, 0x7C	; 124
    7996:	80 68       	ori	r24, 0x80	; 128
    7998:	80 93 c0 0a 	sts	0x0AC0, r24	; 0x800ac0 <__TEXT_REGION_LENGTH__+0x700ac0>
    799c:	80 e1       	ldi	r24, 0x10	; 16
    799e:	80 93 86 06 	sts	0x0686, r24	; 0x800686 <__TEXT_REGION_LENGTH__+0x700686>
    79a2:	83 e1       	ldi	r24, 0x13	; 19
    79a4:	80 93 c3 0a 	sts	0x0AC3, r24	; 0x800ac3 <__TEXT_REGION_LENGTH__+0x700ac3>
    79a8:	80 91 c2 0a 	lds	r24, 0x0AC2	; 0x800ac2 <__TEXT_REGION_LENGTH__+0x700ac2>
    79ac:	87 ff       	sbrs	r24, 7
    79ae:	fc cf       	rjmp	.-8      	; 0x79a8 <FLASH_arrayRead+0x86>
    79b0:	80 e8       	ldi	r24, 0x80	; 128
    79b2:	80 93 c2 0a 	sts	0x0AC2, r24	; 0x800ac2 <__TEXT_REGION_LENGTH__+0x700ac2>
    79b6:	80 91 c3 0a 	lds	r24, 0x0AC3	; 0x800ac3 <__TEXT_REGION_LENGTH__+0x700ac3>
    79ba:	8b 2d       	mov	r24, r11
    79bc:	99 27       	eor	r25, r25
    79be:	aa 27       	eor	r26, r26
    79c0:	bb 27       	eor	r27, r27
    79c2:	80 93 c3 0a 	sts	0x0AC3, r24	; 0x800ac3 <__TEXT_REGION_LENGTH__+0x700ac3>
    79c6:	80 91 c2 0a 	lds	r24, 0x0AC2	; 0x800ac2 <__TEXT_REGION_LENGTH__+0x700ac2>
    79ca:	87 ff       	sbrs	r24, 7
    79cc:	fc cf       	rjmp	.-8      	; 0x79c6 <FLASH_arrayRead+0xa4>
    79ce:	80 e8       	ldi	r24, 0x80	; 128
    79d0:	80 93 c2 0a 	sts	0x0AC2, r24	; 0x800ac2 <__TEXT_REGION_LENGTH__+0x700ac2>
    79d4:	80 91 c3 0a 	lds	r24, 0x0AC3	; 0x800ac3 <__TEXT_REGION_LENGTH__+0x700ac3>
    79d8:	c5 01       	movw	r24, r10
    79da:	aa 27       	eor	r26, r26
    79dc:	bb 27       	eor	r27, r27
    79de:	80 93 c3 0a 	sts	0x0AC3, r24	; 0x800ac3 <__TEXT_REGION_LENGTH__+0x700ac3>
    79e2:	80 91 c2 0a 	lds	r24, 0x0AC2	; 0x800ac2 <__TEXT_REGION_LENGTH__+0x700ac2>
    79e6:	87 ff       	sbrs	r24, 7
    79e8:	fc cf       	rjmp	.-8      	; 0x79e2 <FLASH_arrayRead+0xc0>
    79ea:	80 e8       	ldi	r24, 0x80	; 128
    79ec:	80 93 c2 0a 	sts	0x0AC2, r24	; 0x800ac2 <__TEXT_REGION_LENGTH__+0x700ac2>
    79f0:	80 91 c3 0a 	lds	r24, 0x0AC3	; 0x800ac3 <__TEXT_REGION_LENGTH__+0x700ac3>
    79f4:	bb 27       	eor	r27, r27
    79f6:	ab 2d       	mov	r26, r11
    79f8:	9a 2d       	mov	r25, r10
    79fa:	89 2d       	mov	r24, r9
    79fc:	80 93 c3 0a 	sts	0x0AC3, r24	; 0x800ac3 <__TEXT_REGION_LENGTH__+0x700ac3>
    7a00:	80 91 c2 0a 	lds	r24, 0x0AC2	; 0x800ac2 <__TEXT_REGION_LENGTH__+0x700ac2>
    7a04:	87 ff       	sbrs	r24, 7
    7a06:	fc cf       	rjmp	.-8      	; 0x7a00 <FLASH_arrayRead+0xde>
    7a08:	80 e8       	ldi	r24, 0x80	; 128
    7a0a:	80 93 c2 0a 	sts	0x0AC2, r24	; 0x800ac2 <__TEXT_REGION_LENGTH__+0x700ac2>
    7a0e:	80 91 c3 0a 	lds	r24, 0x0AC3	; 0x800ac3 <__TEXT_REGION_LENGTH__+0x700ac3>
    7a12:	80 92 c3 0a 	sts	0x0AC3, r8	; 0x800ac3 <__TEXT_REGION_LENGTH__+0x700ac3>
    7a16:	80 91 c2 0a 	lds	r24, 0x0AC2	; 0x800ac2 <__TEXT_REGION_LENGTH__+0x700ac2>
    7a1a:	87 ff       	sbrs	r24, 7
    7a1c:	fc cf       	rjmp	.-8      	; 0x7a16 <FLASH_arrayRead+0xf4>
    7a1e:	80 e8       	ldi	r24, 0x80	; 128
    7a20:	80 93 c2 0a 	sts	0x0AC2, r24	; 0x800ac2 <__TEXT_REGION_LENGTH__+0x700ac2>
    7a24:	80 91 c3 0a 	lds	r24, 0x0AC3	; 0x800ac3 <__TEXT_REGION_LENGTH__+0x700ac3>
    7a28:	c1 14       	cp	r12, r1
    7a2a:	d1 04       	cpc	r13, r1
    7a2c:	e1 04       	cpc	r14, r1
    7a2e:	f1 04       	cpc	r15, r1
    7a30:	21 f1       	breq	.+72     	; 0x7a7a <FLASH_arrayRead+0x158>
    7a32:	fa 01       	movw	r30, r20
    7a34:	41 e0       	ldi	r20, 0x01	; 1
    7a36:	50 e0       	ldi	r21, 0x00	; 0
    7a38:	60 e0       	ldi	r22, 0x00	; 0
    7a3a:	70 e0       	ldi	r23, 0x00	; 0
    7a3c:	c0 e8       	ldi	r28, 0x80	; 128
    7a3e:	8a 01       	movw	r16, r20
    7a40:	9b 01       	movw	r18, r22
    7a42:	0c 0d       	add	r16, r12
    7a44:	1d 1d       	adc	r17, r13
    7a46:	2e 1d       	adc	r18, r14
    7a48:	3f 1d       	adc	r19, r15
    7a4a:	10 92 c3 0a 	sts	0x0AC3, r1	; 0x800ac3 <__TEXT_REGION_LENGTH__+0x700ac3>
    7a4e:	80 91 c2 0a 	lds	r24, 0x0AC2	; 0x800ac2 <__TEXT_REGION_LENGTH__+0x700ac2>
    7a52:	87 ff       	sbrs	r24, 7
    7a54:	fc cf       	rjmp	.-8      	; 0x7a4e <FLASH_arrayRead+0x12c>
    7a56:	c0 93 c2 0a 	sts	0x0AC2, r28	; 0x800ac2 <__TEXT_REGION_LENGTH__+0x700ac2>
    7a5a:	80 91 c3 0a 	lds	r24, 0x0AC3	; 0x800ac3 <__TEXT_REGION_LENGTH__+0x700ac3>
    7a5e:	81 93       	st	Z+, r24
    7a60:	db 01       	movw	r26, r22
    7a62:	ca 01       	movw	r24, r20
    7a64:	01 96       	adiw	r24, 0x01	; 1
    7a66:	a1 1d       	adc	r26, r1
    7a68:	b1 1d       	adc	r27, r1
    7a6a:	40 17       	cp	r20, r16
    7a6c:	51 07       	cpc	r21, r17
    7a6e:	62 07       	cpc	r22, r18
    7a70:	73 07       	cpc	r23, r19
    7a72:	18 f4       	brcc	.+6      	; 0x7a7a <FLASH_arrayRead+0x158>
    7a74:	ac 01       	movw	r20, r24
    7a76:	bd 01       	movw	r22, r26
    7a78:	e2 cf       	rjmp	.-60     	; 0x7a3e <FLASH_arrayRead+0x11c>
    7a7a:	80 e1       	ldi	r24, 0x10	; 16
    7a7c:	80 93 85 06 	sts	0x0685, r24	; 0x800685 <__TEXT_REGION_LENGTH__+0x700685>
    7a80:	cf 91       	pop	r28
    7a82:	1f 91       	pop	r17
    7a84:	0f 91       	pop	r16
    7a86:	ff 90       	pop	r15
    7a88:	ef 90       	pop	r14
    7a8a:	df 90       	pop	r13
    7a8c:	cf 90       	pop	r12
    7a8e:	bf 90       	pop	r11
    7a90:	af 90       	pop	r10
    7a92:	9f 90       	pop	r9
    7a94:	8f 90       	pop	r8
    7a96:	08 95       	ret

00007a98 <FLASH_setup>:
    7a98:	08 95       	ret

00007a9a <FLASH_pageWrite>:

void FLASH_pageWrite(uint16_t page, uint8_t * array, uint16_t length){
    7a9a:	cf 92       	push	r12
    7a9c:	df 92       	push	r13
    7a9e:	ef 92       	push	r14
    7aa0:	ff 92       	push	r15
	uint32_t address = page<<9;
    7aa2:	c1 2c       	mov	r12, r1
    7aa4:	d1 2c       	mov	r13, r1
    7aa6:	d8 2e       	mov	r13, r24
    7aa8:	dd 0c       	add	r13, r13
    7aaa:	e1 2c       	mov	r14, r1
    7aac:	f1 2c       	mov	r15, r1
	return ADC_SPI.DATA;
}

//=======================FLASH===============================
void FLASH_CS(uint8_t CS) { 
	if(CS) FLASH_PORT.OUTCLR = FLASH_CS_pin; //Aktywuj pami Flash
    7aae:	20 e1       	ldi	r18, 0x10	; 16
void FLASH_SetMaxBaudrate() {
	FLASH_SPI.CTRL = (FLASH_SPI.CTRL & (~SPI_PRESCALER_gm)) | SPI_PRESCALER_DIV4_gc | SPI_CLK2X_bm;
}

uint8_t FLASH_RW_Byte(uint8_t byte) {
	FLASH_SPI.DATA = byte;
    7ab0:	35 e0       	ldi	r19, 0x05	; 5
	while(!(FLASH_SPI.STATUS & SPI_IF_bm));
	FLASH_SPI.STATUS = SPI_IF_bm;
    7ab2:	90 e8       	ldi	r25, 0x80	; 128
	else FLASH_PORT.OUTSET = FLASH_CS_pin;
}


void FLASH_SetMaxBaudrate() {
	FLASH_SPI.CTRL = (FLASH_SPI.CTRL & (~SPI_PRESCALER_gm)) | SPI_PRESCALER_DIV4_gc | SPI_CLK2X_bm;
    7ab4:	80 91 c0 0a 	lds	r24, 0x0AC0	; 0x800ac0 <__TEXT_REGION_LENGTH__+0x700ac0>
    7ab8:	8c 77       	andi	r24, 0x7C	; 124
    7aba:	80 68       	ori	r24, 0x80	; 128
    7abc:	80 93 c0 0a 	sts	0x0AC0, r24	; 0x800ac0 <__TEXT_REGION_LENGTH__+0x700ac0>
	return ADC_SPI.DATA;
}

//=======================FLASH===============================
void FLASH_CS(uint8_t CS) { 
	if(CS) FLASH_PORT.OUTCLR = FLASH_CS_pin; //Aktywuj pami Flash
    7ac0:	20 93 86 06 	sts	0x0686, r18	; 0x800686 <__TEXT_REGION_LENGTH__+0x700686>
void FLASH_SetMaxBaudrate() {
	FLASH_SPI.CTRL = (FLASH_SPI.CTRL & (~SPI_PRESCALER_gm)) | SPI_PRESCALER_DIV4_gc | SPI_CLK2X_bm;
}

uint8_t FLASH_RW_Byte(uint8_t byte) {
	FLASH_SPI.DATA = byte;
    7ac4:	30 93 c3 0a 	sts	0x0AC3, r19	; 0x800ac3 <__TEXT_REGION_LENGTH__+0x700ac3>
	while(!(FLASH_SPI.STATUS & SPI_IF_bm));
    7ac8:	80 91 c2 0a 	lds	r24, 0x0AC2	; 0x800ac2 <__TEXT_REGION_LENGTH__+0x700ac2>
    7acc:	87 ff       	sbrs	r24, 7
    7ace:	fc cf       	rjmp	.-8      	; 0x7ac8 <FLASH_pageWrite+0x2e>
	FLASH_SPI.STATUS = SPI_IF_bm;
    7ad0:	90 93 c2 0a 	sts	0x0AC2, r25	; 0x800ac2 <__TEXT_REGION_LENGTH__+0x700ac2>
	return FLASH_SPI.DATA;
    7ad4:	80 91 c3 0a 	lds	r24, 0x0AC3	; 0x800ac3 <__TEXT_REGION_LENGTH__+0x700ac3>
void FLASH_SetMaxBaudrate() {
	FLASH_SPI.CTRL = (FLASH_SPI.CTRL & (~SPI_PRESCALER_gm)) | SPI_PRESCALER_DIV4_gc | SPI_CLK2X_bm;
}

uint8_t FLASH_RW_Byte(uint8_t byte) {
	FLASH_SPI.DATA = byte;
    7ad8:	10 92 c3 0a 	sts	0x0AC3, r1	; 0x800ac3 <__TEXT_REGION_LENGTH__+0x700ac3>
	while(!(FLASH_SPI.STATUS & SPI_IF_bm));
    7adc:	80 91 c2 0a 	lds	r24, 0x0AC2	; 0x800ac2 <__TEXT_REGION_LENGTH__+0x700ac2>
    7ae0:	87 ff       	sbrs	r24, 7
    7ae2:	fc cf       	rjmp	.-8      	; 0x7adc <FLASH_pageWrite+0x42>
	FLASH_SPI.STATUS = SPI_IF_bm;
    7ae4:	90 93 c2 0a 	sts	0x0AC2, r25	; 0x800ac2 <__TEXT_REGION_LENGTH__+0x700ac2>
	return FLASH_SPI.DATA;
    7ae8:	80 91 c3 0a 	lds	r24, 0x0AC3	; 0x800ac3 <__TEXT_REGION_LENGTH__+0x700ac3>
}

//=======================FLASH===============================
void FLASH_CS(uint8_t CS) { 
	if(CS) FLASH_PORT.OUTCLR = FLASH_CS_pin; //Aktywuj pami Flash
	else FLASH_PORT.OUTSET = FLASH_CS_pin;
    7aec:	20 93 85 06 	sts	0x0685, r18	; 0x800685 <__TEXT_REGION_LENGTH__+0x700685>
	FLASH_CS(0);
	return stat;
}

void FLASH_waitForReady(void){
	while(FLASH_status() & 0x01) _delay_us(10);
    7af0:	80 ff       	sbrs	r24, 0
    7af2:	05 c0       	rjmp	.+10     	; 0x7afe <FLASH_pageWrite+0x64>
    7af4:	8a e6       	ldi	r24, 0x6A	; 106
    7af6:	8a 95       	dec	r24
    7af8:	f1 f7       	brne	.-4      	; 0x7af6 <FLASH_pageWrite+0x5c>
    7afa:	00 c0       	rjmp	.+0      	; 0x7afc <FLASH_pageWrite+0x62>
    7afc:	db cf       	rjmp	.-74     	; 0x7ab4 <FLASH_pageWrite+0x1a>
	else FLASH_PORT.OUTSET = FLASH_CS_pin;
}


void FLASH_SetMaxBaudrate() {
	FLASH_SPI.CTRL = (FLASH_SPI.CTRL & (~SPI_PRESCALER_gm)) | SPI_PRESCALER_DIV4_gc | SPI_CLK2X_bm;
    7afe:	80 91 c0 0a 	lds	r24, 0x0AC0	; 0x800ac0 <__TEXT_REGION_LENGTH__+0x700ac0>
    7b02:	8c 77       	andi	r24, 0x7C	; 124
    7b04:	80 68       	ori	r24, 0x80	; 128
    7b06:	80 93 c0 0a 	sts	0x0AC0, r24	; 0x800ac0 <__TEXT_REGION_LENGTH__+0x700ac0>
	return ADC_SPI.DATA;
}

//=======================FLASH===============================
void FLASH_CS(uint8_t CS) { 
	if(CS) FLASH_PORT.OUTCLR = FLASH_CS_pin; //Aktywuj pami Flash
    7b0a:	80 e1       	ldi	r24, 0x10	; 16
    7b0c:	80 93 86 06 	sts	0x0686, r24	; 0x800686 <__TEXT_REGION_LENGTH__+0x700686>
void FLASH_SetMaxBaudrate() {
	FLASH_SPI.CTRL = (FLASH_SPI.CTRL & (~SPI_PRESCALER_gm)) | SPI_PRESCALER_DIV4_gc | SPI_CLK2X_bm;
}

uint8_t FLASH_RW_Byte(uint8_t byte) {
	FLASH_SPI.DATA = byte;
    7b10:	86 e0       	ldi	r24, 0x06	; 6
    7b12:	80 93 c3 0a 	sts	0x0AC3, r24	; 0x800ac3 <__TEXT_REGION_LENGTH__+0x700ac3>
	while(!(FLASH_SPI.STATUS & SPI_IF_bm));
    7b16:	80 91 c2 0a 	lds	r24, 0x0AC2	; 0x800ac2 <__TEXT_REGION_LENGTH__+0x700ac2>
    7b1a:	87 ff       	sbrs	r24, 7
    7b1c:	fc cf       	rjmp	.-8      	; 0x7b16 <FLASH_pageWrite+0x7c>
	FLASH_SPI.STATUS = SPI_IF_bm;
    7b1e:	80 e8       	ldi	r24, 0x80	; 128
    7b20:	80 93 c2 0a 	sts	0x0AC2, r24	; 0x800ac2 <__TEXT_REGION_LENGTH__+0x700ac2>
	return FLASH_SPI.DATA;
    7b24:	80 91 c3 0a 	lds	r24, 0x0AC3	; 0x800ac3 <__TEXT_REGION_LENGTH__+0x700ac3>
}

//=======================FLASH===============================
void FLASH_CS(uint8_t CS) { 
	if(CS) FLASH_PORT.OUTCLR = FLASH_CS_pin; //Aktywuj pami Flash
	else FLASH_PORT.OUTSET = FLASH_CS_pin;
    7b28:	90 e1       	ldi	r25, 0x10	; 16
    7b2a:	90 93 85 06 	sts	0x0685, r25	; 0x800685 <__TEXT_REGION_LENGTH__+0x700685>
}


void FLASH_SetMaxBaudrate() {
	FLASH_SPI.CTRL = (FLASH_SPI.CTRL & (~SPI_PRESCALER_gm)) | SPI_PRESCALER_DIV4_gc | SPI_CLK2X_bm;
    7b2e:	80 91 c0 0a 	lds	r24, 0x0AC0	; 0x800ac0 <__TEXT_REGION_LENGTH__+0x700ac0>
    7b32:	8c 77       	andi	r24, 0x7C	; 124
    7b34:	80 68       	ori	r24, 0x80	; 128
    7b36:	80 93 c0 0a 	sts	0x0AC0, r24	; 0x800ac0 <__TEXT_REGION_LENGTH__+0x700ac0>
	return ADC_SPI.DATA;
}

//=======================FLASH===============================
void FLASH_CS(uint8_t CS) { 
	if(CS) FLASH_PORT.OUTCLR = FLASH_CS_pin; //Aktywuj pami Flash
    7b3a:	90 93 86 06 	sts	0x0686, r25	; 0x800686 <__TEXT_REGION_LENGTH__+0x700686>
void FLASH_SetMaxBaudrate() {
	FLASH_SPI.CTRL = (FLASH_SPI.CTRL & (~SPI_PRESCALER_gm)) | SPI_PRESCALER_DIV4_gc | SPI_CLK2X_bm;
}

uint8_t FLASH_RW_Byte(uint8_t byte) {
	FLASH_SPI.DATA = byte;
    7b3e:	82 e1       	ldi	r24, 0x12	; 18
    7b40:	80 93 c3 0a 	sts	0x0AC3, r24	; 0x800ac3 <__TEXT_REGION_LENGTH__+0x700ac3>
	while(!(FLASH_SPI.STATUS & SPI_IF_bm));
    7b44:	80 91 c2 0a 	lds	r24, 0x0AC2	; 0x800ac2 <__TEXT_REGION_LENGTH__+0x700ac2>
    7b48:	87 ff       	sbrs	r24, 7
    7b4a:	fc cf       	rjmp	.-8      	; 0x7b44 <FLASH_pageWrite+0xaa>
	FLASH_SPI.STATUS = SPI_IF_bm;
    7b4c:	80 e8       	ldi	r24, 0x80	; 128
    7b4e:	80 93 c2 0a 	sts	0x0AC2, r24	; 0x800ac2 <__TEXT_REGION_LENGTH__+0x700ac2>
	return FLASH_SPI.DATA;
    7b52:	80 91 c3 0a 	lds	r24, 0x0AC3	; 0x800ac3 <__TEXT_REGION_LENGTH__+0x700ac3>
void FLASH_SetMaxBaudrate() {
	FLASH_SPI.CTRL = (FLASH_SPI.CTRL & (~SPI_PRESCALER_gm)) | SPI_PRESCALER_DIV4_gc | SPI_CLK2X_bm;
}

uint8_t FLASH_RW_Byte(uint8_t byte) {
	FLASH_SPI.DATA = byte;
    7b56:	10 92 c3 0a 	sts	0x0AC3, r1	; 0x800ac3 <__TEXT_REGION_LENGTH__+0x700ac3>
	while(!(FLASH_SPI.STATUS & SPI_IF_bm));
    7b5a:	80 91 c2 0a 	lds	r24, 0x0AC2	; 0x800ac2 <__TEXT_REGION_LENGTH__+0x700ac2>
    7b5e:	87 ff       	sbrs	r24, 7
    7b60:	fc cf       	rjmp	.-8      	; 0x7b5a <FLASH_pageWrite+0xc0>
	FLASH_SPI.STATUS = SPI_IF_bm;
    7b62:	80 e8       	ldi	r24, 0x80	; 128
    7b64:	80 93 c2 0a 	sts	0x0AC2, r24	; 0x800ac2 <__TEXT_REGION_LENGTH__+0x700ac2>
	return FLASH_SPI.DATA;
    7b68:	80 91 c3 0a 	lds	r24, 0x0AC3	; 0x800ac3 <__TEXT_REGION_LENGTH__+0x700ac3>
void FLASH_SetMaxBaudrate() {
	FLASH_SPI.CTRL = (FLASH_SPI.CTRL & (~SPI_PRESCALER_gm)) | SPI_PRESCALER_DIV4_gc | SPI_CLK2X_bm;
}

uint8_t FLASH_RW_Byte(uint8_t byte) {
	FLASH_SPI.DATA = byte;
    7b6c:	10 92 c3 0a 	sts	0x0AC3, r1	; 0x800ac3 <__TEXT_REGION_LENGTH__+0x700ac3>
	while(!(FLASH_SPI.STATUS & SPI_IF_bm));
    7b70:	80 91 c2 0a 	lds	r24, 0x0AC2	; 0x800ac2 <__TEXT_REGION_LENGTH__+0x700ac2>
    7b74:	87 ff       	sbrs	r24, 7
    7b76:	fc cf       	rjmp	.-8      	; 0x7b70 <FLASH_pageWrite+0xd6>
	FLASH_SPI.STATUS = SPI_IF_bm;
    7b78:	80 e8       	ldi	r24, 0x80	; 128
    7b7a:	80 93 c2 0a 	sts	0x0AC2, r24	; 0x800ac2 <__TEXT_REGION_LENGTH__+0x700ac2>
	return FLASH_SPI.DATA;
    7b7e:	80 91 c3 0a 	lds	r24, 0x0AC3	; 0x800ac3 <__TEXT_REGION_LENGTH__+0x700ac3>
	FLASH_SetMaxBaudrate();
	FLASH_CS(1);
	FLASH_RW_Byte(PP4);	//Page program
	FLASH_RW_Byte((address>>24) & 0xFF);
	FLASH_RW_Byte((address>>16) & 0xFF);
	FLASH_RW_Byte((address>>8) & 0xFF);
    7b82:	cd 2c       	mov	r12, r13
    7b84:	de 2c       	mov	r13, r14
    7b86:	ef 2c       	mov	r14, r15
    7b88:	ff 24       	eor	r15, r15
void FLASH_SetMaxBaudrate() {
	FLASH_SPI.CTRL = (FLASH_SPI.CTRL & (~SPI_PRESCALER_gm)) | SPI_PRESCALER_DIV4_gc | SPI_CLK2X_bm;
}

uint8_t FLASH_RW_Byte(uint8_t byte) {
	FLASH_SPI.DATA = byte;
    7b8a:	c0 92 c3 0a 	sts	0x0AC3, r12	; 0x800ac3 <__TEXT_REGION_LENGTH__+0x700ac3>
	while(!(FLASH_SPI.STATUS & SPI_IF_bm));
    7b8e:	80 91 c2 0a 	lds	r24, 0x0AC2	; 0x800ac2 <__TEXT_REGION_LENGTH__+0x700ac2>
    7b92:	87 ff       	sbrs	r24, 7
    7b94:	fc cf       	rjmp	.-8      	; 0x7b8e <FLASH_pageWrite+0xf4>
	FLASH_SPI.STATUS = SPI_IF_bm;
    7b96:	80 e8       	ldi	r24, 0x80	; 128
    7b98:	80 93 c2 0a 	sts	0x0AC2, r24	; 0x800ac2 <__TEXT_REGION_LENGTH__+0x700ac2>
	return FLASH_SPI.DATA;
    7b9c:	80 91 c3 0a 	lds	r24, 0x0AC3	; 0x800ac3 <__TEXT_REGION_LENGTH__+0x700ac3>
void FLASH_SetMaxBaudrate() {
	FLASH_SPI.CTRL = (FLASH_SPI.CTRL & (~SPI_PRESCALER_gm)) | SPI_PRESCALER_DIV4_gc | SPI_CLK2X_bm;
}

uint8_t FLASH_RW_Byte(uint8_t byte) {
	FLASH_SPI.DATA = byte;
    7ba0:	10 92 c3 0a 	sts	0x0AC3, r1	; 0x800ac3 <__TEXT_REGION_LENGTH__+0x700ac3>
	while(!(FLASH_SPI.STATUS & SPI_IF_bm));
    7ba4:	80 91 c2 0a 	lds	r24, 0x0AC2	; 0x800ac2 <__TEXT_REGION_LENGTH__+0x700ac2>
    7ba8:	87 ff       	sbrs	r24, 7
    7baa:	fc cf       	rjmp	.-8      	; 0x7ba4 <FLASH_pageWrite+0x10a>
	FLASH_SPI.STATUS = SPI_IF_bm;
    7bac:	80 e8       	ldi	r24, 0x80	; 128
    7bae:	80 93 c2 0a 	sts	0x0AC2, r24	; 0x800ac2 <__TEXT_REGION_LENGTH__+0x700ac2>
	return FLASH_SPI.DATA;
    7bb2:	80 91 c3 0a 	lds	r24, 0x0AC3	; 0x800ac3 <__TEXT_REGION_LENGTH__+0x700ac3>
	FLASH_RW_Byte(PP4);	//Page program
	FLASH_RW_Byte((address>>24) & 0xFF);
	FLASH_RW_Byte((address>>16) & 0xFF);
	FLASH_RW_Byte((address>>8) & 0xFF);
	FLASH_RW_Byte(address & 0xFF);
	for(uint16_t i = 0; i < length; i++){
    7bb6:	41 15       	cp	r20, r1
    7bb8:	51 05       	cpc	r21, r1
    7bba:	91 f0       	breq	.+36     	; 0x7be0 <FLASH_pageWrite+0x146>
    7bbc:	fb 01       	movw	r30, r22
    7bbe:	46 0f       	add	r20, r22
    7bc0:	57 1f       	adc	r21, r23
}

uint8_t FLASH_RW_Byte(uint8_t byte) {
	FLASH_SPI.DATA = byte;
	while(!(FLASH_SPI.STATUS & SPI_IF_bm));
	FLASH_SPI.STATUS = SPI_IF_bm;
    7bc2:	90 e8       	ldi	r25, 0x80	; 128
	FLASH_RW_Byte((address>>24) & 0xFF);
	FLASH_RW_Byte((address>>16) & 0xFF);
	FLASH_RW_Byte((address>>8) & 0xFF);
	FLASH_RW_Byte(address & 0xFF);
	for(uint16_t i = 0; i < length; i++){
		FLASH_RW_Byte(*array++);
    7bc4:	81 91       	ld	r24, Z+
void FLASH_SetMaxBaudrate() {
	FLASH_SPI.CTRL = (FLASH_SPI.CTRL & (~SPI_PRESCALER_gm)) | SPI_PRESCALER_DIV4_gc | SPI_CLK2X_bm;
}

uint8_t FLASH_RW_Byte(uint8_t byte) {
	FLASH_SPI.DATA = byte;
    7bc6:	80 93 c3 0a 	sts	0x0AC3, r24	; 0x800ac3 <__TEXT_REGION_LENGTH__+0x700ac3>
	while(!(FLASH_SPI.STATUS & SPI_IF_bm));
    7bca:	80 91 c2 0a 	lds	r24, 0x0AC2	; 0x800ac2 <__TEXT_REGION_LENGTH__+0x700ac2>
    7bce:	87 ff       	sbrs	r24, 7
    7bd0:	fc cf       	rjmp	.-8      	; 0x7bca <FLASH_pageWrite+0x130>
	FLASH_SPI.STATUS = SPI_IF_bm;
    7bd2:	90 93 c2 0a 	sts	0x0AC2, r25	; 0x800ac2 <__TEXT_REGION_LENGTH__+0x700ac2>
	return FLASH_SPI.DATA;
    7bd6:	80 91 c3 0a 	lds	r24, 0x0AC3	; 0x800ac3 <__TEXT_REGION_LENGTH__+0x700ac3>
	FLASH_RW_Byte(PP4);	//Page program
	FLASH_RW_Byte((address>>24) & 0xFF);
	FLASH_RW_Byte((address>>16) & 0xFF);
	FLASH_RW_Byte((address>>8) & 0xFF);
	FLASH_RW_Byte(address & 0xFF);
	for(uint16_t i = 0; i < length; i++){
    7bda:	e4 17       	cp	r30, r20
    7bdc:	f5 07       	cpc	r31, r21
    7bde:	91 f7       	brne	.-28     	; 0x7bc4 <FLASH_pageWrite+0x12a>
}

//=======================FLASH===============================
void FLASH_CS(uint8_t CS) { 
	if(CS) FLASH_PORT.OUTCLR = FLASH_CS_pin; //Aktywuj pami Flash
	else FLASH_PORT.OUTSET = FLASH_CS_pin;
    7be0:	80 e1       	ldi	r24, 0x10	; 16
    7be2:	80 93 85 06 	sts	0x0685, r24	; 0x800685 <__TEXT_REGION_LENGTH__+0x700685>
	FLASH_RW_Byte(address & 0xFF);
	for(uint16_t i = 0; i < length; i++){
		FLASH_RW_Byte(*array++);
	}
	FLASH_CS(0);
    7be6:	ff 90       	pop	r15
    7be8:	ef 90       	pop	r14
    7bea:	df 90       	pop	r13
    7bec:	cf 90       	pop	r12
    7bee:	08 95       	ret

00007bf0 <CPU_clk>:
void TimerCInit(uint16_t period_ms) {
    TCC0_CTRLA = TC_CLKSEL_DIV1024_gc;				//wczenie timera z preskalerem 64
    TCC0_CTRLB = 0x00;								//Normal mode
    TCC0_CNT = 0;									//zeruj licznik
    TCC0_PER = (period_ms * 32000UL) / 1024;			//przeliczenie okresu na 1ms*period
    TCC0_INTCTRLA = TC_OVFINTLVL_MED_gc;			//redni poziom przerwania od przepenienia
    7bf0:	86 95       	lsr	r24
    7bf2:	90 91 50 00 	lds	r25, 0x0050	; 0x800050 <__TEXT_REGION_LENGTH__+0x700050>
    7bf6:	91 60       	ori	r25, 0x01	; 1
    7bf8:	90 93 50 00 	sts	0x0050, r25	; 0x800050 <__TEXT_REGION_LENGTH__+0x700050>
    7bfc:	90 e4       	ldi	r25, 0x40	; 64
    7bfe:	90 93 6a 00 	sts	0x006A, r25	; 0x80006a <__TEXT_REGION_LENGTH__+0x70006a>
    7c02:	9d e0       	ldi	r25, 0x0D	; 13
    7c04:	90 93 6b 00 	sts	0x006B, r25	; 0x80006b <__TEXT_REGION_LENGTH__+0x70006b>
    7c08:	90 91 50 00 	lds	r25, 0x0050	; 0x800050 <__TEXT_REGION_LENGTH__+0x700050>
    7c0c:	94 60       	ori	r25, 0x04	; 4
    7c0e:	90 93 50 00 	sts	0x0050, r25	; 0x800050 <__TEXT_REGION_LENGTH__+0x700050>
    7c12:	90 91 51 00 	lds	r25, 0x0051	; 0x800051 <__TEXT_REGION_LENGTH__+0x700051>
    7c16:	92 ff       	sbrs	r25, 2
    7c18:	fc cf       	rjmp	.-8      	; 0x7c12 <CPU_clk+0x22>
    7c1a:	90 91 56 00 	lds	r25, 0x0056	; 0x800056 <__TEXT_REGION_LENGTH__+0x700056>
    7c1e:	98 7f       	andi	r25, 0xF8	; 248
    7c20:	90 93 56 00 	sts	0x0056, r25	; 0x800056 <__TEXT_REGION_LENGTH__+0x700056>
    7c24:	90 91 68 00 	lds	r25, 0x0068	; 0x800068 <__TEXT_REGION_LENGTH__+0x700068>
    7c28:	91 60       	ori	r25, 0x01	; 1
    7c2a:	90 93 68 00 	sts	0x0068, r25	; 0x800068 <__TEXT_REGION_LENGTH__+0x700068>
    7c2e:	90 91 51 00 	lds	r25, 0x0051	; 0x800051 <__TEXT_REGION_LENGTH__+0x700051>
    7c32:	90 ff       	sbrs	r25, 0
    7c34:	fc cf       	rjmp	.-8      	; 0x7c2e <CPU_clk+0x3e>
    7c36:	98 ed       	ldi	r25, 0xD8	; 216
    7c38:	94 bf       	out	0x34, r25	; 52
    7c3a:	10 92 40 00 	sts	0x0040, r1	; 0x800040 <__TEXT_REGION_LENGTH__+0x700040>
    7c3e:	90 91 50 00 	lds	r25, 0x0050	; 0x800050 <__TEXT_REGION_LENGTH__+0x700050>
    7c42:	9f 7e       	andi	r25, 0xEF	; 239
    7c44:	90 93 50 00 	sts	0x0050, r25	; 0x800050 <__TEXT_REGION_LENGTH__+0x700050>
    7c48:	80 93 55 00 	sts	0x0055, r24	; 0x800055 <__TEXT_REGION_LENGTH__+0x700055>
    7c4c:	80 e1       	ldi	r24, 0x10	; 16
    7c4e:	80 93 50 00 	sts	0x0050, r24	; 0x800050 <__TEXT_REGION_LENGTH__+0x700050>
    7c52:	80 91 51 00 	lds	r24, 0x0051	; 0x800051 <__TEXT_REGION_LENGTH__+0x700051>
    7c56:	84 ff       	sbrs	r24, 4
    7c58:	fc cf       	rjmp	.-8      	; 0x7c52 <CPU_clk+0x62>
    7c5a:	88 ed       	ldi	r24, 0xD8	; 216
    7c5c:	84 bf       	out	0x34, r24	; 52
    7c5e:	84 e0       	ldi	r24, 0x04	; 4
    7c60:	80 93 40 00 	sts	0x0040, r24	; 0x800040 <__TEXT_REGION_LENGTH__+0x700040>
    7c64:	08 95       	ret

00007c66 <OscRTC>:
    7c66:	08 95       	ret

00007c68 <RTC_Init>:
    7c68:	08 95       	ret

00007c6a <TimerDInit>:
}

void TimerDInit(uint16_t period_ms) {
    TCD0_CTRLA = TC_CLKSEL_DIV1024_gc;				//wczenie timera z preskalerem 64
    7c6a:	27 e0       	ldi	r18, 0x07	; 7
    7c6c:	20 93 00 09 	sts	0x0900, r18	; 0x800900 <__TEXT_REGION_LENGTH__+0x700900>
    TCD0_CTRLB = 0x00;								//Normal mode
    7c70:	10 92 01 09 	sts	0x0901, r1	; 0x800901 <__TEXT_REGION_LENGTH__+0x700901>
    TCD0_CNT = 0;									//zeruj licznik
    7c74:	10 92 20 09 	sts	0x0920, r1	; 0x800920 <__TEXT_REGION_LENGTH__+0x700920>
    7c78:	10 92 21 09 	sts	0x0921, r1	; 0x800921 <__TEXT_REGION_LENGTH__+0x700921>
    TCD0_PER = (period_ms * 32000UL) / 1024;			//przeliczenie okresu na 1ms*period
    7c7c:	9c 01       	movw	r18, r24
    7c7e:	a0 e0       	ldi	r26, 0x00	; 0
    7c80:	bd e7       	ldi	r27, 0x7D	; 125
    7c82:	cc d5       	rcall	.+2968   	; 0x881c <__umulhisi3>
    7c84:	dc 01       	movw	r26, r24
    7c86:	cb 01       	movw	r24, r22
    7c88:	2a e0       	ldi	r18, 0x0A	; 10
    7c8a:	b6 95       	lsr	r27
    7c8c:	a7 95       	ror	r26
    7c8e:	97 95       	ror	r25
    7c90:	87 95       	ror	r24
    7c92:	2a 95       	dec	r18
    7c94:	d1 f7       	brne	.-12     	; 0x7c8a <TimerDInit+0x20>
    7c96:	80 93 26 09 	sts	0x0926, r24	; 0x800926 <__TEXT_REGION_LENGTH__+0x700926>
    7c9a:	90 93 27 09 	sts	0x0927, r25	; 0x800927 <__TEXT_REGION_LENGTH__+0x700927>
    TCD0_INTCTRLA = TC_OVFINTLVL_LO_gc;				//redni poziom przerwania od przepenienia
    7c9e:	81 e0       	ldi	r24, 0x01	; 1
    7ca0:	80 93 06 09 	sts	0x0906, r24	; 0x800906 <__TEXT_REGION_LENGTH__+0x700906>
    7ca4:	08 95       	ret

00007ca6 <TimerEInit>:
}

void TimerEInit(uint16_t period_ms) {
    TCE0_CTRLA = TC_CLKSEL_DIV1024_gc;				//wczenie timera z preskalerem 64
    7ca6:	27 e0       	ldi	r18, 0x07	; 7
    7ca8:	20 93 00 0a 	sts	0x0A00, r18	; 0x800a00 <__TEXT_REGION_LENGTH__+0x700a00>
    TCE0_CTRLB = 0x00;								//Normal mode
    7cac:	10 92 01 0a 	sts	0x0A01, r1	; 0x800a01 <__TEXT_REGION_LENGTH__+0x700a01>
    TCE0_CNT = 0;									//zeruj licznik
    7cb0:	10 92 20 0a 	sts	0x0A20, r1	; 0x800a20 <__TEXT_REGION_LENGTH__+0x700a20>
    7cb4:	10 92 21 0a 	sts	0x0A21, r1	; 0x800a21 <__TEXT_REGION_LENGTH__+0x700a21>
    TCE0_PER = (period_ms * 32000UL) / 1024;			//przeliczenie okresu na 1ms*period
    7cb8:	9c 01       	movw	r18, r24
    7cba:	a0 e0       	ldi	r26, 0x00	; 0
    7cbc:	bd e7       	ldi	r27, 0x7D	; 125
    7cbe:	ae d5       	rcall	.+2908   	; 0x881c <__umulhisi3>
    7cc0:	dc 01       	movw	r26, r24
    7cc2:	cb 01       	movw	r24, r22
    7cc4:	2a e0       	ldi	r18, 0x0A	; 10
    7cc6:	b6 95       	lsr	r27
    7cc8:	a7 95       	ror	r26
    7cca:	97 95       	ror	r25
    7ccc:	87 95       	ror	r24
    7cce:	2a 95       	dec	r18
    7cd0:	d1 f7       	brne	.-12     	; 0x7cc6 <TimerEInit+0x20>
    7cd2:	80 93 26 0a 	sts	0x0A26, r24	; 0x800a26 <__TEXT_REGION_LENGTH__+0x700a26>
    7cd6:	90 93 27 0a 	sts	0x0A27, r25	; 0x800a27 <__TEXT_REGION_LENGTH__+0x700a27>
    TCE0_INTCTRLA = TC_OVFINTLVL_MED_gc;			//redni poziom przerwania od przepenienia
    7cda:	82 e0       	ldi	r24, 0x02	; 2
    7cdc:	80 93 06 0a 	sts	0x0A06, r24	; 0x800a06 <__TEXT_REGION_LENGTH__+0x700a06>
    7ce0:	08 95       	ret

00007ce2 <TimerFInit>:
}

void TimerFInit(uint16_t period_ms) {
    TCF0_CTRLA = TC_CLKSEL_DIV1024_gc;				//wczenie timera z preskalerem 64
    7ce2:	27 e0       	ldi	r18, 0x07	; 7
    7ce4:	20 93 00 0b 	sts	0x0B00, r18	; 0x800b00 <__TEXT_REGION_LENGTH__+0x700b00>
    TCF0_CTRLB = 0x00;								//Normal mode
    7ce8:	10 92 01 0b 	sts	0x0B01, r1	; 0x800b01 <__TEXT_REGION_LENGTH__+0x700b01>
    TCF0_CNT = 0;									//zeruj licznik
    7cec:	10 92 20 0b 	sts	0x0B20, r1	; 0x800b20 <__TEXT_REGION_LENGTH__+0x700b20>
    7cf0:	10 92 21 0b 	sts	0x0B21, r1	; 0x800b21 <__TEXT_REGION_LENGTH__+0x700b21>
    7cf4:	81 3d       	cpi	r24, 0xD1	; 209
    7cf6:	27 e0       	ldi	r18, 0x07	; 7
    7cf8:	92 07       	cpc	r25, r18
    7cfa:	10 f0       	brcs	.+4      	; 0x7d00 <TimerFInit+0x1e>
    7cfc:	80 ed       	ldi	r24, 0xD0	; 208
    7cfe:	97 e0       	ldi	r25, 0x07	; 7
    if(period_ms > 2000) period_ms = 2000;			//ograniczenie ze wzgldu na przepenienie
    TCF0_PER = (period_ms * 32000UL) / 1024;			//przeliczenie okresu na 1ms*period
    7d00:	9c 01       	movw	r18, r24
    7d02:	a0 e0       	ldi	r26, 0x00	; 0
    7d04:	bd e7       	ldi	r27, 0x7D	; 125
    7d06:	8a d5       	rcall	.+2836   	; 0x881c <__umulhisi3>
    7d08:	dc 01       	movw	r26, r24
    7d0a:	cb 01       	movw	r24, r22
    7d0c:	2a e0       	ldi	r18, 0x0A	; 10
    7d0e:	b6 95       	lsr	r27
    7d10:	a7 95       	ror	r26
    7d12:	97 95       	ror	r25
    7d14:	87 95       	ror	r24
    7d16:	2a 95       	dec	r18
    7d18:	d1 f7       	brne	.-12     	; 0x7d0e <TimerFInit+0x2c>
    7d1a:	80 93 26 0b 	sts	0x0B26, r24	; 0x800b26 <__TEXT_REGION_LENGTH__+0x700b26>
    7d1e:	90 93 27 0b 	sts	0x0B27, r25	; 0x800b27 <__TEXT_REGION_LENGTH__+0x700b27>
    TCF0_INTCTRLA = TC_OVFINTLVL_MED_gc;			//redni poziom przerwania od przepenienia
    7d22:	82 e0       	ldi	r24, 0x02	; 2
    7d24:	80 93 06 0b 	sts	0x0B06, r24	; 0x800b06 <__TEXT_REGION_LENGTH__+0x700b06>
    7d28:	08 95       	ret

00007d2a <ADC_Init>:
}

void ADC_Init(void) {
    ADCB.CTRLA = ADC_ENABLE_bm;
    7d2a:	e0 e4       	ldi	r30, 0x40	; 64
    7d2c:	f2 e0       	ldi	r31, 0x02	; 2
    7d2e:	91 e0       	ldi	r25, 0x01	; 1
    7d30:	90 83       	st	Z, r25
    ADCB.CTRLB = ADC_RESOLUTION_12BIT_gc;		//rozdzielczo 12bit, CONVMODE=0
    7d32:	11 82       	std	Z+1, r1	; 0x01
    ADCB.CTRLB |= ADC_FREERUN_bm;				//ciga konwersja
    7d34:	81 81       	ldd	r24, Z+1	; 0x01
    7d36:	88 60       	ori	r24, 0x08	; 8
    7d38:	81 83       	std	Z+1, r24	; 0x01
    ADCB.CTRLB |= ADC_CONMODE_bm;				//tryb ze znakiem
    7d3a:	81 81       	ldd	r24, Z+1	; 0x01
    7d3c:	80 61       	ori	r24, 0x10	; 16
    7d3e:	81 83       	std	Z+1, r24	; 0x01
    ADCB.EVCTRL = ADC_SWEEP_0123_gc;			//przemiatanie kanaw 0,1,2,3
    7d40:	80 ec       	ldi	r24, 0xC0	; 192
    7d42:	83 83       	std	Z+3, r24	; 0x03
    ADCB.REFCTRL = ADC_REFSEL_INTVCC2_gc;		//wybr napicia odniesienia VCC/2
    7d44:	80 e4       	ldi	r24, 0x40	; 64
    7d46:	82 83       	std	Z+2, r24	; 0x02
    ADCB.PRESCALER = ADC_PRESCALER_DIV512_gc;	//preskaler 62.5kHz@32MHz -> ~15ksps@32MHz
    7d48:	27 e0       	ldi	r18, 0x07	; 7
    7d4a:	24 83       	std	Z+4, r18	; 0x04
    ADCB.CH0.CTRL = ADC_CH_INPUTMODE_DIFFWGAIN_gc | ADC_CH_GAIN_DIV2_gc;	//tryb rnicowy ze wzmocnieniem 1/2
    7d4c:	8f e1       	ldi	r24, 0x1F	; 31
    7d4e:	80 a3       	std	Z+32, r24	; 0x20
    ADCB.CH0.MUXCTRL = ADC_CH_MUXPOS_PIN0_gc | ADC_CH_MUXNEG_GND_MODE4_gc;	//pocztek przemiatania od PIN13
    7d50:	21 a3       	std	Z+33, r18	; 0x21
    ADCB.CH1.CTRL = ADC_CH_INPUTMODE_DIFFWGAIN_gc | ADC_CH_GAIN_DIV2_gc;	//tryb rnicowy ze wzmocnieniem 1/2
    7d52:	80 a7       	std	Z+40, r24	; 0x28
    ADCB.CH1.MUXCTRL = ADC_CH_MUXPOS_PIN1_gc | ADC_CH_MUXNEG_GND_MODE4_gc;	//pocztek przemiatania od PIN14
    7d54:	2f e0       	ldi	r18, 0x0F	; 15
    7d56:	21 a7       	std	Z+41, r18	; 0x29
    ADCB.CH2.CTRL = ADC_CH_INPUTMODE_DIFFWGAIN_gc | ADC_CH_GAIN_DIV2_gc;	//tryb rnicowy ze wzmocnieniem 1/2
    7d58:	80 ab       	std	Z+48, r24	; 0x30
    ADCB.CH2.MUXCTRL = ADC_CH_MUXPOS_PIN2_gc | ADC_CH_MUXNEG_GND_MODE4_gc;	//pocztek przemiatania od PIN15
    7d5a:	27 e1       	ldi	r18, 0x17	; 23
    7d5c:	21 ab       	std	Z+49, r18	; 0x31
    ADCB.CH3.CTRL = ADC_CH_INPUTMODE_DIFFWGAIN_gc | ADC_CH_GAIN_DIV2_gc;	//tryb rnicowy ze wzmocnieniem 1/2
    7d5e:	80 af       	std	Z+56, r24	; 0x38
    ADCB.CH3.MUXCTRL = ADC_CH_MUXPOS_PIN3_gc | ADC_CH_MUXNEG_GND_MODE4_gc;	//pocztek przemiatania od PIN15
    7d60:	81 af       	std	Z+57, r24	; 0x39
    ADCB.CH3.INTCTRL = ADC_CH_INTMODE_COMPLETE_gc | ADC_CH_INTLVL_LO_gc;	//przerwanie od zakoczenia przetwarzania ostatniego kanau
    7d62:	92 af       	std	Z+58, r25	; 0x3a
    7d64:	08 95       	ret

00007d66 <USART_Init>:
}

void USART_Init(void) {
    PORTD.OUTCLR = PIN2_bm;					//konfiguracja pinw Rx i Tx
    7d66:	e0 e6       	ldi	r30, 0x60	; 96
    7d68:	f6 e0       	ldi	r31, 0x06	; 6
    7d6a:	84 e0       	ldi	r24, 0x04	; 4
    7d6c:	86 83       	std	Z+6, r24	; 0x06
    PORTD.OUTSET = PIN3_bm;
    7d6e:	88 e0       	ldi	r24, 0x08	; 8
    7d70:	85 83       	std	Z+5, r24	; 0x05
    PORTD.DIRSET = PIN3_bm;
    7d72:	81 83       	std	Z+1, r24	; 0x01
    USARTD0.CTRLC = USART_CHSIZE_8BIT_gc;	//ramka: 8bitw, 1 bit stopu, brak bitu parzystoci
    7d74:	e0 ea       	ldi	r30, 0xA0	; 160
    7d76:	f9 e0       	ldi	r31, 0x09	; 9
    7d78:	83 e0       	ldi	r24, 0x03	; 3
    7d7a:	85 83       	std	Z+5, r24	; 0x05
    int16_t BSEL = 1047;					//konfiguracja prdkoci transmisji 115200
    int8_t BSCALE = 0b10100000;				//-6
    USARTD0.BAUDCTRLA = (uint8_t)(BSEL & 0x00FF);
    7d7c:	87 e1       	ldi	r24, 0x17	; 23
    7d7e:	86 83       	std	Z+6, r24	; 0x06
    USARTD0.BAUDCTRLB = (uint8_t)(((BSEL >> 8) & 0x000F) | BSCALE) ;
    7d80:	84 ea       	ldi	r24, 0xA4	; 164
    7d82:	87 83       	std	Z+7, r24	; 0x07
    USARTD0.CTRLA |= USART_RXCINTLVL_LO_gc | USART_TXCINTLVL_HI_gc;		//odblokowanie przerwa nadajnika i odbiornika, niski priorytet
    7d84:	83 81       	ldd	r24, Z+3	; 0x03
    7d86:	8c 61       	ori	r24, 0x1C	; 28
    7d88:	83 83       	std	Z+3, r24	; 0x03
    USARTD0.CTRLB = USART_TXEN_bm | USART_RXEN_bm;						//wczenie nadajnika i odbiornika USART
    7d8a:	88 e1       	ldi	r24, 0x18	; 24
    7d8c:	84 83       	std	Z+4, r24	; 0x04
    7d8e:	08 95       	ret

00007d90 <IO_Init>:
}

void IO_Init(void) {
    7d90:	0f 93       	push	r16
    7d92:	1f 93       	push	r17
    7d94:	cf 93       	push	r28
    7d96:	df 93       	push	r29
    //konfiguracja przyciskw
    PORTB.DIRCLR = PIN4_bm | PIN5_bm | PIN6_bm | PIN7_bm;
    7d98:	a0 e2       	ldi	r26, 0x20	; 32
    7d9a:	b6 e0       	ldi	r27, 0x06	; 6
    7d9c:	80 ef       	ldi	r24, 0xF0	; 240
    7d9e:	12 96       	adiw	r26, 0x02	; 2
    7da0:	8c 93       	st	X, r24
    7da2:	12 97       	sbiw	r26, 0x02	; 2
    PORTB.PIN4CTRL = PORT_OPC_PULLUP_gc;		//wczenie Pull-up przycisku UP
    7da4:	88 e1       	ldi	r24, 0x18	; 24
    7da6:	54 96       	adiw	r26, 0x14	; 20
    7da8:	8c 93       	st	X, r24
    7daa:	54 97       	sbiw	r26, 0x14	; 20
    PORTB.PIN5CTRL = PORT_OPC_PULLUP_gc;		//wczenie Pull-up przycisku DOWN
    7dac:	55 96       	adiw	r26, 0x15	; 21
    7dae:	8c 93       	st	X, r24
    7db0:	55 97       	sbiw	r26, 0x15	; 21
    PORTB.PIN6CTRL = PORT_OPC_PULLUP_gc;		//wczenie Pull-up przycisku LEFT
    7db2:	56 96       	adiw	r26, 0x16	; 22
    7db4:	8c 93       	st	X, r24
    7db6:	56 97       	sbiw	r26, 0x16	; 22
    PORTB.PIN7CTRL = PORT_OPC_PULLUP_gc;		//wczenie Pull-up przycisku RIGHT
    7db8:	57 96       	adiw	r26, 0x17	; 23
    7dba:	8c 93       	st	X, r24
    7dbc:	57 97       	sbiw	r26, 0x17	; 23
    //konfiguracja LED
    PORTF.DIRSET = PIN0_bm | PIN1_bm | PIN2_bm | PIN3_bm | PIN4_bm | PIN5_bm;	//konfiguracja kierunku pinw LED
    7dbe:	e0 ea       	ldi	r30, 0xA0	; 160
    7dc0:	f6 e0       	ldi	r31, 0x06	; 6
    7dc2:	8f e3       	ldi	r24, 0x3F	; 63
    7dc4:	81 83       	std	Z+1, r24	; 0x01
    PORTF.OUTCLR = PIN0_bm | PIN1_bm | PIN2_bm | PIN3_bm | PIN4_bm | PIN5_bm;	//konfiguracja stanu pinw LED
    7dc6:	86 83       	std	Z+6, r24	; 0x06
    //konfiguracja buzzera
    PORTF.DIRSET = PIN6_bm;						//konfiguracja kierunku pinu buzzera
    7dc8:	80 e4       	ldi	r24, 0x40	; 64
    7dca:	81 83       	std	Z+1, r24	; 0x01
    PORTF.OUTCLR = PIN6_bm;						//konfiguracja stanu pinu buzzer
    7dcc:	86 83       	std	Z+6, r24	; 0x06
    PORTD.DIRSET = PIN0_bm;						//konfiguracja kierunku pinu buzzera
    7dce:	e0 e6       	ldi	r30, 0x60	; 96
    7dd0:	f6 e0       	ldi	r31, 0x06	; 6
    7dd2:	81 e0       	ldi	r24, 0x01	; 1
    7dd4:	81 83       	std	Z+1, r24	; 0x01
    PORTD.OUTCLR = PIN0_bm;						//konfiguracja stanu pinu buzzer
    7dd6:	86 83       	std	Z+6, r24	; 0x06
    //konfiguracja wyj RELAY
    PORTE.DIRSET = PIN0_bm | PIN1_bm | PIN2_bm;			//konfiguracja kierunku pinw RELAY
    7dd8:	c0 e8       	ldi	r28, 0x80	; 128
    7dda:	d6 e0       	ldi	r29, 0x06	; 6
    7ddc:	87 e0       	ldi	r24, 0x07	; 7
    7dde:	89 83       	std	Y+1, r24	; 0x01
    PORTE.OUTCLR = PIN0_bm | PIN1_bm | PIN2_bm;			//konfiguracja stanu pinw RELAY
    7de0:	8e 83       	std	Y+6, r24	; 0x06
    PORTR.DIRSET = PIN0_bm | PIN1_bm;					//konfiguracja kierunku pinw RELAY
    7de2:	c0 ee       	ldi	r28, 0xE0	; 224
    7de4:	d7 e0       	ldi	r29, 0x07	; 7
    7de6:	83 e0       	ldi	r24, 0x03	; 3
    7de8:	89 83       	std	Y+1, r24	; 0x01
    PORTR.OUTCLR = PIN0_bm | PIN1_bm;					//konfiguracja stanu pinw RELAY
    7dea:	8e 83       	std	Y+6, r24	; 0x06
    PORTA.DIRSET = PIN6_bm | PIN7_bm;					//konfiguracja kierunku pinw RELAY
    7dec:	20 e0       	ldi	r18, 0x00	; 0
    7dee:	36 e0       	ldi	r19, 0x06	; 6
    7df0:	90 ec       	ldi	r25, 0xC0	; 192
    7df2:	e9 01       	movw	r28, r18
    7df4:	99 83       	std	Y+1, r25	; 0x01
    PORTA.OUTCLR = PIN6_bm | PIN7_bm;					//konfiguracja stanu pinw RELAY
    7df6:	9e 83       	std	Y+6, r25	; 0x06
    //konfiguracja interfejsu XBEE
    PORTD_OUTCLR = PIN2_bm;		//RX
    7df8:	06 e6       	ldi	r16, 0x66	; 102
    7dfa:	16 e0       	ldi	r17, 0x06	; 6
    7dfc:	94 e0       	ldi	r25, 0x04	; 4
    7dfe:	e8 01       	movw	r28, r16
    7e00:	98 83       	st	Y, r25
    PORTD_DIRSET = PIN3_bm;		//TX
    7e02:	61 e6       	ldi	r22, 0x61	; 97
    7e04:	76 e0       	ldi	r23, 0x06	; 6
    7e06:	48 e0       	ldi	r20, 0x08	; 8
    7e08:	eb 01       	movw	r28, r22
    7e0a:	48 83       	st	Y, r20
    PORTD_DIRSET = PIN5_bm;		//sleep pin
    7e0c:	40 e2       	ldi	r20, 0x20	; 32
    7e0e:	48 83       	st	Y, r20
    PORTD_OUTCLR = PIN5_bm;
    7e10:	e8 01       	movw	r28, r16
    7e12:	48 83       	st	Y, r20
    //konfiguracja pinw I2C
    PORTC_DIR = PIN0_bm | PIN1_bm;
    7e14:	40 e4       	ldi	r20, 0x40	; 64
    7e16:	56 e0       	ldi	r21, 0x06	; 6
    7e18:	ea 01       	movw	r28, r20
    7e1a:	88 83       	st	Y, r24
    PORTC_OUT = PIN0_bm | PIN1_bm;
    7e1c:	80 93 44 06 	sts	0x0644, r24	; 0x800644 <__TEXT_REGION_LENGTH__+0x700644>
    //konfiguracja wej ADC
    PORTA.OUTCLR = PIN0_bm | PIN1_bm;							//Vsense
    7e20:	e9 01       	movw	r28, r18
    7e22:	8e 83       	std	Y+6, r24	; 0x06
    PORTB.OUTCLR = PIN0_bm | PIN1_bm | PIN2_bm | PIN3_bm;		//Temperature
    7e24:	8f e0       	ldi	r24, 0x0F	; 15
    7e26:	16 96       	adiw	r26, 0x06	; 6
    7e28:	8c 93       	st	X, r24
    //wyjcia servo
    PORTD.DIRSET = PIN4_bm | PIN5_bm;					//konfiguracja kierunku pinw SERVO
    7e2a:	80 e3       	ldi	r24, 0x30	; 48
    7e2c:	81 83       	std	Z+1, r24	; 0x01
    PORTD.OUTCLR = PIN4_bm | PIN5_bm;					//konfiguracja stanu pinw SERVO
    7e2e:	86 83       	std	Z+6, r24	; 0x06
    //ADC sync
    PORTD.DIRSET = PIN1_bm;						//konfiguracja kierunku pinu synchronizacja ADC
    7e30:	82 e0       	ldi	r24, 0x02	; 2
    7e32:	81 83       	std	Z+1, r24	; 0x01
    PORTD.OUTSET = PIN1_bm;						//konfiguracja stanu pinu synchronizacji ADC
    7e34:	85 83       	std	Z+5, r24	; 0x05
    //podwietlenie LCD
    PORTC.DIRSET = PIN2_bm;
    7e36:	fa 01       	movw	r30, r20
    7e38:	91 83       	std	Z+1, r25	; 0x01
    PORTC.OUTCLR = PIN2_bm;
    7e3a:	96 83       	std	Z+6, r25	; 0x06
}
    7e3c:	df 91       	pop	r29
    7e3e:	cf 91       	pop	r28
    7e40:	1f 91       	pop	r17
    7e42:	0f 91       	pop	r16
    7e44:	08 95       	ret

00007e46 <I2C_Init>:

void I2C_Init(void) {
    SENSORS_I2C.MASTER.CTRLA = TWI_MASTER_RIEN_bm | TWI_MASTER_WIEN_bm;		//ustawienie priorytetu przerwania na Low i w?aczenie przerwania od odbioru
    7e46:	e0 e8       	ldi	r30, 0x80	; 128
    7e48:	f4 e0       	ldi	r31, 0x04	; 4
    7e4a:	80 e3       	ldi	r24, 0x30	; 48
    7e4c:	81 83       	std	Z+1, r24	; 0x01
    SENSORS_I2C.MASTER.CTRLB = TWI_MASTER_SMEN_bm;                             //uruchomienie Smart Mode
    7e4e:	91 e0       	ldi	r25, 0x01	; 1
    7e50:	92 83       	std	Z+2, r25	; 0x02
    SENSORS_I2C.MASTER.BAUD = 48;                                             //BAUD = 48 -> f=300kHz    BAUD = 21 -> f=600kHz
    7e52:	85 83       	std	Z+5, r24	; 0x05
    SENSORS_I2C.MASTER.CTRLA |= TWI_MASTER_ENABLE_bm;                          //wczenie TWI
    7e54:	81 81       	ldd	r24, Z+1	; 0x01
    7e56:	88 60       	ori	r24, 0x08	; 8
    7e58:	81 83       	std	Z+1, r24	; 0x01
    SENSORS_I2C.MASTER.STATUS = TWI_MASTER_BUSSTATE_IDLE_gc;                   //I2C wolne
    7e5a:	94 83       	std	Z+4, r25	; 0x04
    7e5c:	08 95       	ret

00007e5e <SPI_Init>:
}

void SPI_Init(void) {
    SPI_PORT.DIRSET = PIN3_bm | PIN4_bm;						//podcignicie CS
    7e5e:	e0 e4       	ldi	r30, 0x40	; 64
    7e60:	f6 e0       	ldi	r31, 0x06	; 6
    7e62:	88 e1       	ldi	r24, 0x18	; 24
    7e64:	81 83       	std	Z+1, r24	; 0x01
    SPI_PORT.DIRSET = PIN5_bm | PIN7_bm;
    7e66:	80 ea       	ldi	r24, 0xA0	; 160
    7e68:	81 83       	std	Z+1, r24	; 0x01
    SPI_PORT.DIRCLR = PIN6_bm;
    7e6a:	80 e4       	ldi	r24, 0x40	; 64
    7e6c:	82 83       	std	Z+2, r24	; 0x02
    SPI_PORT.OUTSET = PIN5_bm | PIN6_bm | PIN7_bm;	//moe doda PIN6_bm
    7e6e:	80 ee       	ldi	r24, 0xE0	; 224
    7e70:	85 83       	std	Z+5, r24	; 0x05
    //-----------Clk = 4 MHz-------------------------
    ADC_SPI.CTRL = SPI_ENABLE_bm | SPI_MODE_0_gc | SPI_PRESCALER_DIV64_gc | SPI_CLK2X_bm | SPI_MASTER_bm;
    7e72:	82 ed       	ldi	r24, 0xD2	; 210
    7e74:	80 93 c0 08 	sts	0x08C0, r24	; 0x8008c0 <__TEXT_REGION_LENGTH__+0x7008c0>
    7e78:	08 95       	ret

00007e7a <prepareFrameFlash>:
	volatile uint16_t i=0, j=0;
	while(destination->frameASCII[j]) j++;
	while(source->frameASCII[i]) destination->frameASCII[j++] = source->frameASCII[i++];
	destination->frameASCII[j++] = 0;
	return j;
}
    7e7a:	fc 01       	movw	r30, r24
    7e7c:	85 a5       	ldd	r24, Z+45	; 0x2d
    7e7e:	8f 93       	push	r24
    7e80:	84 a5       	ldd	r24, Z+44	; 0x2c
    7e82:	8f 93       	push	r24
    7e84:	83 a5       	ldd	r24, Z+43	; 0x2b
    7e86:	8f 93       	push	r24
    7e88:	82 a5       	ldd	r24, Z+42	; 0x2a
    7e8a:	8f 93       	push	r24
    7e8c:	87 a1       	ldd	r24, Z+39	; 0x27
    7e8e:	90 a5       	ldd	r25, Z+40	; 0x28
    7e90:	1f 92       	push	r1
    7e92:	1f 92       	push	r1
    7e94:	9f 93       	push	r25
    7e96:	8f 93       	push	r24
    7e98:	85 a1       	ldd	r24, Z+37	; 0x25
    7e9a:	96 a1       	ldd	r25, Z+38	; 0x26
    7e9c:	1f 92       	push	r1
    7e9e:	1f 92       	push	r1
    7ea0:	9f 93       	push	r25
    7ea2:	8f 93       	push	r24
    7ea4:	83 a1       	ldd	r24, Z+35	; 0x23
    7ea6:	94 a1       	ldd	r25, Z+36	; 0x24
    7ea8:	1f 92       	push	r1
    7eaa:	1f 92       	push	r1
    7eac:	9f 93       	push	r25
    7eae:	8f 93       	push	r24
    7eb0:	81 a1       	ldd	r24, Z+33	; 0x21
    7eb2:	92 a1       	ldd	r25, Z+34	; 0x22
    7eb4:	1f 92       	push	r1
    7eb6:	1f 92       	push	r1
    7eb8:	9f 93       	push	r25
    7eba:	8f 93       	push	r24
    7ebc:	85 8d       	ldd	r24, Z+29	; 0x1d
    7ebe:	96 8d       	ldd	r25, Z+30	; 0x1e
    7ec0:	a7 8d       	ldd	r26, Z+31	; 0x1f
    7ec2:	b0 a1       	ldd	r27, Z+32	; 0x20
    7ec4:	b7 fd       	sbrc	r27, 7
    7ec6:	5d c0       	rjmp	.+186    	; 0x7f82 <prepareFrameFlash+0x108>
    7ec8:	bf 93       	push	r27
    7eca:	af 93       	push	r26
    7ecc:	9f 93       	push	r25
    7ece:	8f 93       	push	r24
    7ed0:	81 8d       	ldd	r24, Z+25	; 0x19
    7ed2:	92 8d       	ldd	r25, Z+26	; 0x1a
    7ed4:	a3 8d       	ldd	r26, Z+27	; 0x1b
    7ed6:	b4 8d       	ldd	r27, Z+28	; 0x1c
    7ed8:	b7 fd       	sbrc	r27, 7
    7eda:	7b c0       	rjmp	.+246    	; 0x7fd2 <prepareFrameFlash+0x158>
    7edc:	bf 93       	push	r27
    7ede:	af 93       	push	r26
    7ee0:	9f 93       	push	r25
    7ee2:	8f 93       	push	r24
    7ee4:	85 89       	ldd	r24, Z+21	; 0x15
    7ee6:	96 89       	ldd	r25, Z+22	; 0x16
    7ee8:	a7 89       	ldd	r26, Z+23	; 0x17
    7eea:	b0 8d       	ldd	r27, Z+24	; 0x18
    7eec:	b7 fd       	sbrc	r27, 7
    7eee:	69 c0       	rjmp	.+210    	; 0x7fc2 <prepareFrameFlash+0x148>
    7ef0:	bf 93       	push	r27
    7ef2:	af 93       	push	r26
    7ef4:	9f 93       	push	r25
    7ef6:	8f 93       	push	r24
    7ef8:	81 89       	ldd	r24, Z+17	; 0x11
    7efa:	92 89       	ldd	r25, Z+18	; 0x12
    7efc:	a3 89       	ldd	r26, Z+19	; 0x13
    7efe:	b4 89       	ldd	r27, Z+20	; 0x14
    7f00:	b7 fd       	sbrc	r27, 7
    7f02:	57 c0       	rjmp	.+174    	; 0x7fb2 <prepareFrameFlash+0x138>
    7f04:	bf 93       	push	r27
    7f06:	af 93       	push	r26
    7f08:	9f 93       	push	r25
    7f0a:	8f 93       	push	r24
    7f0c:	85 85       	ldd	r24, Z+13	; 0x0d
    7f0e:	96 85       	ldd	r25, Z+14	; 0x0e
    7f10:	a7 85       	ldd	r26, Z+15	; 0x0f
    7f12:	b0 89       	ldd	r27, Z+16	; 0x10
    7f14:	b7 fd       	sbrc	r27, 7
    7f16:	45 c0       	rjmp	.+138    	; 0x7fa2 <prepareFrameFlash+0x128>
    7f18:	bf 93       	push	r27
    7f1a:	af 93       	push	r26
    7f1c:	9f 93       	push	r25
    7f1e:	8f 93       	push	r24
    7f20:	81 85       	ldd	r24, Z+9	; 0x09
    7f22:	92 85       	ldd	r25, Z+10	; 0x0a
    7f24:	a3 85       	ldd	r26, Z+11	; 0x0b
    7f26:	b4 85       	ldd	r27, Z+12	; 0x0c
    7f28:	b7 fd       	sbrc	r27, 7
    7f2a:	33 c0       	rjmp	.+102    	; 0x7f92 <prepareFrameFlash+0x118>
    7f2c:	bf 93       	push	r27
    7f2e:	af 93       	push	r26
    7f30:	9f 93       	push	r25
    7f32:	8f 93       	push	r24
    7f34:	81 a5       	ldd	r24, Z+41	; 0x29
    7f36:	82 95       	swap	r24
    7f38:	81 70       	andi	r24, 0x01	; 1
    7f3a:	1f 92       	push	r1
    7f3c:	8f 93       	push	r24
    7f3e:	81 a5       	ldd	r24, Z+41	; 0x29
    7f40:	83 fb       	bst	r24, 3
    7f42:	88 27       	eor	r24, r24
    7f44:	80 f9       	bld	r24, 0
    7f46:	1f 92       	push	r1
    7f48:	8f 93       	push	r24
    7f4a:	81 a5       	ldd	r24, Z+41	; 0x29
    7f4c:	82 fb       	bst	r24, 2
    7f4e:	88 27       	eor	r24, r24
    7f50:	80 f9       	bld	r24, 0
    7f52:	1f 92       	push	r1
    7f54:	8f 93       	push	r24
    7f56:	81 a5       	ldd	r24, Z+41	; 0x29
    7f58:	86 95       	lsr	r24
    7f5a:	81 70       	andi	r24, 0x01	; 1
    7f5c:	1f 92       	push	r1
    7f5e:	8f 93       	push	r24
    7f60:	81 a5       	ldd	r24, Z+41	; 0x29
    7f62:	81 70       	andi	r24, 0x01	; 1
    7f64:	1f 92       	push	r1
    7f66:	8f 93       	push	r24
    7f68:	81 e7       	ldi	r24, 0x71	; 113
    7f6a:	90 e2       	ldi	r25, 0x20	; 32
    7f6c:	9f 93       	push	r25
    7f6e:	8f 93       	push	r24
    7f70:	7f 93       	push	r23
    7f72:	6f 93       	push	r22
    7f74:	1b d5       	rcall	.+2614   	; 0x89ac <sprintf>
    7f76:	8d b7       	in	r24, 0x3d	; 61
    7f78:	9e b7       	in	r25, 0x3e	; 62
    7f7a:	ca 96       	adiw	r24, 0x3a	; 58
    7f7c:	8d bf       	out	0x3d, r24	; 61
    7f7e:	9e bf       	out	0x3e, r25	; 62
    7f80:	08 95       	ret
    7f82:	b0 95       	com	r27
    7f84:	a0 95       	com	r26
    7f86:	90 95       	com	r25
    7f88:	81 95       	neg	r24
    7f8a:	9f 4f       	sbci	r25, 0xFF	; 255
    7f8c:	af 4f       	sbci	r26, 0xFF	; 255
    7f8e:	bf 4f       	sbci	r27, 0xFF	; 255
    7f90:	9b cf       	rjmp	.-202    	; 0x7ec8 <prepareFrameFlash+0x4e>
    7f92:	b0 95       	com	r27
    7f94:	a0 95       	com	r26
    7f96:	90 95       	com	r25
    7f98:	81 95       	neg	r24
    7f9a:	9f 4f       	sbci	r25, 0xFF	; 255
    7f9c:	af 4f       	sbci	r26, 0xFF	; 255
    7f9e:	bf 4f       	sbci	r27, 0xFF	; 255
    7fa0:	c5 cf       	rjmp	.-118    	; 0x7f2c <prepareFrameFlash+0xb2>
    7fa2:	b0 95       	com	r27
    7fa4:	a0 95       	com	r26
    7fa6:	90 95       	com	r25
    7fa8:	81 95       	neg	r24
    7faa:	9f 4f       	sbci	r25, 0xFF	; 255
    7fac:	af 4f       	sbci	r26, 0xFF	; 255
    7fae:	bf 4f       	sbci	r27, 0xFF	; 255
    7fb0:	b3 cf       	rjmp	.-154    	; 0x7f18 <prepareFrameFlash+0x9e>
    7fb2:	b0 95       	com	r27
    7fb4:	a0 95       	com	r26
    7fb6:	90 95       	com	r25
    7fb8:	81 95       	neg	r24
    7fba:	9f 4f       	sbci	r25, 0xFF	; 255
    7fbc:	af 4f       	sbci	r26, 0xFF	; 255
    7fbe:	bf 4f       	sbci	r27, 0xFF	; 255
    7fc0:	a1 cf       	rjmp	.-190    	; 0x7f04 <prepareFrameFlash+0x8a>
    7fc2:	b0 95       	com	r27
    7fc4:	a0 95       	com	r26
    7fc6:	90 95       	com	r25
    7fc8:	81 95       	neg	r24
    7fca:	9f 4f       	sbci	r25, 0xFF	; 255
    7fcc:	af 4f       	sbci	r26, 0xFF	; 255
    7fce:	bf 4f       	sbci	r27, 0xFF	; 255
    7fd0:	8f cf       	rjmp	.-226    	; 0x7ef0 <prepareFrameFlash+0x76>
    7fd2:	b0 95       	com	r27
    7fd4:	a0 95       	com	r26
    7fd6:	90 95       	com	r25
    7fd8:	81 95       	neg	r24
    7fda:	9f 4f       	sbci	r25, 0xFF	; 255
    7fdc:	af 4f       	sbci	r26, 0xFF	; 255
    7fde:	bf 4f       	sbci	r27, 0xFF	; 255
    7fe0:	7d cf       	rjmp	.-262    	; 0x7edc <prepareFrameFlash+0x62>

00007fe2 <Ignition_active>:
    7fe2:	84 e0       	ldi	r24, 0x04	; 4
    7fe4:	80 93 85 06 	sts	0x0685, r24	; 0x800685 <__TEXT_REGION_LENGTH__+0x700685>
    7fe8:	08 95       	ret

00007fea <Ignition_inactive>:
    7fea:	84 e0       	ldi	r24, 0x04	; 4
    7fec:	80 93 86 06 	sts	0x0686, r24	; 0x800686 <__TEXT_REGION_LENGTH__+0x700686>
    7ff0:	08 95       	ret

00007ff2 <MFV_valve_open>:
    7ff2:	82 e0       	ldi	r24, 0x02	; 2
    7ff4:	80 93 85 06 	sts	0x0685, r24	; 0x800685 <__TEXT_REGION_LENGTH__+0x700685>
    7ff8:	08 95       	ret

00007ffa <MFV_valve_close>:
    7ffa:	82 e0       	ldi	r24, 0x02	; 2
    7ffc:	80 93 86 06 	sts	0x0686, r24	; 0x800686 <__TEXT_REGION_LENGTH__+0x700686>
    8000:	08 95       	ret

00008002 <MOV_valve_open>:
    8002:	81 e0       	ldi	r24, 0x01	; 1
    8004:	80 93 85 06 	sts	0x0685, r24	; 0x800685 <__TEXT_REGION_LENGTH__+0x700685>
    8008:	08 95       	ret

0000800a <MOV_valve_close>:
    800a:	81 e0       	ldi	r24, 0x01	; 1
    800c:	80 93 86 06 	sts	0x0686, r24	; 0x800686 <__TEXT_REGION_LENGTH__+0x700686>
    8010:	08 95       	ret

00008012 <MPV_valve_open>:
    8012:	81 e0       	ldi	r24, 0x01	; 1
    8014:	80 93 e5 07 	sts	0x07E5, r24	; 0x8007e5 <__TEXT_REGION_LENGTH__+0x7007e5>
    8018:	08 95       	ret

0000801a <MPV_valve_close>:
    801a:	81 e0       	ldi	r24, 0x01	; 1
    801c:	80 93 e6 07 	sts	0x07E6, r24	; 0x8007e6 <__TEXT_REGION_LENGTH__+0x7007e6>
    8020:	08 95       	ret

00008022 <FPV_valve_open>:
    8022:	82 e0       	ldi	r24, 0x02	; 2
    8024:	80 93 e5 07 	sts	0x07E5, r24	; 0x8007e5 <__TEXT_REGION_LENGTH__+0x7007e5>
    8028:	08 95       	ret

0000802a <FPV_valve_close>:
    802a:	82 e0       	ldi	r24, 0x02	; 2
    802c:	80 93 e6 07 	sts	0x07E6, r24	; 0x8007e6 <__TEXT_REGION_LENGTH__+0x7007e6>
    8030:	08 95       	ret

00008032 <SERVO_open>:
    8032:	e0 e6       	ldi	r30, 0x60	; 96
    8034:	f6 e0       	ldi	r31, 0x06	; 6
    8036:	80 e1       	ldi	r24, 0x10	; 16
    8038:	85 83       	std	Z+5, r24	; 0x05
    803a:	80 e2       	ldi	r24, 0x20	; 32
    803c:	86 83       	std	Z+6, r24	; 0x06
    803e:	08 95       	ret

00008040 <SERVO_close>:
    8040:	e0 e6       	ldi	r30, 0x60	; 96
    8042:	f6 e0       	ldi	r31, 0x06	; 6
    8044:	80 e1       	ldi	r24, 0x10	; 16
    8046:	86 83       	std	Z+6, r24	; 0x06
    8048:	80 e2       	ldi	r24, 0x20	; 32
    804a:	85 83       	std	Z+5, r24	; 0x05
    804c:	08 95       	ret

0000804e <Buzzer_active>:
    804e:	81 e0       	ldi	r24, 0x01	; 1
    8050:	80 93 65 06 	sts	0x0665, r24	; 0x800665 <__TEXT_REGION_LENGTH__+0x700665>
    8054:	08 95       	ret

00008056 <Buzzer_inactive>:
    8056:	81 e0       	ldi	r24, 0x01	; 1
    8058:	80 93 66 06 	sts	0x0666, r24	; 0x800666 <__TEXT_REGION_LENGTH__+0x700666>
    805c:	08 95       	ret

0000805e <Light_Green>:
    805e:	80 e8       	ldi	r24, 0x80	; 128
    8060:	80 93 05 06 	sts	0x0605, r24	; 0x800605 <__TEXT_REGION_LENGTH__+0x700605>
    8064:	08 95       	ret

00008066 <Light_Red>:
    8066:	80 e8       	ldi	r24, 0x80	; 128
    8068:	80 93 06 06 	sts	0x0606, r24	; 0x800606 <__TEXT_REGION_LENGTH__+0x700606>
    806c:	08 95       	ret

0000806e <CheckOutputState>:
    806e:	cf 93       	push	r28
    8070:	df 93       	push	r29
    8072:	fc 01       	movw	r30, r24
    8074:	a0 e8       	ldi	r26, 0x80	; 128
    8076:	b6 e0       	ldi	r27, 0x06	; 6
    8078:	18 96       	adiw	r26, 0x08	; 8
    807a:	8c 91       	ld	r24, X
    807c:	18 97       	sbiw	r26, 0x08	; 8
    807e:	81 70       	andi	r24, 0x01	; 1
    8080:	82 8b       	std	Z+18, r24	; 0x12
    8082:	18 96       	adiw	r26, 0x08	; 8
    8084:	8c 91       	ld	r24, X
    8086:	18 97       	sbiw	r26, 0x08	; 8
    8088:	86 95       	lsr	r24
    808a:	81 70       	andi	r24, 0x01	; 1
    808c:	81 8b       	std	Z+17, r24	; 0x11
    808e:	c0 ee       	ldi	r28, 0xE0	; 224
    8090:	d7 e0       	ldi	r29, 0x07	; 7
    8092:	88 85       	ldd	r24, Y+8	; 0x08
    8094:	81 70       	andi	r24, 0x01	; 1
    8096:	84 8b       	std	Z+20, r24	; 0x14
    8098:	88 85       	ldd	r24, Y+8	; 0x08
    809a:	86 95       	lsr	r24
    809c:	81 70       	andi	r24, 0x01	; 1
    809e:	83 8b       	std	Z+19, r24	; 0x13
    80a0:	18 96       	adiw	r26, 0x08	; 8
    80a2:	8c 91       	ld	r24, X
    80a4:	82 fb       	bst	r24, 2
    80a6:	88 27       	eor	r24, r24
    80a8:	80 f9       	bld	r24, 0
    80aa:	85 8b       	std	Z+21, r24	; 0x15
    80ac:	a0 e6       	ldi	r26, 0x60	; 96
    80ae:	b6 e0       	ldi	r27, 0x06	; 6
    80b0:	18 96       	adiw	r26, 0x08	; 8
    80b2:	8c 91       	ld	r24, X
    80b4:	18 97       	sbiw	r26, 0x08	; 8
    80b6:	85 fb       	bst	r24, 5
    80b8:	88 27       	eor	r24, r24
    80ba:	80 f9       	bld	r24, 0
    80bc:	86 8b       	std	Z+22, r24	; 0x16
    80be:	18 96       	adiw	r26, 0x08	; 8
    80c0:	8c 91       	ld	r24, X
    80c2:	82 95       	swap	r24
    80c4:	81 70       	andi	r24, 0x01	; 1
    80c6:	87 8b       	std	Z+23, r24	; 0x17
    80c8:	df 91       	pop	r29
    80ca:	cf 91       	pop	r28
    80cc:	08 95       	ret

000080ce <ADC_tempCalc>:

void ADC_tempCalc(Analog_t * Analog){
    80ce:	4f 92       	push	r4
    80d0:	5f 92       	push	r5
    80d2:	6f 92       	push	r6
    80d4:	7f 92       	push	r7
    80d6:	8f 92       	push	r8
    80d8:	9f 92       	push	r9
    80da:	af 92       	push	r10
    80dc:	bf 92       	push	r11
    80de:	cf 92       	push	r12
    80e0:	df 92       	push	r13
    80e2:	ef 92       	push	r14
    80e4:	ff 92       	push	r15
    80e6:	cf 93       	push	r28
    80e8:	df 93       	push	r29
    80ea:	ec 01       	movw	r28, r24
	Analog->Temp1 = 2.616979*220.0*(Analog->AnalogIn1)/2048.0*3.0 / (5.0-(Analog->AnalogIn1)/2048.0*3.0) - 260.1696;
    80ec:	6c 81       	ldd	r22, Y+4	; 0x04
    80ee:	7d 81       	ldd	r23, Y+5	; 0x05
    80f0:	07 2e       	mov	r0, r23
    80f2:	00 0c       	add	r0, r0
    80f4:	88 0b       	sbc	r24, r24
    80f6:	99 0b       	sbc	r25, r25
    80f8:	69 d2       	rcall	.+1234   	; 0x85cc <__floatsisf>
    80fa:	4b 01       	movw	r8, r22
    80fc:	5c 01       	movw	r10, r24
    80fe:	20 e0       	ldi	r18, 0x00	; 0
    8100:	30 e0       	ldi	r19, 0x00	; 0
    8102:	40 e0       	ldi	r20, 0x00	; 0
    8104:	5a e3       	ldi	r21, 0x3A	; 58
    8106:	ee d2       	rcall	.+1500   	; 0x86e4 <__mulsf3>
    8108:	6b 01       	movw	r12, r22
    810a:	7c 01       	movw	r14, r24
    810c:	20 e1       	ldi	r18, 0x10	; 16
    810e:	3f ee       	ldi	r19, 0xEF	; 239
    8110:	4f e0       	ldi	r20, 0x0F	; 15
    8112:	54 e4       	ldi	r21, 0x44	; 68
    8114:	c5 01       	movw	r24, r10
    8116:	b4 01       	movw	r22, r8
    8118:	e5 d2       	rcall	.+1482   	; 0x86e4 <__mulsf3>
    811a:	20 e0       	ldi	r18, 0x00	; 0
    811c:	30 e0       	ldi	r19, 0x00	; 0
    811e:	40 e0       	ldi	r20, 0x00	; 0
    8120:	5a e3       	ldi	r21, 0x3A	; 58
    8122:	e0 d2       	rcall	.+1472   	; 0x86e4 <__mulsf3>
    8124:	20 e0       	ldi	r18, 0x00	; 0
    8126:	30 e0       	ldi	r19, 0x00	; 0
    8128:	40 e4       	ldi	r20, 0x40	; 64
    812a:	50 e4       	ldi	r21, 0x40	; 64
    812c:	db d2       	rcall	.+1462   	; 0x86e4 <__mulsf3>
    812e:	4b 01       	movw	r8, r22
    8130:	5c 01       	movw	r10, r24
    8132:	20 e0       	ldi	r18, 0x00	; 0
    8134:	30 e0       	ldi	r19, 0x00	; 0
    8136:	40 e4       	ldi	r20, 0x40	; 64
    8138:	50 e4       	ldi	r21, 0x40	; 64
    813a:	c7 01       	movw	r24, r14
    813c:	b6 01       	movw	r22, r12
    813e:	d2 d2       	rcall	.+1444   	; 0x86e4 <__mulsf3>
    8140:	9b 01       	movw	r18, r22
    8142:	ac 01       	movw	r20, r24
    8144:	60 e0       	ldi	r22, 0x00	; 0
    8146:	70 e0       	ldi	r23, 0x00	; 0
    8148:	80 ea       	ldi	r24, 0xA0	; 160
    814a:	90 e4       	ldi	r25, 0x40	; 64
    814c:	44 d1       	rcall	.+648    	; 0x83d6 <__subsf3>
    814e:	9b 01       	movw	r18, r22
    8150:	ac 01       	movw	r20, r24
    8152:	c5 01       	movw	r24, r10
    8154:	b4 01       	movw	r22, r8
    8156:	a4 d1       	rcall	.+840    	; 0x84a0 <__divsf3>
    8158:	25 eb       	ldi	r18, 0xB5	; 181
    815a:	35 e1       	ldi	r19, 0x15	; 21
    815c:	42 e8       	ldi	r20, 0x82	; 130
    815e:	53 e4       	ldi	r21, 0x43	; 67
    8160:	3a d1       	rcall	.+628    	; 0x83d6 <__subsf3>
    8162:	06 d2       	rcall	.+1036   	; 0x8570 <__fixunssfsi>
    8164:	6c 8b       	std	Y+20, r22	; 0x14
    8166:	7d 8b       	std	Y+21, r23	; 0x15
	Analog->Temp2 = 2.616979*220.0*(Analog->AnalogIn2)/2048.0*3.0 / (5.0-(Analog->AnalogIn2)/2048.0*3.0) - 260.1696;
    8168:	6e 81       	ldd	r22, Y+6	; 0x06
    816a:	7f 81       	ldd	r23, Y+7	; 0x07
    816c:	07 2e       	mov	r0, r23
    816e:	00 0c       	add	r0, r0
    8170:	88 0b       	sbc	r24, r24
    8172:	99 0b       	sbc	r25, r25
    8174:	2b d2       	rcall	.+1110   	; 0x85cc <__floatsisf>
    8176:	4b 01       	movw	r8, r22
    8178:	5c 01       	movw	r10, r24
    817a:	20 e1       	ldi	r18, 0x10	; 16
    817c:	3f ee       	ldi	r19, 0xEF	; 239
    817e:	4f e0       	ldi	r20, 0x0F	; 15
    8180:	54 e4       	ldi	r21, 0x44	; 68
    8182:	b0 d2       	rcall	.+1376   	; 0x86e4 <__mulsf3>
    8184:	20 e0       	ldi	r18, 0x00	; 0
    8186:	30 e0       	ldi	r19, 0x00	; 0
    8188:	40 e0       	ldi	r20, 0x00	; 0
    818a:	5a e3       	ldi	r21, 0x3A	; 58
    818c:	ab d2       	rcall	.+1366   	; 0x86e4 <__mulsf3>
    818e:	20 e0       	ldi	r18, 0x00	; 0
    8190:	30 e0       	ldi	r19, 0x00	; 0
    8192:	40 e4       	ldi	r20, 0x40	; 64
    8194:	50 e4       	ldi	r21, 0x40	; 64
    8196:	a6 d2       	rcall	.+1356   	; 0x86e4 <__mulsf3>
    8198:	2b 01       	movw	r4, r22
    819a:	3c 01       	movw	r6, r24
    819c:	20 e0       	ldi	r18, 0x00	; 0
    819e:	30 e0       	ldi	r19, 0x00	; 0
    81a0:	40 e0       	ldi	r20, 0x00	; 0
    81a2:	5a e3       	ldi	r21, 0x3A	; 58
    81a4:	c5 01       	movw	r24, r10
    81a6:	b4 01       	movw	r22, r8
    81a8:	9d d2       	rcall	.+1338   	; 0x86e4 <__mulsf3>
    81aa:	20 e0       	ldi	r18, 0x00	; 0
    81ac:	30 e0       	ldi	r19, 0x00	; 0
    81ae:	40 e4       	ldi	r20, 0x40	; 64
    81b0:	50 e4       	ldi	r21, 0x40	; 64
    81b2:	98 d2       	rcall	.+1328   	; 0x86e4 <__mulsf3>
    81b4:	9b 01       	movw	r18, r22
    81b6:	ac 01       	movw	r20, r24
    81b8:	60 e0       	ldi	r22, 0x00	; 0
    81ba:	70 e0       	ldi	r23, 0x00	; 0
    81bc:	80 ea       	ldi	r24, 0xA0	; 160
    81be:	90 e4       	ldi	r25, 0x40	; 64
    81c0:	0a d1       	rcall	.+532    	; 0x83d6 <__subsf3>
    81c2:	9b 01       	movw	r18, r22
    81c4:	ac 01       	movw	r20, r24
    81c6:	c3 01       	movw	r24, r6
    81c8:	b2 01       	movw	r22, r4
    81ca:	6a d1       	rcall	.+724    	; 0x84a0 <__divsf3>
    81cc:	25 eb       	ldi	r18, 0xB5	; 181
    81ce:	35 e1       	ldi	r19, 0x15	; 21
    81d0:	42 e8       	ldi	r20, 0x82	; 130
    81d2:	53 e4       	ldi	r21, 0x43	; 67
    81d4:	00 d1       	rcall	.+512    	; 0x83d6 <__subsf3>
    81d6:	cc d1       	rcall	.+920    	; 0x8570 <__fixunssfsi>
    81d8:	6e 8b       	std	Y+22, r22	; 0x16
    81da:	7f 8b       	std	Y+23, r23	; 0x17
	Analog->Temp3 = 2.616979*220.0*(Analog->AnalogIn3)/2048.0*3.0 / (5.0-(Analog->AnalogIn3)/2048.0*3.0) - 260.1696;
    81dc:	68 85       	ldd	r22, Y+8	; 0x08
    81de:	79 85       	ldd	r23, Y+9	; 0x09
    81e0:	07 2e       	mov	r0, r23
    81e2:	00 0c       	add	r0, r0
    81e4:	88 0b       	sbc	r24, r24
    81e6:	99 0b       	sbc	r25, r25
    81e8:	f1 d1       	rcall	.+994    	; 0x85cc <__floatsisf>
    81ea:	4b 01       	movw	r8, r22
    81ec:	5c 01       	movw	r10, r24
    81ee:	20 e1       	ldi	r18, 0x10	; 16
    81f0:	3f ee       	ldi	r19, 0xEF	; 239
    81f2:	4f e0       	ldi	r20, 0x0F	; 15
    81f4:	54 e4       	ldi	r21, 0x44	; 68
    81f6:	76 d2       	rcall	.+1260   	; 0x86e4 <__mulsf3>
    81f8:	20 e0       	ldi	r18, 0x00	; 0
    81fa:	30 e0       	ldi	r19, 0x00	; 0
    81fc:	40 e0       	ldi	r20, 0x00	; 0
    81fe:	5a e3       	ldi	r21, 0x3A	; 58
    8200:	71 d2       	rcall	.+1250   	; 0x86e4 <__mulsf3>
    8202:	20 e0       	ldi	r18, 0x00	; 0
    8204:	30 e0       	ldi	r19, 0x00	; 0
    8206:	40 e4       	ldi	r20, 0x40	; 64
    8208:	50 e4       	ldi	r21, 0x40	; 64
    820a:	6c d2       	rcall	.+1240   	; 0x86e4 <__mulsf3>
    820c:	2b 01       	movw	r4, r22
    820e:	3c 01       	movw	r6, r24
    8210:	20 e0       	ldi	r18, 0x00	; 0
    8212:	30 e0       	ldi	r19, 0x00	; 0
    8214:	40 e0       	ldi	r20, 0x00	; 0
    8216:	5a e3       	ldi	r21, 0x3A	; 58
    8218:	c5 01       	movw	r24, r10
    821a:	b4 01       	movw	r22, r8
    821c:	63 d2       	rcall	.+1222   	; 0x86e4 <__mulsf3>
    821e:	20 e0       	ldi	r18, 0x00	; 0
    8220:	30 e0       	ldi	r19, 0x00	; 0
    8222:	40 e4       	ldi	r20, 0x40	; 64
    8224:	50 e4       	ldi	r21, 0x40	; 64
    8226:	5e d2       	rcall	.+1212   	; 0x86e4 <__mulsf3>
    8228:	9b 01       	movw	r18, r22
    822a:	ac 01       	movw	r20, r24
    822c:	60 e0       	ldi	r22, 0x00	; 0
    822e:	70 e0       	ldi	r23, 0x00	; 0
    8230:	80 ea       	ldi	r24, 0xA0	; 160
    8232:	90 e4       	ldi	r25, 0x40	; 64
    8234:	d0 d0       	rcall	.+416    	; 0x83d6 <__subsf3>
    8236:	9b 01       	movw	r18, r22
    8238:	ac 01       	movw	r20, r24
    823a:	c3 01       	movw	r24, r6
    823c:	b2 01       	movw	r22, r4
    823e:	30 d1       	rcall	.+608    	; 0x84a0 <__divsf3>
    8240:	25 eb       	ldi	r18, 0xB5	; 181
    8242:	35 e1       	ldi	r19, 0x15	; 21
    8244:	42 e8       	ldi	r20, 0x82	; 130
    8246:	53 e4       	ldi	r21, 0x43	; 67
    8248:	c6 d0       	rcall	.+396    	; 0x83d6 <__subsf3>
    824a:	92 d1       	rcall	.+804    	; 0x8570 <__fixunssfsi>
    824c:	68 8f       	std	Y+24, r22	; 0x18
    824e:	79 8f       	std	Y+25, r23	; 0x19
	Analog->Temp4 = 2.616979*220.0*(Analog->AnalogIn4)/2048.0*3.0 / (5.0-(Analog->AnalogIn4)/2048.0*3.0) - 260.1696;
    8250:	8a 85       	ldd	r24, Y+10	; 0x0a
    8252:	9b 85       	ldd	r25, Y+11	; 0x0b
    8254:	bc 01       	movw	r22, r24
    8256:	99 0f       	add	r25, r25
    8258:	88 0b       	sbc	r24, r24
    825a:	99 0b       	sbc	r25, r25
    825c:	b7 d1       	rcall	.+878    	; 0x85cc <__floatsisf>
    825e:	4b 01       	movw	r8, r22
    8260:	5c 01       	movw	r10, r24
    8262:	20 e1       	ldi	r18, 0x10	; 16
    8264:	3f ee       	ldi	r19, 0xEF	; 239
    8266:	4f e0       	ldi	r20, 0x0F	; 15
    8268:	54 e4       	ldi	r21, 0x44	; 68
    826a:	3c d2       	rcall	.+1144   	; 0x86e4 <__mulsf3>
    826c:	20 e0       	ldi	r18, 0x00	; 0
    826e:	30 e0       	ldi	r19, 0x00	; 0
    8270:	40 e0       	ldi	r20, 0x00	; 0
    8272:	5a e3       	ldi	r21, 0x3A	; 58
    8274:	37 d2       	rcall	.+1134   	; 0x86e4 <__mulsf3>
    8276:	20 e0       	ldi	r18, 0x00	; 0
    8278:	30 e0       	ldi	r19, 0x00	; 0
    827a:	40 e4       	ldi	r20, 0x40	; 64
    827c:	50 e4       	ldi	r21, 0x40	; 64
    827e:	32 d2       	rcall	.+1124   	; 0x86e4 <__mulsf3>
    8280:	2b 01       	movw	r4, r22
    8282:	3c 01       	movw	r6, r24
    8284:	20 e0       	ldi	r18, 0x00	; 0
    8286:	30 e0       	ldi	r19, 0x00	; 0
    8288:	40 e0       	ldi	r20, 0x00	; 0
    828a:	5a e3       	ldi	r21, 0x3A	; 58
    828c:	c5 01       	movw	r24, r10
    828e:	b4 01       	movw	r22, r8
    8290:	29 d2       	rcall	.+1106   	; 0x86e4 <__mulsf3>
    8292:	20 e0       	ldi	r18, 0x00	; 0
    8294:	30 e0       	ldi	r19, 0x00	; 0
    8296:	40 e4       	ldi	r20, 0x40	; 64
    8298:	50 e4       	ldi	r21, 0x40	; 64
    829a:	24 d2       	rcall	.+1096   	; 0x86e4 <__mulsf3>
    829c:	9b 01       	movw	r18, r22
    829e:	ac 01       	movw	r20, r24
    82a0:	60 e0       	ldi	r22, 0x00	; 0
    82a2:	70 e0       	ldi	r23, 0x00	; 0
    82a4:	80 ea       	ldi	r24, 0xA0	; 160
    82a6:	90 e4       	ldi	r25, 0x40	; 64
    82a8:	96 d0       	rcall	.+300    	; 0x83d6 <__subsf3>
    82aa:	9b 01       	movw	r18, r22
    82ac:	ac 01       	movw	r20, r24
    82ae:	c3 01       	movw	r24, r6
    82b0:	b2 01       	movw	r22, r4
    82b2:	f6 d0       	rcall	.+492    	; 0x84a0 <__divsf3>
    82b4:	25 eb       	ldi	r18, 0xB5	; 181
    82b6:	35 e1       	ldi	r19, 0x15	; 21
    82b8:	42 e8       	ldi	r20, 0x82	; 130
    82ba:	53 e4       	ldi	r21, 0x43	; 67
    82bc:	8c d0       	rcall	.+280    	; 0x83d6 <__subsf3>
    82be:	58 d1       	rcall	.+688    	; 0x8570 <__fixunssfsi>
    82c0:	6a 8f       	std	Y+26, r22	; 0x1a
    82c2:	7b 8f       	std	Y+27, r23	; 0x1b
	
	float V = (Analog->AnalogIn1)/2048.0*3.3;
    82c4:	23 e3       	ldi	r18, 0x33	; 51
    82c6:	33 e3       	ldi	r19, 0x33	; 51
    82c8:	43 e5       	ldi	r20, 0x53	; 83
    82ca:	50 e4       	ldi	r21, 0x40	; 64
    82cc:	c7 01       	movw	r24, r14
    82ce:	b6 01       	movw	r22, r12
    82d0:	09 d2       	rcall	.+1042   	; 0x86e4 <__mulsf3>
    82d2:	6b 01       	movw	r12, r22
    82d4:	7c 01       	movw	r14, r24
	Analog->R1 = (V*221)/(5-V);
    82d6:	20 e0       	ldi	r18, 0x00	; 0
    82d8:	30 e0       	ldi	r19, 0x00	; 0
    82da:	4d e5       	ldi	r20, 0x5D	; 93
    82dc:	53 e4       	ldi	r21, 0x43	; 67
    82de:	02 d2       	rcall	.+1028   	; 0x86e4 <__mulsf3>
    82e0:	4b 01       	movw	r8, r22
    82e2:	5c 01       	movw	r10, r24
    82e4:	a7 01       	movw	r20, r14
    82e6:	96 01       	movw	r18, r12
    82e8:	60 e0       	ldi	r22, 0x00	; 0
    82ea:	70 e0       	ldi	r23, 0x00	; 0
    82ec:	80 ea       	ldi	r24, 0xA0	; 160
    82ee:	90 e4       	ldi	r25, 0x40	; 64
    82f0:	72 d0       	rcall	.+228    	; 0x83d6 <__subsf3>
    82f2:	9b 01       	movw	r18, r22
    82f4:	ac 01       	movw	r20, r24
    82f6:	c5 01       	movw	r24, r10
    82f8:	b4 01       	movw	r22, r8
    82fa:	d2 d0       	rcall	.+420    	; 0x84a0 <__divsf3>
    82fc:	6c 8f       	std	Y+28, r22	; 0x1c
    82fe:	7d 8f       	std	Y+29, r23	; 0x1d
    8300:	8e 8f       	std	Y+30, r24	; 0x1e
    8302:	9f 8f       	std	Y+31, r25	; 0x1f
	V = (Analog->AnalogIn1)/2048.0*3.3;
	Analog->R2 = (V*221)/(5-V);
    8304:	68 a3       	std	Y+32, r22	; 0x20
    8306:	79 a3       	std	Y+33, r23	; 0x21
    8308:	8a a3       	std	Y+34, r24	; 0x22
    830a:	9b a3       	std	Y+35, r25	; 0x23
	V = (Analog->AnalogIn1)/2048.0*3.3;
	Analog->R3 = (V*221)/(5-V);
    830c:	6c a3       	std	Y+36, r22	; 0x24
    830e:	7d a3       	std	Y+37, r23	; 0x25
    8310:	8e a3       	std	Y+38, r24	; 0x26
    8312:	9f a3       	std	Y+39, r25	; 0x27
	V = (Analog->AnalogIn1)/2048.0*3.3;
	Analog->R4 = (V*221)/(5-V);
    8314:	68 a7       	std	Y+40, r22	; 0x28
    8316:	79 a7       	std	Y+41, r23	; 0x29
    8318:	8a a7       	std	Y+42, r24	; 0x2a
    831a:	9b a7       	std	Y+43, r25	; 0x2b
}
    831c:	df 91       	pop	r29
    831e:	cf 91       	pop	r28
    8320:	ff 90       	pop	r15
    8322:	ef 90       	pop	r14
    8324:	df 90       	pop	r13
    8326:	cf 90       	pop	r12
    8328:	bf 90       	pop	r11
    832a:	af 90       	pop	r10
    832c:	9f 90       	pop	r9
    832e:	8f 90       	pop	r8
    8330:	7f 90       	pop	r7
    8332:	6f 90       	pop	r6
    8334:	5f 90       	pop	r5
    8336:	4f 90       	pop	r4
    8338:	08 95       	ret

0000833a <FindNextFilename>:

uint8_t FindNextFilename(char * filename){
    833a:	af 92       	push	r10
    833c:	bf 92       	push	r11
    833e:	cf 92       	push	r12
    8340:	df 92       	push	r13
    8342:	ef 92       	push	r14
    8344:	ff 92       	push	r15
    8346:	1f 93       	push	r17
    8348:	cf 93       	push	r28
    834a:	df 93       	push	r29
    834c:	cd b7       	in	r28, 0x3d	; 61
    834e:	de b7       	in	r29, 0x3e	; 62
    8350:	6f 97       	sbiw	r28, 0x1f	; 31
    8352:	cd bf       	out	0x3d, r28	; 61
    8354:	de bf       	out	0x3e, r29	; 62
    8356:	5c 01       	movw	r10, r24
	FILINFO fno;
	uint8_t i = 0;
    8358:	10 e0       	ldi	r17, 0x00	; 0
    835a:	ce 01       	movw	r24, r28
    835c:	47 96       	adiw	r24, 0x17	; 23
    835e:	7c 01       	movw	r14, r24
	char name[9];
	do{
		i++;
		sprintf(name, "%03u.csv",i);
    8360:	8e ec       	ldi	r24, 0xCE	; 206
    8362:	c8 2e       	mov	r12, r24
    8364:	80 e2       	ldi	r24, 0x20	; 32
    8366:	d8 2e       	mov	r13, r24
uint8_t FindNextFilename(char * filename){
	FILINFO fno;
	uint8_t i = 0;
	char name[9];
	do{
		i++;
    8368:	1f 5f       	subi	r17, 0xFF	; 255
		sprintf(name, "%03u.csv",i);
    836a:	1f 92       	push	r1
    836c:	1f 93       	push	r17
    836e:	df 92       	push	r13
    8370:	cf 92       	push	r12
    8372:	ff 92       	push	r15
    8374:	ef 92       	push	r14
    8376:	1a d3       	rcall	.+1588   	; 0x89ac <sprintf>
	}while(f_stat(name, &fno) == FR_OK);
    8378:	be 01       	movw	r22, r28
    837a:	6f 5f       	subi	r22, 0xFF	; 255
    837c:	7f 4f       	sbci	r23, 0xFF	; 255
    837e:	c7 01       	movw	r24, r14
    8380:	0e 94 3d 30 	call	0x607a	; 0x607a <f_stat>
    8384:	0f 90       	pop	r0
    8386:	0f 90       	pop	r0
    8388:	0f 90       	pop	r0
    838a:	0f 90       	pop	r0
    838c:	0f 90       	pop	r0
    838e:	0f 90       	pop	r0
    8390:	88 23       	and	r24, r24
    8392:	51 f3       	breq	.-44     	; 0x8368 <FindNextFilename+0x2e>
	*filename++ = name[0];
    8394:	8f 89       	ldd	r24, Y+23	; 0x17
    8396:	f5 01       	movw	r30, r10
    8398:	80 83       	st	Z, r24
	*filename++ = name[1];
    839a:	88 8d       	ldd	r24, Y+24	; 0x18
    839c:	81 83       	std	Z+1, r24	; 0x01
	*filename++ = name[2];
    839e:	89 8d       	ldd	r24, Y+25	; 0x19
    83a0:	82 83       	std	Z+2, r24	; 0x02
	*filename++ = name[3];
    83a2:	8a 8d       	ldd	r24, Y+26	; 0x1a
    83a4:	83 83       	std	Z+3, r24	; 0x03
	*filename++ = name[4];
    83a6:	8b 8d       	ldd	r24, Y+27	; 0x1b
    83a8:	84 83       	std	Z+4, r24	; 0x04
	*filename++ = name[5];
    83aa:	8c 8d       	ldd	r24, Y+28	; 0x1c
    83ac:	85 83       	std	Z+5, r24	; 0x05
	*filename++ = name[6];
    83ae:	8d 8d       	ldd	r24, Y+29	; 0x1d
    83b0:	86 83       	std	Z+6, r24	; 0x06
	*filename++ = name[7];
    83b2:	8e 8d       	ldd	r24, Y+30	; 0x1e
    83b4:	87 83       	std	Z+7, r24	; 0x07
	*filename++ = name[8];
    83b6:	8f 8d       	ldd	r24, Y+31	; 0x1f
    83b8:	80 87       	std	Z+8, r24	; 0x08
	
	return i;
}
    83ba:	81 2f       	mov	r24, r17
    83bc:	6f 96       	adiw	r28, 0x1f	; 31
    83be:	cd bf       	out	0x3d, r28	; 61
    83c0:	de bf       	out	0x3e, r29	; 62
    83c2:	df 91       	pop	r29
    83c4:	cf 91       	pop	r28
    83c6:	1f 91       	pop	r17
    83c8:	ff 90       	pop	r15
    83ca:	ef 90       	pop	r14
    83cc:	df 90       	pop	r13
    83ce:	cf 90       	pop	r12
    83d0:	bf 90       	pop	r11
    83d2:	af 90       	pop	r10
    83d4:	08 95       	ret

000083d6 <__subsf3>:
    83d6:	50 58       	subi	r21, 0x80	; 128

000083d8 <__addsf3>:
    83d8:	bb 27       	eor	r27, r27
    83da:	aa 27       	eor	r26, r26
    83dc:	0e d0       	rcall	.+28     	; 0x83fa <__addsf3x>
    83de:	48 c1       	rjmp	.+656    	; 0x8670 <__fp_round>
    83e0:	39 d1       	rcall	.+626    	; 0x8654 <__fp_pscA>
    83e2:	30 f0       	brcs	.+12     	; 0x83f0 <__addsf3+0x18>
    83e4:	3e d1       	rcall	.+636    	; 0x8662 <__fp_pscB>
    83e6:	20 f0       	brcs	.+8      	; 0x83f0 <__addsf3+0x18>
    83e8:	31 f4       	brne	.+12     	; 0x83f6 <__addsf3+0x1e>
    83ea:	9f 3f       	cpi	r25, 0xFF	; 255
    83ec:	11 f4       	brne	.+4      	; 0x83f2 <__addsf3+0x1a>
    83ee:	1e f4       	brtc	.+6      	; 0x83f6 <__addsf3+0x1e>
    83f0:	2e c1       	rjmp	.+604    	; 0x864e <__fp_nan>
    83f2:	0e f4       	brtc	.+2      	; 0x83f6 <__addsf3+0x1e>
    83f4:	e0 95       	com	r30
    83f6:	e7 fb       	bst	r30, 7
    83f8:	24 c1       	rjmp	.+584    	; 0x8642 <__fp_inf>

000083fa <__addsf3x>:
    83fa:	e9 2f       	mov	r30, r25
    83fc:	4a d1       	rcall	.+660    	; 0x8692 <__fp_split3>
    83fe:	80 f3       	brcs	.-32     	; 0x83e0 <__addsf3+0x8>
    8400:	ba 17       	cp	r27, r26
    8402:	62 07       	cpc	r22, r18
    8404:	73 07       	cpc	r23, r19
    8406:	84 07       	cpc	r24, r20
    8408:	95 07       	cpc	r25, r21
    840a:	18 f0       	brcs	.+6      	; 0x8412 <__addsf3x+0x18>
    840c:	71 f4       	brne	.+28     	; 0x842a <__addsf3x+0x30>
    840e:	9e f5       	brtc	.+102    	; 0x8476 <__addsf3x+0x7c>
    8410:	62 c1       	rjmp	.+708    	; 0x86d6 <__fp_zero>
    8412:	0e f4       	brtc	.+2      	; 0x8416 <__addsf3x+0x1c>
    8414:	e0 95       	com	r30
    8416:	0b 2e       	mov	r0, r27
    8418:	ba 2f       	mov	r27, r26
    841a:	a0 2d       	mov	r26, r0
    841c:	0b 01       	movw	r0, r22
    841e:	b9 01       	movw	r22, r18
    8420:	90 01       	movw	r18, r0
    8422:	0c 01       	movw	r0, r24
    8424:	ca 01       	movw	r24, r20
    8426:	a0 01       	movw	r20, r0
    8428:	11 24       	eor	r1, r1
    842a:	ff 27       	eor	r31, r31
    842c:	59 1b       	sub	r21, r25
    842e:	99 f0       	breq	.+38     	; 0x8456 <__addsf3x+0x5c>
    8430:	59 3f       	cpi	r21, 0xF9	; 249
    8432:	50 f4       	brcc	.+20     	; 0x8448 <__addsf3x+0x4e>
    8434:	50 3e       	cpi	r21, 0xE0	; 224
    8436:	68 f1       	brcs	.+90     	; 0x8492 <__addsf3x+0x98>
    8438:	1a 16       	cp	r1, r26
    843a:	f0 40       	sbci	r31, 0x00	; 0
    843c:	a2 2f       	mov	r26, r18
    843e:	23 2f       	mov	r18, r19
    8440:	34 2f       	mov	r19, r20
    8442:	44 27       	eor	r20, r20
    8444:	58 5f       	subi	r21, 0xF8	; 248
    8446:	f3 cf       	rjmp	.-26     	; 0x842e <__addsf3x+0x34>
    8448:	46 95       	lsr	r20
    844a:	37 95       	ror	r19
    844c:	27 95       	ror	r18
    844e:	a7 95       	ror	r26
    8450:	f0 40       	sbci	r31, 0x00	; 0
    8452:	53 95       	inc	r21
    8454:	c9 f7       	brne	.-14     	; 0x8448 <__addsf3x+0x4e>
    8456:	7e f4       	brtc	.+30     	; 0x8476 <__addsf3x+0x7c>
    8458:	1f 16       	cp	r1, r31
    845a:	ba 0b       	sbc	r27, r26
    845c:	62 0b       	sbc	r22, r18
    845e:	73 0b       	sbc	r23, r19
    8460:	84 0b       	sbc	r24, r20
    8462:	ba f0       	brmi	.+46     	; 0x8492 <__addsf3x+0x98>
    8464:	91 50       	subi	r25, 0x01	; 1
    8466:	a1 f0       	breq	.+40     	; 0x8490 <__addsf3x+0x96>
    8468:	ff 0f       	add	r31, r31
    846a:	bb 1f       	adc	r27, r27
    846c:	66 1f       	adc	r22, r22
    846e:	77 1f       	adc	r23, r23
    8470:	88 1f       	adc	r24, r24
    8472:	c2 f7       	brpl	.-16     	; 0x8464 <__addsf3x+0x6a>
    8474:	0e c0       	rjmp	.+28     	; 0x8492 <__addsf3x+0x98>
    8476:	ba 0f       	add	r27, r26
    8478:	62 1f       	adc	r22, r18
    847a:	73 1f       	adc	r23, r19
    847c:	84 1f       	adc	r24, r20
    847e:	48 f4       	brcc	.+18     	; 0x8492 <__addsf3x+0x98>
    8480:	87 95       	ror	r24
    8482:	77 95       	ror	r23
    8484:	67 95       	ror	r22
    8486:	b7 95       	ror	r27
    8488:	f7 95       	ror	r31
    848a:	9e 3f       	cpi	r25, 0xFE	; 254
    848c:	08 f0       	brcs	.+2      	; 0x8490 <__addsf3x+0x96>
    848e:	b3 cf       	rjmp	.-154    	; 0x83f6 <__addsf3+0x1e>
    8490:	93 95       	inc	r25
    8492:	88 0f       	add	r24, r24
    8494:	08 f0       	brcs	.+2      	; 0x8498 <__addsf3x+0x9e>
    8496:	99 27       	eor	r25, r25
    8498:	ee 0f       	add	r30, r30
    849a:	97 95       	ror	r25
    849c:	87 95       	ror	r24
    849e:	08 95       	ret

000084a0 <__divsf3>:
    84a0:	0c d0       	rcall	.+24     	; 0x84ba <__divsf3x>
    84a2:	e6 c0       	rjmp	.+460    	; 0x8670 <__fp_round>
    84a4:	de d0       	rcall	.+444    	; 0x8662 <__fp_pscB>
    84a6:	40 f0       	brcs	.+16     	; 0x84b8 <__divsf3+0x18>
    84a8:	d5 d0       	rcall	.+426    	; 0x8654 <__fp_pscA>
    84aa:	30 f0       	brcs	.+12     	; 0x84b8 <__divsf3+0x18>
    84ac:	21 f4       	brne	.+8      	; 0x84b6 <__divsf3+0x16>
    84ae:	5f 3f       	cpi	r21, 0xFF	; 255
    84b0:	19 f0       	breq	.+6      	; 0x84b8 <__divsf3+0x18>
    84b2:	c7 c0       	rjmp	.+398    	; 0x8642 <__fp_inf>
    84b4:	51 11       	cpse	r21, r1
    84b6:	10 c1       	rjmp	.+544    	; 0x86d8 <__fp_szero>
    84b8:	ca c0       	rjmp	.+404    	; 0x864e <__fp_nan>

000084ba <__divsf3x>:
    84ba:	eb d0       	rcall	.+470    	; 0x8692 <__fp_split3>
    84bc:	98 f3       	brcs	.-26     	; 0x84a4 <__divsf3+0x4>

000084be <__divsf3_pse>:
    84be:	99 23       	and	r25, r25
    84c0:	c9 f3       	breq	.-14     	; 0x84b4 <__divsf3+0x14>
    84c2:	55 23       	and	r21, r21
    84c4:	b1 f3       	breq	.-20     	; 0x84b2 <__divsf3+0x12>
    84c6:	95 1b       	sub	r25, r21
    84c8:	55 0b       	sbc	r21, r21
    84ca:	bb 27       	eor	r27, r27
    84cc:	aa 27       	eor	r26, r26
    84ce:	62 17       	cp	r22, r18
    84d0:	73 07       	cpc	r23, r19
    84d2:	84 07       	cpc	r24, r20
    84d4:	38 f0       	brcs	.+14     	; 0x84e4 <__divsf3_pse+0x26>
    84d6:	9f 5f       	subi	r25, 0xFF	; 255
    84d8:	5f 4f       	sbci	r21, 0xFF	; 255
    84da:	22 0f       	add	r18, r18
    84dc:	33 1f       	adc	r19, r19
    84de:	44 1f       	adc	r20, r20
    84e0:	aa 1f       	adc	r26, r26
    84e2:	a9 f3       	breq	.-22     	; 0x84ce <__divsf3_pse+0x10>
    84e4:	33 d0       	rcall	.+102    	; 0x854c <__divsf3_pse+0x8e>
    84e6:	0e 2e       	mov	r0, r30
    84e8:	3a f0       	brmi	.+14     	; 0x84f8 <__divsf3_pse+0x3a>
    84ea:	e0 e8       	ldi	r30, 0x80	; 128
    84ec:	30 d0       	rcall	.+96     	; 0x854e <__divsf3_pse+0x90>
    84ee:	91 50       	subi	r25, 0x01	; 1
    84f0:	50 40       	sbci	r21, 0x00	; 0
    84f2:	e6 95       	lsr	r30
    84f4:	00 1c       	adc	r0, r0
    84f6:	ca f7       	brpl	.-14     	; 0x84ea <__divsf3_pse+0x2c>
    84f8:	29 d0       	rcall	.+82     	; 0x854c <__divsf3_pse+0x8e>
    84fa:	fe 2f       	mov	r31, r30
    84fc:	27 d0       	rcall	.+78     	; 0x854c <__divsf3_pse+0x8e>
    84fe:	66 0f       	add	r22, r22
    8500:	77 1f       	adc	r23, r23
    8502:	88 1f       	adc	r24, r24
    8504:	bb 1f       	adc	r27, r27
    8506:	26 17       	cp	r18, r22
    8508:	37 07       	cpc	r19, r23
    850a:	48 07       	cpc	r20, r24
    850c:	ab 07       	cpc	r26, r27
    850e:	b0 e8       	ldi	r27, 0x80	; 128
    8510:	09 f0       	breq	.+2      	; 0x8514 <__divsf3_pse+0x56>
    8512:	bb 0b       	sbc	r27, r27
    8514:	80 2d       	mov	r24, r0
    8516:	bf 01       	movw	r22, r30
    8518:	ff 27       	eor	r31, r31
    851a:	93 58       	subi	r25, 0x83	; 131
    851c:	5f 4f       	sbci	r21, 0xFF	; 255
    851e:	2a f0       	brmi	.+10     	; 0x852a <__divsf3_pse+0x6c>
    8520:	9e 3f       	cpi	r25, 0xFE	; 254
    8522:	51 05       	cpc	r21, r1
    8524:	68 f0       	brcs	.+26     	; 0x8540 <__divsf3_pse+0x82>
    8526:	8d c0       	rjmp	.+282    	; 0x8642 <__fp_inf>
    8528:	d7 c0       	rjmp	.+430    	; 0x86d8 <__fp_szero>
    852a:	5f 3f       	cpi	r21, 0xFF	; 255
    852c:	ec f3       	brlt	.-6      	; 0x8528 <__divsf3_pse+0x6a>
    852e:	98 3e       	cpi	r25, 0xE8	; 232
    8530:	dc f3       	brlt	.-10     	; 0x8528 <__divsf3_pse+0x6a>
    8532:	86 95       	lsr	r24
    8534:	77 95       	ror	r23
    8536:	67 95       	ror	r22
    8538:	b7 95       	ror	r27
    853a:	f7 95       	ror	r31
    853c:	9f 5f       	subi	r25, 0xFF	; 255
    853e:	c9 f7       	brne	.-14     	; 0x8532 <__divsf3_pse+0x74>
    8540:	88 0f       	add	r24, r24
    8542:	91 1d       	adc	r25, r1
    8544:	96 95       	lsr	r25
    8546:	87 95       	ror	r24
    8548:	97 f9       	bld	r25, 7
    854a:	08 95       	ret
    854c:	e1 e0       	ldi	r30, 0x01	; 1
    854e:	66 0f       	add	r22, r22
    8550:	77 1f       	adc	r23, r23
    8552:	88 1f       	adc	r24, r24
    8554:	bb 1f       	adc	r27, r27
    8556:	62 17       	cp	r22, r18
    8558:	73 07       	cpc	r23, r19
    855a:	84 07       	cpc	r24, r20
    855c:	ba 07       	cpc	r27, r26
    855e:	20 f0       	brcs	.+8      	; 0x8568 <__divsf3_pse+0xaa>
    8560:	62 1b       	sub	r22, r18
    8562:	73 0b       	sbc	r23, r19
    8564:	84 0b       	sbc	r24, r20
    8566:	ba 0b       	sbc	r27, r26
    8568:	ee 1f       	adc	r30, r30
    856a:	88 f7       	brcc	.-30     	; 0x854e <__divsf3_pse+0x90>
    856c:	e0 95       	com	r30
    856e:	08 95       	ret

00008570 <__fixunssfsi>:
    8570:	98 d0       	rcall	.+304    	; 0x86a2 <__fp_splitA>
    8572:	88 f0       	brcs	.+34     	; 0x8596 <__fixunssfsi+0x26>
    8574:	9f 57       	subi	r25, 0x7F	; 127
    8576:	90 f0       	brcs	.+36     	; 0x859c <__fixunssfsi+0x2c>
    8578:	b9 2f       	mov	r27, r25
    857a:	99 27       	eor	r25, r25
    857c:	b7 51       	subi	r27, 0x17	; 23
    857e:	a0 f0       	brcs	.+40     	; 0x85a8 <__fixunssfsi+0x38>
    8580:	d1 f0       	breq	.+52     	; 0x85b6 <__fixunssfsi+0x46>
    8582:	66 0f       	add	r22, r22
    8584:	77 1f       	adc	r23, r23
    8586:	88 1f       	adc	r24, r24
    8588:	99 1f       	adc	r25, r25
    858a:	1a f0       	brmi	.+6      	; 0x8592 <__fixunssfsi+0x22>
    858c:	ba 95       	dec	r27
    858e:	c9 f7       	brne	.-14     	; 0x8582 <__fixunssfsi+0x12>
    8590:	12 c0       	rjmp	.+36     	; 0x85b6 <__fixunssfsi+0x46>
    8592:	b1 30       	cpi	r27, 0x01	; 1
    8594:	81 f0       	breq	.+32     	; 0x85b6 <__fixunssfsi+0x46>
    8596:	9f d0       	rcall	.+318    	; 0x86d6 <__fp_zero>
    8598:	b1 e0       	ldi	r27, 0x01	; 1
    859a:	08 95       	ret
    859c:	9c c0       	rjmp	.+312    	; 0x86d6 <__fp_zero>
    859e:	67 2f       	mov	r22, r23
    85a0:	78 2f       	mov	r23, r24
    85a2:	88 27       	eor	r24, r24
    85a4:	b8 5f       	subi	r27, 0xF8	; 248
    85a6:	39 f0       	breq	.+14     	; 0x85b6 <__fixunssfsi+0x46>
    85a8:	b9 3f       	cpi	r27, 0xF9	; 249
    85aa:	cc f3       	brlt	.-14     	; 0x859e <__fixunssfsi+0x2e>
    85ac:	86 95       	lsr	r24
    85ae:	77 95       	ror	r23
    85b0:	67 95       	ror	r22
    85b2:	b3 95       	inc	r27
    85b4:	d9 f7       	brne	.-10     	; 0x85ac <__fixunssfsi+0x3c>
    85b6:	3e f4       	brtc	.+14     	; 0x85c6 <__fixunssfsi+0x56>
    85b8:	90 95       	com	r25
    85ba:	80 95       	com	r24
    85bc:	70 95       	com	r23
    85be:	61 95       	neg	r22
    85c0:	7f 4f       	sbci	r23, 0xFF	; 255
    85c2:	8f 4f       	sbci	r24, 0xFF	; 255
    85c4:	9f 4f       	sbci	r25, 0xFF	; 255
    85c6:	08 95       	ret

000085c8 <__floatunsisf>:
    85c8:	e8 94       	clt
    85ca:	09 c0       	rjmp	.+18     	; 0x85de <__floatsisf+0x12>

000085cc <__floatsisf>:
    85cc:	97 fb       	bst	r25, 7
    85ce:	3e f4       	brtc	.+14     	; 0x85de <__floatsisf+0x12>
    85d0:	90 95       	com	r25
    85d2:	80 95       	com	r24
    85d4:	70 95       	com	r23
    85d6:	61 95       	neg	r22
    85d8:	7f 4f       	sbci	r23, 0xFF	; 255
    85da:	8f 4f       	sbci	r24, 0xFF	; 255
    85dc:	9f 4f       	sbci	r25, 0xFF	; 255
    85de:	99 23       	and	r25, r25
    85e0:	a9 f0       	breq	.+42     	; 0x860c <__floatsisf+0x40>
    85e2:	f9 2f       	mov	r31, r25
    85e4:	96 e9       	ldi	r25, 0x96	; 150
    85e6:	bb 27       	eor	r27, r27
    85e8:	93 95       	inc	r25
    85ea:	f6 95       	lsr	r31
    85ec:	87 95       	ror	r24
    85ee:	77 95       	ror	r23
    85f0:	67 95       	ror	r22
    85f2:	b7 95       	ror	r27
    85f4:	f1 11       	cpse	r31, r1
    85f6:	f8 cf       	rjmp	.-16     	; 0x85e8 <__floatsisf+0x1c>
    85f8:	fa f4       	brpl	.+62     	; 0x8638 <__floatsisf+0x6c>
    85fa:	bb 0f       	add	r27, r27
    85fc:	11 f4       	brne	.+4      	; 0x8602 <__floatsisf+0x36>
    85fe:	60 ff       	sbrs	r22, 0
    8600:	1b c0       	rjmp	.+54     	; 0x8638 <__floatsisf+0x6c>
    8602:	6f 5f       	subi	r22, 0xFF	; 255
    8604:	7f 4f       	sbci	r23, 0xFF	; 255
    8606:	8f 4f       	sbci	r24, 0xFF	; 255
    8608:	9f 4f       	sbci	r25, 0xFF	; 255
    860a:	16 c0       	rjmp	.+44     	; 0x8638 <__floatsisf+0x6c>
    860c:	88 23       	and	r24, r24
    860e:	11 f0       	breq	.+4      	; 0x8614 <__floatsisf+0x48>
    8610:	96 e9       	ldi	r25, 0x96	; 150
    8612:	11 c0       	rjmp	.+34     	; 0x8636 <__floatsisf+0x6a>
    8614:	77 23       	and	r23, r23
    8616:	21 f0       	breq	.+8      	; 0x8620 <__floatsisf+0x54>
    8618:	9e e8       	ldi	r25, 0x8E	; 142
    861a:	87 2f       	mov	r24, r23
    861c:	76 2f       	mov	r23, r22
    861e:	05 c0       	rjmp	.+10     	; 0x862a <__floatsisf+0x5e>
    8620:	66 23       	and	r22, r22
    8622:	71 f0       	breq	.+28     	; 0x8640 <__floatsisf+0x74>
    8624:	96 e8       	ldi	r25, 0x86	; 134
    8626:	86 2f       	mov	r24, r22
    8628:	70 e0       	ldi	r23, 0x00	; 0
    862a:	60 e0       	ldi	r22, 0x00	; 0
    862c:	2a f0       	brmi	.+10     	; 0x8638 <__floatsisf+0x6c>
    862e:	9a 95       	dec	r25
    8630:	66 0f       	add	r22, r22
    8632:	77 1f       	adc	r23, r23
    8634:	88 1f       	adc	r24, r24
    8636:	da f7       	brpl	.-10     	; 0x862e <__floatsisf+0x62>
    8638:	88 0f       	add	r24, r24
    863a:	96 95       	lsr	r25
    863c:	87 95       	ror	r24
    863e:	97 f9       	bld	r25, 7
    8640:	08 95       	ret

00008642 <__fp_inf>:
    8642:	97 f9       	bld	r25, 7
    8644:	9f 67       	ori	r25, 0x7F	; 127
    8646:	80 e8       	ldi	r24, 0x80	; 128
    8648:	70 e0       	ldi	r23, 0x00	; 0
    864a:	60 e0       	ldi	r22, 0x00	; 0
    864c:	08 95       	ret

0000864e <__fp_nan>:
    864e:	9f ef       	ldi	r25, 0xFF	; 255
    8650:	80 ec       	ldi	r24, 0xC0	; 192
    8652:	08 95       	ret

00008654 <__fp_pscA>:
    8654:	00 24       	eor	r0, r0
    8656:	0a 94       	dec	r0
    8658:	16 16       	cp	r1, r22
    865a:	17 06       	cpc	r1, r23
    865c:	18 06       	cpc	r1, r24
    865e:	09 06       	cpc	r0, r25
    8660:	08 95       	ret

00008662 <__fp_pscB>:
    8662:	00 24       	eor	r0, r0
    8664:	0a 94       	dec	r0
    8666:	12 16       	cp	r1, r18
    8668:	13 06       	cpc	r1, r19
    866a:	14 06       	cpc	r1, r20
    866c:	05 06       	cpc	r0, r21
    866e:	08 95       	ret

00008670 <__fp_round>:
    8670:	09 2e       	mov	r0, r25
    8672:	03 94       	inc	r0
    8674:	00 0c       	add	r0, r0
    8676:	11 f4       	brne	.+4      	; 0x867c <__fp_round+0xc>
    8678:	88 23       	and	r24, r24
    867a:	52 f0       	brmi	.+20     	; 0x8690 <__fp_round+0x20>
    867c:	bb 0f       	add	r27, r27
    867e:	40 f4       	brcc	.+16     	; 0x8690 <__fp_round+0x20>
    8680:	bf 2b       	or	r27, r31
    8682:	11 f4       	brne	.+4      	; 0x8688 <__fp_round+0x18>
    8684:	60 ff       	sbrs	r22, 0
    8686:	04 c0       	rjmp	.+8      	; 0x8690 <__fp_round+0x20>
    8688:	6f 5f       	subi	r22, 0xFF	; 255
    868a:	7f 4f       	sbci	r23, 0xFF	; 255
    868c:	8f 4f       	sbci	r24, 0xFF	; 255
    868e:	9f 4f       	sbci	r25, 0xFF	; 255
    8690:	08 95       	ret

00008692 <__fp_split3>:
    8692:	57 fd       	sbrc	r21, 7
    8694:	90 58       	subi	r25, 0x80	; 128
    8696:	44 0f       	add	r20, r20
    8698:	55 1f       	adc	r21, r21
    869a:	59 f0       	breq	.+22     	; 0x86b2 <__fp_splitA+0x10>
    869c:	5f 3f       	cpi	r21, 0xFF	; 255
    869e:	71 f0       	breq	.+28     	; 0x86bc <__fp_splitA+0x1a>
    86a0:	47 95       	ror	r20

000086a2 <__fp_splitA>:
    86a2:	88 0f       	add	r24, r24
    86a4:	97 fb       	bst	r25, 7
    86a6:	99 1f       	adc	r25, r25
    86a8:	61 f0       	breq	.+24     	; 0x86c2 <__fp_splitA+0x20>
    86aa:	9f 3f       	cpi	r25, 0xFF	; 255
    86ac:	79 f0       	breq	.+30     	; 0x86cc <__fp_splitA+0x2a>
    86ae:	87 95       	ror	r24
    86b0:	08 95       	ret
    86b2:	12 16       	cp	r1, r18
    86b4:	13 06       	cpc	r1, r19
    86b6:	14 06       	cpc	r1, r20
    86b8:	55 1f       	adc	r21, r21
    86ba:	f2 cf       	rjmp	.-28     	; 0x86a0 <__fp_split3+0xe>
    86bc:	46 95       	lsr	r20
    86be:	f1 df       	rcall	.-30     	; 0x86a2 <__fp_splitA>
    86c0:	08 c0       	rjmp	.+16     	; 0x86d2 <__fp_splitA+0x30>
    86c2:	16 16       	cp	r1, r22
    86c4:	17 06       	cpc	r1, r23
    86c6:	18 06       	cpc	r1, r24
    86c8:	99 1f       	adc	r25, r25
    86ca:	f1 cf       	rjmp	.-30     	; 0x86ae <__fp_splitA+0xc>
    86cc:	86 95       	lsr	r24
    86ce:	71 05       	cpc	r23, r1
    86d0:	61 05       	cpc	r22, r1
    86d2:	08 94       	sec
    86d4:	08 95       	ret

000086d6 <__fp_zero>:
    86d6:	e8 94       	clt

000086d8 <__fp_szero>:
    86d8:	bb 27       	eor	r27, r27
    86da:	66 27       	eor	r22, r22
    86dc:	77 27       	eor	r23, r23
    86de:	cb 01       	movw	r24, r22
    86e0:	97 f9       	bld	r25, 7
    86e2:	08 95       	ret

000086e4 <__mulsf3>:
    86e4:	0b d0       	rcall	.+22     	; 0x86fc <__mulsf3x>
    86e6:	c4 cf       	rjmp	.-120    	; 0x8670 <__fp_round>
    86e8:	b5 df       	rcall	.-150    	; 0x8654 <__fp_pscA>
    86ea:	28 f0       	brcs	.+10     	; 0x86f6 <__mulsf3+0x12>
    86ec:	ba df       	rcall	.-140    	; 0x8662 <__fp_pscB>
    86ee:	18 f0       	brcs	.+6      	; 0x86f6 <__mulsf3+0x12>
    86f0:	95 23       	and	r25, r21
    86f2:	09 f0       	breq	.+2      	; 0x86f6 <__mulsf3+0x12>
    86f4:	a6 cf       	rjmp	.-180    	; 0x8642 <__fp_inf>
    86f6:	ab cf       	rjmp	.-170    	; 0x864e <__fp_nan>
    86f8:	11 24       	eor	r1, r1
    86fa:	ee cf       	rjmp	.-36     	; 0x86d8 <__fp_szero>

000086fc <__mulsf3x>:
    86fc:	ca df       	rcall	.-108    	; 0x8692 <__fp_split3>
    86fe:	a0 f3       	brcs	.-24     	; 0x86e8 <__mulsf3+0x4>

00008700 <__mulsf3_pse>:
    8700:	95 9f       	mul	r25, r21
    8702:	d1 f3       	breq	.-12     	; 0x86f8 <__mulsf3+0x14>
    8704:	95 0f       	add	r25, r21
    8706:	50 e0       	ldi	r21, 0x00	; 0
    8708:	55 1f       	adc	r21, r21
    870a:	62 9f       	mul	r22, r18
    870c:	f0 01       	movw	r30, r0
    870e:	72 9f       	mul	r23, r18
    8710:	bb 27       	eor	r27, r27
    8712:	f0 0d       	add	r31, r0
    8714:	b1 1d       	adc	r27, r1
    8716:	63 9f       	mul	r22, r19
    8718:	aa 27       	eor	r26, r26
    871a:	f0 0d       	add	r31, r0
    871c:	b1 1d       	adc	r27, r1
    871e:	aa 1f       	adc	r26, r26
    8720:	64 9f       	mul	r22, r20
    8722:	66 27       	eor	r22, r22
    8724:	b0 0d       	add	r27, r0
    8726:	a1 1d       	adc	r26, r1
    8728:	66 1f       	adc	r22, r22
    872a:	82 9f       	mul	r24, r18
    872c:	22 27       	eor	r18, r18
    872e:	b0 0d       	add	r27, r0
    8730:	a1 1d       	adc	r26, r1
    8732:	62 1f       	adc	r22, r18
    8734:	73 9f       	mul	r23, r19
    8736:	b0 0d       	add	r27, r0
    8738:	a1 1d       	adc	r26, r1
    873a:	62 1f       	adc	r22, r18
    873c:	83 9f       	mul	r24, r19
    873e:	a0 0d       	add	r26, r0
    8740:	61 1d       	adc	r22, r1
    8742:	22 1f       	adc	r18, r18
    8744:	74 9f       	mul	r23, r20
    8746:	33 27       	eor	r19, r19
    8748:	a0 0d       	add	r26, r0
    874a:	61 1d       	adc	r22, r1
    874c:	23 1f       	adc	r18, r19
    874e:	84 9f       	mul	r24, r20
    8750:	60 0d       	add	r22, r0
    8752:	21 1d       	adc	r18, r1
    8754:	82 2f       	mov	r24, r18
    8756:	76 2f       	mov	r23, r22
    8758:	6a 2f       	mov	r22, r26
    875a:	11 24       	eor	r1, r1
    875c:	9f 57       	subi	r25, 0x7F	; 127
    875e:	50 40       	sbci	r21, 0x00	; 0
    8760:	8a f0       	brmi	.+34     	; 0x8784 <__mulsf3_pse+0x84>
    8762:	e1 f0       	breq	.+56     	; 0x879c <__mulsf3_pse+0x9c>
    8764:	88 23       	and	r24, r24
    8766:	4a f0       	brmi	.+18     	; 0x877a <__mulsf3_pse+0x7a>
    8768:	ee 0f       	add	r30, r30
    876a:	ff 1f       	adc	r31, r31
    876c:	bb 1f       	adc	r27, r27
    876e:	66 1f       	adc	r22, r22
    8770:	77 1f       	adc	r23, r23
    8772:	88 1f       	adc	r24, r24
    8774:	91 50       	subi	r25, 0x01	; 1
    8776:	50 40       	sbci	r21, 0x00	; 0
    8778:	a9 f7       	brne	.-22     	; 0x8764 <__mulsf3_pse+0x64>
    877a:	9e 3f       	cpi	r25, 0xFE	; 254
    877c:	51 05       	cpc	r21, r1
    877e:	70 f0       	brcs	.+28     	; 0x879c <__mulsf3_pse+0x9c>
    8780:	60 cf       	rjmp	.-320    	; 0x8642 <__fp_inf>
    8782:	aa cf       	rjmp	.-172    	; 0x86d8 <__fp_szero>
    8784:	5f 3f       	cpi	r21, 0xFF	; 255
    8786:	ec f3       	brlt	.-6      	; 0x8782 <__mulsf3_pse+0x82>
    8788:	98 3e       	cpi	r25, 0xE8	; 232
    878a:	dc f3       	brlt	.-10     	; 0x8782 <__mulsf3_pse+0x82>
    878c:	86 95       	lsr	r24
    878e:	77 95       	ror	r23
    8790:	67 95       	ror	r22
    8792:	b7 95       	ror	r27
    8794:	f7 95       	ror	r31
    8796:	e7 95       	ror	r30
    8798:	9f 5f       	subi	r25, 0xFF	; 255
    879a:	c1 f7       	brne	.-16     	; 0x878c <__mulsf3_pse+0x8c>
    879c:	fe 2b       	or	r31, r30
    879e:	88 0f       	add	r24, r24
    87a0:	91 1d       	adc	r25, r1
    87a2:	96 95       	lsr	r25
    87a4:	87 95       	ror	r24
    87a6:	97 f9       	bld	r25, 7
    87a8:	08 95       	ret

000087aa <__mulsi3>:
    87aa:	db 01       	movw	r26, r22
    87ac:	8f 93       	push	r24
    87ae:	9f 93       	push	r25
    87b0:	44 d0       	rcall	.+136    	; 0x883a <__muluhisi3>
    87b2:	bf 91       	pop	r27
    87b4:	af 91       	pop	r26
    87b6:	a2 9f       	mul	r26, r18
    87b8:	80 0d       	add	r24, r0
    87ba:	91 1d       	adc	r25, r1
    87bc:	a3 9f       	mul	r26, r19
    87be:	90 0d       	add	r25, r0
    87c0:	b2 9f       	mul	r27, r18
    87c2:	90 0d       	add	r25, r0
    87c4:	11 24       	eor	r1, r1
    87c6:	08 95       	ret

000087c8 <__udivmodsi4>:
    87c8:	a1 e2       	ldi	r26, 0x21	; 33
    87ca:	1a 2e       	mov	r1, r26
    87cc:	aa 1b       	sub	r26, r26
    87ce:	bb 1b       	sub	r27, r27
    87d0:	fd 01       	movw	r30, r26
    87d2:	0d c0       	rjmp	.+26     	; 0x87ee <__udivmodsi4_ep>

000087d4 <__udivmodsi4_loop>:
    87d4:	aa 1f       	adc	r26, r26
    87d6:	bb 1f       	adc	r27, r27
    87d8:	ee 1f       	adc	r30, r30
    87da:	ff 1f       	adc	r31, r31
    87dc:	a2 17       	cp	r26, r18
    87de:	b3 07       	cpc	r27, r19
    87e0:	e4 07       	cpc	r30, r20
    87e2:	f5 07       	cpc	r31, r21
    87e4:	20 f0       	brcs	.+8      	; 0x87ee <__udivmodsi4_ep>
    87e6:	a2 1b       	sub	r26, r18
    87e8:	b3 0b       	sbc	r27, r19
    87ea:	e4 0b       	sbc	r30, r20
    87ec:	f5 0b       	sbc	r31, r21

000087ee <__udivmodsi4_ep>:
    87ee:	66 1f       	adc	r22, r22
    87f0:	77 1f       	adc	r23, r23
    87f2:	88 1f       	adc	r24, r24
    87f4:	99 1f       	adc	r25, r25
    87f6:	1a 94       	dec	r1
    87f8:	69 f7       	brne	.-38     	; 0x87d4 <__udivmodsi4_loop>
    87fa:	60 95       	com	r22
    87fc:	70 95       	com	r23
    87fe:	80 95       	com	r24
    8800:	90 95       	com	r25
    8802:	9b 01       	movw	r18, r22
    8804:	ac 01       	movw	r20, r24
    8806:	bd 01       	movw	r22, r26
    8808:	cf 01       	movw	r24, r30
    880a:	08 95       	ret

0000880c <__tablejump2__>:
    880c:	ee 0f       	add	r30, r30
    880e:	ff 1f       	adc	r31, r31
    8810:	88 1f       	adc	r24, r24
    8812:	8b bf       	out	0x3b, r24	; 59
    8814:	07 90       	elpm	r0, Z+
    8816:	f6 91       	elpm	r31, Z
    8818:	e0 2d       	mov	r30, r0
    881a:	19 94       	eijmp

0000881c <__umulhisi3>:
    881c:	a2 9f       	mul	r26, r18
    881e:	b0 01       	movw	r22, r0
    8820:	b3 9f       	mul	r27, r19
    8822:	c0 01       	movw	r24, r0
    8824:	a3 9f       	mul	r26, r19
    8826:	70 0d       	add	r23, r0
    8828:	81 1d       	adc	r24, r1
    882a:	11 24       	eor	r1, r1
    882c:	91 1d       	adc	r25, r1
    882e:	b2 9f       	mul	r27, r18
    8830:	70 0d       	add	r23, r0
    8832:	81 1d       	adc	r24, r1
    8834:	11 24       	eor	r1, r1
    8836:	91 1d       	adc	r25, r1
    8838:	08 95       	ret

0000883a <__muluhisi3>:
    883a:	f0 df       	rcall	.-32     	; 0x881c <__umulhisi3>
    883c:	a5 9f       	mul	r26, r21
    883e:	90 0d       	add	r25, r0
    8840:	b4 9f       	mul	r27, r20
    8842:	90 0d       	add	r25, r0
    8844:	a4 9f       	mul	r26, r20
    8846:	80 0d       	add	r24, r0
    8848:	91 1d       	adc	r25, r1
    884a:	11 24       	eor	r1, r1
    884c:	08 95       	ret

0000884e <__muldi3>:
    884e:	df 93       	push	r29
    8850:	cf 93       	push	r28
    8852:	1f 93       	push	r17
    8854:	0f 93       	push	r16
    8856:	9a 9d       	mul	r25, r10
    8858:	f0 2d       	mov	r31, r0
    885a:	21 9f       	mul	r18, r17
    885c:	f0 0d       	add	r31, r0
    885e:	8b 9d       	mul	r24, r11
    8860:	f0 0d       	add	r31, r0
    8862:	8a 9d       	mul	r24, r10
    8864:	e0 2d       	mov	r30, r0
    8866:	f1 0d       	add	r31, r1
    8868:	03 9f       	mul	r16, r19
    886a:	f0 0d       	add	r31, r0
    886c:	02 9f       	mul	r16, r18
    886e:	e0 0d       	add	r30, r0
    8870:	f1 1d       	adc	r31, r1
    8872:	4e 9d       	mul	r20, r14
    8874:	e0 0d       	add	r30, r0
    8876:	f1 1d       	adc	r31, r1
    8878:	5e 9d       	mul	r21, r14
    887a:	f0 0d       	add	r31, r0
    887c:	4f 9d       	mul	r20, r15
    887e:	f0 0d       	add	r31, r0
    8880:	7f 93       	push	r23
    8882:	6f 93       	push	r22
    8884:	bf 92       	push	r11
    8886:	af 92       	push	r10
    8888:	5f 93       	push	r21
    888a:	4f 93       	push	r20
    888c:	d5 01       	movw	r26, r10
    888e:	c6 df       	rcall	.-116    	; 0x881c <__umulhisi3>
    8890:	8b 01       	movw	r16, r22
    8892:	ac 01       	movw	r20, r24
    8894:	d7 01       	movw	r26, r14
    8896:	c2 df       	rcall	.-124    	; 0x881c <__umulhisi3>
    8898:	eb 01       	movw	r28, r22
    889a:	e8 0f       	add	r30, r24
    889c:	f9 1f       	adc	r31, r25
    889e:	d6 01       	movw	r26, r12
    88a0:	1f d0       	rcall	.+62     	; 0x88e0 <__muldi3_6>
    88a2:	2f 91       	pop	r18
    88a4:	3f 91       	pop	r19
    88a6:	d6 01       	movw	r26, r12
    88a8:	b9 df       	rcall	.-142    	; 0x881c <__umulhisi3>
    88aa:	c6 0f       	add	r28, r22
    88ac:	d7 1f       	adc	r29, r23
    88ae:	e8 1f       	adc	r30, r24
    88b0:	f9 1f       	adc	r31, r25
    88b2:	af 91       	pop	r26
    88b4:	bf 91       	pop	r27
    88b6:	14 d0       	rcall	.+40     	; 0x88e0 <__muldi3_6>
    88b8:	2f 91       	pop	r18
    88ba:	3f 91       	pop	r19
    88bc:	af df       	rcall	.-162    	; 0x881c <__umulhisi3>
    88be:	c6 0f       	add	r28, r22
    88c0:	d7 1f       	adc	r29, r23
    88c2:	e8 1f       	adc	r30, r24
    88c4:	f9 1f       	adc	r31, r25
    88c6:	d6 01       	movw	r26, r12
    88c8:	a9 df       	rcall	.-174    	; 0x881c <__umulhisi3>
    88ca:	e6 0f       	add	r30, r22
    88cc:	f7 1f       	adc	r31, r23
    88ce:	98 01       	movw	r18, r16
    88d0:	be 01       	movw	r22, r28
    88d2:	cf 01       	movw	r24, r30
    88d4:	11 24       	eor	r1, r1
    88d6:	0f 91       	pop	r16
    88d8:	1f 91       	pop	r17
    88da:	cf 91       	pop	r28
    88dc:	df 91       	pop	r29
    88de:	08 95       	ret

000088e0 <__muldi3_6>:
    88e0:	9d df       	rcall	.-198    	; 0x881c <__umulhisi3>
    88e2:	46 0f       	add	r20, r22
    88e4:	57 1f       	adc	r21, r23
    88e6:	c8 1f       	adc	r28, r24
    88e8:	d9 1f       	adc	r29, r25
    88ea:	08 f4       	brcc	.+2      	; 0x88ee <__muldi3_6+0xe>
    88ec:	31 96       	adiw	r30, 0x01	; 1
    88ee:	08 95       	ret

000088f0 <__umulsidi3>:
    88f0:	e8 94       	clt

000088f2 <__umulsidi3_helper>:
    88f2:	df 93       	push	r29
    88f4:	cf 93       	push	r28
    88f6:	fc 01       	movw	r30, r24
    88f8:	db 01       	movw	r26, r22
    88fa:	90 df       	rcall	.-224    	; 0x881c <__umulhisi3>
    88fc:	7f 93       	push	r23
    88fe:	6f 93       	push	r22
    8900:	e9 01       	movw	r28, r18
    8902:	9a 01       	movw	r18, r20
    8904:	ac 01       	movw	r20, r24
    8906:	bf 93       	push	r27
    8908:	af 93       	push	r26
    890a:	3f 93       	push	r19
    890c:	2f 93       	push	r18
    890e:	df 01       	movw	r26, r30
    8910:	85 df       	rcall	.-246    	; 0x881c <__umulhisi3>
    8912:	26 f4       	brtc	.+8      	; 0x891c <__umulsidi3_helper+0x2a>
    8914:	6c 1b       	sub	r22, r28
    8916:	7d 0b       	sbc	r23, r29
    8918:	82 0b       	sbc	r24, r18
    891a:	93 0b       	sbc	r25, r19
    891c:	9e 01       	movw	r18, r28
    891e:	eb 01       	movw	r28, r22
    8920:	fc 01       	movw	r30, r24
    8922:	de df       	rcall	.-68     	; 0x88e0 <__muldi3_6>
    8924:	af 91       	pop	r26
    8926:	bf 91       	pop	r27
    8928:	2f 91       	pop	r18
    892a:	3f 91       	pop	r19
    892c:	d9 df       	rcall	.-78     	; 0x88e0 <__muldi3_6>
    892e:	be 01       	movw	r22, r28
    8930:	cf 01       	movw	r24, r30
    8932:	f9 01       	movw	r30, r18
    8934:	2f 91       	pop	r18
    8936:	3f 91       	pop	r19
    8938:	cf 91       	pop	r28
    893a:	df 91       	pop	r29
    893c:	08 95       	ret

0000893e <__ashldi3>:
    893e:	0f 93       	push	r16
    8940:	08 30       	cpi	r16, 0x08	; 8
    8942:	90 f0       	brcs	.+36     	; 0x8968 <__ashldi3+0x2a>
    8944:	98 2f       	mov	r25, r24
    8946:	87 2f       	mov	r24, r23
    8948:	76 2f       	mov	r23, r22
    894a:	65 2f       	mov	r22, r21
    894c:	54 2f       	mov	r21, r20
    894e:	43 2f       	mov	r20, r19
    8950:	32 2f       	mov	r19, r18
    8952:	22 27       	eor	r18, r18
    8954:	08 50       	subi	r16, 0x08	; 8
    8956:	f4 cf       	rjmp	.-24     	; 0x8940 <__ashldi3+0x2>
    8958:	22 0f       	add	r18, r18
    895a:	33 1f       	adc	r19, r19
    895c:	44 1f       	adc	r20, r20
    895e:	55 1f       	adc	r21, r21
    8960:	66 1f       	adc	r22, r22
    8962:	77 1f       	adc	r23, r23
    8964:	88 1f       	adc	r24, r24
    8966:	99 1f       	adc	r25, r25
    8968:	0a 95       	dec	r16
    896a:	b2 f7       	brpl	.-20     	; 0x8958 <__ashldi3+0x1a>
    896c:	0f 91       	pop	r16
    896e:	08 95       	ret

00008970 <__ashrdi3>:
    8970:	97 fb       	bst	r25, 7
    8972:	10 f8       	bld	r1, 0

00008974 <__lshrdi3>:
    8974:	16 94       	lsr	r1
    8976:	00 08       	sbc	r0, r0
    8978:	0f 93       	push	r16
    897a:	08 30       	cpi	r16, 0x08	; 8
    897c:	98 f0       	brcs	.+38     	; 0x89a4 <__lshrdi3+0x30>
    897e:	08 50       	subi	r16, 0x08	; 8
    8980:	23 2f       	mov	r18, r19
    8982:	34 2f       	mov	r19, r20
    8984:	45 2f       	mov	r20, r21
    8986:	56 2f       	mov	r21, r22
    8988:	67 2f       	mov	r22, r23
    898a:	78 2f       	mov	r23, r24
    898c:	89 2f       	mov	r24, r25
    898e:	90 2d       	mov	r25, r0
    8990:	f4 cf       	rjmp	.-24     	; 0x897a <__lshrdi3+0x6>
    8992:	05 94       	asr	r0
    8994:	97 95       	ror	r25
    8996:	87 95       	ror	r24
    8998:	77 95       	ror	r23
    899a:	67 95       	ror	r22
    899c:	57 95       	ror	r21
    899e:	47 95       	ror	r20
    89a0:	37 95       	ror	r19
    89a2:	27 95       	ror	r18
    89a4:	0a 95       	dec	r16
    89a6:	aa f7       	brpl	.-22     	; 0x8992 <__lshrdi3+0x1e>
    89a8:	0f 91       	pop	r16
    89aa:	08 95       	ret

000089ac <sprintf>:
    89ac:	0f 93       	push	r16
    89ae:	1f 93       	push	r17
    89b0:	cf 93       	push	r28
    89b2:	df 93       	push	r29
    89b4:	cd b7       	in	r28, 0x3d	; 61
    89b6:	de b7       	in	r29, 0x3e	; 62
    89b8:	2e 97       	sbiw	r28, 0x0e	; 14
    89ba:	cd bf       	out	0x3d, r28	; 61
    89bc:	de bf       	out	0x3e, r29	; 62
    89be:	0e 89       	ldd	r16, Y+22	; 0x16
    89c0:	1f 89       	ldd	r17, Y+23	; 0x17
    89c2:	86 e0       	ldi	r24, 0x06	; 6
    89c4:	8c 83       	std	Y+4, r24	; 0x04
    89c6:	09 83       	std	Y+1, r16	; 0x01
    89c8:	1a 83       	std	Y+2, r17	; 0x02
    89ca:	8f ef       	ldi	r24, 0xFF	; 255
    89cc:	9f e7       	ldi	r25, 0x7F	; 127
    89ce:	8d 83       	std	Y+5, r24	; 0x05
    89d0:	9e 83       	std	Y+6, r25	; 0x06
    89d2:	ae 01       	movw	r20, r28
    89d4:	46 5e       	subi	r20, 0xE6	; 230
    89d6:	5f 4f       	sbci	r21, 0xFF	; 255
    89d8:	68 8d       	ldd	r22, Y+24	; 0x18
    89da:	79 8d       	ldd	r23, Y+25	; 0x19
    89dc:	ce 01       	movw	r24, r28
    89de:	01 96       	adiw	r24, 0x01	; 1
    89e0:	0e d0       	rcall	.+28     	; 0x89fe <vfprintf>
    89e2:	2f 81       	ldd	r18, Y+7	; 0x07
    89e4:	38 85       	ldd	r19, Y+8	; 0x08
    89e6:	f8 01       	movw	r30, r16
    89e8:	e2 0f       	add	r30, r18
    89ea:	f3 1f       	adc	r31, r19
    89ec:	10 82       	st	Z, r1
    89ee:	2e 96       	adiw	r28, 0x0e	; 14
    89f0:	cd bf       	out	0x3d, r28	; 61
    89f2:	de bf       	out	0x3e, r29	; 62
    89f4:	df 91       	pop	r29
    89f6:	cf 91       	pop	r28
    89f8:	1f 91       	pop	r17
    89fa:	0f 91       	pop	r16
    89fc:	08 95       	ret

000089fe <vfprintf>:
    89fe:	2f 92       	push	r2
    8a00:	3f 92       	push	r3
    8a02:	4f 92       	push	r4
    8a04:	5f 92       	push	r5
    8a06:	6f 92       	push	r6
    8a08:	7f 92       	push	r7
    8a0a:	8f 92       	push	r8
    8a0c:	9f 92       	push	r9
    8a0e:	af 92       	push	r10
    8a10:	bf 92       	push	r11
    8a12:	cf 92       	push	r12
    8a14:	df 92       	push	r13
    8a16:	ef 92       	push	r14
    8a18:	ff 92       	push	r15
    8a1a:	0f 93       	push	r16
    8a1c:	1f 93       	push	r17
    8a1e:	cf 93       	push	r28
    8a20:	df 93       	push	r29
    8a22:	cd b7       	in	r28, 0x3d	; 61
    8a24:	de b7       	in	r29, 0x3e	; 62
    8a26:	2c 97       	sbiw	r28, 0x0c	; 12
    8a28:	cd bf       	out	0x3d, r28	; 61
    8a2a:	de bf       	out	0x3e, r29	; 62
    8a2c:	7c 01       	movw	r14, r24
    8a2e:	6b 01       	movw	r12, r22
    8a30:	8a 01       	movw	r16, r20
    8a32:	fc 01       	movw	r30, r24
    8a34:	16 82       	std	Z+6, r1	; 0x06
    8a36:	17 82       	std	Z+7, r1	; 0x07
    8a38:	83 81       	ldd	r24, Z+3	; 0x03
    8a3a:	81 ff       	sbrs	r24, 1
    8a3c:	b0 c1       	rjmp	.+864    	; 0x8d9e <vfprintf+0x3a0>
    8a3e:	ce 01       	movw	r24, r28
    8a40:	01 96       	adiw	r24, 0x01	; 1
    8a42:	4c 01       	movw	r8, r24
    8a44:	f7 01       	movw	r30, r14
    8a46:	93 81       	ldd	r25, Z+3	; 0x03
    8a48:	f6 01       	movw	r30, r12
    8a4a:	93 fd       	sbrc	r25, 3
    8a4c:	85 91       	lpm	r24, Z+
    8a4e:	93 ff       	sbrs	r25, 3
    8a50:	81 91       	ld	r24, Z+
    8a52:	6f 01       	movw	r12, r30
    8a54:	88 23       	and	r24, r24
    8a56:	09 f4       	brne	.+2      	; 0x8a5a <vfprintf+0x5c>
    8a58:	9e c1       	rjmp	.+828    	; 0x8d96 <vfprintf+0x398>
    8a5a:	85 32       	cpi	r24, 0x25	; 37
    8a5c:	39 f4       	brne	.+14     	; 0x8a6c <vfprintf+0x6e>
    8a5e:	93 fd       	sbrc	r25, 3
    8a60:	85 91       	lpm	r24, Z+
    8a62:	93 ff       	sbrs	r25, 3
    8a64:	81 91       	ld	r24, Z+
    8a66:	6f 01       	movw	r12, r30
    8a68:	85 32       	cpi	r24, 0x25	; 37
    8a6a:	21 f4       	brne	.+8      	; 0x8a74 <vfprintf+0x76>
    8a6c:	b7 01       	movw	r22, r14
    8a6e:	90 e0       	ldi	r25, 0x00	; 0
    8a70:	c4 d1       	rcall	.+904    	; 0x8dfa <fputc>
    8a72:	e8 cf       	rjmp	.-48     	; 0x8a44 <vfprintf+0x46>
    8a74:	51 2c       	mov	r5, r1
    8a76:	31 2c       	mov	r3, r1
    8a78:	20 e0       	ldi	r18, 0x00	; 0
    8a7a:	20 32       	cpi	r18, 0x20	; 32
    8a7c:	a0 f4       	brcc	.+40     	; 0x8aa6 <vfprintf+0xa8>
    8a7e:	8b 32       	cpi	r24, 0x2B	; 43
    8a80:	69 f0       	breq	.+26     	; 0x8a9c <vfprintf+0x9e>
    8a82:	30 f4       	brcc	.+12     	; 0x8a90 <vfprintf+0x92>
    8a84:	80 32       	cpi	r24, 0x20	; 32
    8a86:	59 f0       	breq	.+22     	; 0x8a9e <vfprintf+0xa0>
    8a88:	83 32       	cpi	r24, 0x23	; 35
    8a8a:	69 f4       	brne	.+26     	; 0x8aa6 <vfprintf+0xa8>
    8a8c:	20 61       	ori	r18, 0x10	; 16
    8a8e:	2c c0       	rjmp	.+88     	; 0x8ae8 <vfprintf+0xea>
    8a90:	8d 32       	cpi	r24, 0x2D	; 45
    8a92:	39 f0       	breq	.+14     	; 0x8aa2 <vfprintf+0xa4>
    8a94:	80 33       	cpi	r24, 0x30	; 48
    8a96:	39 f4       	brne	.+14     	; 0x8aa6 <vfprintf+0xa8>
    8a98:	21 60       	ori	r18, 0x01	; 1
    8a9a:	26 c0       	rjmp	.+76     	; 0x8ae8 <vfprintf+0xea>
    8a9c:	22 60       	ori	r18, 0x02	; 2
    8a9e:	24 60       	ori	r18, 0x04	; 4
    8aa0:	23 c0       	rjmp	.+70     	; 0x8ae8 <vfprintf+0xea>
    8aa2:	28 60       	ori	r18, 0x08	; 8
    8aa4:	21 c0       	rjmp	.+66     	; 0x8ae8 <vfprintf+0xea>
    8aa6:	27 fd       	sbrc	r18, 7
    8aa8:	27 c0       	rjmp	.+78     	; 0x8af8 <vfprintf+0xfa>
    8aaa:	30 ed       	ldi	r19, 0xD0	; 208
    8aac:	38 0f       	add	r19, r24
    8aae:	3a 30       	cpi	r19, 0x0A	; 10
    8ab0:	78 f4       	brcc	.+30     	; 0x8ad0 <vfprintf+0xd2>
    8ab2:	26 ff       	sbrs	r18, 6
    8ab4:	06 c0       	rjmp	.+12     	; 0x8ac2 <vfprintf+0xc4>
    8ab6:	fa e0       	ldi	r31, 0x0A	; 10
    8ab8:	5f 9e       	mul	r5, r31
    8aba:	30 0d       	add	r19, r0
    8abc:	11 24       	eor	r1, r1
    8abe:	53 2e       	mov	r5, r19
    8ac0:	13 c0       	rjmp	.+38     	; 0x8ae8 <vfprintf+0xea>
    8ac2:	8a e0       	ldi	r24, 0x0A	; 10
    8ac4:	38 9e       	mul	r3, r24
    8ac6:	30 0d       	add	r19, r0
    8ac8:	11 24       	eor	r1, r1
    8aca:	33 2e       	mov	r3, r19
    8acc:	20 62       	ori	r18, 0x20	; 32
    8ace:	0c c0       	rjmp	.+24     	; 0x8ae8 <vfprintf+0xea>
    8ad0:	8e 32       	cpi	r24, 0x2E	; 46
    8ad2:	21 f4       	brne	.+8      	; 0x8adc <vfprintf+0xde>
    8ad4:	26 fd       	sbrc	r18, 6
    8ad6:	5f c1       	rjmp	.+702    	; 0x8d96 <vfprintf+0x398>
    8ad8:	20 64       	ori	r18, 0x40	; 64
    8ada:	06 c0       	rjmp	.+12     	; 0x8ae8 <vfprintf+0xea>
    8adc:	8c 36       	cpi	r24, 0x6C	; 108
    8ade:	11 f4       	brne	.+4      	; 0x8ae4 <vfprintf+0xe6>
    8ae0:	20 68       	ori	r18, 0x80	; 128
    8ae2:	02 c0       	rjmp	.+4      	; 0x8ae8 <vfprintf+0xea>
    8ae4:	88 36       	cpi	r24, 0x68	; 104
    8ae6:	41 f4       	brne	.+16     	; 0x8af8 <vfprintf+0xfa>
    8ae8:	f6 01       	movw	r30, r12
    8aea:	93 fd       	sbrc	r25, 3
    8aec:	85 91       	lpm	r24, Z+
    8aee:	93 ff       	sbrs	r25, 3
    8af0:	81 91       	ld	r24, Z+
    8af2:	6f 01       	movw	r12, r30
    8af4:	81 11       	cpse	r24, r1
    8af6:	c1 cf       	rjmp	.-126    	; 0x8a7a <vfprintf+0x7c>
    8af8:	98 2f       	mov	r25, r24
    8afa:	9f 7d       	andi	r25, 0xDF	; 223
    8afc:	95 54       	subi	r25, 0x45	; 69
    8afe:	93 30       	cpi	r25, 0x03	; 3
    8b00:	28 f4       	brcc	.+10     	; 0x8b0c <vfprintf+0x10e>
    8b02:	0c 5f       	subi	r16, 0xFC	; 252
    8b04:	1f 4f       	sbci	r17, 0xFF	; 255
    8b06:	ff e3       	ldi	r31, 0x3F	; 63
    8b08:	f9 83       	std	Y+1, r31	; 0x01
    8b0a:	0d c0       	rjmp	.+26     	; 0x8b26 <vfprintf+0x128>
    8b0c:	83 36       	cpi	r24, 0x63	; 99
    8b0e:	31 f0       	breq	.+12     	; 0x8b1c <vfprintf+0x11e>
    8b10:	83 37       	cpi	r24, 0x73	; 115
    8b12:	71 f0       	breq	.+28     	; 0x8b30 <vfprintf+0x132>
    8b14:	83 35       	cpi	r24, 0x53	; 83
    8b16:	09 f0       	breq	.+2      	; 0x8b1a <vfprintf+0x11c>
    8b18:	57 c0       	rjmp	.+174    	; 0x8bc8 <vfprintf+0x1ca>
    8b1a:	21 c0       	rjmp	.+66     	; 0x8b5e <vfprintf+0x160>
    8b1c:	f8 01       	movw	r30, r16
    8b1e:	80 81       	ld	r24, Z
    8b20:	89 83       	std	Y+1, r24	; 0x01
    8b22:	0e 5f       	subi	r16, 0xFE	; 254
    8b24:	1f 4f       	sbci	r17, 0xFF	; 255
    8b26:	44 24       	eor	r4, r4
    8b28:	43 94       	inc	r4
    8b2a:	51 2c       	mov	r5, r1
    8b2c:	54 01       	movw	r10, r8
    8b2e:	14 c0       	rjmp	.+40     	; 0x8b58 <vfprintf+0x15a>
    8b30:	38 01       	movw	r6, r16
    8b32:	f2 e0       	ldi	r31, 0x02	; 2
    8b34:	6f 0e       	add	r6, r31
    8b36:	71 1c       	adc	r7, r1
    8b38:	f8 01       	movw	r30, r16
    8b3a:	a0 80       	ld	r10, Z
    8b3c:	b1 80       	ldd	r11, Z+1	; 0x01
    8b3e:	26 ff       	sbrs	r18, 6
    8b40:	03 c0       	rjmp	.+6      	; 0x8b48 <vfprintf+0x14a>
    8b42:	65 2d       	mov	r22, r5
    8b44:	70 e0       	ldi	r23, 0x00	; 0
    8b46:	02 c0       	rjmp	.+4      	; 0x8b4c <vfprintf+0x14e>
    8b48:	6f ef       	ldi	r22, 0xFF	; 255
    8b4a:	7f ef       	ldi	r23, 0xFF	; 255
    8b4c:	c5 01       	movw	r24, r10
    8b4e:	2c 87       	std	Y+12, r18	; 0x0c
    8b50:	49 d1       	rcall	.+658    	; 0x8de4 <strnlen>
    8b52:	2c 01       	movw	r4, r24
    8b54:	83 01       	movw	r16, r6
    8b56:	2c 85       	ldd	r18, Y+12	; 0x0c
    8b58:	2f 77       	andi	r18, 0x7F	; 127
    8b5a:	22 2e       	mov	r2, r18
    8b5c:	16 c0       	rjmp	.+44     	; 0x8b8a <vfprintf+0x18c>
    8b5e:	38 01       	movw	r6, r16
    8b60:	f2 e0       	ldi	r31, 0x02	; 2
    8b62:	6f 0e       	add	r6, r31
    8b64:	71 1c       	adc	r7, r1
    8b66:	f8 01       	movw	r30, r16
    8b68:	a0 80       	ld	r10, Z
    8b6a:	b1 80       	ldd	r11, Z+1	; 0x01
    8b6c:	26 ff       	sbrs	r18, 6
    8b6e:	03 c0       	rjmp	.+6      	; 0x8b76 <vfprintf+0x178>
    8b70:	65 2d       	mov	r22, r5
    8b72:	70 e0       	ldi	r23, 0x00	; 0
    8b74:	02 c0       	rjmp	.+4      	; 0x8b7a <vfprintf+0x17c>
    8b76:	6f ef       	ldi	r22, 0xFF	; 255
    8b78:	7f ef       	ldi	r23, 0xFF	; 255
    8b7a:	c5 01       	movw	r24, r10
    8b7c:	2c 87       	std	Y+12, r18	; 0x0c
    8b7e:	27 d1       	rcall	.+590    	; 0x8dce <strnlen_P>
    8b80:	2c 01       	movw	r4, r24
    8b82:	2c 85       	ldd	r18, Y+12	; 0x0c
    8b84:	20 68       	ori	r18, 0x80	; 128
    8b86:	22 2e       	mov	r2, r18
    8b88:	83 01       	movw	r16, r6
    8b8a:	23 fc       	sbrc	r2, 3
    8b8c:	19 c0       	rjmp	.+50     	; 0x8bc0 <vfprintf+0x1c2>
    8b8e:	83 2d       	mov	r24, r3
    8b90:	90 e0       	ldi	r25, 0x00	; 0
    8b92:	48 16       	cp	r4, r24
    8b94:	59 06       	cpc	r5, r25
    8b96:	a0 f4       	brcc	.+40     	; 0x8bc0 <vfprintf+0x1c2>
    8b98:	b7 01       	movw	r22, r14
    8b9a:	80 e2       	ldi	r24, 0x20	; 32
    8b9c:	90 e0       	ldi	r25, 0x00	; 0
    8b9e:	2d d1       	rcall	.+602    	; 0x8dfa <fputc>
    8ba0:	3a 94       	dec	r3
    8ba2:	f5 cf       	rjmp	.-22     	; 0x8b8e <vfprintf+0x190>
    8ba4:	f5 01       	movw	r30, r10
    8ba6:	27 fc       	sbrc	r2, 7
    8ba8:	85 91       	lpm	r24, Z+
    8baa:	27 fe       	sbrs	r2, 7
    8bac:	81 91       	ld	r24, Z+
    8bae:	5f 01       	movw	r10, r30
    8bb0:	b7 01       	movw	r22, r14
    8bb2:	90 e0       	ldi	r25, 0x00	; 0
    8bb4:	22 d1       	rcall	.+580    	; 0x8dfa <fputc>
    8bb6:	31 10       	cpse	r3, r1
    8bb8:	3a 94       	dec	r3
    8bba:	f1 e0       	ldi	r31, 0x01	; 1
    8bbc:	4f 1a       	sub	r4, r31
    8bbe:	51 08       	sbc	r5, r1
    8bc0:	41 14       	cp	r4, r1
    8bc2:	51 04       	cpc	r5, r1
    8bc4:	79 f7       	brne	.-34     	; 0x8ba4 <vfprintf+0x1a6>
    8bc6:	de c0       	rjmp	.+444    	; 0x8d84 <vfprintf+0x386>
    8bc8:	84 36       	cpi	r24, 0x64	; 100
    8bca:	11 f0       	breq	.+4      	; 0x8bd0 <vfprintf+0x1d2>
    8bcc:	89 36       	cpi	r24, 0x69	; 105
    8bce:	31 f5       	brne	.+76     	; 0x8c1c <vfprintf+0x21e>
    8bd0:	f8 01       	movw	r30, r16
    8bd2:	27 ff       	sbrs	r18, 7
    8bd4:	07 c0       	rjmp	.+14     	; 0x8be4 <vfprintf+0x1e6>
    8bd6:	60 81       	ld	r22, Z
    8bd8:	71 81       	ldd	r23, Z+1	; 0x01
    8bda:	82 81       	ldd	r24, Z+2	; 0x02
    8bdc:	93 81       	ldd	r25, Z+3	; 0x03
    8bde:	0c 5f       	subi	r16, 0xFC	; 252
    8be0:	1f 4f       	sbci	r17, 0xFF	; 255
    8be2:	08 c0       	rjmp	.+16     	; 0x8bf4 <vfprintf+0x1f6>
    8be4:	60 81       	ld	r22, Z
    8be6:	71 81       	ldd	r23, Z+1	; 0x01
    8be8:	07 2e       	mov	r0, r23
    8bea:	00 0c       	add	r0, r0
    8bec:	88 0b       	sbc	r24, r24
    8bee:	99 0b       	sbc	r25, r25
    8bf0:	0e 5f       	subi	r16, 0xFE	; 254
    8bf2:	1f 4f       	sbci	r17, 0xFF	; 255
    8bf4:	2f 76       	andi	r18, 0x6F	; 111
    8bf6:	72 2e       	mov	r7, r18
    8bf8:	97 ff       	sbrs	r25, 7
    8bfa:	09 c0       	rjmp	.+18     	; 0x8c0e <vfprintf+0x210>
    8bfc:	90 95       	com	r25
    8bfe:	80 95       	com	r24
    8c00:	70 95       	com	r23
    8c02:	61 95       	neg	r22
    8c04:	7f 4f       	sbci	r23, 0xFF	; 255
    8c06:	8f 4f       	sbci	r24, 0xFF	; 255
    8c08:	9f 4f       	sbci	r25, 0xFF	; 255
    8c0a:	20 68       	ori	r18, 0x80	; 128
    8c0c:	72 2e       	mov	r7, r18
    8c0e:	2a e0       	ldi	r18, 0x0A	; 10
    8c10:	30 e0       	ldi	r19, 0x00	; 0
    8c12:	a4 01       	movw	r20, r8
    8c14:	2a d1       	rcall	.+596    	; 0x8e6a <__ultoa_invert>
    8c16:	a8 2e       	mov	r10, r24
    8c18:	a8 18       	sub	r10, r8
    8c1a:	43 c0       	rjmp	.+134    	; 0x8ca2 <vfprintf+0x2a4>
    8c1c:	85 37       	cpi	r24, 0x75	; 117
    8c1e:	29 f4       	brne	.+10     	; 0x8c2a <vfprintf+0x22c>
    8c20:	2f 7e       	andi	r18, 0xEF	; 239
    8c22:	b2 2e       	mov	r11, r18
    8c24:	2a e0       	ldi	r18, 0x0A	; 10
    8c26:	30 e0       	ldi	r19, 0x00	; 0
    8c28:	25 c0       	rjmp	.+74     	; 0x8c74 <vfprintf+0x276>
    8c2a:	f2 2f       	mov	r31, r18
    8c2c:	f9 7f       	andi	r31, 0xF9	; 249
    8c2e:	bf 2e       	mov	r11, r31
    8c30:	8f 36       	cpi	r24, 0x6F	; 111
    8c32:	c1 f0       	breq	.+48     	; 0x8c64 <vfprintf+0x266>
    8c34:	18 f4       	brcc	.+6      	; 0x8c3c <vfprintf+0x23e>
    8c36:	88 35       	cpi	r24, 0x58	; 88
    8c38:	79 f0       	breq	.+30     	; 0x8c58 <vfprintf+0x25a>
    8c3a:	ad c0       	rjmp	.+346    	; 0x8d96 <vfprintf+0x398>
    8c3c:	80 37       	cpi	r24, 0x70	; 112
    8c3e:	19 f0       	breq	.+6      	; 0x8c46 <vfprintf+0x248>
    8c40:	88 37       	cpi	r24, 0x78	; 120
    8c42:	21 f0       	breq	.+8      	; 0x8c4c <vfprintf+0x24e>
    8c44:	a8 c0       	rjmp	.+336    	; 0x8d96 <vfprintf+0x398>
    8c46:	2f 2f       	mov	r18, r31
    8c48:	20 61       	ori	r18, 0x10	; 16
    8c4a:	b2 2e       	mov	r11, r18
    8c4c:	b4 fe       	sbrs	r11, 4
    8c4e:	0d c0       	rjmp	.+26     	; 0x8c6a <vfprintf+0x26c>
    8c50:	8b 2d       	mov	r24, r11
    8c52:	84 60       	ori	r24, 0x04	; 4
    8c54:	b8 2e       	mov	r11, r24
    8c56:	09 c0       	rjmp	.+18     	; 0x8c6a <vfprintf+0x26c>
    8c58:	24 ff       	sbrs	r18, 4
    8c5a:	0a c0       	rjmp	.+20     	; 0x8c70 <vfprintf+0x272>
    8c5c:	9f 2f       	mov	r25, r31
    8c5e:	96 60       	ori	r25, 0x06	; 6
    8c60:	b9 2e       	mov	r11, r25
    8c62:	06 c0       	rjmp	.+12     	; 0x8c70 <vfprintf+0x272>
    8c64:	28 e0       	ldi	r18, 0x08	; 8
    8c66:	30 e0       	ldi	r19, 0x00	; 0
    8c68:	05 c0       	rjmp	.+10     	; 0x8c74 <vfprintf+0x276>
    8c6a:	20 e1       	ldi	r18, 0x10	; 16
    8c6c:	30 e0       	ldi	r19, 0x00	; 0
    8c6e:	02 c0       	rjmp	.+4      	; 0x8c74 <vfprintf+0x276>
    8c70:	20 e1       	ldi	r18, 0x10	; 16
    8c72:	32 e0       	ldi	r19, 0x02	; 2
    8c74:	f8 01       	movw	r30, r16
    8c76:	b7 fe       	sbrs	r11, 7
    8c78:	07 c0       	rjmp	.+14     	; 0x8c88 <vfprintf+0x28a>
    8c7a:	60 81       	ld	r22, Z
    8c7c:	71 81       	ldd	r23, Z+1	; 0x01
    8c7e:	82 81       	ldd	r24, Z+2	; 0x02
    8c80:	93 81       	ldd	r25, Z+3	; 0x03
    8c82:	0c 5f       	subi	r16, 0xFC	; 252
    8c84:	1f 4f       	sbci	r17, 0xFF	; 255
    8c86:	06 c0       	rjmp	.+12     	; 0x8c94 <vfprintf+0x296>
    8c88:	60 81       	ld	r22, Z
    8c8a:	71 81       	ldd	r23, Z+1	; 0x01
    8c8c:	80 e0       	ldi	r24, 0x00	; 0
    8c8e:	90 e0       	ldi	r25, 0x00	; 0
    8c90:	0e 5f       	subi	r16, 0xFE	; 254
    8c92:	1f 4f       	sbci	r17, 0xFF	; 255
    8c94:	a4 01       	movw	r20, r8
    8c96:	e9 d0       	rcall	.+466    	; 0x8e6a <__ultoa_invert>
    8c98:	a8 2e       	mov	r10, r24
    8c9a:	a8 18       	sub	r10, r8
    8c9c:	fb 2d       	mov	r31, r11
    8c9e:	ff 77       	andi	r31, 0x7F	; 127
    8ca0:	7f 2e       	mov	r7, r31
    8ca2:	76 fe       	sbrs	r7, 6
    8ca4:	0b c0       	rjmp	.+22     	; 0x8cbc <vfprintf+0x2be>
    8ca6:	37 2d       	mov	r19, r7
    8ca8:	3e 7f       	andi	r19, 0xFE	; 254
    8caa:	a5 14       	cp	r10, r5
    8cac:	50 f4       	brcc	.+20     	; 0x8cc2 <vfprintf+0x2c4>
    8cae:	74 fe       	sbrs	r7, 4
    8cb0:	0a c0       	rjmp	.+20     	; 0x8cc6 <vfprintf+0x2c8>
    8cb2:	72 fc       	sbrc	r7, 2
    8cb4:	08 c0       	rjmp	.+16     	; 0x8cc6 <vfprintf+0x2c8>
    8cb6:	37 2d       	mov	r19, r7
    8cb8:	3e 7e       	andi	r19, 0xEE	; 238
    8cba:	05 c0       	rjmp	.+10     	; 0x8cc6 <vfprintf+0x2c8>
    8cbc:	ba 2c       	mov	r11, r10
    8cbe:	37 2d       	mov	r19, r7
    8cc0:	03 c0       	rjmp	.+6      	; 0x8cc8 <vfprintf+0x2ca>
    8cc2:	ba 2c       	mov	r11, r10
    8cc4:	01 c0       	rjmp	.+2      	; 0x8cc8 <vfprintf+0x2ca>
    8cc6:	b5 2c       	mov	r11, r5
    8cc8:	34 ff       	sbrs	r19, 4
    8cca:	0d c0       	rjmp	.+26     	; 0x8ce6 <vfprintf+0x2e8>
    8ccc:	fe 01       	movw	r30, r28
    8cce:	ea 0d       	add	r30, r10
    8cd0:	f1 1d       	adc	r31, r1
    8cd2:	80 81       	ld	r24, Z
    8cd4:	80 33       	cpi	r24, 0x30	; 48
    8cd6:	11 f4       	brne	.+4      	; 0x8cdc <vfprintf+0x2de>
    8cd8:	39 7e       	andi	r19, 0xE9	; 233
    8cda:	09 c0       	rjmp	.+18     	; 0x8cee <vfprintf+0x2f0>
    8cdc:	32 ff       	sbrs	r19, 2
    8cde:	06 c0       	rjmp	.+12     	; 0x8cec <vfprintf+0x2ee>
    8ce0:	b3 94       	inc	r11
    8ce2:	b3 94       	inc	r11
    8ce4:	04 c0       	rjmp	.+8      	; 0x8cee <vfprintf+0x2f0>
    8ce6:	83 2f       	mov	r24, r19
    8ce8:	86 78       	andi	r24, 0x86	; 134
    8cea:	09 f0       	breq	.+2      	; 0x8cee <vfprintf+0x2f0>
    8cec:	b3 94       	inc	r11
    8cee:	33 fd       	sbrc	r19, 3
    8cf0:	12 c0       	rjmp	.+36     	; 0x8d16 <vfprintf+0x318>
    8cf2:	30 ff       	sbrs	r19, 0
    8cf4:	06 c0       	rjmp	.+12     	; 0x8d02 <vfprintf+0x304>
    8cf6:	5a 2c       	mov	r5, r10
    8cf8:	b3 14       	cp	r11, r3
    8cfa:	18 f4       	brcc	.+6      	; 0x8d02 <vfprintf+0x304>
    8cfc:	53 0c       	add	r5, r3
    8cfe:	5b 18       	sub	r5, r11
    8d00:	b3 2c       	mov	r11, r3
    8d02:	b3 14       	cp	r11, r3
    8d04:	60 f4       	brcc	.+24     	; 0x8d1e <vfprintf+0x320>
    8d06:	b7 01       	movw	r22, r14
    8d08:	80 e2       	ldi	r24, 0x20	; 32
    8d0a:	90 e0       	ldi	r25, 0x00	; 0
    8d0c:	3c 87       	std	Y+12, r19	; 0x0c
    8d0e:	75 d0       	rcall	.+234    	; 0x8dfa <fputc>
    8d10:	b3 94       	inc	r11
    8d12:	3c 85       	ldd	r19, Y+12	; 0x0c
    8d14:	f6 cf       	rjmp	.-20     	; 0x8d02 <vfprintf+0x304>
    8d16:	b3 14       	cp	r11, r3
    8d18:	10 f4       	brcc	.+4      	; 0x8d1e <vfprintf+0x320>
    8d1a:	3b 18       	sub	r3, r11
    8d1c:	01 c0       	rjmp	.+2      	; 0x8d20 <vfprintf+0x322>
    8d1e:	31 2c       	mov	r3, r1
    8d20:	34 ff       	sbrs	r19, 4
    8d22:	11 c0       	rjmp	.+34     	; 0x8d46 <vfprintf+0x348>
    8d24:	b7 01       	movw	r22, r14
    8d26:	80 e3       	ldi	r24, 0x30	; 48
    8d28:	90 e0       	ldi	r25, 0x00	; 0
    8d2a:	3c 87       	std	Y+12, r19	; 0x0c
    8d2c:	66 d0       	rcall	.+204    	; 0x8dfa <fputc>
    8d2e:	3c 85       	ldd	r19, Y+12	; 0x0c
    8d30:	32 ff       	sbrs	r19, 2
    8d32:	16 c0       	rjmp	.+44     	; 0x8d60 <vfprintf+0x362>
    8d34:	31 fd       	sbrc	r19, 1
    8d36:	03 c0       	rjmp	.+6      	; 0x8d3e <vfprintf+0x340>
    8d38:	88 e7       	ldi	r24, 0x78	; 120
    8d3a:	90 e0       	ldi	r25, 0x00	; 0
    8d3c:	02 c0       	rjmp	.+4      	; 0x8d42 <vfprintf+0x344>
    8d3e:	88 e5       	ldi	r24, 0x58	; 88
    8d40:	90 e0       	ldi	r25, 0x00	; 0
    8d42:	b7 01       	movw	r22, r14
    8d44:	0c c0       	rjmp	.+24     	; 0x8d5e <vfprintf+0x360>
    8d46:	83 2f       	mov	r24, r19
    8d48:	86 78       	andi	r24, 0x86	; 134
    8d4a:	51 f0       	breq	.+20     	; 0x8d60 <vfprintf+0x362>
    8d4c:	31 ff       	sbrs	r19, 1
    8d4e:	02 c0       	rjmp	.+4      	; 0x8d54 <vfprintf+0x356>
    8d50:	8b e2       	ldi	r24, 0x2B	; 43
    8d52:	01 c0       	rjmp	.+2      	; 0x8d56 <vfprintf+0x358>
    8d54:	80 e2       	ldi	r24, 0x20	; 32
    8d56:	37 fd       	sbrc	r19, 7
    8d58:	8d e2       	ldi	r24, 0x2D	; 45
    8d5a:	b7 01       	movw	r22, r14
    8d5c:	90 e0       	ldi	r25, 0x00	; 0
    8d5e:	4d d0       	rcall	.+154    	; 0x8dfa <fputc>
    8d60:	a5 14       	cp	r10, r5
    8d62:	30 f4       	brcc	.+12     	; 0x8d70 <vfprintf+0x372>
    8d64:	b7 01       	movw	r22, r14
    8d66:	80 e3       	ldi	r24, 0x30	; 48
    8d68:	90 e0       	ldi	r25, 0x00	; 0
    8d6a:	47 d0       	rcall	.+142    	; 0x8dfa <fputc>
    8d6c:	5a 94       	dec	r5
    8d6e:	f8 cf       	rjmp	.-16     	; 0x8d60 <vfprintf+0x362>
    8d70:	aa 94       	dec	r10
    8d72:	f4 01       	movw	r30, r8
    8d74:	ea 0d       	add	r30, r10
    8d76:	f1 1d       	adc	r31, r1
    8d78:	80 81       	ld	r24, Z
    8d7a:	b7 01       	movw	r22, r14
    8d7c:	90 e0       	ldi	r25, 0x00	; 0
    8d7e:	3d d0       	rcall	.+122    	; 0x8dfa <fputc>
    8d80:	a1 10       	cpse	r10, r1
    8d82:	f6 cf       	rjmp	.-20     	; 0x8d70 <vfprintf+0x372>
    8d84:	33 20       	and	r3, r3
    8d86:	09 f4       	brne	.+2      	; 0x8d8a <vfprintf+0x38c>
    8d88:	5d ce       	rjmp	.-838    	; 0x8a44 <vfprintf+0x46>
    8d8a:	b7 01       	movw	r22, r14
    8d8c:	80 e2       	ldi	r24, 0x20	; 32
    8d8e:	90 e0       	ldi	r25, 0x00	; 0
    8d90:	34 d0       	rcall	.+104    	; 0x8dfa <fputc>
    8d92:	3a 94       	dec	r3
    8d94:	f7 cf       	rjmp	.-18     	; 0x8d84 <vfprintf+0x386>
    8d96:	f7 01       	movw	r30, r14
    8d98:	86 81       	ldd	r24, Z+6	; 0x06
    8d9a:	97 81       	ldd	r25, Z+7	; 0x07
    8d9c:	02 c0       	rjmp	.+4      	; 0x8da2 <vfprintf+0x3a4>
    8d9e:	8f ef       	ldi	r24, 0xFF	; 255
    8da0:	9f ef       	ldi	r25, 0xFF	; 255
    8da2:	2c 96       	adiw	r28, 0x0c	; 12
    8da4:	cd bf       	out	0x3d, r28	; 61
    8da6:	de bf       	out	0x3e, r29	; 62
    8da8:	df 91       	pop	r29
    8daa:	cf 91       	pop	r28
    8dac:	1f 91       	pop	r17
    8dae:	0f 91       	pop	r16
    8db0:	ff 90       	pop	r15
    8db2:	ef 90       	pop	r14
    8db4:	df 90       	pop	r13
    8db6:	cf 90       	pop	r12
    8db8:	bf 90       	pop	r11
    8dba:	af 90       	pop	r10
    8dbc:	9f 90       	pop	r9
    8dbe:	8f 90       	pop	r8
    8dc0:	7f 90       	pop	r7
    8dc2:	6f 90       	pop	r6
    8dc4:	5f 90       	pop	r5
    8dc6:	4f 90       	pop	r4
    8dc8:	3f 90       	pop	r3
    8dca:	2f 90       	pop	r2
    8dcc:	08 95       	ret

00008dce <strnlen_P>:
    8dce:	fc 01       	movw	r30, r24
    8dd0:	05 90       	lpm	r0, Z+
    8dd2:	61 50       	subi	r22, 0x01	; 1
    8dd4:	70 40       	sbci	r23, 0x00	; 0
    8dd6:	01 10       	cpse	r0, r1
    8dd8:	d8 f7       	brcc	.-10     	; 0x8dd0 <strnlen_P+0x2>
    8dda:	80 95       	com	r24
    8ddc:	90 95       	com	r25
    8dde:	8e 0f       	add	r24, r30
    8de0:	9f 1f       	adc	r25, r31
    8de2:	08 95       	ret

00008de4 <strnlen>:
    8de4:	fc 01       	movw	r30, r24
    8de6:	61 50       	subi	r22, 0x01	; 1
    8de8:	70 40       	sbci	r23, 0x00	; 0
    8dea:	01 90       	ld	r0, Z+
    8dec:	01 10       	cpse	r0, r1
    8dee:	d8 f7       	brcc	.-10     	; 0x8de6 <strnlen+0x2>
    8df0:	80 95       	com	r24
    8df2:	90 95       	com	r25
    8df4:	8e 0f       	add	r24, r30
    8df6:	9f 1f       	adc	r25, r31
    8df8:	08 95       	ret

00008dfa <fputc>:
    8dfa:	0f 93       	push	r16
    8dfc:	1f 93       	push	r17
    8dfe:	cf 93       	push	r28
    8e00:	df 93       	push	r29
    8e02:	fb 01       	movw	r30, r22
    8e04:	23 81       	ldd	r18, Z+3	; 0x03
    8e06:	21 fd       	sbrc	r18, 1
    8e08:	03 c0       	rjmp	.+6      	; 0x8e10 <fputc+0x16>
    8e0a:	8f ef       	ldi	r24, 0xFF	; 255
    8e0c:	9f ef       	ldi	r25, 0xFF	; 255
    8e0e:	28 c0       	rjmp	.+80     	; 0x8e60 <fputc+0x66>
    8e10:	22 ff       	sbrs	r18, 2
    8e12:	16 c0       	rjmp	.+44     	; 0x8e40 <fputc+0x46>
    8e14:	46 81       	ldd	r20, Z+6	; 0x06
    8e16:	57 81       	ldd	r21, Z+7	; 0x07
    8e18:	24 81       	ldd	r18, Z+4	; 0x04
    8e1a:	35 81       	ldd	r19, Z+5	; 0x05
    8e1c:	42 17       	cp	r20, r18
    8e1e:	53 07       	cpc	r21, r19
    8e20:	44 f4       	brge	.+16     	; 0x8e32 <fputc+0x38>
    8e22:	a0 81       	ld	r26, Z
    8e24:	b1 81       	ldd	r27, Z+1	; 0x01
    8e26:	9d 01       	movw	r18, r26
    8e28:	2f 5f       	subi	r18, 0xFF	; 255
    8e2a:	3f 4f       	sbci	r19, 0xFF	; 255
    8e2c:	20 83       	st	Z, r18
    8e2e:	31 83       	std	Z+1, r19	; 0x01
    8e30:	8c 93       	st	X, r24
    8e32:	26 81       	ldd	r18, Z+6	; 0x06
    8e34:	37 81       	ldd	r19, Z+7	; 0x07
    8e36:	2f 5f       	subi	r18, 0xFF	; 255
    8e38:	3f 4f       	sbci	r19, 0xFF	; 255
    8e3a:	26 83       	std	Z+6, r18	; 0x06
    8e3c:	37 83       	std	Z+7, r19	; 0x07
    8e3e:	10 c0       	rjmp	.+32     	; 0x8e60 <fputc+0x66>
    8e40:	eb 01       	movw	r28, r22
    8e42:	09 2f       	mov	r16, r25
    8e44:	18 2f       	mov	r17, r24
    8e46:	00 84       	ldd	r0, Z+8	; 0x08
    8e48:	f1 85       	ldd	r31, Z+9	; 0x09
    8e4a:	e0 2d       	mov	r30, r0
    8e4c:	19 95       	eicall
    8e4e:	89 2b       	or	r24, r25
    8e50:	e1 f6       	brne	.-72     	; 0x8e0a <fputc+0x10>
    8e52:	8e 81       	ldd	r24, Y+6	; 0x06
    8e54:	9f 81       	ldd	r25, Y+7	; 0x07
    8e56:	01 96       	adiw	r24, 0x01	; 1
    8e58:	8e 83       	std	Y+6, r24	; 0x06
    8e5a:	9f 83       	std	Y+7, r25	; 0x07
    8e5c:	81 2f       	mov	r24, r17
    8e5e:	90 2f       	mov	r25, r16
    8e60:	df 91       	pop	r29
    8e62:	cf 91       	pop	r28
    8e64:	1f 91       	pop	r17
    8e66:	0f 91       	pop	r16
    8e68:	08 95       	ret

00008e6a <__ultoa_invert>:
    8e6a:	fa 01       	movw	r30, r20
    8e6c:	aa 27       	eor	r26, r26
    8e6e:	28 30       	cpi	r18, 0x08	; 8
    8e70:	51 f1       	breq	.+84     	; 0x8ec6 <__ultoa_invert+0x5c>
    8e72:	20 31       	cpi	r18, 0x10	; 16
    8e74:	81 f1       	breq	.+96     	; 0x8ed6 <__ultoa_invert+0x6c>
    8e76:	e8 94       	clt
    8e78:	6f 93       	push	r22
    8e7a:	6e 7f       	andi	r22, 0xFE	; 254
    8e7c:	6e 5f       	subi	r22, 0xFE	; 254
    8e7e:	7f 4f       	sbci	r23, 0xFF	; 255
    8e80:	8f 4f       	sbci	r24, 0xFF	; 255
    8e82:	9f 4f       	sbci	r25, 0xFF	; 255
    8e84:	af 4f       	sbci	r26, 0xFF	; 255
    8e86:	b1 e0       	ldi	r27, 0x01	; 1
    8e88:	3e d0       	rcall	.+124    	; 0x8f06 <__ultoa_invert+0x9c>
    8e8a:	b4 e0       	ldi	r27, 0x04	; 4
    8e8c:	3c d0       	rcall	.+120    	; 0x8f06 <__ultoa_invert+0x9c>
    8e8e:	67 0f       	add	r22, r23
    8e90:	78 1f       	adc	r23, r24
    8e92:	89 1f       	adc	r24, r25
    8e94:	9a 1f       	adc	r25, r26
    8e96:	a1 1d       	adc	r26, r1
    8e98:	68 0f       	add	r22, r24
    8e9a:	79 1f       	adc	r23, r25
    8e9c:	8a 1f       	adc	r24, r26
    8e9e:	91 1d       	adc	r25, r1
    8ea0:	a1 1d       	adc	r26, r1
    8ea2:	6a 0f       	add	r22, r26
    8ea4:	71 1d       	adc	r23, r1
    8ea6:	81 1d       	adc	r24, r1
    8ea8:	91 1d       	adc	r25, r1
    8eaa:	a1 1d       	adc	r26, r1
    8eac:	20 d0       	rcall	.+64     	; 0x8eee <__ultoa_invert+0x84>
    8eae:	09 f4       	brne	.+2      	; 0x8eb2 <__ultoa_invert+0x48>
    8eb0:	68 94       	set
    8eb2:	3f 91       	pop	r19
    8eb4:	2a e0       	ldi	r18, 0x0A	; 10
    8eb6:	26 9f       	mul	r18, r22
    8eb8:	11 24       	eor	r1, r1
    8eba:	30 19       	sub	r19, r0
    8ebc:	30 5d       	subi	r19, 0xD0	; 208
    8ebe:	31 93       	st	Z+, r19
    8ec0:	de f6       	brtc	.-74     	; 0x8e78 <__ultoa_invert+0xe>
    8ec2:	cf 01       	movw	r24, r30
    8ec4:	08 95       	ret
    8ec6:	46 2f       	mov	r20, r22
    8ec8:	47 70       	andi	r20, 0x07	; 7
    8eca:	40 5d       	subi	r20, 0xD0	; 208
    8ecc:	41 93       	st	Z+, r20
    8ece:	b3 e0       	ldi	r27, 0x03	; 3
    8ed0:	0f d0       	rcall	.+30     	; 0x8ef0 <__ultoa_invert+0x86>
    8ed2:	c9 f7       	brne	.-14     	; 0x8ec6 <__ultoa_invert+0x5c>
    8ed4:	f6 cf       	rjmp	.-20     	; 0x8ec2 <__ultoa_invert+0x58>
    8ed6:	46 2f       	mov	r20, r22
    8ed8:	4f 70       	andi	r20, 0x0F	; 15
    8eda:	40 5d       	subi	r20, 0xD0	; 208
    8edc:	4a 33       	cpi	r20, 0x3A	; 58
    8ede:	18 f0       	brcs	.+6      	; 0x8ee6 <__ultoa_invert+0x7c>
    8ee0:	49 5d       	subi	r20, 0xD9	; 217
    8ee2:	31 fd       	sbrc	r19, 1
    8ee4:	40 52       	subi	r20, 0x20	; 32
    8ee6:	41 93       	st	Z+, r20
    8ee8:	02 d0       	rcall	.+4      	; 0x8eee <__ultoa_invert+0x84>
    8eea:	a9 f7       	brne	.-22     	; 0x8ed6 <__ultoa_invert+0x6c>
    8eec:	ea cf       	rjmp	.-44     	; 0x8ec2 <__ultoa_invert+0x58>
    8eee:	b4 e0       	ldi	r27, 0x04	; 4
    8ef0:	a6 95       	lsr	r26
    8ef2:	97 95       	ror	r25
    8ef4:	87 95       	ror	r24
    8ef6:	77 95       	ror	r23
    8ef8:	67 95       	ror	r22
    8efa:	ba 95       	dec	r27
    8efc:	c9 f7       	brne	.-14     	; 0x8ef0 <__ultoa_invert+0x86>
    8efe:	00 97       	sbiw	r24, 0x00	; 0
    8f00:	61 05       	cpc	r22, r1
    8f02:	71 05       	cpc	r23, r1
    8f04:	08 95       	ret
    8f06:	9b 01       	movw	r18, r22
    8f08:	ac 01       	movw	r20, r24
    8f0a:	0a 2e       	mov	r0, r26
    8f0c:	06 94       	lsr	r0
    8f0e:	57 95       	ror	r21
    8f10:	47 95       	ror	r20
    8f12:	37 95       	ror	r19
    8f14:	27 95       	ror	r18
    8f16:	ba 95       	dec	r27
    8f18:	c9 f7       	brne	.-14     	; 0x8f0c <__ultoa_invert+0xa2>
    8f1a:	62 0f       	add	r22, r18
    8f1c:	73 1f       	adc	r23, r19
    8f1e:	84 1f       	adc	r24, r20
    8f20:	95 1f       	adc	r25, r21
    8f22:	a0 1d       	adc	r26, r0
    8f24:	08 95       	ret

00008f26 <_exit>:
    8f26:	f8 94       	cli

00008f28 <__stop_program>:
    8f28:	ff cf       	rjmp	.-2      	; 0x8f28 <__stop_program>
