
V1.0.elf:     file format elf32-avr

Sections:
Idx Name          Size      VMA       LMA       File off  Algn
  0 .text         00006f46  00000000  00000000  00000094  2**1
                  CONTENTS, ALLOC, LOAD, READONLY, CODE
  1 .data         0000007c  00802000  00006f46  00006fda  2**0
                  CONTENTS, ALLOC, LOAD, DATA
  2 .bss          000008c6  0080207c  0080207c  00007056  2**0
                  ALLOC
  3 .comment      0000005c  00000000  00000000  00007056  2**0
                  CONTENTS, READONLY
  4 .note.gnu.avr.deviceinfo 00000040  00000000  00000000  000070b4  2**2
                  CONTENTS, READONLY
  5 .debug_aranges 000004c8  00000000  00000000  000070f4  2**0
                  CONTENTS, READONLY, DEBUGGING
  6 .debug_info   00009ca9  00000000  00000000  000075bc  2**0
                  CONTENTS, READONLY, DEBUGGING
  7 .debug_abbrev 0000121a  00000000  00000000  00011265  2**0
                  CONTENTS, READONLY, DEBUGGING
  8 .debug_line   00004a04  00000000  00000000  0001247f  2**0
                  CONTENTS, READONLY, DEBUGGING
  9 .debug_frame  000014fc  00000000  00000000  00016e84  2**2
                  CONTENTS, READONLY, DEBUGGING
 10 .debug_str    0000263c  00000000  00000000  00018380  2**0
                  CONTENTS, READONLY, DEBUGGING
 11 .debug_loc    00008c4a  00000000  00000000  0001a9bc  2**0
                  CONTENTS, READONLY, DEBUGGING
 12 .debug_ranges 00000538  00000000  00000000  00023606  2**0
                  CONTENTS, READONLY, DEBUGGING

Disassembly of section .text:

00000000 <__vectors>:
       0:	fd c0       	rjmp	.+506    	; 0x1fc <__ctors_end>
       2:	00 00       	nop
       4:	1b c1       	rjmp	.+566    	; 0x23c <__bad_interrupt>
       6:	00 00       	nop
       8:	19 c1       	rjmp	.+562    	; 0x23c <__bad_interrupt>
       a:	00 00       	nop
       c:	17 c1       	rjmp	.+558    	; 0x23c <__bad_interrupt>
       e:	00 00       	nop
      10:	15 c1       	rjmp	.+554    	; 0x23c <__bad_interrupt>
      12:	00 00       	nop
      14:	13 c1       	rjmp	.+550    	; 0x23c <__bad_interrupt>
      16:	00 00       	nop
      18:	11 c1       	rjmp	.+546    	; 0x23c <__bad_interrupt>
      1a:	00 00       	nop
      1c:	0f c1       	rjmp	.+542    	; 0x23c <__bad_interrupt>
      1e:	00 00       	nop
      20:	0d c1       	rjmp	.+538    	; 0x23c <__bad_interrupt>
      22:	00 00       	nop
      24:	0b c1       	rjmp	.+534    	; 0x23c <__bad_interrupt>
      26:	00 00       	nop
      28:	09 c1       	rjmp	.+530    	; 0x23c <__bad_interrupt>
      2a:	00 00       	nop
      2c:	07 c1       	rjmp	.+526    	; 0x23c <__bad_interrupt>
      2e:	00 00       	nop
      30:	05 c1       	rjmp	.+522    	; 0x23c <__bad_interrupt>
      32:	00 00       	nop
      34:	03 c1       	rjmp	.+518    	; 0x23c <__bad_interrupt>
      36:	00 00       	nop
      38:	44 c5       	rjmp	.+2696   	; 0xac2 <__vector_14>
      3a:	00 00       	nop
      3c:	ff c0       	rjmp	.+510    	; 0x23c <__bad_interrupt>
      3e:	00 00       	nop
      40:	fd c0       	rjmp	.+506    	; 0x23c <__bad_interrupt>
      42:	00 00       	nop
      44:	fb c0       	rjmp	.+502    	; 0x23c <__bad_interrupt>
      46:	00 00       	nop
      48:	f9 c0       	rjmp	.+498    	; 0x23c <__bad_interrupt>
      4a:	00 00       	nop
      4c:	f7 c0       	rjmp	.+494    	; 0x23c <__bad_interrupt>
      4e:	00 00       	nop
      50:	f5 c0       	rjmp	.+490    	; 0x23c <__bad_interrupt>
      52:	00 00       	nop
      54:	f3 c0       	rjmp	.+486    	; 0x23c <__bad_interrupt>
      56:	00 00       	nop
      58:	f1 c0       	rjmp	.+482    	; 0x23c <__bad_interrupt>
      5a:	00 00       	nop
      5c:	ef c0       	rjmp	.+478    	; 0x23c <__bad_interrupt>
      5e:	00 00       	nop
      60:	ed c0       	rjmp	.+474    	; 0x23c <__bad_interrupt>
      62:	00 00       	nop
      64:	eb c0       	rjmp	.+470    	; 0x23c <__bad_interrupt>
      66:	00 00       	nop
      68:	e9 c0       	rjmp	.+466    	; 0x23c <__bad_interrupt>
      6a:	00 00       	nop
      6c:	e7 c0       	rjmp	.+462    	; 0x23c <__bad_interrupt>
      6e:	00 00       	nop
      70:	e5 c0       	rjmp	.+458    	; 0x23c <__bad_interrupt>
      72:	00 00       	nop
      74:	e3 c0       	rjmp	.+454    	; 0x23c <__bad_interrupt>
      76:	00 00       	nop
      78:	e1 c0       	rjmp	.+450    	; 0x23c <__bad_interrupt>
      7a:	00 00       	nop
      7c:	df c0       	rjmp	.+446    	; 0x23c <__bad_interrupt>
      7e:	00 00       	nop
      80:	dd c0       	rjmp	.+442    	; 0x23c <__bad_interrupt>
      82:	00 00       	nop
      84:	db c0       	rjmp	.+438    	; 0x23c <__bad_interrupt>
      86:	00 00       	nop
      88:	d9 c0       	rjmp	.+434    	; 0x23c <__bad_interrupt>
      8a:	00 00       	nop
      8c:	d7 c0       	rjmp	.+430    	; 0x23c <__bad_interrupt>
      8e:	00 00       	nop
      90:	d5 c0       	rjmp	.+426    	; 0x23c <__bad_interrupt>
      92:	00 00       	nop
      94:	d3 c0       	rjmp	.+422    	; 0x23c <__bad_interrupt>
      96:	00 00       	nop
      98:	d1 c0       	rjmp	.+418    	; 0x23c <__bad_interrupt>
      9a:	00 00       	nop
      9c:	cf c0       	rjmp	.+414    	; 0x23c <__bad_interrupt>
      9e:	00 00       	nop
      a0:	cd c0       	rjmp	.+410    	; 0x23c <__bad_interrupt>
      a2:	00 00       	nop
      a4:	cb c0       	rjmp	.+406    	; 0x23c <__bad_interrupt>
      a6:	00 00       	nop
      a8:	11 c3       	rjmp	.+1570   	; 0x6cc <__vector_42>
      aa:	00 00       	nop
      ac:	c7 c0       	rjmp	.+398    	; 0x23c <__bad_interrupt>
      ae:	00 00       	nop
      b0:	c5 c0       	rjmp	.+394    	; 0x23c <__bad_interrupt>
      b2:	00 00       	nop
      b4:	c3 c0       	rjmp	.+390    	; 0x23c <__bad_interrupt>
      b6:	00 00       	nop
      b8:	c1 c0       	rjmp	.+386    	; 0x23c <__bad_interrupt>
      ba:	00 00       	nop
      bc:	54 c5       	rjmp	.+2728   	; 0xb66 <__vector_47>
      be:	00 00       	nop
      c0:	bd c0       	rjmp	.+378    	; 0x23c <__bad_interrupt>
      c2:	00 00       	nop
      c4:	bb c0       	rjmp	.+374    	; 0x23c <__bad_interrupt>
      c6:	00 00       	nop
      c8:	b9 c0       	rjmp	.+370    	; 0x23c <__bad_interrupt>
      ca:	00 00       	nop
      cc:	b7 c0       	rjmp	.+366    	; 0x23c <__bad_interrupt>
      ce:	00 00       	nop
      d0:	b5 c0       	rjmp	.+362    	; 0x23c <__bad_interrupt>
      d2:	00 00       	nop
      d4:	b3 c0       	rjmp	.+358    	; 0x23c <__bad_interrupt>
      d6:	00 00       	nop
      d8:	b1 c0       	rjmp	.+354    	; 0x23c <__bad_interrupt>
      da:	00 00       	nop
      dc:	af c0       	rjmp	.+350    	; 0x23c <__bad_interrupt>
      de:	00 00       	nop
      e0:	ad c0       	rjmp	.+346    	; 0x23c <__bad_interrupt>
      e2:	00 00       	nop
      e4:	ab c0       	rjmp	.+342    	; 0x23c <__bad_interrupt>
      e6:	00 00       	nop
      e8:	a9 c0       	rjmp	.+338    	; 0x23c <__bad_interrupt>
      ea:	00 00       	nop
      ec:	a7 c0       	rjmp	.+334    	; 0x23c <__bad_interrupt>
      ee:	00 00       	nop
      f0:	a5 c0       	rjmp	.+330    	; 0x23c <__bad_interrupt>
      f2:	00 00       	nop
      f4:	a3 c0       	rjmp	.+326    	; 0x23c <__bad_interrupt>
      f6:	00 00       	nop
      f8:	a1 c0       	rjmp	.+322    	; 0x23c <__bad_interrupt>
      fa:	00 00       	nop
      fc:	9f c0       	rjmp	.+318    	; 0x23c <__bad_interrupt>
      fe:	00 00       	nop
     100:	9d c0       	rjmp	.+314    	; 0x23c <__bad_interrupt>
     102:	00 00       	nop
     104:	9b c0       	rjmp	.+310    	; 0x23c <__bad_interrupt>
     106:	00 00       	nop
     108:	99 c0       	rjmp	.+306    	; 0x23c <__bad_interrupt>
     10a:	00 00       	nop
     10c:	97 c0       	rjmp	.+302    	; 0x23c <__bad_interrupt>
     10e:	00 00       	nop
     110:	95 c0       	rjmp	.+298    	; 0x23c <__bad_interrupt>
     112:	00 00       	nop
     114:	93 c0       	rjmp	.+294    	; 0x23c <__bad_interrupt>
     116:	00 00       	nop
     118:	91 c0       	rjmp	.+290    	; 0x23c <__bad_interrupt>
     11a:	00 00       	nop
     11c:	8f c0       	rjmp	.+286    	; 0x23c <__bad_interrupt>
     11e:	00 00       	nop
     120:	8d c0       	rjmp	.+282    	; 0x23c <__bad_interrupt>
     122:	00 00       	nop
     124:	8b c0       	rjmp	.+278    	; 0x23c <__bad_interrupt>
     126:	00 00       	nop
     128:	89 c0       	rjmp	.+274    	; 0x23c <__bad_interrupt>
     12a:	00 00       	nop
     12c:	87 c0       	rjmp	.+270    	; 0x23c <__bad_interrupt>
     12e:	00 00       	nop
     130:	85 c0       	rjmp	.+266    	; 0x23c <__bad_interrupt>
     132:	00 00       	nop
     134:	d0 c4       	rjmp	.+2464   	; 0xad6 <__vector_77>
     136:	00 00       	nop
     138:	81 c0       	rjmp	.+258    	; 0x23c <__bad_interrupt>
     13a:	00 00       	nop
     13c:	7f c0       	rjmp	.+254    	; 0x23c <__bad_interrupt>
     13e:	00 00       	nop
     140:	7d c0       	rjmp	.+250    	; 0x23c <__bad_interrupt>
     142:	00 00       	nop
     144:	7b c0       	rjmp	.+246    	; 0x23c <__bad_interrupt>
     146:	00 00       	nop
     148:	79 c0       	rjmp	.+242    	; 0x23c <__bad_interrupt>
     14a:	00 00       	nop
     14c:	77 c0       	rjmp	.+238    	; 0x23c <__bad_interrupt>
     14e:	00 00       	nop
     150:	75 c0       	rjmp	.+234    	; 0x23c <__bad_interrupt>
     152:	00 00       	nop
     154:	73 c0       	rjmp	.+230    	; 0x23c <__bad_interrupt>
     156:	00 00       	nop
     158:	71 c0       	rjmp	.+226    	; 0x23c <__bad_interrupt>
     15a:	00 00       	nop
     15c:	6f c0       	rjmp	.+222    	; 0x23c <__bad_interrupt>
     15e:	00 00       	nop
     160:	2b c3       	rjmp	.+1622   	; 0x7b8 <__vector_88>
     162:	00 00       	nop
     164:	6b c0       	rjmp	.+214    	; 0x23c <__bad_interrupt>
     166:	00 00       	nop
     168:	e7 c2       	rjmp	.+1486   	; 0x738 <__vector_90>
     16a:	00 00       	nop
     16c:	67 c0       	rjmp	.+206    	; 0x23c <__bad_interrupt>
     16e:	00 00       	nop
     170:	65 c0       	rjmp	.+202    	; 0x23c <__bad_interrupt>
     172:	00 00       	nop
     174:	63 c0       	rjmp	.+198    	; 0x23c <__bad_interrupt>
     176:	00 00       	nop
     178:	61 c0       	rjmp	.+194    	; 0x23c <__bad_interrupt>
     17a:	00 00       	nop
     17c:	5f c0       	rjmp	.+190    	; 0x23c <__bad_interrupt>
     17e:	00 00       	nop
     180:	5d c0       	rjmp	.+186    	; 0x23c <__bad_interrupt>
     182:	00 00       	nop
     184:	5b c0       	rjmp	.+182    	; 0x23c <__bad_interrupt>
     186:	00 00       	nop
     188:	59 c0       	rjmp	.+178    	; 0x23c <__bad_interrupt>
     18a:	00 00       	nop
     18c:	57 c0       	rjmp	.+174    	; 0x23c <__bad_interrupt>
     18e:	00 00       	nop
     190:	55 c0       	rjmp	.+170    	; 0x23c <__bad_interrupt>
     192:	00 00       	nop
     194:	53 c0       	rjmp	.+166    	; 0x23c <__bad_interrupt>
     196:	00 00       	nop
     198:	51 c0       	rjmp	.+162    	; 0x23c <__bad_interrupt>
     19a:	00 00       	nop
     19c:	4f c0       	rjmp	.+158    	; 0x23c <__bad_interrupt>
     19e:	00 00       	nop
     1a0:	4d c0       	rjmp	.+154    	; 0x23c <__bad_interrupt>
     1a2:	00 00       	nop
     1a4:	4b c0       	rjmp	.+150    	; 0x23c <__bad_interrupt>
     1a6:	00 00       	nop
     1a8:	49 c0       	rjmp	.+146    	; 0x23c <__bad_interrupt>
     1aa:	00 00       	nop
     1ac:	47 c0       	rjmp	.+142    	; 0x23c <__bad_interrupt>
     1ae:	00 00       	nop
     1b0:	03 c5       	rjmp	.+2566   	; 0xbb8 <__vector_108>
     1b2:	00 00       	nop
     1b4:	43 c0       	rjmp	.+134    	; 0x23c <__bad_interrupt>
     1b6:	00 00       	nop
     1b8:	41 c0       	rjmp	.+130    	; 0x23c <__bad_interrupt>
     1ba:	00 00       	nop
     1bc:	3f c0       	rjmp	.+126    	; 0x23c <__bad_interrupt>
     1be:	00 00       	nop
     1c0:	3d c0       	rjmp	.+122    	; 0x23c <__bad_interrupt>
     1c2:	00 00       	nop
     1c4:	3b c0       	rjmp	.+118    	; 0x23c <__bad_interrupt>
     1c6:	00 00       	nop
     1c8:	39 c0       	rjmp	.+114    	; 0x23c <__bad_interrupt>
     1ca:	00 00       	nop
     1cc:	37 c0       	rjmp	.+110    	; 0x23c <__bad_interrupt>
     1ce:	00 00       	nop
     1d0:	35 c0       	rjmp	.+106    	; 0x23c <__bad_interrupt>
     1d2:	00 00       	nop
     1d4:	33 c0       	rjmp	.+102    	; 0x23c <__bad_interrupt>
     1d6:	00 00       	nop
     1d8:	31 c0       	rjmp	.+98     	; 0x23c <__bad_interrupt>
     1da:	00 00       	nop
     1dc:	2f c0       	rjmp	.+94     	; 0x23c <__bad_interrupt>
     1de:	00 00       	nop
     1e0:	2d c0       	rjmp	.+90     	; 0x23c <__bad_interrupt>
     1e2:	00 00       	nop
     1e4:	2b c0       	rjmp	.+86     	; 0x23c <__bad_interrupt>
     1e6:	00 00       	nop
     1e8:	29 c0       	rjmp	.+82     	; 0x23c <__bad_interrupt>
     1ea:	00 00       	nop
     1ec:	27 c0       	rjmp	.+78     	; 0x23c <__bad_interrupt>
     1ee:	00 00       	nop
     1f0:	25 c0       	rjmp	.+74     	; 0x23c <__bad_interrupt>
     1f2:	00 00       	nop
     1f4:	23 c0       	rjmp	.+70     	; 0x23c <__bad_interrupt>
     1f6:	00 00       	nop
     1f8:	21 c0       	rjmp	.+66     	; 0x23c <__bad_interrupt>
	...

000001fc <__ctors_end>:
     1fc:	11 24       	eor	r1, r1
     1fe:	1f be       	out	0x3f, r1	; 63
     200:	cf ef       	ldi	r28, 0xFF	; 255
     202:	cd bf       	out	0x3d, r28	; 61
     204:	df e3       	ldi	r29, 0x3F	; 63
     206:	de bf       	out	0x3e, r29	; 62
     208:	00 e0       	ldi	r16, 0x00	; 0
     20a:	0c bf       	out	0x3c, r16	; 60

0000020c <__do_copy_data>:
     20c:	10 e2       	ldi	r17, 0x20	; 32
     20e:	a0 e0       	ldi	r26, 0x00	; 0
     210:	b0 e2       	ldi	r27, 0x20	; 32
     212:	e6 e4       	ldi	r30, 0x46	; 70
     214:	ff e6       	ldi	r31, 0x6F	; 111
     216:	00 e0       	ldi	r16, 0x00	; 0
     218:	0b bf       	out	0x3b, r16	; 59
     21a:	02 c0       	rjmp	.+4      	; 0x220 <__do_copy_data+0x14>
     21c:	07 90       	elpm	r0, Z+
     21e:	0d 92       	st	X+, r0
     220:	ac 37       	cpi	r26, 0x7C	; 124
     222:	b1 07       	cpc	r27, r17
     224:	d9 f7       	brne	.-10     	; 0x21c <__do_copy_data+0x10>

00000226 <__do_clear_bss>:
     226:	29 e2       	ldi	r18, 0x29	; 41
     228:	ac e7       	ldi	r26, 0x7C	; 124
     22a:	b0 e2       	ldi	r27, 0x20	; 32
     22c:	01 c0       	rjmp	.+2      	; 0x230 <.do_clear_bss_start>

0000022e <.do_clear_bss_loop>:
     22e:	1d 92       	st	X+, r1

00000230 <.do_clear_bss_start>:
     230:	a2 34       	cpi	r26, 0x42	; 66
     232:	b2 07       	cpc	r27, r18
     234:	e1 f7       	brne	.-8      	; 0x22e <.do_clear_bss_loop>
     236:	9d d5       	rcall	.+2874   	; 0xd72 <main>
     238:	0c 94 a1 37 	jmp	0x6f42	; 0x6f42 <_exit>

0000023c <__bad_interrupt>:
     23c:	38 c2       	rjmp	.+1136   	; 0x6ae <__vector_default>

0000023e <AD7195_CS>:
	SPI_W_Byte(0b01100000);					//Read, ID register
	char id = SPI_R_Byte();					//CHOP off, AC ex off
	AD7195_CS(ChipNo, false);
	
	return id;
}
     23e:	81 11       	cpse	r24, r1
     240:	06 c0       	rjmp	.+12     	; 0x24e <AD7195_CS+0x10>
     242:	61 11       	cpse	r22, r1
     244:	10 c0       	rjmp	.+32     	; 0x266 <AD7195_CS+0x28>
     246:	88 e0       	ldi	r24, 0x08	; 8
     248:	80 93 45 06 	sts	0x0645, r24
     24c:	08 95       	ret
     24e:	81 30       	cpi	r24, 0x01	; 1
     250:	69 f4       	brne	.+26     	; 0x26c <AD7195_CS+0x2e>
     252:	61 11       	cpse	r22, r1
     254:	04 c0       	rjmp	.+8      	; 0x25e <AD7195_CS+0x20>
     256:	80 e1       	ldi	r24, 0x10	; 16
     258:	80 93 45 06 	sts	0x0645, r24
     25c:	08 95       	ret
     25e:	80 e1       	ldi	r24, 0x10	; 16
     260:	80 93 46 06 	sts	0x0646, r24
     264:	08 95       	ret
     266:	88 e0       	ldi	r24, 0x08	; 8
     268:	80 93 46 06 	sts	0x0646, r24
     26c:	08 95       	ret

0000026e <AD7195_Init>:
     26e:	cf 93       	push	r28
     270:	c8 2f       	mov	r28, r24
     272:	61 e0       	ldi	r22, 0x01	; 1
     274:	e4 df       	rcall	.-56     	; 0x23e <AD7195_CS>
     276:	80 e1       	ldi	r24, 0x10	; 16
     278:	0e 94 d6 1d 	call	0x3bac	; 0x3bac <SPI_W_Byte>
     27c:	80 e0       	ldi	r24, 0x00	; 0
     27e:	0e 94 d6 1d 	call	0x3bac	; 0x3bac <SPI_W_Byte>
     282:	80 ef       	ldi	r24, 0xF0	; 240
     284:	0e 94 d6 1d 	call	0x3bac	; 0x3bac <SPI_W_Byte>
     288:	8e e1       	ldi	r24, 0x1E	; 30
     28a:	0e 94 d6 1d 	call	0x3bac	; 0x3bac <SPI_W_Byte>
     28e:	60 e0       	ldi	r22, 0x00	; 0
     290:	8c 2f       	mov	r24, r28
     292:	d5 df       	rcall	.-86     	; 0x23e <AD7195_CS>
     294:	2f ef       	ldi	r18, 0xFF	; 255
     296:	89 ef       	ldi	r24, 0xF9	; 249
     298:	90 e0       	ldi	r25, 0x00	; 0
     29a:	21 50       	subi	r18, 0x01	; 1
     29c:	80 40       	sbci	r24, 0x00	; 0
     29e:	90 40       	sbci	r25, 0x00	; 0
     2a0:	e1 f7       	brne	.-8      	; 0x29a <AD7195_Init+0x2c>
     2a2:	00 c0       	rjmp	.+0      	; 0x2a4 <AD7195_Init+0x36>
     2a4:	00 00       	nop
     2a6:	61 e0       	ldi	r22, 0x01	; 1
     2a8:	8c 2f       	mov	r24, r28
     2aa:	c9 df       	rcall	.-110    	; 0x23e <AD7195_CS>
     2ac:	88 e0       	ldi	r24, 0x08	; 8
     2ae:	0e 94 d6 1d 	call	0x3bac	; 0x3bac <SPI_W_Byte>
     2b2:	84 e1       	ldi	r24, 0x14	; 20
     2b4:	0e 94 d6 1d 	call	0x3bac	; 0x3bac <SPI_W_Byte>
     2b8:	80 e0       	ldi	r24, 0x00	; 0
     2ba:	0e 94 d6 1d 	call	0x3bac	; 0x3bac <SPI_W_Byte>
     2be:	81 e0       	ldi	r24, 0x01	; 1
     2c0:	0e 94 d6 1d 	call	0x3bac	; 0x3bac <SPI_W_Byte>
     2c4:	60 e0       	ldi	r22, 0x00	; 0
     2c6:	8c 2f       	mov	r24, r28
     2c8:	ba df       	rcall	.-140    	; 0x23e <AD7195_CS>
     2ca:	cf 91       	pop	r28
     2cc:	08 95       	ret

000002ce <AD7195_Sync>:

void AD7195_Sync(void){
	PORTD.OUTCLR = PIN1_bm;						//konfiguracja stanu pinu buzzer
     2ce:	e0 e6       	ldi	r30, 0x60	; 96
     2d0:	f6 e0       	ldi	r31, 0x06	; 6
     2d2:	82 e0       	ldi	r24, 0x02	; 2
     2d4:	86 83       	std	Z+6, r24	; 0x06
	#else
		//round up by default
		__ticks_dc = (uint32_t)(ceil(fabs(__tmp)));
	#endif

	__builtin_avr_delay_cycles(__ticks_dc);
     2d6:	2f ef       	ldi	r18, 0xFF	; 255
     2d8:	33 ec       	ldi	r19, 0xC3	; 195
     2da:	99 e0       	ldi	r25, 0x09	; 9
     2dc:	21 50       	subi	r18, 0x01	; 1
     2de:	30 40       	sbci	r19, 0x00	; 0
     2e0:	90 40       	sbci	r25, 0x00	; 0
     2e2:	e1 f7       	brne	.-8      	; 0x2dc <AD7195_Sync+0xe>
     2e4:	00 c0       	rjmp	.+0      	; 0x2e6 <AD7195_Sync+0x18>
     2e6:	00 00       	nop
	_delay_ms(100);
	PORTD.OUTSET = PIN1_bm;						//konfiguracja stanu pinu buzzer
     2e8:	85 83       	std	Z+5, r24	; 0x05
     2ea:	08 95       	ret

000002ec <AD7195_Reset>:
}

void AD7195_Reset(uint8_t chipNo){
     2ec:	cf 93       	push	r28
     2ee:	c8 2f       	mov	r28, r24
	AD7195_CS(chipNo, true);
     2f0:	61 e0       	ldi	r22, 0x01	; 1
     2f2:	a5 df       	rcall	.-182    	; 0x23e <AD7195_CS>
	SPI_W_Byte(0x01);					
     2f4:	81 e0       	ldi	r24, 0x01	; 1
     2f6:	0e 94 d6 1d 	call	0x3bac	; 0x3bac <SPI_W_Byte>
	SPI_W_Byte(0xFF);					
     2fa:	8f ef       	ldi	r24, 0xFF	; 255
     2fc:	0e 94 d6 1d 	call	0x3bac	; 0x3bac <SPI_W_Byte>
	SPI_W_Byte(0xFF);					
     300:	8f ef       	ldi	r24, 0xFF	; 255
     302:	0e 94 d6 1d 	call	0x3bac	; 0x3bac <SPI_W_Byte>
	SPI_W_Byte(0xFF);					
     306:	8f ef       	ldi	r24, 0xFF	; 255
     308:	0e 94 d6 1d 	call	0x3bac	; 0x3bac <SPI_W_Byte>
	SPI_W_Byte(0xFF);					
     30c:	8f ef       	ldi	r24, 0xFF	; 255
     30e:	0e 94 d6 1d 	call	0x3bac	; 0x3bac <SPI_W_Byte>
	SPI_W_Byte(0xFF);					
     312:	8f ef       	ldi	r24, 0xFF	; 255
     314:	0e 94 d6 1d 	call	0x3bac	; 0x3bac <SPI_W_Byte>
	SPI_W_Byte(0xFF);	
     318:	8f ef       	ldi	r24, 0xFF	; 255
     31a:	0e 94 d6 1d 	call	0x3bac	; 0x3bac <SPI_W_Byte>
	SPI_W_Byte(0xFF);
     31e:	8f ef       	ldi	r24, 0xFF	; 255
     320:	0e 94 d6 1d 	call	0x3bac	; 0x3bac <SPI_W_Byte>
	SPI_W_Byte(0xFF);
     324:	8f ef       	ldi	r24, 0xFF	; 255
     326:	0e 94 d6 1d 	call	0x3bac	; 0x3bac <SPI_W_Byte>
	SPI_W_Byte(0xFF);
     32a:	8f ef       	ldi	r24, 0xFF	; 255
     32c:	0e 94 d6 1d 	call	0x3bac	; 0x3bac <SPI_W_Byte>
	SPI_W_Byte(0xFF);
     330:	8f ef       	ldi	r24, 0xFF	; 255
     332:	0e 94 d6 1d 	call	0x3bac	; 0x3bac <SPI_W_Byte>
	SPI_W_Byte(0xFF);
     336:	8f ef       	ldi	r24, 0xFF	; 255
     338:	0e 94 d6 1d 	call	0x3bac	; 0x3bac <SPI_W_Byte>
	SPI_W_Byte(0xFF);			
     33c:	8f ef       	ldi	r24, 0xFF	; 255
     33e:	0e 94 d6 1d 	call	0x3bac	; 0x3bac <SPI_W_Byte>
	AD7195_CS(chipNo, false);
     342:	60 e0       	ldi	r22, 0x00	; 0
     344:	8c 2f       	mov	r24, r28
     346:	7b df       	rcall	.-266    	; 0x23e <AD7195_CS>
}
     348:	cf 91       	pop	r28
     34a:	08 95       	ret

0000034c <AD7195_ContConvRead>:

void AD7195_ContConvRead(uint8_t * channel1, uint8_t * channel2, uint32_t * value1, uint32_t * value2){
     34c:	cf 92       	push	r12
     34e:	df 92       	push	r13
     350:	ef 92       	push	r14
     352:	ff 92       	push	r15
     354:	0f 93       	push	r16
     356:	1f 93       	push	r17
     358:	cf 93       	push	r28
     35a:	df 93       	push	r29
     35c:	6c 01       	movw	r12, r24
     35e:	8b 01       	movw	r16, r22
     360:	7a 01       	movw	r14, r20
     362:	e9 01       	movw	r28, r18
	AD7195_CS(0, true);
     364:	61 e0       	ldi	r22, 0x01	; 1
     366:	80 e0       	ldi	r24, 0x00	; 0
     368:	6a df       	rcall	.-300    	; 0x23e <AD7195_CS>
	SPI_W_Byte(0x58);
     36a:	88 e5       	ldi	r24, 0x58	; 88
     36c:	0e 94 d6 1d 	call	0x3bac	; 0x3bac <SPI_W_Byte>
	(*value1) = (uint32_t)SPI_R_Byte() << 16;
     370:	0e 94 e9 1d 	call	0x3bd2	; 0x3bd2 <SPI_R_Byte>
     374:	90 e0       	ldi	r25, 0x00	; 0
     376:	a0 e0       	ldi	r26, 0x00	; 0
     378:	b0 e0       	ldi	r27, 0x00	; 0
     37a:	dc 01       	movw	r26, r24
     37c:	99 27       	eor	r25, r25
     37e:	88 27       	eor	r24, r24
     380:	f7 01       	movw	r30, r14
     382:	80 83       	st	Z, r24
     384:	91 83       	std	Z+1, r25	; 0x01
     386:	a2 83       	std	Z+2, r26	; 0x02
     388:	b3 83       	std	Z+3, r27	; 0x03
	(*value1) |= (uint32_t)SPI_R_Byte() << 8;
     38a:	0e 94 e9 1d 	call	0x3bd2	; 0x3bd2 <SPI_R_Byte>
     38e:	f7 01       	movw	r30, r14
     390:	40 81       	ld	r20, Z
     392:	51 81       	ldd	r21, Z+1	; 0x01
     394:	62 81       	ldd	r22, Z+2	; 0x02
     396:	73 81       	ldd	r23, Z+3	; 0x03
     398:	58 2b       	or	r21, r24
     39a:	40 83       	st	Z, r20
     39c:	51 83       	std	Z+1, r21	; 0x01
     39e:	62 83       	std	Z+2, r22	; 0x02
     3a0:	73 83       	std	Z+3, r23	; 0x03
	(*value1) |= (uint32_t)SPI_R_Byte();
     3a2:	0e 94 e9 1d 	call	0x3bd2	; 0x3bd2 <SPI_R_Byte>
     3a6:	f7 01       	movw	r30, r14
     3a8:	40 81       	ld	r20, Z
     3aa:	51 81       	ldd	r21, Z+1	; 0x01
     3ac:	62 81       	ldd	r22, Z+2	; 0x02
     3ae:	73 81       	ldd	r23, Z+3	; 0x03
     3b0:	48 2b       	or	r20, r24
     3b2:	40 83       	st	Z, r20
     3b4:	51 83       	std	Z+1, r21	; 0x01
     3b6:	62 83       	std	Z+2, r22	; 0x02
     3b8:	73 83       	std	Z+3, r23	; 0x03
	(*channel1) = SPI_R_Byte() & 0x0F;
     3ba:	0e 94 e9 1d 	call	0x3bd2	; 0x3bd2 <SPI_R_Byte>
     3be:	8f 70       	andi	r24, 0x0F	; 15
     3c0:	f6 01       	movw	r30, r12
     3c2:	80 83       	st	Z, r24
	AD7195_CS(0, false);
     3c4:	60 e0       	ldi	r22, 0x00	; 0
     3c6:	80 e0       	ldi	r24, 0x00	; 0
     3c8:	3a df       	rcall	.-396    	; 0x23e <AD7195_CS>
	
	AD7195_CS(1, true);
     3ca:	61 e0       	ldi	r22, 0x01	; 1
     3cc:	81 e0       	ldi	r24, 0x01	; 1
     3ce:	37 df       	rcall	.-402    	; 0x23e <AD7195_CS>
	SPI_W_Byte(0x58);
     3d0:	88 e5       	ldi	r24, 0x58	; 88
     3d2:	0e 94 d6 1d 	call	0x3bac	; 0x3bac <SPI_W_Byte>
	(*value2) = (uint32_t)SPI_R_Byte() << 16;
     3d6:	0e 94 e9 1d 	call	0x3bd2	; 0x3bd2 <SPI_R_Byte>
     3da:	90 e0       	ldi	r25, 0x00	; 0
     3dc:	a0 e0       	ldi	r26, 0x00	; 0
     3de:	b0 e0       	ldi	r27, 0x00	; 0
     3e0:	dc 01       	movw	r26, r24
     3e2:	99 27       	eor	r25, r25
     3e4:	88 27       	eor	r24, r24
     3e6:	88 83       	st	Y, r24
     3e8:	99 83       	std	Y+1, r25	; 0x01
     3ea:	aa 83       	std	Y+2, r26	; 0x02
     3ec:	bb 83       	std	Y+3, r27	; 0x03
	(*value2) |= (uint32_t)SPI_R_Byte() << 8;
     3ee:	0e 94 e9 1d 	call	0x3bd2	; 0x3bd2 <SPI_R_Byte>
     3f2:	48 81       	ld	r20, Y
     3f4:	59 81       	ldd	r21, Y+1	; 0x01
     3f6:	6a 81       	ldd	r22, Y+2	; 0x02
     3f8:	7b 81       	ldd	r23, Y+3	; 0x03
     3fa:	58 2b       	or	r21, r24
     3fc:	48 83       	st	Y, r20
     3fe:	59 83       	std	Y+1, r21	; 0x01
     400:	6a 83       	std	Y+2, r22	; 0x02
     402:	7b 83       	std	Y+3, r23	; 0x03
	(*value2) |= (uint32_t)SPI_R_Byte();
     404:	0e 94 e9 1d 	call	0x3bd2	; 0x3bd2 <SPI_R_Byte>
     408:	48 81       	ld	r20, Y
     40a:	59 81       	ldd	r21, Y+1	; 0x01
     40c:	6a 81       	ldd	r22, Y+2	; 0x02
     40e:	7b 81       	ldd	r23, Y+3	; 0x03
     410:	48 2b       	or	r20, r24
     412:	48 83       	st	Y, r20
     414:	59 83       	std	Y+1, r21	; 0x01
     416:	6a 83       	std	Y+2, r22	; 0x02
     418:	7b 83       	std	Y+3, r23	; 0x03
	(*channel2) = SPI_R_Byte() & 0x0F;
     41a:	0e 94 e9 1d 	call	0x3bd2	; 0x3bd2 <SPI_R_Byte>
     41e:	8f 70       	andi	r24, 0x0F	; 15
     420:	f8 01       	movw	r30, r16
     422:	80 83       	st	Z, r24
	AD7195_CS(1, false);
     424:	60 e0       	ldi	r22, 0x00	; 0
     426:	81 e0       	ldi	r24, 0x01	; 1
     428:	0a df       	rcall	.-492    	; 0x23e <AD7195_CS>
}
     42a:	df 91       	pop	r29
     42c:	cf 91       	pop	r28
     42e:	1f 91       	pop	r17
     430:	0f 91       	pop	r16
     432:	ff 90       	pop	r15
     434:	ef 90       	pop	r14
     436:	df 90       	pop	r13
     438:	cf 90       	pop	r12
     43a:	08 95       	ret

0000043c <AD7195_RDY>:

bool AD7195_RDY(uint8_t chipNo){
     43c:	cf 93       	push	r28
     43e:	df 93       	push	r29
     440:	c8 2f       	mov	r28, r24
	AD7195_CS(chipNo, true);
     442:	61 e0       	ldi	r22, 0x01	; 1
     444:	fc de       	rcall	.-520    	; 0x23e <AD7195_CS>
	SPI_W_Byte(0b01000000);					//Read, ID register
     446:	80 e4       	ldi	r24, 0x40	; 64
     448:	0e 94 d6 1d 	call	0x3bac	; 0x3bac <SPI_W_Byte>
	char status = SPI_R_Byte();					//CHOP off, AC ex off
     44c:	0e 94 e9 1d 	call	0x3bd2	; 0x3bd2 <SPI_R_Byte>
     450:	d8 2f       	mov	r29, r24
	AD7195_CS(chipNo, false);
     452:	60 e0       	ldi	r22, 0x00	; 0
     454:	8c 2f       	mov	r24, r28
     456:	f3 de       	rcall	.-538    	; 0x23e <AD7195_CS>
	
	return status & 0x80;
}
     458:	8d 2f       	mov	r24, r29
     45a:	88 1f       	adc	r24, r24
     45c:	88 27       	eor	r24, r24
     45e:	88 1f       	adc	r24, r24
     460:	df 91       	pop	r29
     462:	cf 91       	pop	r28
     464:	08 95       	ret

00000466 <AD7195_ReadStore>:

void AD7195_ReadStore(allData_t * allData){
     466:	0f 93       	push	r16
     468:	1f 93       	push	r17
     46a:	cf 93       	push	r28
     46c:	df 93       	push	r29
     46e:	cd b7       	in	r28, 0x3d	; 61
     470:	de b7       	in	r29, 0x3e	; 62
     472:	2a 97       	sbiw	r28, 0x0a	; 10
     474:	cd bf       	out	0x3d, r28	; 61
     476:	de bf       	out	0x3e, r29	; 62
     478:	8c 01       	movw	r16, r24
	uint8_t channel1, channel2;
	uint32_t value1, value2;
	AD7195_ContConvRead(&channel1, &channel2, &value1, &value2);
     47a:	9e 01       	movw	r18, r28
     47c:	29 5f       	subi	r18, 0xF9	; 249
     47e:	3f 4f       	sbci	r19, 0xFF	; 255
     480:	ae 01       	movw	r20, r28
     482:	4d 5f       	subi	r20, 0xFD	; 253
     484:	5f 4f       	sbci	r21, 0xFF	; 255
     486:	be 01       	movw	r22, r28
     488:	6e 5f       	subi	r22, 0xFE	; 254
     48a:	7f 4f       	sbci	r23, 0xFF	; 255
     48c:	ce 01       	movw	r24, r28
     48e:	01 96       	adiw	r24, 0x01	; 1
     490:	5d df       	rcall	.-326    	; 0x34c <AD7195_ContConvRead>
	switch(channel1){
     492:	99 81       	ldd	r25, Y+1	; 0x01
     494:	95 30       	cpi	r25, 0x05	; 5
     496:	b9 f0       	breq	.+46     	; 0x4c6 <AD7195_ReadStore+0x60>
     498:	18 f4       	brcc	.+6      	; 0x4a0 <AD7195_ReadStore+0x3a>
     49a:	94 30       	cpi	r25, 0x04	; 4
     49c:	31 f0       	breq	.+12     	; 0x4aa <AD7195_ReadStore+0x44>
     49e:	3c c0       	rjmp	.+120    	; 0x518 <AD7195_ReadStore+0xb2>
     4a0:	96 30       	cpi	r25, 0x06	; 6
     4a2:	f9 f0       	breq	.+62     	; 0x4e2 <AD7195_ReadStore+0x7c>
     4a4:	97 30       	cpi	r25, 0x07	; 7
     4a6:	59 f1       	breq	.+86     	; 0x4fe <AD7195_ReadStore+0x98>
     4a8:	37 c0       	rjmp	.+110    	; 0x518 <AD7195_ReadStore+0xb2>
		case 4: allData->AD7195->raw_press1 = value1; break;
     4aa:	d8 01       	movw	r26, r16
     4ac:	1c 96       	adiw	r26, 0x0c	; 12
     4ae:	ed 91       	ld	r30, X+
     4b0:	fc 91       	ld	r31, X
     4b2:	1d 97       	sbiw	r26, 0x0d	; 13
     4b4:	8b 81       	ldd	r24, Y+3	; 0x03
     4b6:	9c 81       	ldd	r25, Y+4	; 0x04
     4b8:	ad 81       	ldd	r26, Y+5	; 0x05
     4ba:	be 81       	ldd	r27, Y+6	; 0x06
     4bc:	80 a3       	std	Z+32, r24	; 0x20
     4be:	91 a3       	std	Z+33, r25	; 0x21
     4c0:	a2 a3       	std	Z+34, r26	; 0x22
     4c2:	b3 a3       	std	Z+35, r27	; 0x23
     4c4:	29 c0       	rjmp	.+82     	; 0x518 <AD7195_ReadStore+0xb2>
		case 5: allData->AD7195->raw_press2 = value1; break;
     4c6:	d8 01       	movw	r26, r16
     4c8:	1c 96       	adiw	r26, 0x0c	; 12
     4ca:	ed 91       	ld	r30, X+
     4cc:	fc 91       	ld	r31, X
     4ce:	1d 97       	sbiw	r26, 0x0d	; 13
     4d0:	8b 81       	ldd	r24, Y+3	; 0x03
     4d2:	9c 81       	ldd	r25, Y+4	; 0x04
     4d4:	ad 81       	ldd	r26, Y+5	; 0x05
     4d6:	be 81       	ldd	r27, Y+6	; 0x06
     4d8:	84 a3       	std	Z+36, r24	; 0x24
     4da:	95 a3       	std	Z+37, r25	; 0x25
     4dc:	a6 a3       	std	Z+38, r26	; 0x26
     4de:	b7 a3       	std	Z+39, r27	; 0x27
     4e0:	1b c0       	rjmp	.+54     	; 0x518 <AD7195_ReadStore+0xb2>
		case 6: allData->AD7195->raw_press3 = value1; break;
     4e2:	d8 01       	movw	r26, r16
     4e4:	1c 96       	adiw	r26, 0x0c	; 12
     4e6:	ed 91       	ld	r30, X+
     4e8:	fc 91       	ld	r31, X
     4ea:	1d 97       	sbiw	r26, 0x0d	; 13
     4ec:	8b 81       	ldd	r24, Y+3	; 0x03
     4ee:	9c 81       	ldd	r25, Y+4	; 0x04
     4f0:	ad 81       	ldd	r26, Y+5	; 0x05
     4f2:	be 81       	ldd	r27, Y+6	; 0x06
     4f4:	80 a7       	std	Z+40, r24	; 0x28
     4f6:	91 a7       	std	Z+41, r25	; 0x29
     4f8:	a2 a7       	std	Z+42, r26	; 0x2a
     4fa:	b3 a7       	std	Z+43, r27	; 0x2b
     4fc:	0d c0       	rjmp	.+26     	; 0x518 <AD7195_ReadStore+0xb2>
		case 7: allData->AD7195->raw_press4 = value1; break;
     4fe:	d8 01       	movw	r26, r16
     500:	1c 96       	adiw	r26, 0x0c	; 12
     502:	ed 91       	ld	r30, X+
     504:	fc 91       	ld	r31, X
     506:	1d 97       	sbiw	r26, 0x0d	; 13
     508:	8b 81       	ldd	r24, Y+3	; 0x03
     50a:	9c 81       	ldd	r25, Y+4	; 0x04
     50c:	ad 81       	ldd	r26, Y+5	; 0x05
     50e:	be 81       	ldd	r27, Y+6	; 0x06
     510:	84 a7       	std	Z+44, r24	; 0x2c
     512:	95 a7       	std	Z+45, r25	; 0x2d
     514:	a6 a7       	std	Z+46, r26	; 0x2e
     516:	b7 a7       	std	Z+47, r27	; 0x2f
	}
	switch(channel2){
     518:	9a 81       	ldd	r25, Y+2	; 0x02
     51a:	95 30       	cpi	r25, 0x05	; 5
     51c:	b9 f0       	breq	.+46     	; 0x54c <AD7195_ReadStore+0xe6>
     51e:	18 f4       	brcc	.+6      	; 0x526 <AD7195_ReadStore+0xc0>
     520:	94 30       	cpi	r25, 0x04	; 4
     522:	31 f0       	breq	.+12     	; 0x530 <AD7195_ReadStore+0xca>
     524:	3c c0       	rjmp	.+120    	; 0x59e <AD7195_ReadStore+0x138>
     526:	96 30       	cpi	r25, 0x06	; 6
     528:	f9 f0       	breq	.+62     	; 0x568 <AD7195_ReadStore+0x102>
     52a:	97 30       	cpi	r25, 0x07	; 7
     52c:	59 f1       	breq	.+86     	; 0x584 <AD7195_ReadStore+0x11e>
     52e:	37 c0       	rjmp	.+110    	; 0x59e <AD7195_ReadStore+0x138>
		case 4: allData->AD7195->raw_press5 = value2; break;
     530:	d8 01       	movw	r26, r16
     532:	1c 96       	adiw	r26, 0x0c	; 12
     534:	ed 91       	ld	r30, X+
     536:	fc 91       	ld	r31, X
     538:	1d 97       	sbiw	r26, 0x0d	; 13
     53a:	8f 81       	ldd	r24, Y+7	; 0x07
     53c:	98 85       	ldd	r25, Y+8	; 0x08
     53e:	a9 85       	ldd	r26, Y+9	; 0x09
     540:	ba 85       	ldd	r27, Y+10	; 0x0a
     542:	80 ab       	std	Z+48, r24	; 0x30
     544:	91 ab       	std	Z+49, r25	; 0x31
     546:	a2 ab       	std	Z+50, r26	; 0x32
     548:	b3 ab       	std	Z+51, r27	; 0x33
     54a:	29 c0       	rjmp	.+82     	; 0x59e <AD7195_ReadStore+0x138>
		case 5: allData->AD7195->raw_press6 = value2; break;
     54c:	d8 01       	movw	r26, r16
     54e:	1c 96       	adiw	r26, 0x0c	; 12
     550:	ed 91       	ld	r30, X+
     552:	fc 91       	ld	r31, X
     554:	1d 97       	sbiw	r26, 0x0d	; 13
     556:	8f 81       	ldd	r24, Y+7	; 0x07
     558:	98 85       	ldd	r25, Y+8	; 0x08
     55a:	a9 85       	ldd	r26, Y+9	; 0x09
     55c:	ba 85       	ldd	r27, Y+10	; 0x0a
     55e:	84 ab       	std	Z+52, r24	; 0x34
     560:	95 ab       	std	Z+53, r25	; 0x35
     562:	a6 ab       	std	Z+54, r26	; 0x36
     564:	b7 ab       	std	Z+55, r27	; 0x37
     566:	1b c0       	rjmp	.+54     	; 0x59e <AD7195_ReadStore+0x138>
		case 6: allData->AD7195->raw_press7 = value2; break;
     568:	d8 01       	movw	r26, r16
     56a:	1c 96       	adiw	r26, 0x0c	; 12
     56c:	ed 91       	ld	r30, X+
     56e:	fc 91       	ld	r31, X
     570:	1d 97       	sbiw	r26, 0x0d	; 13
     572:	8f 81       	ldd	r24, Y+7	; 0x07
     574:	98 85       	ldd	r25, Y+8	; 0x08
     576:	a9 85       	ldd	r26, Y+9	; 0x09
     578:	ba 85       	ldd	r27, Y+10	; 0x0a
     57a:	80 af       	std	Z+56, r24	; 0x38
     57c:	91 af       	std	Z+57, r25	; 0x39
     57e:	a2 af       	std	Z+58, r26	; 0x3a
     580:	b3 af       	std	Z+59, r27	; 0x3b
     582:	0d c0       	rjmp	.+26     	; 0x59e <AD7195_ReadStore+0x138>
		case 7: allData->AD7195->raw_press8 = value2; break;
     584:	d8 01       	movw	r26, r16
     586:	1c 96       	adiw	r26, 0x0c	; 12
     588:	ed 91       	ld	r30, X+
     58a:	fc 91       	ld	r31, X
     58c:	1d 97       	sbiw	r26, 0x0d	; 13
     58e:	8f 81       	ldd	r24, Y+7	; 0x07
     590:	98 85       	ldd	r25, Y+8	; 0x08
     592:	a9 85       	ldd	r26, Y+9	; 0x09
     594:	ba 85       	ldd	r27, Y+10	; 0x0a
     596:	84 af       	std	Z+60, r24	; 0x3c
     598:	95 af       	std	Z+61, r25	; 0x3d
     59a:	a6 af       	std	Z+62, r26	; 0x3e
     59c:	b7 af       	std	Z+63, r27	; 0x3f
	}
}
     59e:	2a 96       	adiw	r28, 0x0a	; 10
     5a0:	cd bf       	out	0x3d, r28	; 61
     5a2:	de bf       	out	0x3e, r29	; 62
     5a4:	df 91       	pop	r29
     5a6:	cf 91       	pop	r28
     5a8:	1f 91       	pop	r17
     5aa:	0f 91       	pop	r16
     5ac:	08 95       	ret

000005ae <AD7195_PressureCalc>:

void AD7195_PressureCalc(AD7195_t * AD7195){
     5ae:	cf 93       	push	r28
     5b0:	df 93       	push	r29
     5b2:	ec 01       	movw	r28, r24
	AD7195->pressure1 = 0;
     5b4:	18 82       	st	Y, r1
     5b6:	19 82       	std	Y+1, r1	; 0x01
     5b8:	1a 82       	std	Y+2, r1	; 0x02
     5ba:	1b 82       	std	Y+3, r1	; 0x03
	AD7195->pressure2 = 0;
     5bc:	1c 82       	std	Y+4, r1	; 0x04
     5be:	1d 82       	std	Y+5, r1	; 0x05
     5c0:	1e 82       	std	Y+6, r1	; 0x06
     5c2:	1f 82       	std	Y+7, r1	; 0x07
	AD7195->pressure3 = 0;
     5c4:	18 86       	std	Y+8, r1	; 0x08
     5c6:	19 86       	std	Y+9, r1	; 0x09
     5c8:	1a 86       	std	Y+10, r1	; 0x0a
     5ca:	1b 86       	std	Y+11, r1	; 0x0b
	AD7195->pressure4 = (AD7195->raw_press4 - 8522432.0)/ 87850.0;
     5cc:	6c a5       	ldd	r22, Y+44	; 0x2c
     5ce:	7d a5       	ldd	r23, Y+45	; 0x2d
     5d0:	8e a5       	ldd	r24, Y+46	; 0x2e
     5d2:	9f a5       	ldd	r25, Y+47	; 0x2f
     5d4:	0e 94 14 33 	call	0x6628	; 0x6628 <__floatunsisf>
     5d8:	20 ec       	ldi	r18, 0xC0	; 192
     5da:	3a e0       	ldi	r19, 0x0A	; 10
     5dc:	42 e0       	ldi	r20, 0x02	; 2
     5de:	5b e4       	ldi	r21, 0x4B	; 75
     5e0:	0e 94 47 32 	call	0x648e	; 0x648e <__subsf3>
     5e4:	20 e0       	ldi	r18, 0x00	; 0
     5e6:	35 e9       	ldi	r19, 0x95	; 149
     5e8:	4b ea       	ldi	r20, 0xAB	; 171
     5ea:	57 e4       	ldi	r21, 0x47	; 71
     5ec:	0e 94 ac 32 	call	0x6558	; 0x6558 <__divsf3>
     5f0:	6c 87       	std	Y+12, r22	; 0x0c
     5f2:	7d 87       	std	Y+13, r23	; 0x0d
     5f4:	8e 87       	std	Y+14, r24	; 0x0e
     5f6:	9f 87       	std	Y+15, r25	; 0x0f
	AD7195->pressure5 = (AD7195->raw_press5 - 8522432.0)/ 87850.0;
     5f8:	68 a9       	ldd	r22, Y+48	; 0x30
     5fa:	79 a9       	ldd	r23, Y+49	; 0x31
     5fc:	8a a9       	ldd	r24, Y+50	; 0x32
     5fe:	9b a9       	ldd	r25, Y+51	; 0x33
     600:	0e 94 14 33 	call	0x6628	; 0x6628 <__floatunsisf>
     604:	20 ec       	ldi	r18, 0xC0	; 192
     606:	3a e0       	ldi	r19, 0x0A	; 10
     608:	42 e0       	ldi	r20, 0x02	; 2
     60a:	5b e4       	ldi	r21, 0x4B	; 75
     60c:	0e 94 47 32 	call	0x648e	; 0x648e <__subsf3>
     610:	20 e0       	ldi	r18, 0x00	; 0
     612:	35 e9       	ldi	r19, 0x95	; 149
     614:	4b ea       	ldi	r20, 0xAB	; 171
     616:	57 e4       	ldi	r21, 0x47	; 71
     618:	0e 94 ac 32 	call	0x6558	; 0x6558 <__divsf3>
     61c:	68 8b       	std	Y+16, r22	; 0x10
     61e:	79 8b       	std	Y+17, r23	; 0x11
     620:	8a 8b       	std	Y+18, r24	; 0x12
     622:	9b 8b       	std	Y+19, r25	; 0x13
	AD7195->pressure6 = (AD7195->raw_press6 - 8645000.0)/139500.0;
     624:	6c a9       	ldd	r22, Y+52	; 0x34
     626:	7d a9       	ldd	r23, Y+53	; 0x35
     628:	8e a9       	ldd	r24, Y+54	; 0x36
     62a:	9f a9       	ldd	r25, Y+55	; 0x37
     62c:	0e 94 14 33 	call	0x6628	; 0x6628 <__floatunsisf>
     630:	28 e8       	ldi	r18, 0x88	; 136
     632:	39 ee       	ldi	r19, 0xE9	; 233
     634:	43 e0       	ldi	r20, 0x03	; 3
     636:	5b e4       	ldi	r21, 0x4B	; 75
     638:	0e 94 47 32 	call	0x648e	; 0x648e <__subsf3>
     63c:	20 e0       	ldi	r18, 0x00	; 0
     63e:	3b e3       	ldi	r19, 0x3B	; 59
     640:	48 e0       	ldi	r20, 0x08	; 8
     642:	58 e4       	ldi	r21, 0x48	; 72
     644:	0e 94 ac 32 	call	0x6558	; 0x6558 <__divsf3>
     648:	6c 8b       	std	Y+20, r22	; 0x14
     64a:	7d 8b       	std	Y+21, r23	; 0x15
     64c:	8e 8b       	std	Y+22, r24	; 0x16
     64e:	9f 8b       	std	Y+23, r25	; 0x17
	AD7195->pressure7 = (AD7195->raw_press7 - 8522432.0)/ 87850.0;
     650:	68 ad       	ldd	r22, Y+56	; 0x38
     652:	79 ad       	ldd	r23, Y+57	; 0x39
     654:	8a ad       	ldd	r24, Y+58	; 0x3a
     656:	9b ad       	ldd	r25, Y+59	; 0x3b
     658:	0e 94 14 33 	call	0x6628	; 0x6628 <__floatunsisf>
     65c:	20 ec       	ldi	r18, 0xC0	; 192
     65e:	3a e0       	ldi	r19, 0x0A	; 10
     660:	42 e0       	ldi	r20, 0x02	; 2
     662:	5b e4       	ldi	r21, 0x4B	; 75
     664:	0e 94 47 32 	call	0x648e	; 0x648e <__subsf3>
     668:	20 e0       	ldi	r18, 0x00	; 0
     66a:	35 e9       	ldi	r19, 0x95	; 149
     66c:	4b ea       	ldi	r20, 0xAB	; 171
     66e:	57 e4       	ldi	r21, 0x47	; 71
     670:	0e 94 ac 32 	call	0x6558	; 0x6558 <__divsf3>
     674:	68 8f       	std	Y+24, r22	; 0x18
     676:	79 8f       	std	Y+25, r23	; 0x19
     678:	8a 8f       	std	Y+26, r24	; 0x1a
     67a:	9b 8f       	std	Y+27, r25	; 0x1b
	AD7195->pressure8 = (AD7195->raw_press8 - 8645000.0)/139500.0;
     67c:	6c ad       	ldd	r22, Y+60	; 0x3c
     67e:	7d ad       	ldd	r23, Y+61	; 0x3d
     680:	8e ad       	ldd	r24, Y+62	; 0x3e
     682:	9f ad       	ldd	r25, Y+63	; 0x3f
     684:	0e 94 14 33 	call	0x6628	; 0x6628 <__floatunsisf>
     688:	28 e8       	ldi	r18, 0x88	; 136
     68a:	39 ee       	ldi	r19, 0xE9	; 233
     68c:	43 e0       	ldi	r20, 0x03	; 3
     68e:	5b e4       	ldi	r21, 0x4B	; 75
     690:	0e 94 47 32 	call	0x648e	; 0x648e <__subsf3>
     694:	20 e0       	ldi	r18, 0x00	; 0
     696:	3b e3       	ldi	r19, 0x3B	; 59
     698:	48 e0       	ldi	r20, 0x08	; 8
     69a:	58 e4       	ldi	r21, 0x48	; 72
     69c:	0e 94 ac 32 	call	0x6558	; 0x6558 <__divsf3>
     6a0:	6c 8f       	std	Y+28, r22	; 0x1c
     6a2:	7d 8f       	std	Y+29, r23	; 0x1d
     6a4:	8e 8f       	std	Y+30, r24	; 0x1e
     6a6:	9f 8f       	std	Y+31, r25	; 0x1f
     6a8:	df 91       	pop	r29
     6aa:	cf 91       	pop	r28
     6ac:	08 95       	ret

000006ae <__vector_default>:
	allData_d.Clock = &Clock_d;
	allData_d.Output = &Output_d;
	allData_d.AD7195 = &AD7195_d;
}

void SensorUpdate(allData_t * allData) {
     6ae:	1f 92       	push	r1
     6b0:	0f 92       	push	r0
     6b2:	0f b6       	in	r0, 0x3f	; 63
     6b4:	0f 92       	push	r0
     6b6:	11 24       	eor	r1, r1
     6b8:	8f 93       	push	r24
     6ba:	81 e0       	ldi	r24, 0x01	; 1
     6bc:	80 93 a7 06 	sts	0x06A7, r24
     6c0:	8f 91       	pop	r24
     6c2:	0f 90       	pop	r0
     6c4:	0f be       	out	0x3f, r0	; 63
     6c6:	0f 90       	pop	r0
     6c8:	1f 90       	pop	r1
     6ca:	18 95       	reti

000006cc <__vector_42>:
     6cc:	1f 92       	push	r1
     6ce:	0f 92       	push	r0
     6d0:	0f b6       	in	r0, 0x3f	; 63
     6d2:	0f 92       	push	r0
     6d4:	11 24       	eor	r1, r1
     6d6:	0b b6       	in	r0, 0x3b	; 59
     6d8:	0f 92       	push	r0
     6da:	8f 93       	push	r24
     6dc:	9f 93       	push	r25
     6de:	af 93       	push	r26
     6e0:	bf 93       	push	r27
     6e2:	ef 93       	push	r30
     6e4:	ff 93       	push	r31
     6e6:	a0 e4       	ldi	r26, 0x40	; 64
     6e8:	b2 e0       	ldi	r27, 0x02	; 2
     6ea:	50 96       	adiw	r26, 0x10	; 16
     6ec:	8d 91       	ld	r24, X+
     6ee:	9c 91       	ld	r25, X
     6f0:	51 97       	sbiw	r26, 0x11	; 17
     6f2:	e9 ec       	ldi	r30, 0xC9	; 201
     6f4:	f6 e2       	ldi	r31, 0x26	; 38
     6f6:	84 83       	std	Z+4, r24	; 0x04
     6f8:	95 83       	std	Z+5, r25	; 0x05
     6fa:	52 96       	adiw	r26, 0x12	; 18
     6fc:	8d 91       	ld	r24, X+
     6fe:	9c 91       	ld	r25, X
     700:	53 97       	sbiw	r26, 0x13	; 19
     702:	86 83       	std	Z+6, r24	; 0x06
     704:	97 83       	std	Z+7, r25	; 0x07
     706:	54 96       	adiw	r26, 0x14	; 20
     708:	8d 91       	ld	r24, X+
     70a:	9c 91       	ld	r25, X
     70c:	55 97       	sbiw	r26, 0x15	; 21
     70e:	80 87       	std	Z+8, r24	; 0x08
     710:	91 87       	std	Z+9, r25	; 0x09
     712:	56 96       	adiw	r26, 0x16	; 22
     714:	8d 91       	ld	r24, X+
     716:	9c 91       	ld	r25, X
     718:	57 97       	sbiw	r26, 0x17	; 23
     71a:	82 87       	std	Z+10, r24	; 0x0a
     71c:	93 87       	std	Z+11, r25	; 0x0b
     71e:	ff 91       	pop	r31
     720:	ef 91       	pop	r30
     722:	bf 91       	pop	r27
     724:	af 91       	pop	r26
     726:	9f 91       	pop	r25
     728:	8f 91       	pop	r24
     72a:	0f 90       	pop	r0
     72c:	0b be       	out	0x3b, r0	; 59
     72e:	0f 90       	pop	r0
     730:	0f be       	out	0x3f, r0	; 63
     732:	0f 90       	pop	r0
     734:	1f 90       	pop	r1
     736:	18 95       	reti

00000738 <__vector_90>:
     738:	1f 92       	push	r1
     73a:	0f 92       	push	r0
     73c:	0f b6       	in	r0, 0x3f	; 63
     73e:	0f 92       	push	r0
     740:	11 24       	eor	r1, r1
     742:	0b b6       	in	r0, 0x3b	; 59
     744:	0f 92       	push	r0
     746:	8f 93       	push	r24
     748:	9f 93       	push	r25
     74a:	ef 93       	push	r30
     74c:	ff 93       	push	r31
     74e:	e0 91 26 24 	lds	r30, 0x2426
     752:	f0 91 27 24 	lds	r31, 0x2427
     756:	e2 5a       	subi	r30, 0xA2	; 162
     758:	fc 4d       	sbci	r31, 0xDC	; 220
     75a:	80 81       	ld	r24, Z
     75c:	88 23       	and	r24, r24
     75e:	f9 f0       	breq	.+62     	; 0x79e <__vector_90+0x66>
     760:	83 32       	cpi	r24, 0x23	; 35
     762:	e9 f0       	breq	.+58     	; 0x79e <__vector_90+0x66>
     764:	91 e0       	ldi	r25, 0x01	; 1
     766:	90 93 28 24 	sts	0x2428, r25
     76a:	85 32       	cpi	r24, 0x25	; 37
     76c:	21 f4       	brne	.+8      	; 0x776 <__vector_90+0x3e>
     76e:	8a e0       	ldi	r24, 0x0A	; 10
     770:	80 93 a0 09 	sts	0x09A0, r24
     774:	02 c0       	rjmp	.+4      	; 0x77a <__vector_90+0x42>
     776:	80 93 a0 09 	sts	0x09A0, r24
     77a:	80 91 26 24 	lds	r24, 0x2426
     77e:	90 91 27 24 	lds	r25, 0x2427
     782:	87 39       	cpi	r24, 0x97	; 151
     784:	91 05       	cpc	r25, r1
     786:	30 f4       	brcc	.+12     	; 0x794 <__vector_90+0x5c>
     788:	01 96       	adiw	r24, 0x01	; 1
     78a:	80 93 26 24 	sts	0x2426, r24
     78e:	90 93 27 24 	sts	0x2427, r25
     792:	07 c0       	rjmp	.+14     	; 0x7a2 <__vector_90+0x6a>
     794:	fc 01       	movw	r30, r24
     796:	e2 5a       	subi	r30, 0xA2	; 162
     798:	fc 4d       	sbci	r31, 0xDC	; 220
     79a:	10 82       	st	Z, r1
     79c:	02 c0       	rjmp	.+4      	; 0x7a2 <__vector_90+0x6a>
     79e:	10 92 28 24 	sts	0x2428, r1
     7a2:	ff 91       	pop	r31
     7a4:	ef 91       	pop	r30
     7a6:	9f 91       	pop	r25
     7a8:	8f 91       	pop	r24
     7aa:	0f 90       	pop	r0
     7ac:	0b be       	out	0x3b, r0	; 59
     7ae:	0f 90       	pop	r0
     7b0:	0f be       	out	0x3f, r0	; 63
     7b2:	0f 90       	pop	r0
     7b4:	1f 90       	pop	r1
     7b6:	18 95       	reti

000007b8 <__vector_88>:
     7b8:	1f 92       	push	r1
     7ba:	0f 92       	push	r0
     7bc:	0f b6       	in	r0, 0x3f	; 63
     7be:	0f 92       	push	r0
     7c0:	11 24       	eor	r1, r1
     7c2:	0b b6       	in	r0, 0x3b	; 59
     7c4:	0f 92       	push	r0
     7c6:	2f 93       	push	r18
     7c8:	3f 93       	push	r19
     7ca:	4f 93       	push	r20
     7cc:	5f 93       	push	r21
     7ce:	6f 93       	push	r22
     7d0:	7f 93       	push	r23
     7d2:	8f 93       	push	r24
     7d4:	9f 93       	push	r25
     7d6:	af 93       	push	r26
     7d8:	bf 93       	push	r27
     7da:	ef 93       	push	r30
     7dc:	ff 93       	push	r31
     7de:	cf 93       	push	r28
     7e0:	df 93       	push	r29
     7e2:	cd b7       	in	r28, 0x3d	; 61
     7e4:	de b7       	in	r29, 0x3e	; 62
     7e6:	29 97       	sbiw	r28, 0x09	; 9
     7e8:	cd bf       	out	0x3d, r28	; 61
     7ea:	de bf       	out	0x3e, r29	; 62
     7ec:	80 91 a0 09 	lds	r24, 0x09A0
     7f0:	89 83       	std	Y+1, r24	; 0x01
     7f2:	89 81       	ldd	r24, Y+1	; 0x01
     7f4:	84 32       	cpi	r24, 0x24	; 36
     7f6:	21 f4       	brne	.+8      	; 0x800 <__vector_88+0x48>
     7f8:	81 e0       	ldi	r24, 0x01	; 1
     7fa:	80 93 2c 24 	sts	0x242C, r24
     7fe:	49 c1       	rjmp	.+658    	; 0xa92 <__vector_88+0x2da>
     800:	89 81       	ldd	r24, Y+1	; 0x01
     802:	82 35       	cpi	r24, 0x52	; 82
     804:	81 f4       	brne	.+32     	; 0x826 <__vector_88+0x6e>
     806:	80 91 2c 24 	lds	r24, 0x242C
     80a:	88 23       	and	r24, r24
     80c:	09 f4       	brne	.+2      	; 0x810 <__vector_88+0x58>
     80e:	0c c1       	rjmp	.+536    	; 0xa28 <__vector_88+0x270>
     810:	8f b7       	in	r24, 0x3f	; 63
     812:	f8 94       	cli
     814:	10 92 2c 24 	sts	0x242C, r1
     818:	98 ed       	ldi	r25, 0xD8	; 216
     81a:	94 bf       	out	0x34, r25	; 52
     81c:	91 e0       	ldi	r25, 0x01	; 1
     81e:	90 93 79 00 	sts	0x0079, r25
     822:	8f bf       	out	0x3f, r24	; 63
     824:	36 c1       	rjmp	.+620    	; 0xa92 <__vector_88+0x2da>
     826:	89 81       	ldd	r24, Y+1	; 0x01
     828:	81 33       	cpi	r24, 0x31	; 49
     82a:	a9 f4       	brne	.+42     	; 0x856 <__vector_88+0x9e>
     82c:	80 91 2c 24 	lds	r24, 0x242C
     830:	88 23       	and	r24, r24
     832:	09 f4       	brne	.+2      	; 0x836 <__vector_88+0x7e>
     834:	ff c0       	rjmp	.+510    	; 0xa34 <__vector_88+0x27c>
     836:	0e 94 ec 2f 	call	0x5fd8	; 0x5fd8 <MOV_valve_open>
     83a:	2f ef       	ldi	r18, 0xFF	; 255
     83c:	87 ea       	ldi	r24, 0xA7	; 167
     83e:	91 e6       	ldi	r25, 0x61	; 97
     840:	21 50       	subi	r18, 0x01	; 1
     842:	80 40       	sbci	r24, 0x00	; 0
     844:	90 40       	sbci	r25, 0x00	; 0
     846:	e1 f7       	brne	.-8      	; 0x840 <__vector_88+0x88>
     848:	00 c0       	rjmp	.+0      	; 0x84a <__vector_88+0x92>
     84a:	00 00       	nop
     84c:	0e 94 f0 2f 	call	0x5fe0	; 0x5fe0 <MOV_valve_close>
     850:	10 92 2c 24 	sts	0x242C, r1
     854:	1e c1       	rjmp	.+572    	; 0xa92 <__vector_88+0x2da>
     856:	89 81       	ldd	r24, Y+1	; 0x01
     858:	82 33       	cpi	r24, 0x32	; 50
     85a:	a9 f4       	brne	.+42     	; 0x886 <__vector_88+0xce>
     85c:	80 91 2c 24 	lds	r24, 0x242C
     860:	88 23       	and	r24, r24
     862:	09 f4       	brne	.+2      	; 0x866 <__vector_88+0xae>
     864:	ed c0       	rjmp	.+474    	; 0xa40 <__vector_88+0x288>
     866:	0e 94 e4 2f 	call	0x5fc8	; 0x5fc8 <MFV_valve_open>
     86a:	2f ef       	ldi	r18, 0xFF	; 255
     86c:	87 ea       	ldi	r24, 0xA7	; 167
     86e:	91 e6       	ldi	r25, 0x61	; 97
     870:	21 50       	subi	r18, 0x01	; 1
     872:	80 40       	sbci	r24, 0x00	; 0
     874:	90 40       	sbci	r25, 0x00	; 0
     876:	e1 f7       	brne	.-8      	; 0x870 <__vector_88+0xb8>
     878:	00 c0       	rjmp	.+0      	; 0x87a <__vector_88+0xc2>
     87a:	00 00       	nop
     87c:	0e 94 e8 2f 	call	0x5fd0	; 0x5fd0 <MFV_valve_close>
     880:	10 92 2c 24 	sts	0x242C, r1
     884:	06 c1       	rjmp	.+524    	; 0xa92 <__vector_88+0x2da>
     886:	89 81       	ldd	r24, Y+1	; 0x01
     888:	83 33       	cpi	r24, 0x33	; 51
     88a:	a9 f4       	brne	.+42     	; 0x8b6 <__vector_88+0xfe>
     88c:	80 91 2c 24 	lds	r24, 0x242C
     890:	88 23       	and	r24, r24
     892:	09 f4       	brne	.+2      	; 0x896 <__vector_88+0xde>
     894:	db c0       	rjmp	.+438    	; 0xa4c <__vector_88+0x294>
     896:	0e 94 f4 2f 	call	0x5fe8	; 0x5fe8 <MPV_valve_open>
     89a:	2f ef       	ldi	r18, 0xFF	; 255
     89c:	87 ea       	ldi	r24, 0xA7	; 167
     89e:	91 e6       	ldi	r25, 0x61	; 97
     8a0:	21 50       	subi	r18, 0x01	; 1
     8a2:	80 40       	sbci	r24, 0x00	; 0
     8a4:	90 40       	sbci	r25, 0x00	; 0
     8a6:	e1 f7       	brne	.-8      	; 0x8a0 <__vector_88+0xe8>
     8a8:	00 c0       	rjmp	.+0      	; 0x8aa <__vector_88+0xf2>
     8aa:	00 00       	nop
     8ac:	0e 94 f8 2f 	call	0x5ff0	; 0x5ff0 <MPV_valve_close>
     8b0:	10 92 2c 24 	sts	0x242C, r1
     8b4:	ee c0       	rjmp	.+476    	; 0xa92 <__vector_88+0x2da>
     8b6:	89 81       	ldd	r24, Y+1	; 0x01
     8b8:	84 33       	cpi	r24, 0x34	; 52
     8ba:	a9 f4       	brne	.+42     	; 0x8e6 <__vector_88+0x12e>
     8bc:	80 91 2c 24 	lds	r24, 0x242C
     8c0:	88 23       	and	r24, r24
     8c2:	09 f4       	brne	.+2      	; 0x8c6 <__vector_88+0x10e>
     8c4:	c9 c0       	rjmp	.+402    	; 0xa58 <__vector_88+0x2a0>
     8c6:	0e 94 fc 2f 	call	0x5ff8	; 0x5ff8 <FPV_valve_open>
     8ca:	2f ef       	ldi	r18, 0xFF	; 255
     8cc:	87 ea       	ldi	r24, 0xA7	; 167
     8ce:	91 e6       	ldi	r25, 0x61	; 97
     8d0:	21 50       	subi	r18, 0x01	; 1
     8d2:	80 40       	sbci	r24, 0x00	; 0
     8d4:	90 40       	sbci	r25, 0x00	; 0
     8d6:	e1 f7       	brne	.-8      	; 0x8d0 <__vector_88+0x118>
     8d8:	00 c0       	rjmp	.+0      	; 0x8da <__vector_88+0x122>
     8da:	00 00       	nop
     8dc:	0e 94 00 30 	call	0x6000	; 0x6000 <FPV_valve_close>
     8e0:	10 92 2c 24 	sts	0x242C, r1
     8e4:	d6 c0       	rjmp	.+428    	; 0xa92 <__vector_88+0x2da>
     8e6:	89 81       	ldd	r24, Y+1	; 0x01
     8e8:	86 33       	cpi	r24, 0x36	; 54
     8ea:	89 f4       	brne	.+34     	; 0x90e <__vector_88+0x156>
     8ec:	80 91 2c 24 	lds	r24, 0x242C
     8f0:	88 23       	and	r24, r24
     8f2:	09 f4       	brne	.+2      	; 0x8f6 <__vector_88+0x13e>
     8f4:	b7 c0       	rjmp	.+366    	; 0xa64 <__vector_88+0x2ac>
     8f6:	ea e2       	ldi	r30, 0x2A	; 42
     8f8:	f4 e2       	ldi	r31, 0x24	; 36
     8fa:	86 e9       	ldi	r24, 0x96	; 150
     8fc:	90 e0       	ldi	r25, 0x00	; 0
     8fe:	a0 e0       	ldi	r26, 0x00	; 0
     900:	b0 e0       	ldi	r27, 0x00	; 0
     902:	81 87       	std	Z+9, r24	; 0x09
     904:	92 87       	std	Z+10, r25	; 0x0a
     906:	a3 87       	std	Z+11, r26	; 0x0b
     908:	b4 87       	std	Z+12, r27	; 0x0c
     90a:	12 82       	std	Z+2, r1	; 0x02
     90c:	c2 c0       	rjmp	.+388    	; 0xa92 <__vector_88+0x2da>
     90e:	89 81       	ldd	r24, Y+1	; 0x01
     910:	87 33       	cpi	r24, 0x37	; 55
     912:	89 f4       	brne	.+34     	; 0x936 <__vector_88+0x17e>
     914:	80 91 2c 24 	lds	r24, 0x242C
     918:	88 23       	and	r24, r24
     91a:	09 f4       	brne	.+2      	; 0x91e <__vector_88+0x166>
     91c:	a9 c0       	rjmp	.+338    	; 0xa70 <__vector_88+0x2b8>
     91e:	ea e2       	ldi	r30, 0x2A	; 42
     920:	f4 e2       	ldi	r31, 0x24	; 36
     922:	88 ec       	ldi	r24, 0xC8	; 200
     924:	90 e0       	ldi	r25, 0x00	; 0
     926:	a0 e0       	ldi	r26, 0x00	; 0
     928:	b0 e0       	ldi	r27, 0x00	; 0
     92a:	81 87       	std	Z+9, r24	; 0x09
     92c:	92 87       	std	Z+10, r25	; 0x0a
     92e:	a3 87       	std	Z+11, r26	; 0x0b
     930:	b4 87       	std	Z+12, r27	; 0x0c
     932:	12 82       	std	Z+2, r1	; 0x02
     934:	ae c0       	rjmp	.+348    	; 0xa92 <__vector_88+0x2da>
     936:	89 81       	ldd	r24, Y+1	; 0x01
     938:	88 33       	cpi	r24, 0x38	; 56
     93a:	89 f4       	brne	.+34     	; 0x95e <__vector_88+0x1a6>
     93c:	80 91 2c 24 	lds	r24, 0x242C
     940:	88 23       	and	r24, r24
     942:	09 f4       	brne	.+2      	; 0x946 <__vector_88+0x18e>
     944:	9b c0       	rjmp	.+310    	; 0xa7c <__vector_88+0x2c4>
     946:	ea e2       	ldi	r30, 0x2A	; 42
     948:	f4 e2       	ldi	r31, 0x24	; 36
     94a:	8e e5       	ldi	r24, 0x5E	; 94
     94c:	91 e0       	ldi	r25, 0x01	; 1
     94e:	a0 e0       	ldi	r26, 0x00	; 0
     950:	b0 e0       	ldi	r27, 0x00	; 0
     952:	81 87       	std	Z+9, r24	; 0x09
     954:	92 87       	std	Z+10, r25	; 0x0a
     956:	a3 87       	std	Z+11, r26	; 0x0b
     958:	b4 87       	std	Z+12, r27	; 0x0c
     95a:	12 82       	std	Z+2, r1	; 0x02
     95c:	9a c0       	rjmp	.+308    	; 0xa92 <__vector_88+0x2da>
     95e:	89 81       	ldd	r24, Y+1	; 0x01
     960:	89 33       	cpi	r24, 0x39	; 57
     962:	89 f4       	brne	.+34     	; 0x986 <__vector_88+0x1ce>
     964:	80 91 2c 24 	lds	r24, 0x242C
     968:	88 23       	and	r24, r24
     96a:	09 f4       	brne	.+2      	; 0x96e <__vector_88+0x1b6>
     96c:	8d c0       	rjmp	.+282    	; 0xa88 <__vector_88+0x2d0>
     96e:	ea e2       	ldi	r30, 0x2A	; 42
     970:	f4 e2       	ldi	r31, 0x24	; 36
     972:	8a e8       	ldi	r24, 0x8A	; 138
     974:	92 e0       	ldi	r25, 0x02	; 2
     976:	a0 e0       	ldi	r26, 0x00	; 0
     978:	b0 e0       	ldi	r27, 0x00	; 0
     97a:	81 87       	std	Z+9, r24	; 0x09
     97c:	92 87       	std	Z+10, r25	; 0x0a
     97e:	a3 87       	std	Z+11, r26	; 0x0b
     980:	b4 87       	std	Z+12, r27	; 0x0c
     982:	12 82       	std	Z+2, r1	; 0x02
     984:	86 c0       	rjmp	.+268    	; 0xa92 <__vector_88+0x2da>
     986:	89 81       	ldd	r24, Y+1	; 0x01
     988:	81 34       	cpi	r24, 0x41	; 65
     98a:	69 f4       	brne	.+26     	; 0x9a6 <__vector_88+0x1ee>
     98c:	80 91 2c 24 	lds	r24, 0x242C
     990:	88 23       	and	r24, r24
     992:	09 f4       	brne	.+2      	; 0x996 <__vector_88+0x1de>
     994:	7c c0       	rjmp	.+248    	; 0xa8e <__vector_88+0x2d6>
     996:	ea e2       	ldi	r30, 0x2A	; 42
     998:	f4 e2       	ldi	r31, 0x24	; 36
     99a:	81 e0       	ldi	r24, 0x01	; 1
     99c:	87 83       	std	Z+7, r24	; 0x07
     99e:	16 82       	std	Z+6, r1	; 0x06
     9a0:	15 82       	std	Z+5, r1	; 0x05
     9a2:	12 82       	std	Z+2, r1	; 0x02
     9a4:	76 c0       	rjmp	.+236    	; 0xa92 <__vector_88+0x2da>
     9a6:	89 81       	ldd	r24, Y+1	; 0x01
     9a8:	80 35       	cpi	r24, 0x50	; 80
     9aa:	11 f5       	brne	.+68     	; 0x9f0 <__vector_88+0x238>
     9ac:	80 91 2c 24 	lds	r24, 0x242C
     9b0:	88 23       	and	r24, r24
     9b2:	f1 f0       	breq	.+60     	; 0x9f0 <__vector_88+0x238>
     9b4:	ea e2       	ldi	r30, 0x2A	; 42
     9b6:	f4 e2       	ldi	r31, 0x24	; 36
     9b8:	81 e0       	ldi	r24, 0x01	; 1
     9ba:	85 83       	std	Z+5, r24	; 0x05
     9bc:	12 82       	std	Z+2, r1	; 0x02
     9be:	ce 01       	movw	r24, r28
     9c0:	02 96       	adiw	r24, 0x02	; 2
     9c2:	0e 94 e2 31 	call	0x63c4	; 0x63c4 <FindNextFilename>
     9c6:	4a e0       	ldi	r20, 0x0A	; 10
     9c8:	be 01       	movw	r22, r28
     9ca:	6e 5f       	subi	r22, 0xFE	; 254
     9cc:	7f 4f       	sbci	r23, 0xFF	; 255
     9ce:	85 ea       	ldi	r24, 0xA5	; 165
     9d0:	94 e2       	ldi	r25, 0x24	; 36
     9d2:	0e 94 df 15 	call	0x2bbe	; 0x2bbe <f_open>
     9d6:	81 11       	cpse	r24, r1
     9d8:	5c c0       	rjmp	.+184    	; 0xa92 <__vector_88+0x2da>
     9da:	27 ec       	ldi	r18, 0xC7	; 199
     9dc:	36 e2       	ldi	r19, 0x26	; 38
     9de:	45 e6       	ldi	r20, 0x65	; 101
     9e0:	50 e0       	ldi	r21, 0x00	; 0
     9e2:	60 e0       	ldi	r22, 0x00	; 0
     9e4:	70 e2       	ldi	r23, 0x20	; 32
     9e6:	85 ea       	ldi	r24, 0xA5	; 165
     9e8:	94 e2       	ldi	r25, 0x24	; 36
     9ea:	0e 94 c2 17 	call	0x2f84	; 0x2f84 <f_write>
     9ee:	51 c0       	rjmp	.+162    	; 0xa92 <__vector_88+0x2da>
     9f0:	89 81       	ldd	r24, Y+1	; 0x01
     9f2:	83 35       	cpi	r24, 0x53	; 83
     9f4:	b1 f4       	brne	.+44     	; 0xa22 <__vector_88+0x26a>
     9f6:	80 91 33 24 	lds	r24, 0x2433
     9fa:	90 91 34 24 	lds	r25, 0x2434
     9fe:	a0 91 35 24 	lds	r26, 0x2435
     a02:	b0 91 36 24 	lds	r27, 0x2436
     a06:	89 2b       	or	r24, r25
     a08:	8a 2b       	or	r24, r26
     a0a:	8b 2b       	or	r24, r27
     a0c:	51 f0       	breq	.+20     	; 0xa22 <__vector_88+0x26a>
     a0e:	80 91 2c 24 	lds	r24, 0x242C
     a12:	88 23       	and	r24, r24
     a14:	31 f0       	breq	.+12     	; 0xa22 <__vector_88+0x26a>
     a16:	ea e2       	ldi	r30, 0x2A	; 42
     a18:	f4 e2       	ldi	r31, 0x24	; 36
     a1a:	81 e0       	ldi	r24, 0x01	; 1
     a1c:	86 83       	std	Z+6, r24	; 0x06
     a1e:	12 82       	std	Z+2, r1	; 0x02
     a20:	38 c0       	rjmp	.+112    	; 0xa92 <__vector_88+0x2da>
     a22:	10 92 2c 24 	sts	0x242C, r1
     a26:	35 c0       	rjmp	.+106    	; 0xa92 <__vector_88+0x2da>
     a28:	89 81       	ldd	r24, Y+1	; 0x01
     a2a:	89 81       	ldd	r24, Y+1	; 0x01
     a2c:	82 33       	cpi	r24, 0x32	; 50
     a2e:	09 f0       	breq	.+2      	; 0xa32 <__vector_88+0x27a>
     a30:	2a cf       	rjmp	.-428    	; 0x886 <__vector_88+0xce>
     a32:	06 c0       	rjmp	.+12     	; 0xa40 <__vector_88+0x288>
     a34:	89 81       	ldd	r24, Y+1	; 0x01
     a36:	89 81       	ldd	r24, Y+1	; 0x01
     a38:	83 33       	cpi	r24, 0x33	; 51
     a3a:	09 f0       	breq	.+2      	; 0xa3e <__vector_88+0x286>
     a3c:	3c cf       	rjmp	.-392    	; 0x8b6 <__vector_88+0xfe>
     a3e:	06 c0       	rjmp	.+12     	; 0xa4c <__vector_88+0x294>
     a40:	89 81       	ldd	r24, Y+1	; 0x01
     a42:	89 81       	ldd	r24, Y+1	; 0x01
     a44:	84 33       	cpi	r24, 0x34	; 52
     a46:	09 f0       	breq	.+2      	; 0xa4a <__vector_88+0x292>
     a48:	4e cf       	rjmp	.-356    	; 0x8e6 <__vector_88+0x12e>
     a4a:	06 c0       	rjmp	.+12     	; 0xa58 <__vector_88+0x2a0>
     a4c:	89 81       	ldd	r24, Y+1	; 0x01
     a4e:	89 81       	ldd	r24, Y+1	; 0x01
     a50:	86 33       	cpi	r24, 0x36	; 54
     a52:	09 f0       	breq	.+2      	; 0xa56 <__vector_88+0x29e>
     a54:	5c cf       	rjmp	.-328    	; 0x90e <__vector_88+0x156>
     a56:	06 c0       	rjmp	.+12     	; 0xa64 <__vector_88+0x2ac>
     a58:	89 81       	ldd	r24, Y+1	; 0x01
     a5a:	89 81       	ldd	r24, Y+1	; 0x01
     a5c:	87 33       	cpi	r24, 0x37	; 55
     a5e:	09 f0       	breq	.+2      	; 0xa62 <__vector_88+0x2aa>
     a60:	6a cf       	rjmp	.-300    	; 0x936 <__vector_88+0x17e>
     a62:	06 c0       	rjmp	.+12     	; 0xa70 <__vector_88+0x2b8>
     a64:	89 81       	ldd	r24, Y+1	; 0x01
     a66:	89 81       	ldd	r24, Y+1	; 0x01
     a68:	88 33       	cpi	r24, 0x38	; 56
     a6a:	09 f0       	breq	.+2      	; 0xa6e <__vector_88+0x2b6>
     a6c:	78 cf       	rjmp	.-272    	; 0x95e <__vector_88+0x1a6>
     a6e:	06 c0       	rjmp	.+12     	; 0xa7c <__vector_88+0x2c4>
     a70:	89 81       	ldd	r24, Y+1	; 0x01
     a72:	89 81       	ldd	r24, Y+1	; 0x01
     a74:	89 33       	cpi	r24, 0x39	; 57
     a76:	09 f0       	breq	.+2      	; 0xa7a <__vector_88+0x2c2>
     a78:	86 cf       	rjmp	.-244    	; 0x986 <__vector_88+0x1ce>
     a7a:	06 c0       	rjmp	.+12     	; 0xa88 <__vector_88+0x2d0>
     a7c:	89 81       	ldd	r24, Y+1	; 0x01
     a7e:	89 81       	ldd	r24, Y+1	; 0x01
     a80:	81 34       	cpi	r24, 0x41	; 65
     a82:	09 f0       	breq	.+2      	; 0xa86 <__vector_88+0x2ce>
     a84:	90 cf       	rjmp	.-224    	; 0x9a6 <__vector_88+0x1ee>
     a86:	03 c0       	rjmp	.+6      	; 0xa8e <__vector_88+0x2d6>
     a88:	89 81       	ldd	r24, Y+1	; 0x01
     a8a:	89 81       	ldd	r24, Y+1	; 0x01
     a8c:	b1 cf       	rjmp	.-158    	; 0x9f0 <__vector_88+0x238>
     a8e:	89 81       	ldd	r24, Y+1	; 0x01
     a90:	af cf       	rjmp	.-162    	; 0x9f0 <__vector_88+0x238>
     a92:	29 96       	adiw	r28, 0x09	; 9
     a94:	cd bf       	out	0x3d, r28	; 61
     a96:	de bf       	out	0x3e, r29	; 62
     a98:	df 91       	pop	r29
     a9a:	cf 91       	pop	r28
     a9c:	ff 91       	pop	r31
     a9e:	ef 91       	pop	r30
     aa0:	bf 91       	pop	r27
     aa2:	af 91       	pop	r26
     aa4:	9f 91       	pop	r25
     aa6:	8f 91       	pop	r24
     aa8:	7f 91       	pop	r23
     aaa:	6f 91       	pop	r22
     aac:	5f 91       	pop	r21
     aae:	4f 91       	pop	r20
     ab0:	3f 91       	pop	r19
     ab2:	2f 91       	pop	r18
     ab4:	0f 90       	pop	r0
     ab6:	0b be       	out	0x3b, r0	; 59
     ab8:	0f 90       	pop	r0
     aba:	0f be       	out	0x3f, r0	; 63
     abc:	0f 90       	pop	r0
     abe:	1f 90       	pop	r1
     ac0:	18 95       	reti

00000ac2 <__vector_14>:
     ac2:	1f 92       	push	r1
     ac4:	0f 92       	push	r0
     ac6:	0f b6       	in	r0, 0x3f	; 63
     ac8:	0f 92       	push	r0
     aca:	11 24       	eor	r1, r1
     acc:	0f 90       	pop	r0
     ace:	0f be       	out	0x3f, r0	; 63
     ad0:	0f 90       	pop	r0
     ad2:	1f 90       	pop	r1
     ad4:	18 95       	reti

00000ad6 <__vector_77>:
     ad6:	1f 92       	push	r1
     ad8:	0f 92       	push	r0
     ada:	0f b6       	in	r0, 0x3f	; 63
     adc:	0f 92       	push	r0
     ade:	11 24       	eor	r1, r1
     ae0:	0b b6       	in	r0, 0x3b	; 59
     ae2:	0f 92       	push	r0
     ae4:	8f 93       	push	r24
     ae6:	9f 93       	push	r25
     ae8:	ef 93       	push	r30
     aea:	ff 93       	push	r31
     aec:	80 91 7c 20 	lds	r24, 0x207C
     af0:	88 23       	and	r24, r24
     af2:	49 f1       	breq	.+82     	; 0xb46 <__vector_77+0x70>
     af4:	80 91 7d 20 	lds	r24, 0x207D
     af8:	81 30       	cpi	r24, 0x01	; 1
     afa:	79 f0       	breq	.+30     	; 0xb1a <__vector_77+0x44>
     afc:	28 f0       	brcs	.+10     	; 0xb08 <__vector_77+0x32>
     afe:	82 30       	cpi	r24, 0x02	; 2
     b00:	d1 f0       	breq	.+52     	; 0xb36 <__vector_77+0x60>
     b02:	83 30       	cpi	r24, 0x03	; 3
     b04:	e1 f0       	breq	.+56     	; 0xb3e <__vector_77+0x68>
     b06:	24 c0       	rjmp	.+72     	; 0xb50 <__vector_77+0x7a>
     b08:	ec e7       	ldi	r30, 0x7C	; 124
     b0a:	f0 e2       	ldi	r31, 0x20	; 32
     b0c:	10 82       	st	Z, r1
     b0e:	13 82       	std	Z+3, r1	; 0x03
     b10:	12 82       	std	Z+2, r1	; 0x02
     b12:	80 e4       	ldi	r24, 0x40	; 64
     b14:	80 93 a6 06 	sts	0x06A6, r24
     b18:	1b c0       	rjmp	.+54     	; 0xb50 <__vector_77+0x7a>
     b1a:	80 91 7f 20 	lds	r24, 0x207F
     b1e:	87 30       	cpi	r24, 0x07	; 7
     b20:	18 f0       	brcs	.+6      	; 0xb28 <__vector_77+0x52>
     b22:	10 92 7d 20 	sts	0x207D, r1
     b26:	14 c0       	rjmp	.+40     	; 0xb50 <__vector_77+0x7a>
     b28:	90 e4       	ldi	r25, 0x40	; 64
     b2a:	90 93 a7 06 	sts	0x06A7, r25
     b2e:	8f 5f       	subi	r24, 0xFF	; 255
     b30:	80 93 7f 20 	sts	0x207F, r24
     b34:	0d c0       	rjmp	.+26     	; 0xb50 <__vector_77+0x7a>
     b36:	80 e4       	ldi	r24, 0x40	; 64
     b38:	80 93 a7 06 	sts	0x06A7, r24
     b3c:	09 c0       	rjmp	.+18     	; 0xb50 <__vector_77+0x7a>
     b3e:	80 e4       	ldi	r24, 0x40	; 64
     b40:	80 93 a5 06 	sts	0x06A5, r24
     b44:	05 c0       	rjmp	.+10     	; 0xb50 <__vector_77+0x7a>
     b46:	10 92 7d 20 	sts	0x207D, r1
     b4a:	80 e4       	ldi	r24, 0x40	; 64
     b4c:	80 93 a6 06 	sts	0x06A6, r24
     b50:	ff 91       	pop	r31
     b52:	ef 91       	pop	r30
     b54:	9f 91       	pop	r25
     b56:	8f 91       	pop	r24
     b58:	0f 90       	pop	r0
     b5a:	0b be       	out	0x3b, r0	; 59
     b5c:	0f 90       	pop	r0
     b5e:	0f be       	out	0x3f, r0	; 63
     b60:	0f 90       	pop	r0
     b62:	1f 90       	pop	r1
     b64:	18 95       	reti

00000b66 <__vector_47>:
     b66:	1f 92       	push	r1
     b68:	0f 92       	push	r0
     b6a:	0f b6       	in	r0, 0x3f	; 63
     b6c:	0f 92       	push	r0
     b6e:	11 24       	eor	r1, r1
     b70:	0b b6       	in	r0, 0x3b	; 59
     b72:	0f 92       	push	r0
     b74:	8f 93       	push	r24
     b76:	9f 93       	push	r25
     b78:	af 93       	push	r26
     b7a:	bf 93       	push	r27
     b7c:	ef 93       	push	r30
     b7e:	ff 93       	push	r31
     b80:	10 92 2c 24 	sts	0x242C, r1
     b84:	ee e3       	ldi	r30, 0x3E	; 62
     b86:	f4 e2       	ldi	r31, 0x24	; 36
     b88:	80 81       	ld	r24, Z
     b8a:	91 81       	ldd	r25, Z+1	; 0x01
     b8c:	a2 81       	ldd	r26, Z+2	; 0x02
     b8e:	b3 81       	ldd	r27, Z+3	; 0x03
     b90:	01 96       	adiw	r24, 0x01	; 1
     b92:	a1 1d       	adc	r26, r1
     b94:	b1 1d       	adc	r27, r1
     b96:	80 83       	st	Z, r24
     b98:	91 83       	std	Z+1, r25	; 0x01
     b9a:	a2 83       	std	Z+2, r26	; 0x02
     b9c:	b3 83       	std	Z+3, r27	; 0x03
     b9e:	ff 91       	pop	r31
     ba0:	ef 91       	pop	r30
     ba2:	bf 91       	pop	r27
     ba4:	af 91       	pop	r26
     ba6:	9f 91       	pop	r25
     ba8:	8f 91       	pop	r24
     baa:	0f 90       	pop	r0
     bac:	0b be       	out	0x3b, r0	; 59
     bae:	0f 90       	pop	r0
     bb0:	0f be       	out	0x3f, r0	; 63
     bb2:	0f 90       	pop	r0
     bb4:	1f 90       	pop	r1
     bb6:	18 95       	reti

00000bb8 <__vector_108>:
     bb8:	1f 92       	push	r1
     bba:	0f 92       	push	r0
     bbc:	0f b6       	in	r0, 0x3f	; 63
     bbe:	0f 92       	push	r0
     bc0:	11 24       	eor	r1, r1
     bc2:	0b b6       	in	r0, 0x3b	; 59
     bc4:	0f 92       	push	r0
     bc6:	2f 93       	push	r18
     bc8:	3f 93       	push	r19
     bca:	4f 93       	push	r20
     bcc:	5f 93       	push	r21
     bce:	6f 93       	push	r22
     bd0:	7f 93       	push	r23
     bd2:	8f 93       	push	r24
     bd4:	9f 93       	push	r25
     bd6:	af 93       	push	r26
     bd8:	bf 93       	push	r27
     bda:	ef 93       	push	r30
     bdc:	ff 93       	push	r31
     bde:	88 e0       	ldi	r24, 0x08	; 8
     be0:	80 93 a7 06 	sts	0x06A7, r24
     be4:	10 92 29 24 	sts	0x2429, r1
     be8:	80 91 2d 24 	lds	r24, 0x242D
     bec:	88 23       	and	r24, r24
     bee:	41 f1       	breq	.+80     	; 0xc40 <__vector_108+0x88>
     bf0:	80 91 42 24 	lds	r24, 0x2442
     bf4:	90 91 43 24 	lds	r25, 0x2443
     bf8:	a0 91 44 24 	lds	r26, 0x2444
     bfc:	b0 91 45 24 	lds	r27, 0x2445
     c00:	8f 39       	cpi	r24, 0x9F	; 159
     c02:	26 e8       	ldi	r18, 0x86	; 134
     c04:	92 07       	cpc	r25, r18
     c06:	21 e0       	ldi	r18, 0x01	; 1
     c08:	a2 07       	cpc	r26, r18
     c0a:	b1 05       	cpc	r27, r1
     c0c:	60 f4       	brcc	.+24     	; 0xc26 <__vector_108+0x6e>
     c0e:	01 96       	adiw	r24, 0x01	; 1
     c10:	a1 1d       	adc	r26, r1
     c12:	b1 1d       	adc	r27, r1
     c14:	80 93 42 24 	sts	0x2442, r24
     c18:	90 93 43 24 	sts	0x2443, r25
     c1c:	a0 93 44 24 	sts	0x2444, r26
     c20:	b0 93 45 24 	sts	0x2445, r27
     c24:	08 c0       	rjmp	.+16     	; 0xc36 <__vector_108+0x7e>
     c26:	10 92 42 24 	sts	0x2442, r1
     c2a:	10 92 43 24 	sts	0x2443, r1
     c2e:	10 92 44 24 	sts	0x2444, r1
     c32:	10 92 45 24 	sts	0x2445, r1
     c36:	10 92 5a 23 	sts	0x235A, r1
     c3a:	10 92 5b 23 	sts	0x235B, r1
     c3e:	7c dd       	rcall	.-1288   	; 0x738 <__vector_90>
     c40:	ff 91       	pop	r31
     c42:	ef 91       	pop	r30
     c44:	bf 91       	pop	r27
     c46:	af 91       	pop	r26
     c48:	9f 91       	pop	r25
     c4a:	8f 91       	pop	r24
     c4c:	7f 91       	pop	r23
     c4e:	6f 91       	pop	r22
     c50:	5f 91       	pop	r21
     c52:	4f 91       	pop	r20
     c54:	3f 91       	pop	r19
     c56:	2f 91       	pop	r18
     c58:	0f 90       	pop	r0
     c5a:	0b be       	out	0x3b, r0	; 59
     c5c:	0f 90       	pop	r0
     c5e:	0f be       	out	0x3f, r0	; 63
     c60:	0f 90       	pop	r0
     c62:	1f 90       	pop	r1
     c64:	18 95       	reti

00000c66 <structInit>:
     c66:	10 92 26 24 	sts	0x2426, r1
     c6a:	10 92 27 24 	sts	0x2427, r1
     c6e:	aa e2       	ldi	r26, 0x2A	; 42
     c70:	b4 e2       	ldi	r27, 0x24	; 36
     c72:	1c 92       	st	X, r1
     c74:	11 96       	adiw	r26, 0x01	; 1
     c76:	1c 92       	st	X, r1
     c78:	11 97       	sbiw	r26, 0x01	; 1
     c7a:	ea e8       	ldi	r30, 0x8A	; 138
     c7c:	f4 e2       	ldi	r31, 0x24	; 36
     c7e:	89 ec       	ldi	r24, 0xC9	; 201
     c80:	96 e2       	ldi	r25, 0x26	; 38
     c82:	80 83       	st	Z, r24
     c84:	91 83       	std	Z+1, r25	; 0x01
     c86:	a2 83       	std	Z+2, r26	; 0x02
     c88:	b3 83       	std	Z+3, r27	; 0x03
     c8a:	8e e5       	ldi	r24, 0x5E	; 94
     c8c:	93 e2       	ldi	r25, 0x23	; 35
     c8e:	84 83       	std	Z+4, r24	; 0x04
     c90:	95 83       	std	Z+5, r25	; 0x05
     c92:	82 e9       	ldi	r24, 0x92	; 146
     c94:	92 e2       	ldi	r25, 0x22	; 34
     c96:	86 83       	std	Z+6, r24	; 0x06
     c98:	97 83       	std	Z+7, r25	; 0x07
     c9a:	8e e3       	ldi	r24, 0x3E	; 62
     c9c:	94 e2       	ldi	r25, 0x24	; 36
     c9e:	80 87       	std	Z+8, r24	; 0x08
     ca0:	91 87       	std	Z+9, r25	; 0x09
     ca2:	88 e9       	ldi	r24, 0x98	; 152
     ca4:	94 e2       	ldi	r25, 0x24	; 36
     ca6:	82 87       	std	Z+10, r24	; 0x0a
     ca8:	93 87       	std	Z+11, r25	; 0x0b
     caa:	8a e4       	ldi	r24, 0x4A	; 74
     cac:	94 e2       	ldi	r25, 0x24	; 36
     cae:	84 87       	std	Z+12, r24	; 0x0c
     cb0:	95 87       	std	Z+13, r25	; 0x0d
     cb2:	08 95       	ret

00000cb4 <Initialization>:
	//-----------------AD7195 (2)--------------
    
}

void Initialization(void) {
	CPU_clk(CPU_clock);	//zegar CPU
     cb4:	80 e2       	ldi	r24, 0x20	; 32
     cb6:	0e 94 2b 1e 	call	0x3c56	; 0x3c56 <CPU_clk>
    OscRTC();			//zegar RTC
     cba:	0e 94 2e 1e 	call	0x3c5c	; 0x3c5c <OscRTC>
    RTC_Init();			//konfiguracja i uruchomienie RTC
     cbe:	0e 94 2f 1e 	call	0x3c5e	; 0x3c5e <RTC_Init>
    ADC_Init();			//inicjalizacja ADC
     cc2:	0e 94 ba 1e 	call	0x3d74	; 0x3d74 <ADC_Init>
    USART_Init();		//inicjalizacja Xbee
     cc6:	0e 94 d8 1e 	call	0x3db0	; 0x3db0 <USART_Init>
    IO_Init();
     cca:	0e 94 ed 1e 	call	0x3dda	; 0x3dda <IO_Init>
    TimerCInit(sampling_time);	//sensor update
     cce:	88 e2       	ldi	r24, 0x28	; 40
     cd0:	90 e0       	ldi	r25, 0x00	; 0
     cd2:	0e 94 30 1e 	call	0x3c60	; 0x3c60 <TimerCInit>
    TimerDInit(250);			//buzzer handling
     cd6:	8a ef       	ldi	r24, 0xFA	; 250
     cd8:	90 e0       	ldi	r25, 0x00	; 0
     cda:	0e 94 51 1e 	call	0x3ca2	; 0x3ca2 <TimerDInit>
    TimerEInit(10);				//Obsuga RTC
     cde:	8a e0       	ldi	r24, 0x0A	; 10
     ce0:	90 e0       	ldi	r25, 0x00	; 0
     ce2:	0e 94 72 1e 	call	0x3ce4	; 0x3ce4 <TimerEInit>
    TimerFInit(telemetry_time);	//frame send
     ce6:	8a ef       	ldi	r24, 0xFA	; 250
     ce8:	90 e0       	ldi	r25, 0x00	; 0
     cea:	0e 94 93 1e 	call	0x3d26	; 0x3d26 <TimerFInit>
    structInit();
     cee:	bb df       	rcall	.-138    	; 0xc66 <structInit>
    I2C_Init();
     cf0:	0e 94 48 1f 	call	0x3e90	; 0x3e90 <I2C_Init>
	SPI_Init();
     cf4:	0e 94 54 1f 	call	0x3ea8	; 0x3ea8 <SPI_Init>
    //--------AD7195 (1) Init-----------
	AD7195_Reset(0);
     cf8:	80 e0       	ldi	r24, 0x00	; 0
     cfa:	f8 da       	rcall	.-2576   	; 0x2ec <AD7195_Reset>
	AD7195_Init(0);
     cfc:	80 e0       	ldi	r24, 0x00	; 0
     cfe:	b7 da       	rcall	.-2706   	; 0x26e <AD7195_Init>
	//volatile char id1 = AD7195_WhoIam(0);
	//--------AD7195 (2) Init-----------
	AD7195_Reset(1);
     d00:	81 e0       	ldi	r24, 0x01	; 1
     d02:	f4 da       	rcall	.-2584   	; 0x2ec <AD7195_Reset>
	AD7195_Init(1);
     d04:	81 e0       	ldi	r24, 0x01	; 1
     d06:	b3 da       	rcall	.-2714   	; 0x26e <AD7195_Init>
	//volatile char id2 = AD7195_WhoIam(1);
	//------- AD7195 Sync ------------
	AD7195_Sync();
     d08:	e2 da       	rcall	.-2620   	; 0x2ce <AD7195_Sync>
    //-------SPI Memory Init--------
	MemorySPIInit();
     d0a:	0e 94 7b 1a 	call	0x34f6	; 0x34f6 <MemorySPIInit>
	SD_CardInit();
     d0e:	0e 94 8f 1b 	call	0x371e	; 0x371e <SD_CardInit>
    //-------wczenie przerwa----
    PMIC.CTRL = PMIC_LOLVLEN_bm | PMIC_MEDLVLEN_bm | PMIC_HILVLEN_bm;
     d12:	87 e0       	ldi	r24, 0x07	; 7
     d14:	80 93 a2 00 	sts	0x00A2, r24
     d18:	08 95       	ret

00000d1a <WarmUp>:
}

void WarmUp() {
    //------Hello blink
    LED_PORT.OUTSET = LED3;
     d1a:	e0 ea       	ldi	r30, 0xA0	; 160
     d1c:	f6 e0       	ldi	r31, 0x06	; 6
     d1e:	84 e0       	ldi	r24, 0x04	; 4
     d20:	85 83       	std	Z+5, r24	; 0x05
     d22:	2f ef       	ldi	r18, 0xFF	; 255
     d24:	37 e8       	ldi	r19, 0x87	; 135
     d26:	93 e1       	ldi	r25, 0x13	; 19
     d28:	21 50       	subi	r18, 0x01	; 1
     d2a:	30 40       	sbci	r19, 0x00	; 0
     d2c:	90 40       	sbci	r25, 0x00	; 0
     d2e:	e1 f7       	brne	.-8      	; 0xd28 <WarmUp+0xe>
     d30:	00 c0       	rjmp	.+0      	; 0xd32 <WarmUp+0x18>
     d32:	00 00       	nop
    _delay_ms(200);
    LED_PORT.OUTCLR = LED3;
     d34:	86 83       	std	Z+6, r24	; 0x06
     d36:	2f ef       	ldi	r18, 0xFF	; 255
     d38:	33 ec       	ldi	r19, 0xC3	; 195
     d3a:	99 e0       	ldi	r25, 0x09	; 9
     d3c:	21 50       	subi	r18, 0x01	; 1
     d3e:	30 40       	sbci	r19, 0x00	; 0
     d40:	90 40       	sbci	r25, 0x00	; 0
     d42:	e1 f7       	brne	.-8      	; 0xd3c <WarmUp+0x22>
     d44:	00 c0       	rjmp	.+0      	; 0xd46 <WarmUp+0x2c>
     d46:	00 00       	nop
    _delay_ms(100);
    LED_PORT.OUTSET = LED3;
     d48:	85 83       	std	Z+5, r24	; 0x05
     d4a:	2f ef       	ldi	r18, 0xFF	; 255
     d4c:	37 e8       	ldi	r19, 0x87	; 135
     d4e:	93 e1       	ldi	r25, 0x13	; 19
     d50:	21 50       	subi	r18, 0x01	; 1
     d52:	30 40       	sbci	r19, 0x00	; 0
     d54:	90 40       	sbci	r25, 0x00	; 0
     d56:	e1 f7       	brne	.-8      	; 0xd50 <WarmUp+0x36>
     d58:	00 c0       	rjmp	.+0      	; 0xd5a <WarmUp+0x40>
     d5a:	00 00       	nop
    _delay_ms(200);
    LED_PORT.OUTCLR = LED3;
     d5c:	86 83       	std	Z+6, r24	; 0x06
     d5e:	2f ef       	ldi	r18, 0xFF	; 255
     d60:	33 ec       	ldi	r19, 0xC3	; 195
     d62:	89 e0       	ldi	r24, 0x09	; 9
     d64:	21 50       	subi	r18, 0x01	; 1
     d66:	30 40       	sbci	r19, 0x00	; 0
     d68:	80 40       	sbci	r24, 0x00	; 0
     d6a:	e1 f7       	brne	.-8      	; 0xd64 <WarmUp+0x4a>
     d6c:	00 c0       	rjmp	.+0      	; 0xd6e <WarmUp+0x54>
     d6e:	00 00       	nop
     d70:	08 95       	ret

00000d72 <main>:
    _delay_ms(100);
}

int main(void) {
    stan_d.flash_trigger = STARTUP_flash;
     d72:	ea e2       	ldi	r30, 0x2A	; 42
     d74:	f4 e2       	ldi	r31, 0x24	; 36
     d76:	14 82       	std	Z+4, r1	; 0x04
    stan_d.telemetry_trigger = STARTUP_tele;
     d78:	81 e0       	ldi	r24, 0x01	; 1
     d7a:	83 83       	std	Z+3, r24	; 0x03
    frame_d.terminate = false;
     d7c:	10 92 29 24 	sts	0x2429, r1
    Initialization();
     d80:	99 df       	rcall	.-206    	; 0xcb4 <Initialization>
    sei();
     d82:	78 94       	sei
    WarmUp();					//odmiganie startu
     d84:	ca df       	rcall	.-108    	; 0xd1a <WarmUp>
    
	uint32_t timer_buffer = 0;
	uint8_t counter = 0;
	
	f_mount(&fatfs,0,1);  //Dostp do systemu plikw
     d86:	41 e0       	ldi	r20, 0x01	; 1
     d88:	60 e0       	ldi	r22, 0x00	; 0
     d8a:	70 e0       	ldi	r23, 0x00	; 0
     d8c:	8d e0       	ldi	r24, 0x0D	; 13
     d8e:	97 e2       	ldi	r25, 0x27	; 39
     d90:	0e 94 91 15 	call	0x2b22	; 0x2b22 <f_mount>
	Light_Green();
     d94:	0e 94 1a 30 	call	0x6034	; 0x6034 <Light_Green>
    Initialization();
    sei();
    WarmUp();					//odmiganie startu
    
	uint32_t timer_buffer = 0;
	uint8_t counter = 0;
     d98:	f1 2c       	mov	r15, r1
    frame_d.terminate = false;
    Initialization();
    sei();
    WarmUp();					//odmiganie startu
    
	uint32_t timer_buffer = 0;
     d9a:	41 2c       	mov	r4, r1
     d9c:	51 2c       	mov	r5, r1
     d9e:	32 01       	movw	r6, r4
	Light_Green();
    while(1){
        _delay_us(1);
//============================== Sekcja pomiarw ============================================
		if(!AD7195_RDY(0)){
			LED_PORT.OUTTGL = LED5;
     da0:	00 ea       	ldi	r16, 0xA0	; 160
     da2:	16 e0       	ldi	r17, 0x06	; 6
     da4:	68 94       	set
     da6:	cc 24       	eor	r12, r12
     da8:	c4 f8       	bld	r12, 4
			AD7195_ReadStore(&allData_d);
			if(counter >= 3){
				counter = 0;
				AD7195_PressureCalc(&AD7195_d);
				prepareFrameDEBUG(&allData_d);
				if(!frame_d.mutex) frame_d = frame_b;
     daa:	0f 2e       	mov	r0, r31
     dac:	f8 e2       	ldi	r31, 0x28	; 40
     dae:	8f 2e       	mov	r8, r31
     db0:	f4 e2       	ldi	r31, 0x24	; 36
     db2:	9f 2e       	mov	r9, r31
     db4:	f0 2d       	mov	r31, r0
				LED_PORT.OUTSET = LED6;
     db6:	68 94       	set
     db8:	33 24       	eor	r3, r3
     dba:	35 f8       	bld	r3, 5
				if(stan_d.armed_trigger){
     dbc:	ca e2       	ldi	r28, 0x2A	; 42
     dbe:	d4 e2       	ldi	r29, 0x24	; 36
					Clock_d.frameFlashCount++;
     dc0:	0f 2e       	mov	r0, r31
     dc2:	fe e3       	ldi	r31, 0x3E	; 62
     dc4:	af 2e       	mov	r10, r31
     dc6:	f4 e2       	ldi	r31, 0x24	; 36
     dc8:	bf 2e       	mov	r11, r31
     dca:	f0 2d       	mov	r31, r0
			AD7195_ReadStore(&allData_d);
			if(counter >= 3){
				counter = 0;
				AD7195_PressureCalc(&AD7195_d);
				prepareFrameDEBUG(&allData_d);
				if(!frame_d.mutex) frame_d = frame_b;
     dcc:	0f 2e       	mov	r0, r31
     dce:	fc ec       	ldi	r31, 0xCC	; 204
     dd0:	2f 2e       	mov	r2, r31
     dd2:	f0 2d       	mov	r31, r0
					Light_Green();
					stan_d.run_trigger = false;
					stan_d.armed_trigger = false;
					stan_d.TestConfig = 0;
					stan_d.State = 0;
					LED_PORT.OUTCLR = LED3;
     dd4:	68 94       	set
     dd6:	ee 24       	eor	r14, r14
     dd8:	e2 f8       	bld	r14, 2
			if(timer_buffer <= Clock_d.time){
				stan_d.State++;
				switch(stan_d.State){
					case 0:
					LED_PORT.OUTSET = LED3;
					stan_d.State = 1;
     dda:	dd 24       	eor	r13, r13
     ddc:	d3 94       	inc	r13
	#else
		//round up by default
		__ticks_dc = (uint32_t)(ceil(fabs(__tmp)));
	#endif

	__builtin_avr_delay_cycles(__ticks_dc);
     dde:	2a e0       	ldi	r18, 0x0A	; 10
     de0:	2a 95       	dec	r18
     de2:	f1 f7       	brne	.-4      	; 0xde0 <main+0x6e>
     de4:	00 c0       	rjmp	.+0      	; 0xde6 <main+0x74>
	f_mount(&fatfs,0,1);  //Dostp do systemu plikw
	Light_Green();
    while(1){
        _delay_us(1);
//============================== Sekcja pomiarw ============================================
		if(!AD7195_RDY(0)){
     de6:	80 e0       	ldi	r24, 0x00	; 0
     de8:	29 db       	rcall	.-2478   	; 0x43c <AD7195_RDY>
     dea:	81 11       	cpse	r24, r1
     dec:	5a c0       	rjmp	.+180    	; 0xea2 <main+0x130>
			LED_PORT.OUTTGL = LED5;
     dee:	f8 01       	movw	r30, r16
     df0:	c7 82       	std	Z+7, r12	; 0x07
			ADC_tempCalc(&Analog_d);
     df2:	89 ec       	ldi	r24, 0xC9	; 201
     df4:	96 e2       	ldi	r25, 0x26	; 38
     df6:	0e 94 a6 30 	call	0x614c	; 0x614c <ADC_tempCalc>
			AD7195_ReadStore(&allData_d);
     dfa:	8a e8       	ldi	r24, 0x8A	; 138
     dfc:	94 e2       	ldi	r25, 0x24	; 36
     dfe:	33 db       	rcall	.-2458   	; 0x466 <AD7195_ReadStore>
			if(counter >= 3){
     e00:	f2 e0       	ldi	r31, 0x02	; 2
     e02:	ff 15       	cp	r31, r15
     e04:	08 f0       	brcs	.+2      	; 0xe08 <main+0x96>
     e06:	4c c0       	rjmp	.+152    	; 0xea0 <main+0x12e>
				counter = 0;
				AD7195_PressureCalc(&AD7195_d);
     e08:	8a e4       	ldi	r24, 0x4A	; 74
     e0a:	94 e2       	ldi	r25, 0x24	; 36
     e0c:	d0 db       	rcall	.-2144   	; 0x5ae <AD7195_PressureCalc>
				prepareFrameDEBUG(&allData_d);
     e0e:	8a e8       	ldi	r24, 0x8A	; 138
     e10:	94 e2       	ldi	r25, 0x24	; 36
     e12:	0e 94 62 1f 	call	0x3ec4	; 0x3ec4 <prepareFrameDEBUG>
				if(!frame_d.mutex) frame_d = frame_b;
     e16:	f4 01       	movw	r30, r8
     e18:	80 81       	ld	r24, Z
     e1a:	81 11       	cpse	r24, r1
     e1c:	09 c0       	rjmp	.+18     	; 0xe30 <main+0xbe>
     e1e:	e2 e9       	ldi	r30, 0x92	; 146
     e20:	f2 e2       	ldi	r31, 0x22	; 34
     e22:	ae e5       	ldi	r26, 0x5E	; 94
     e24:	b3 e2       	ldi	r27, 0x23	; 35
     e26:	82 2d       	mov	r24, r2
     e28:	01 90       	ld	r0, Z+
     e2a:	0d 92       	st	X+, r0
     e2c:	8a 95       	dec	r24
     e2e:	e1 f7       	brne	.-8      	; 0xe28 <main+0xb6>
				LED_PORT.OUTSET = LED6;
     e30:	f8 01       	movw	r30, r16
     e32:	35 82       	std	Z+5, r3	; 0x05
				if(stan_d.armed_trigger){
     e34:	8d 81       	ldd	r24, Y+5	; 0x05
     e36:	88 23       	and	r24, r24
     e38:	59 f1       	breq	.+86     	; 0xe90 <main+0x11e>
					Clock_d.frameFlashCount++;
     e3a:	f5 01       	movw	r30, r10
     e3c:	80 85       	ldd	r24, Z+8	; 0x08
     e3e:	91 85       	ldd	r25, Z+9	; 0x09
     e40:	a2 85       	ldd	r26, Z+10	; 0x0a
     e42:	b3 85       	ldd	r27, Z+11	; 0x0b
     e44:	01 96       	adiw	r24, 0x01	; 1
     e46:	a1 1d       	adc	r26, r1
     e48:	b1 1d       	adc	r27, r1
     e4a:	80 87       	std	Z+8, r24	; 0x08
     e4c:	91 87       	std	Z+9, r25	; 0x09
     e4e:	a2 87       	std	Z+10, r26	; 0x0a
     e50:	b3 87       	std	Z+11, r27	; 0x0b
					if(Add2Buffer(&frame_b, &frame_sd) >= 450){
     e52:	60 e8       	ldi	r22, 0x80	; 128
     e54:	70 e2       	ldi	r23, 0x20	; 32
     e56:	82 e9       	ldi	r24, 0x92	; 146
     e58:	92 e2       	ldi	r25, 0x22	; 34
     e5a:	0e 94 52 30 	call	0x60a4	; 0x60a4 <Add2Buffer>
     e5e:	82 3c       	cpi	r24, 0xC2	; 194
     e60:	91 40       	sbci	r25, 0x01	; 1
     e62:	d0 f0       	brcs	.+52     	; 0xe98 <main+0x126>
						LED_PORT.OUTSET = LED2;
     e64:	22 e0       	ldi	r18, 0x02	; 2
     e66:	f8 01       	movw	r30, r16
     e68:	25 83       	std	Z+5, r18	; 0x05
						f_write(&pomiar, &frame_sd, FindTableLength(frame_sd.frameASCII), &bw);
     e6a:	80 e8       	ldi	r24, 0x80	; 128
     e6c:	90 e2       	ldi	r25, 0x20	; 32
     e6e:	0e 94 33 32 	call	0x6466	; 0x6466 <FindTableLength>
     e72:	27 ec       	ldi	r18, 0xC7	; 199
     e74:	36 e2       	ldi	r19, 0x26	; 38
     e76:	ac 01       	movw	r20, r24
     e78:	60 e8       	ldi	r22, 0x80	; 128
     e7a:	70 e2       	ldi	r23, 0x20	; 32
     e7c:	85 ea       	ldi	r24, 0xA5	; 165
     e7e:	94 e2       	ldi	r25, 0x24	; 36
     e80:	0e 94 c2 17 	call	0x2f84	; 0x2f84 <f_write>
						//f_write(&pomiar, &frame_sd, 500, &bw);
						frame_sd.frameASCII[0] = 0;
     e84:	10 92 80 20 	sts	0x2080, r1
						LED_PORT.OUTCLR = LED2;
     e88:	22 e0       	ldi	r18, 0x02	; 2
     e8a:	f8 01       	movw	r30, r16
     e8c:	26 83       	std	Z+6, r18	; 0x06
     e8e:	04 c0       	rjmp	.+8      	; 0xe98 <main+0x126>
					}
				}
				else f_close(&pomiar);
     e90:	85 ea       	ldi	r24, 0xA5	; 165
     e92:	94 e2       	ldi	r25, 0x24	; 36
     e94:	0e 94 0b 1a 	call	0x3416	; 0x3416 <f_close>
				LED_PORT.OUTCLR = LED6;
     e98:	f8 01       	movw	r30, r16
     e9a:	36 82       	std	Z+6, r3	; 0x06
		if(!AD7195_RDY(0)){
			LED_PORT.OUTTGL = LED5;
			ADC_tempCalc(&Analog_d);
			AD7195_ReadStore(&allData_d);
			if(counter >= 3){
				counter = 0;
     e9c:	f1 2c       	mov	r15, r1
     e9e:	01 c0       	rjmp	.+2      	; 0xea2 <main+0x130>
					}
				}
				else f_close(&pomiar);
				LED_PORT.OUTCLR = LED6;
			}
			else counter++;
     ea0:	f3 94       	inc	r15
		}

//=========================== Sekcja maszyny stanw =========================================
		CheckOutputState(&stan_d);
     ea2:	ce 01       	movw	r24, r28
     ea4:	0e 94 22 30 	call	0x6044	; 0x6044 <CheckOutputState>
		if(stan_d.Abort == true){
     ea8:	8f 81       	ldd	r24, Y+7	; 0x07
     eaa:	88 23       	and	r24, r24
     eac:	b1 f0       	breq	.+44     	; 0xeda <main+0x168>
			SERVO_close();
     eae:	0e 94 0b 30 	call	0x6016	; 0x6016 <SERVO_close>
			FPV_valve_close();
     eb2:	0e 94 00 30 	call	0x6000	; 0x6000 <FPV_valve_close>
			MFV_valve_close();
     eb6:	0e 94 e8 2f 	call	0x5fd0	; 0x5fd0 <MFV_valve_close>
			MOV_valve_close();
     eba:	0e 94 f0 2f 	call	0x5fe0	; 0x5fe0 <MOV_valve_close>
			MPV_valve_open();
     ebe:	0e 94 f4 2f 	call	0x5fe8	; 0x5fe8 <MPV_valve_open>
			Buzzer_active();
     ec2:	0e 94 12 30 	call	0x6024	; 0x6024 <Buzzer_active>
			Light_Red();
     ec6:	0e 94 1e 30 	call	0x603c	; 0x603c <Light_Red>
			stan_d.TestConfig = 0;
     eca:	19 86       	std	Y+9, r1	; 0x09
     ecc:	1a 86       	std	Y+10, r1	; 0x0a
     ece:	1b 86       	std	Y+11, r1	; 0x0b
     ed0:	1c 86       	std	Y+12, r1	; 0x0c
			PORTF.OUTSET = PIN0_bm;
     ed2:	f8 01       	movw	r30, r16
     ed4:	d5 82       	std	Z+5, r13	; 0x05
			LED_PORT.OUTCLR = LED3;
     ed6:	e6 82       	std	Z+6, r14	; 0x06
     ed8:	82 cf       	rjmp	.-252    	; 0xdde <main+0x6c>
		}
		else if((stan_d.armed_trigger == true) && (stan_d.run_trigger == false)) FPV_valve_open();	//wczenie doprania
     eda:	8d 81       	ldd	r24, Y+5	; 0x05
     edc:	88 23       	and	r24, r24
     ede:	09 f4       	brne	.+2      	; 0xee2 <main+0x170>
     ee0:	7e cf       	rjmp	.-260    	; 0xdde <main+0x6c>
     ee2:	8e 81       	ldd	r24, Y+6	; 0x06
     ee4:	81 11       	cpse	r24, r1
     ee6:	03 c0       	rjmp	.+6      	; 0xeee <main+0x17c>
     ee8:	0e 94 fc 2f 	call	0x5ff8	; 0x5ff8 <FPV_valve_open>
     eec:	78 cf       	rjmp	.-272    	; 0xdde <main+0x6c>
        else if((stan_d.armed_trigger == true) && (stan_d.run_trigger == true) && (stan_d.TestConfig != 0)) {
     eee:	89 85       	ldd	r24, Y+9	; 0x09
     ef0:	9a 85       	ldd	r25, Y+10	; 0x0a
     ef2:	ab 85       	ldd	r26, Y+11	; 0x0b
     ef4:	bc 85       	ldd	r27, Y+12	; 0x0c
     ef6:	89 2b       	or	r24, r25
     ef8:	8a 2b       	or	r24, r26
     efa:	8b 2b       	or	r24, r27
     efc:	09 f4       	brne	.+2      	; 0xf00 <main+0x18e>
     efe:	6f cf       	rjmp	.-290    	; 0xdde <main+0x6c>
			if(timer_buffer <= Clock_d.time){
     f00:	f5 01       	movw	r30, r10
     f02:	80 81       	ld	r24, Z
     f04:	91 81       	ldd	r25, Z+1	; 0x01
     f06:	a2 81       	ldd	r26, Z+2	; 0x02
     f08:	b3 81       	ldd	r27, Z+3	; 0x03
     f0a:	84 15       	cp	r24, r4
     f0c:	95 05       	cpc	r25, r5
     f0e:	a6 05       	cpc	r26, r6
     f10:	b7 05       	cpc	r27, r7
     f12:	08 f4       	brcc	.+2      	; 0xf16 <main+0x1a4>
     f14:	64 cf       	rjmp	.-312    	; 0xdde <main+0x6c>
				stan_d.State++;
     f16:	88 85       	ldd	r24, Y+8	; 0x08
     f18:	8f 5f       	subi	r24, 0xFF	; 255
     f1a:	88 87       	std	Y+8, r24	; 0x08
				switch(stan_d.State){
     f1c:	82 30       	cpi	r24, 0x02	; 2
     f1e:	21 f1       	breq	.+72     	; 0xf68 <main+0x1f6>
     f20:	28 f4       	brcc	.+10     	; 0xf2c <main+0x1ba>
     f22:	88 23       	and	r24, r24
     f24:	59 f0       	breq	.+22     	; 0xf3c <main+0x1ca>
     f26:	81 30       	cpi	r24, 0x01	; 1
     f28:	69 f0       	breq	.+26     	; 0xf44 <main+0x1d2>
     f2a:	64 c0       	rjmp	.+200    	; 0xff4 <main+0x282>
     f2c:	84 30       	cpi	r24, 0x04	; 4
     f2e:	09 f4       	brne	.+2      	; 0xf32 <main+0x1c0>
     f30:	40 c0       	rjmp	.+128    	; 0xfb2 <main+0x240>
     f32:	48 f1       	brcs	.+82     	; 0xf86 <main+0x214>
     f34:	85 30       	cpi	r24, 0x05	; 5
     f36:	09 f4       	brne	.+2      	; 0xf3a <main+0x1c8>
     f38:	49 c0       	rjmp	.+146    	; 0xfcc <main+0x25a>
     f3a:	5c c0       	rjmp	.+184    	; 0xff4 <main+0x282>
					case 0:
					LED_PORT.OUTSET = LED3;
     f3c:	f8 01       	movw	r30, r16
     f3e:	e5 82       	std	Z+5, r14	; 0x05
					stan_d.State = 1;
     f40:	d8 86       	std	Y+8, r13	; 0x08
					break;
     f42:	4d cf       	rjmp	.-358    	; 0xdde <main+0x6c>
					//----- Step 1---------------- rozruch
					case 1:
					Buzzer_active();
     f44:	0e 94 12 30 	call	0x6024	; 0x6024 <Buzzer_active>
					SERVO_close();
     f48:	0e 94 0b 30 	call	0x6016	; 0x6016 <SERVO_close>
					Light_Red();
     f4c:	0e 94 1e 30 	call	0x603c	; 0x603c <Light_Red>
					timer_buffer = Clock_d.time+1000;
     f50:	f5 01       	movw	r30, r10
     f52:	40 80       	ld	r4, Z
     f54:	51 80       	ldd	r5, Z+1	; 0x01
     f56:	62 80       	ldd	r6, Z+2	; 0x02
     f58:	73 80       	ldd	r7, Z+3	; 0x03
     f5a:	f8 ee       	ldi	r31, 0xE8	; 232
     f5c:	4f 0e       	add	r4, r31
     f5e:	f3 e0       	ldi	r31, 0x03	; 3
     f60:	5f 1e       	adc	r5, r31
     f62:	61 1c       	adc	r6, r1
     f64:	71 1c       	adc	r7, r1
					break;
     f66:	3b cf       	rjmp	.-394    	; 0xdde <main+0x6c>
					//----- Step 2---------------- zapalnik
					case 2:
					Buzzer_inactive();
     f68:	0e 94 16 30 	call	0x602c	; 0x602c <Buzzer_inactive>
					Ignition_active();
     f6c:	0e 94 dc 2f 	call	0x5fb8	; 0x5fb8 <Ignition_active>
					timer_buffer = Clock_d.time+200;  //!!!!!!!!!!!!!!!!!!!!!!!!!!!!!!!!!!!!!!!!!!!!!!!!!!!!!!!!!!!! 5s
     f70:	f5 01       	movw	r30, r10
     f72:	40 80       	ld	r4, Z
     f74:	51 80       	ldd	r5, Z+1	; 0x01
     f76:	62 80       	ldd	r6, Z+2	; 0x02
     f78:	73 80       	ldd	r7, Z+3	; 0x03
     f7a:	f8 ec       	ldi	r31, 0xC8	; 200
     f7c:	4f 0e       	add	r4, r31
     f7e:	51 1c       	adc	r5, r1
     f80:	61 1c       	adc	r6, r1
     f82:	71 1c       	adc	r7, r1
					break;
     f84:	2c cf       	rjmp	.-424    	; 0xdde <main+0x6c>
					//-----Step 3----------------- otwarcie paliwa i n2o
					case 3:
					Ignition_inactive();
     f86:	0e 94 e0 2f 	call	0x5fc0	; 0x5fc0 <Ignition_inactive>
					MFV_valve_open();
     f8a:	0e 94 e4 2f 	call	0x5fc8	; 0x5fc8 <MFV_valve_open>
					MOV_valve_open();
     f8e:	0e 94 ec 2f 	call	0x5fd8	; 0x5fd8 <MOV_valve_open>
					SERVO_open();
     f92:	0e 94 04 30 	call	0x6008	; 0x6008 <SERVO_open>
					timer_buffer = Clock_d.time+stan_d.TestConfig;
     f96:	49 84       	ldd	r4, Y+9	; 0x09
     f98:	5a 84       	ldd	r5, Y+10	; 0x0a
     f9a:	6b 84       	ldd	r6, Y+11	; 0x0b
     f9c:	7c 84       	ldd	r7, Y+12	; 0x0c
     f9e:	f5 01       	movw	r30, r10
     fa0:	80 81       	ld	r24, Z
     fa2:	91 81       	ldd	r25, Z+1	; 0x01
     fa4:	a2 81       	ldd	r26, Z+2	; 0x02
     fa6:	b3 81       	ldd	r27, Z+3	; 0x03
     fa8:	48 0e       	add	r4, r24
     faa:	59 1e       	adc	r5, r25
     fac:	6a 1e       	adc	r6, r26
     fae:	7b 1e       	adc	r7, r27
					break;
     fb0:	16 cf       	rjmp	.-468    	; 0xdde <main+0x6c>
					//-----Step 4a---------------- zamknicie n2o
					case 4:
					MOV_valve_close();
     fb2:	0e 94 f0 2f 	call	0x5fe0	; 0x5fe0 <MOV_valve_close>
					timer_buffer = Clock_d.time+10;
     fb6:	f5 01       	movw	r30, r10
     fb8:	40 80       	ld	r4, Z
     fba:	51 80       	ldd	r5, Z+1	; 0x01
     fbc:	62 80       	ldd	r6, Z+2	; 0x02
     fbe:	73 80       	ldd	r7, Z+3	; 0x03
     fc0:	fa e0       	ldi	r31, 0x0A	; 10
     fc2:	4f 0e       	add	r4, r31
     fc4:	51 1c       	adc	r5, r1
     fc6:	61 1c       	adc	r6, r1
     fc8:	71 1c       	adc	r7, r1
					break;
     fca:	09 cf       	rjmp	.-494    	; 0xdde <main+0x6c>
					//-----Step 4b---------------- zamknicie paliwa
					case 5:
					MFV_valve_close();
     fcc:	0e 94 e8 2f 	call	0x5fd0	; 0x5fd0 <MFV_valve_close>
					FPV_valve_close();
     fd0:	0e 94 00 30 	call	0x6000	; 0x6000 <FPV_valve_close>
					SERVO_close();
     fd4:	0e 94 0b 30 	call	0x6016	; 0x6016 <SERVO_close>
					MPV_valve_open();	//gaszenie
     fd8:	0e 94 f4 2f 	call	0x5fe8	; 0x5fe8 <MPV_valve_open>
					timer_buffer = Clock_d.time+1000;
     fdc:	f5 01       	movw	r30, r10
     fde:	40 80       	ld	r4, Z
     fe0:	51 80       	ldd	r5, Z+1	; 0x01
     fe2:	62 80       	ldd	r6, Z+2	; 0x02
     fe4:	73 80       	ldd	r7, Z+3	; 0x03
     fe6:	f8 ee       	ldi	r31, 0xE8	; 232
     fe8:	4f 0e       	add	r4, r31
     fea:	f3 e0       	ldi	r31, 0x03	; 3
     fec:	5f 1e       	adc	r5, r31
     fee:	61 1c       	adc	r6, r1
     ff0:	71 1c       	adc	r7, r1
					break;
     ff2:	f5 ce       	rjmp	.-534    	; 0xdde <main+0x6c>
					//-----Step 5------------------
					case 6:
					default:
					MPV_valve_close();
     ff4:	0e 94 f8 2f 	call	0x5ff0	; 0x5ff0 <MPV_valve_close>
					Light_Green();
     ff8:	0e 94 1a 30 	call	0x6034	; 0x6034 <Light_Green>
					stan_d.run_trigger = false;
     ffc:	1e 82       	std	Y+6, r1	; 0x06
					stan_d.armed_trigger = false;
     ffe:	1d 82       	std	Y+5, r1	; 0x05
					stan_d.TestConfig = 0;
    1000:	19 86       	std	Y+9, r1	; 0x09
    1002:	1a 86       	std	Y+10, r1	; 0x0a
    1004:	1b 86       	std	Y+11, r1	; 0x0b
    1006:	1c 86       	std	Y+12, r1	; 0x0c
					stan_d.State = 0;
    1008:	18 86       	std	Y+8, r1	; 0x08
					LED_PORT.OUTCLR = LED3;
    100a:	f8 01       	movw	r30, r16
    100c:	e6 82       	std	Z+6, r14	; 0x06
					break;
    100e:	e7 ce       	rjmp	.-562    	; 0xdde <main+0x6c>

00001010 <ld_dword>:
			}
			FREE_NAMBUF();
		}
	}
	LEAVE_FF(fs, res);
}
    1010:	fc 01       	movw	r30, r24
    1012:	63 81       	ldd	r22, Z+3	; 0x03
    1014:	86 2f       	mov	r24, r22
    1016:	90 e0       	ldi	r25, 0x00	; 0
    1018:	a0 e0       	ldi	r26, 0x00	; 0
    101a:	b0 e0       	ldi	r27, 0x00	; 0
    101c:	ba 2f       	mov	r27, r26
    101e:	a9 2f       	mov	r26, r25
    1020:	98 2f       	mov	r25, r24
    1022:	88 27       	eor	r24, r24
    1024:	22 81       	ldd	r18, Z+2	; 0x02
    1026:	82 2b       	or	r24, r18
    1028:	ba 2f       	mov	r27, r26
    102a:	a9 2f       	mov	r26, r25
    102c:	98 2f       	mov	r25, r24
    102e:	88 27       	eor	r24, r24
    1030:	21 81       	ldd	r18, Z+1	; 0x01
    1032:	82 2b       	or	r24, r18
    1034:	ba 2f       	mov	r27, r26
    1036:	a9 2f       	mov	r26, r25
    1038:	98 2f       	mov	r25, r24
    103a:	88 27       	eor	r24, r24
    103c:	20 81       	ld	r18, Z
    103e:	bc 01       	movw	r22, r24
    1040:	cd 01       	movw	r24, r26
    1042:	62 2b       	or	r22, r18
    1044:	08 95       	ret

00001046 <st_dword>:
    1046:	fc 01       	movw	r30, r24
    1048:	40 83       	st	Z, r20
    104a:	51 83       	std	Z+1, r21	; 0x01
    104c:	62 83       	std	Z+2, r22	; 0x02
    104e:	73 83       	std	Z+3, r23	; 0x03
    1050:	08 95       	ret

00001052 <mem_cpy>:
    1052:	41 15       	cp	r20, r1
    1054:	51 05       	cpc	r21, r1
    1056:	51 f0       	breq	.+20     	; 0x106c <mem_cpy+0x1a>
    1058:	a6 2f       	mov	r26, r22
    105a:	b7 2f       	mov	r27, r23
    105c:	fc 01       	movw	r30, r24
    105e:	48 0f       	add	r20, r24
    1060:	59 1f       	adc	r21, r25
    1062:	9d 91       	ld	r25, X+
    1064:	91 93       	st	Z+, r25
    1066:	e4 17       	cp	r30, r20
    1068:	f5 07       	cpc	r31, r21
    106a:	d9 f7       	brne	.-10     	; 0x1062 <mem_cpy+0x10>
    106c:	08 95       	ret

0000106e <clust2sect>:
    106e:	cf 92       	push	r12
    1070:	df 92       	push	r13
    1072:	ef 92       	push	r14
    1074:	ff 92       	push	r15
    1076:	fc 01       	movw	r30, r24
    1078:	9a 01       	movw	r18, r20
    107a:	ab 01       	movw	r20, r22
    107c:	22 50       	subi	r18, 0x02	; 2
    107e:	31 09       	sbc	r19, r1
    1080:	41 09       	sbc	r20, r1
    1082:	51 09       	sbc	r21, r1
    1084:	c7 88       	ldd	r12, Z+23	; 0x17
    1086:	d0 8c       	ldd	r13, Z+24	; 0x18
    1088:	e1 8c       	ldd	r14, Z+25	; 0x19
    108a:	f2 8c       	ldd	r15, Z+26	; 0x1a
    108c:	82 e0       	ldi	r24, 0x02	; 2
    108e:	c8 1a       	sub	r12, r24
    1090:	d1 08       	sbc	r13, r1
    1092:	e1 08       	sbc	r14, r1
    1094:	f1 08       	sbc	r15, r1
    1096:	2c 15       	cp	r18, r12
    1098:	3d 05       	cpc	r19, r13
    109a:	4e 05       	cpc	r20, r14
    109c:	5f 05       	cpc	r21, r15
    109e:	68 f4       	brcc	.+26     	; 0x10ba <clust2sect+0x4c>
    10a0:	a1 85       	ldd	r26, Z+9	; 0x09
    10a2:	b2 85       	ldd	r27, Z+10	; 0x0a
    10a4:	0e 94 52 34 	call	0x68a4	; 0x68a4 <__muluhisi3>
    10a8:	c3 a4       	ldd	r12, Z+43	; 0x2b
    10aa:	d4 a4       	ldd	r13, Z+44	; 0x2c
    10ac:	e5 a4       	ldd	r14, Z+45	; 0x2d
    10ae:	f6 a4       	ldd	r15, Z+46	; 0x2e
    10b0:	6c 0d       	add	r22, r12
    10b2:	7d 1d       	adc	r23, r13
    10b4:	8e 1d       	adc	r24, r14
    10b6:	9f 1d       	adc	r25, r15
    10b8:	03 c0       	rjmp	.+6      	; 0x10c0 <clust2sect+0x52>
    10ba:	60 e0       	ldi	r22, 0x00	; 0
    10bc:	70 e0       	ldi	r23, 0x00	; 0
    10be:	cb 01       	movw	r24, r22
    10c0:	ff 90       	pop	r15
    10c2:	ef 90       	pop	r14
    10c4:	df 90       	pop	r13
    10c6:	cf 90       	pop	r12
    10c8:	08 95       	ret

000010ca <get_fileinfo>:
    10ca:	0f 93       	push	r16
    10cc:	1f 93       	push	r17
    10ce:	cf 93       	push	r28
    10d0:	df 93       	push	r29
    10d2:	ec 01       	movw	r28, r24
    10d4:	fb 01       	movw	r30, r22
    10d6:	11 86       	std	Z+9, r1	; 0x09
    10d8:	8e 89       	ldd	r24, Y+22	; 0x16
    10da:	9f 89       	ldd	r25, Y+23	; 0x17
    10dc:	a8 8d       	ldd	r26, Y+24	; 0x18
    10de:	b9 8d       	ldd	r27, Y+25	; 0x19
    10e0:	89 2b       	or	r24, r25
    10e2:	8a 2b       	or	r24, r26
    10e4:	8b 2b       	or	r24, r27
    10e6:	09 f4       	brne	.+2      	; 0x10ea <get_fileinfo+0x20>
    10e8:	41 c0       	rjmp	.+130    	; 0x116c <get_fileinfo+0xa2>
    10ea:	e0 e0       	ldi	r30, 0x00	; 0
    10ec:	f0 e0       	ldi	r31, 0x00	; 0
    10ee:	20 e0       	ldi	r18, 0x00	; 0
    10f0:	30 e0       	ldi	r19, 0x00	; 0
    10f2:	1e e2       	ldi	r17, 0x2E	; 46
    10f4:	85 ee       	ldi	r24, 0xE5	; 229
    10f6:	a9 01       	movw	r20, r18
    10f8:	4f 5f       	subi	r20, 0xFF	; 255
    10fa:	5f 4f       	sbci	r21, 0xFF	; 255
    10fc:	aa 8d       	ldd	r26, Y+26	; 0x1a
    10fe:	bb 8d       	ldd	r27, Y+27	; 0x1b
    1100:	a2 0f       	add	r26, r18
    1102:	b3 1f       	adc	r27, r19
    1104:	9c 91       	ld	r25, X
    1106:	90 32       	cpi	r25, 0x20	; 32
    1108:	91 f0       	breq	.+36     	; 0x112e <get_fileinfo+0x64>
    110a:	95 30       	cpi	r25, 0x05	; 5
    110c:	09 f4       	brne	.+2      	; 0x1110 <get_fileinfo+0x46>
    110e:	98 2f       	mov	r25, r24
    1110:	49 30       	cpi	r20, 0x09	; 9
    1112:	51 05       	cpc	r21, r1
    1114:	31 f4       	brne	.+12     	; 0x1122 <get_fileinfo+0x58>
    1116:	db 01       	movw	r26, r22
    1118:	ae 0f       	add	r26, r30
    111a:	bf 1f       	adc	r27, r31
    111c:	19 96       	adiw	r26, 0x09	; 9
    111e:	1c 93       	st	X, r17
    1120:	31 96       	adiw	r30, 0x01	; 1
    1122:	db 01       	movw	r26, r22
    1124:	ae 0f       	add	r26, r30
    1126:	bf 1f       	adc	r27, r31
    1128:	19 96       	adiw	r26, 0x09	; 9
    112a:	9c 93       	st	X, r25
    112c:	31 96       	adiw	r30, 0x01	; 1
    112e:	9a 01       	movw	r18, r20
    1130:	4b 30       	cpi	r20, 0x0B	; 11
    1132:	51 05       	cpc	r21, r1
    1134:	01 f7       	brne	.-64     	; 0x10f6 <get_fileinfo+0x2c>
    1136:	8b 01       	movw	r16, r22
    1138:	e6 0f       	add	r30, r22
    113a:	f7 1f       	adc	r31, r23
    113c:	11 86       	std	Z+9, r1	; 0x09
    113e:	ea 8d       	ldd	r30, Y+26	; 0x1a
    1140:	fb 8d       	ldd	r31, Y+27	; 0x1b
    1142:	83 85       	ldd	r24, Z+11	; 0x0b
    1144:	fb 01       	movw	r30, r22
    1146:	80 87       	std	Z+8, r24	; 0x08
    1148:	8a 8d       	ldd	r24, Y+26	; 0x1a
    114a:	9b 8d       	ldd	r25, Y+27	; 0x1b
    114c:	4c 96       	adiw	r24, 0x1c	; 28
    114e:	60 df       	rcall	.-320    	; 0x1010 <ld_dword>
    1150:	f8 01       	movw	r30, r16
    1152:	60 83       	st	Z, r22
    1154:	71 83       	std	Z+1, r23	; 0x01
    1156:	82 83       	std	Z+2, r24	; 0x02
    1158:	93 83       	std	Z+3, r25	; 0x03
    115a:	8a 8d       	ldd	r24, Y+26	; 0x1a
    115c:	9b 8d       	ldd	r25, Y+27	; 0x1b
    115e:	46 96       	adiw	r24, 0x16	; 22
    1160:	57 df       	rcall	.-338    	; 0x1010 <ld_dword>
    1162:	f8 01       	movw	r30, r16
    1164:	66 83       	std	Z+6, r22	; 0x06
    1166:	77 83       	std	Z+7, r23	; 0x07
    1168:	84 83       	std	Z+4, r24	; 0x04
    116a:	95 83       	std	Z+5, r25	; 0x05
    116c:	df 91       	pop	r29
    116e:	cf 91       	pop	r28
    1170:	1f 91       	pop	r17
    1172:	0f 91       	pop	r16
    1174:	08 95       	ret

00001176 <get_ldnumber>:
    1176:	cf 93       	push	r28
    1178:	df 93       	push	r29
    117a:	ec 01       	movw	r28, r24
    117c:	a8 81       	ld	r26, Y
    117e:	b9 81       	ldd	r27, Y+1	; 0x01
    1180:	10 97       	sbiw	r26, 0x00	; 0
    1182:	f9 f0       	breq	.+62     	; 0x11c2 <get_ldnumber+0x4c>
    1184:	4c 91       	ld	r20, X
    1186:	41 32       	cpi	r20, 0x21	; 33
    1188:	58 f0       	brcs	.+22     	; 0x11a0 <get_ldnumber+0x2a>
    118a:	4a 33       	cpi	r20, 0x3A	; 58
    118c:	31 f1       	breq	.+76     	; 0x11da <get_ldnumber+0x64>
    118e:	fd 01       	movw	r30, r26
    1190:	31 96       	adiw	r30, 0x01	; 1
    1192:	9f 01       	movw	r18, r30
    1194:	91 91       	ld	r25, Z+
    1196:	91 32       	cpi	r25, 0x21	; 33
    1198:	28 f0       	brcs	.+10     	; 0x11a4 <get_ldnumber+0x2e>
    119a:	9a 33       	cpi	r25, 0x3A	; 58
    119c:	d1 f7       	brne	.-12     	; 0x1192 <get_ldnumber+0x1c>
    119e:	04 c0       	rjmp	.+8      	; 0x11a8 <get_ldnumber+0x32>
    11a0:	94 2f       	mov	r25, r20
    11a2:	9d 01       	movw	r18, r26
    11a4:	9a 33       	cpi	r25, 0x3A	; 58
    11a6:	81 f4       	brne	.+32     	; 0x11c8 <get_ldnumber+0x52>
    11a8:	cd 01       	movw	r24, r26
    11aa:	01 96       	adiw	r24, 0x01	; 1
    11ac:	28 17       	cp	r18, r24
    11ae:	39 07       	cpc	r19, r25
    11b0:	71 f4       	brne	.+28     	; 0x11ce <get_ldnumber+0x58>
    11b2:	40 33       	cpi	r20, 0x30	; 48
    11b4:	79 f4       	brne	.+30     	; 0x11d4 <get_ldnumber+0x5e>
    11b6:	12 96       	adiw	r26, 0x02	; 2
    11b8:	a8 83       	st	Y, r26
    11ba:	b9 83       	std	Y+1, r27	; 0x01
    11bc:	80 e0       	ldi	r24, 0x00	; 0
    11be:	90 e0       	ldi	r25, 0x00	; 0
    11c0:	0e c0       	rjmp	.+28     	; 0x11de <get_ldnumber+0x68>
    11c2:	8f ef       	ldi	r24, 0xFF	; 255
    11c4:	9f ef       	ldi	r25, 0xFF	; 255
    11c6:	0b c0       	rjmp	.+22     	; 0x11de <get_ldnumber+0x68>
    11c8:	80 e0       	ldi	r24, 0x00	; 0
    11ca:	90 e0       	ldi	r25, 0x00	; 0
    11cc:	08 c0       	rjmp	.+16     	; 0x11de <get_ldnumber+0x68>
    11ce:	8f ef       	ldi	r24, 0xFF	; 255
    11d0:	9f ef       	ldi	r25, 0xFF	; 255
    11d2:	05 c0       	rjmp	.+10     	; 0x11de <get_ldnumber+0x68>
    11d4:	8f ef       	ldi	r24, 0xFF	; 255
    11d6:	9f ef       	ldi	r25, 0xFF	; 255
    11d8:	02 c0       	rjmp	.+4      	; 0x11de <get_ldnumber+0x68>
    11da:	9d 01       	movw	r18, r26
    11dc:	e5 cf       	rjmp	.-54     	; 0x11a8 <get_ldnumber+0x32>
    11de:	df 91       	pop	r29
    11e0:	cf 91       	pop	r28
    11e2:	08 95       	ret

000011e4 <validate>:
    11e4:	0f 93       	push	r16
    11e6:	1f 93       	push	r17
    11e8:	cf 93       	push	r28
    11ea:	df 93       	push	r29
    11ec:	ec 01       	movw	r28, r24
    11ee:	8b 01       	movw	r16, r22
    11f0:	89 2b       	or	r24, r25
    11f2:	99 f0       	breq	.+38     	; 0x121a <validate+0x36>
    11f4:	e8 81       	ld	r30, Y
    11f6:	f9 81       	ldd	r31, Y+1	; 0x01
    11f8:	30 97       	sbiw	r30, 0x00	; 0
    11fa:	79 f0       	breq	.+30     	; 0x121a <validate+0x36>
    11fc:	80 81       	ld	r24, Z
    11fe:	88 23       	and	r24, r24
    1200:	61 f0       	breq	.+24     	; 0x121a <validate+0x36>
    1202:	25 81       	ldd	r18, Z+5	; 0x05
    1204:	36 81       	ldd	r19, Z+6	; 0x06
    1206:	8a 81       	ldd	r24, Y+2	; 0x02
    1208:	9b 81       	ldd	r25, Y+3	; 0x03
    120a:	28 17       	cp	r18, r24
    120c:	39 07       	cpc	r19, r25
    120e:	29 f4       	brne	.+10     	; 0x121a <validate+0x36>
    1210:	81 81       	ldd	r24, Z+1	; 0x01
    1212:	0e 94 b5 1c 	call	0x396a	; 0x396a <disk_status>
    1216:	80 ff       	sbrs	r24, 0
    1218:	05 c0       	rjmp	.+10     	; 0x1224 <validate+0x40>
    121a:	f8 01       	movw	r30, r16
    121c:	10 82       	st	Z, r1
    121e:	11 82       	std	Z+1, r1	; 0x01
    1220:	89 e0       	ldi	r24, 0x09	; 9
    1222:	06 c0       	rjmp	.+12     	; 0x1230 <validate+0x4c>
    1224:	88 81       	ld	r24, Y
    1226:	99 81       	ldd	r25, Y+1	; 0x01
    1228:	f8 01       	movw	r30, r16
    122a:	80 83       	st	Z, r24
    122c:	91 83       	std	Z+1, r25	; 0x01
    122e:	80 e0       	ldi	r24, 0x00	; 0
    1230:	df 91       	pop	r29
    1232:	cf 91       	pop	r28
    1234:	1f 91       	pop	r17
    1236:	0f 91       	pop	r16
    1238:	08 95       	ret

0000123a <sync_window>:
    123a:	8f 92       	push	r8
    123c:	9f 92       	push	r9
    123e:	af 92       	push	r10
    1240:	bf 92       	push	r11
    1242:	cf 92       	push	r12
    1244:	df 92       	push	r13
    1246:	ef 92       	push	r14
    1248:	ff 92       	push	r15
    124a:	0f 93       	push	r16
    124c:	1f 93       	push	r17
    124e:	cf 93       	push	r28
    1250:	df 93       	push	r29
    1252:	fc 01       	movw	r30, r24
    1254:	23 81       	ldd	r18, Z+3	; 0x03
    1256:	22 23       	and	r18, r18
    1258:	09 f4       	brne	.+2      	; 0x125c <sync_window+0x22>
    125a:	46 c0       	rjmp	.+140    	; 0x12e8 <sync_window+0xae>
    125c:	ec 01       	movw	r28, r24
    125e:	c7 a4       	ldd	r12, Z+47	; 0x2f
    1260:	d0 a8       	ldd	r13, Z+48	; 0x30
    1262:	e1 a8       	ldd	r14, Z+49	; 0x31
    1264:	f2 a8       	ldd	r15, Z+50	; 0x32
    1266:	5c 01       	movw	r10, r24
    1268:	f3 e3       	ldi	r31, 0x33	; 51
    126a:	af 0e       	add	r10, r31
    126c:	b1 1c       	adc	r11, r1
    126e:	01 e0       	ldi	r16, 0x01	; 1
    1270:	10 e0       	ldi	r17, 0x00	; 0
    1272:	a7 01       	movw	r20, r14
    1274:	96 01       	movw	r18, r12
    1276:	b5 01       	movw	r22, r10
    1278:	89 81       	ldd	r24, Y+1	; 0x01
    127a:	0e 94 c9 1c 	call	0x3992	; 0x3992 <disk_write>
    127e:	81 11       	cpse	r24, r1
    1280:	35 c0       	rjmp	.+106    	; 0x12ec <sync_window+0xb2>
    1282:	1b 82       	std	Y+3, r1	; 0x03
    1284:	8b a1       	ldd	r24, Y+35	; 0x23
    1286:	9c a1       	ldd	r25, Y+36	; 0x24
    1288:	ad a1       	ldd	r26, Y+37	; 0x25
    128a:	be a1       	ldd	r27, Y+38	; 0x26
    128c:	b7 01       	movw	r22, r14
    128e:	a6 01       	movw	r20, r12
    1290:	48 1b       	sub	r20, r24
    1292:	59 0b       	sbc	r21, r25
    1294:	6a 0b       	sbc	r22, r26
    1296:	7b 0b       	sbc	r23, r27
    1298:	8b 8d       	ldd	r24, Y+27	; 0x1b
    129a:	9c 8d       	ldd	r25, Y+28	; 0x1c
    129c:	ad 8d       	ldd	r26, Y+29	; 0x1d
    129e:	be 8d       	ldd	r27, Y+30	; 0x1e
    12a0:	48 17       	cp	r20, r24
    12a2:	59 07       	cpc	r21, r25
    12a4:	6a 07       	cpc	r22, r26
    12a6:	7b 07       	cpc	r23, r27
    12a8:	18 f5       	brcc	.+70     	; 0x12f0 <sync_window+0xb6>
    12aa:	8a 80       	ldd	r8, Y+2	; 0x02
    12ac:	91 2c       	mov	r9, r1
    12ae:	82 e0       	ldi	r24, 0x02	; 2
    12b0:	88 16       	cp	r8, r24
    12b2:	91 04       	cpc	r9, r1
    12b4:	f8 f0       	brcs	.+62     	; 0x12f4 <sync_window+0xba>
    12b6:	8b 8d       	ldd	r24, Y+27	; 0x1b
    12b8:	9c 8d       	ldd	r25, Y+28	; 0x1c
    12ba:	ad 8d       	ldd	r26, Y+29	; 0x1d
    12bc:	be 8d       	ldd	r27, Y+30	; 0x1e
    12be:	c8 0e       	add	r12, r24
    12c0:	d9 1e       	adc	r13, r25
    12c2:	ea 1e       	adc	r14, r26
    12c4:	fb 1e       	adc	r15, r27
    12c6:	01 e0       	ldi	r16, 0x01	; 1
    12c8:	10 e0       	ldi	r17, 0x00	; 0
    12ca:	a7 01       	movw	r20, r14
    12cc:	96 01       	movw	r18, r12
    12ce:	b5 01       	movw	r22, r10
    12d0:	89 81       	ldd	r24, Y+1	; 0x01
    12d2:	0e 94 c9 1c 	call	0x3992	; 0x3992 <disk_write>
    12d6:	e1 e0       	ldi	r30, 0x01	; 1
    12d8:	8e 1a       	sub	r8, r30
    12da:	91 08       	sbc	r9, r1
    12dc:	f1 e0       	ldi	r31, 0x01	; 1
    12de:	8f 16       	cp	r8, r31
    12e0:	91 04       	cpc	r9, r1
    12e2:	49 f7       	brne	.-46     	; 0x12b6 <sync_window+0x7c>
    12e4:	80 e0       	ldi	r24, 0x00	; 0
    12e6:	07 c0       	rjmp	.+14     	; 0x12f6 <sync_window+0xbc>
    12e8:	80 e0       	ldi	r24, 0x00	; 0
    12ea:	05 c0       	rjmp	.+10     	; 0x12f6 <sync_window+0xbc>
    12ec:	81 e0       	ldi	r24, 0x01	; 1
    12ee:	03 c0       	rjmp	.+6      	; 0x12f6 <sync_window+0xbc>
    12f0:	80 e0       	ldi	r24, 0x00	; 0
    12f2:	01 c0       	rjmp	.+2      	; 0x12f6 <sync_window+0xbc>
    12f4:	80 e0       	ldi	r24, 0x00	; 0
    12f6:	df 91       	pop	r29
    12f8:	cf 91       	pop	r28
    12fa:	1f 91       	pop	r17
    12fc:	0f 91       	pop	r16
    12fe:	ff 90       	pop	r15
    1300:	ef 90       	pop	r14
    1302:	df 90       	pop	r13
    1304:	cf 90       	pop	r12
    1306:	bf 90       	pop	r11
    1308:	af 90       	pop	r10
    130a:	9f 90       	pop	r9
    130c:	8f 90       	pop	r8
    130e:	08 95       	ret

00001310 <move_window>:
    1310:	8f 92       	push	r8
    1312:	9f 92       	push	r9
    1314:	af 92       	push	r10
    1316:	bf 92       	push	r11
    1318:	ff 92       	push	r15
    131a:	0f 93       	push	r16
    131c:	1f 93       	push	r17
    131e:	cf 93       	push	r28
    1320:	df 93       	push	r29
    1322:	ec 01       	movw	r28, r24
    1324:	4a 01       	movw	r8, r20
    1326:	5b 01       	movw	r10, r22
    1328:	8f a5       	ldd	r24, Y+47	; 0x2f
    132a:	98 a9       	ldd	r25, Y+48	; 0x30
    132c:	a9 a9       	ldd	r26, Y+49	; 0x31
    132e:	ba a9       	ldd	r27, Y+50	; 0x32
    1330:	84 17       	cp	r24, r20
    1332:	95 07       	cpc	r25, r21
    1334:	a6 07       	cpc	r26, r22
    1336:	b7 07       	cpc	r27, r23
    1338:	e1 f0       	breq	.+56     	; 0x1372 <move_window+0x62>
    133a:	ce 01       	movw	r24, r28
    133c:	7e df       	rcall	.-260    	; 0x123a <sync_window>
    133e:	f8 2e       	mov	r15, r24
    1340:	81 11       	cpse	r24, r1
    1342:	18 c0       	rjmp	.+48     	; 0x1374 <move_window+0x64>
    1344:	01 e0       	ldi	r16, 0x01	; 1
    1346:	10 e0       	ldi	r17, 0x00	; 0
    1348:	a5 01       	movw	r20, r10
    134a:	94 01       	movw	r18, r8
    134c:	be 01       	movw	r22, r28
    134e:	6d 5c       	subi	r22, 0xCD	; 205
    1350:	7f 4f       	sbci	r23, 0xFF	; 255
    1352:	89 81       	ldd	r24, Y+1	; 0x01
    1354:	0e 94 bc 1c 	call	0x3978	; 0x3978 <disk_read>
    1358:	88 23       	and	r24, r24
    135a:	31 f0       	breq	.+12     	; 0x1368 <move_window+0x58>
    135c:	ff 24       	eor	r15, r15
    135e:	f3 94       	inc	r15
    1360:	88 24       	eor	r8, r8
    1362:	8a 94       	dec	r8
    1364:	98 2c       	mov	r9, r8
    1366:	54 01       	movw	r10, r8
    1368:	8f a6       	std	Y+47, r8	; 0x2f
    136a:	98 aa       	std	Y+48, r9	; 0x30
    136c:	a9 aa       	std	Y+49, r10	; 0x31
    136e:	ba aa       	std	Y+50, r11	; 0x32
    1370:	01 c0       	rjmp	.+2      	; 0x1374 <move_window+0x64>
    1372:	f1 2c       	mov	r15, r1
    1374:	8f 2d       	mov	r24, r15
    1376:	df 91       	pop	r29
    1378:	cf 91       	pop	r28
    137a:	1f 91       	pop	r17
    137c:	0f 91       	pop	r16
    137e:	ff 90       	pop	r15
    1380:	bf 90       	pop	r11
    1382:	af 90       	pop	r10
    1384:	9f 90       	pop	r9
    1386:	8f 90       	pop	r8
    1388:	08 95       	ret

0000138a <sync_fs>:
    138a:	ef 92       	push	r14
    138c:	ff 92       	push	r15
    138e:	0f 93       	push	r16
    1390:	1f 93       	push	r17
    1392:	cf 93       	push	r28
    1394:	df 93       	push	r29
    1396:	ec 01       	movw	r28, r24
    1398:	50 df       	rcall	.-352    	; 0x123a <sync_window>
    139a:	98 2f       	mov	r25, r24
    139c:	81 11       	cpse	r24, r1
    139e:	59 c0       	rjmp	.+178    	; 0x1452 <sync_fs+0xc8>
    13a0:	88 81       	ld	r24, Y
    13a2:	83 30       	cpi	r24, 0x03	; 3
    13a4:	09 f0       	breq	.+2      	; 0x13a8 <sync_fs+0x1e>
    13a6:	4b c0       	rjmp	.+150    	; 0x143e <sync_fs+0xb4>
    13a8:	8c 81       	ldd	r24, Y+4	; 0x04
    13aa:	81 30       	cpi	r24, 0x01	; 1
    13ac:	09 f0       	breq	.+2      	; 0x13b0 <sync_fs+0x26>
    13ae:	47 c0       	rjmp	.+142    	; 0x143e <sync_fs+0xb4>
    13b0:	7e 01       	movw	r14, r28
    13b2:	83 e3       	ldi	r24, 0x33	; 51
    13b4:	e8 0e       	add	r14, r24
    13b6:	f1 1c       	adc	r15, r1
    13b8:	f7 01       	movw	r30, r14
    13ba:	9e 01       	movw	r18, r28
    13bc:	2d 5c       	subi	r18, 0xCD	; 205
    13be:	3d 4f       	sbci	r19, 0xFD	; 253
    13c0:	11 92       	st	Z+, r1
    13c2:	e2 17       	cp	r30, r18
    13c4:	f3 07       	cpc	r31, r19
    13c6:	e1 f7       	brne	.-8      	; 0x13c0 <sync_fs+0x36>
    13c8:	85 e5       	ldi	r24, 0x55	; 85
    13ca:	fe 01       	movw	r30, r28
    13cc:	ef 5c       	subi	r30, 0xCF	; 207
    13ce:	fd 4f       	sbci	r31, 0xFD	; 253
    13d0:	80 83       	st	Z, r24
    13d2:	8a ea       	ldi	r24, 0xAA	; 170
    13d4:	31 96       	adiw	r30, 0x01	; 1
    13d6:	80 83       	st	Z, r24
    13d8:	42 e5       	ldi	r20, 0x52	; 82
    13da:	52 e5       	ldi	r21, 0x52	; 82
    13dc:	61 e6       	ldi	r22, 0x61	; 97
    13de:	71 e4       	ldi	r23, 0x41	; 65
    13e0:	c7 01       	movw	r24, r14
    13e2:	31 de       	rcall	.-926    	; 0x1046 <st_dword>
    13e4:	42 e7       	ldi	r20, 0x72	; 114
    13e6:	52 e7       	ldi	r21, 0x72	; 114
    13e8:	61 e4       	ldi	r22, 0x41	; 65
    13ea:	71 e6       	ldi	r23, 0x61	; 97
    13ec:	ce 01       	movw	r24, r28
    13ee:	89 5e       	subi	r24, 0xE9	; 233
    13f0:	9d 4f       	sbci	r25, 0xFD	; 253
    13f2:	29 de       	rcall	.-942    	; 0x1046 <st_dword>
    13f4:	4f 85       	ldd	r20, Y+15	; 0x0f
    13f6:	58 89       	ldd	r21, Y+16	; 0x10
    13f8:	69 89       	ldd	r22, Y+17	; 0x11
    13fa:	7a 89       	ldd	r23, Y+18	; 0x12
    13fc:	ce 01       	movw	r24, r28
    13fe:	85 5e       	subi	r24, 0xE5	; 229
    1400:	9d 4f       	sbci	r25, 0xFD	; 253
    1402:	21 de       	rcall	.-958    	; 0x1046 <st_dword>
    1404:	4b 85       	ldd	r20, Y+11	; 0x0b
    1406:	5c 85       	ldd	r21, Y+12	; 0x0c
    1408:	6d 85       	ldd	r22, Y+13	; 0x0d
    140a:	7e 85       	ldd	r23, Y+14	; 0x0e
    140c:	ce 01       	movw	r24, r28
    140e:	81 5e       	subi	r24, 0xE1	; 225
    1410:	9d 4f       	sbci	r25, 0xFD	; 253
    1412:	19 de       	rcall	.-974    	; 0x1046 <st_dword>
    1414:	8f 8d       	ldd	r24, Y+31	; 0x1f
    1416:	98 a1       	ldd	r25, Y+32	; 0x20
    1418:	a9 a1       	ldd	r26, Y+33	; 0x21
    141a:	ba a1       	ldd	r27, Y+34	; 0x22
    141c:	9c 01       	movw	r18, r24
    141e:	ad 01       	movw	r20, r26
    1420:	2f 5f       	subi	r18, 0xFF	; 255
    1422:	3f 4f       	sbci	r19, 0xFF	; 255
    1424:	4f 4f       	sbci	r20, 0xFF	; 255
    1426:	5f 4f       	sbci	r21, 0xFF	; 255
    1428:	2f a7       	std	Y+47, r18	; 0x2f
    142a:	38 ab       	std	Y+48, r19	; 0x30
    142c:	49 ab       	std	Y+49, r20	; 0x31
    142e:	5a ab       	std	Y+50, r21	; 0x32
    1430:	01 e0       	ldi	r16, 0x01	; 1
    1432:	10 e0       	ldi	r17, 0x00	; 0
    1434:	b7 01       	movw	r22, r14
    1436:	89 81       	ldd	r24, Y+1	; 0x01
    1438:	0e 94 c9 1c 	call	0x3992	; 0x3992 <disk_write>
    143c:	1c 82       	std	Y+4, r1	; 0x04
    143e:	40 e0       	ldi	r20, 0x00	; 0
    1440:	50 e0       	ldi	r21, 0x00	; 0
    1442:	60 e0       	ldi	r22, 0x00	; 0
    1444:	89 81       	ldd	r24, Y+1	; 0x01
    1446:	0e 94 ff 1c 	call	0x39fe	; 0x39fe <disk_ioctl>
    144a:	91 e0       	ldi	r25, 0x01	; 1
    144c:	81 11       	cpse	r24, r1
    144e:	01 c0       	rjmp	.+2      	; 0x1452 <sync_fs+0xc8>
    1450:	90 e0       	ldi	r25, 0x00	; 0
    1452:	89 2f       	mov	r24, r25
    1454:	df 91       	pop	r29
    1456:	cf 91       	pop	r28
    1458:	1f 91       	pop	r17
    145a:	0f 91       	pop	r16
    145c:	ff 90       	pop	r15
    145e:	ef 90       	pop	r14
    1460:	08 95       	ret

00001462 <put_fat>:
    1462:	4f 92       	push	r4
    1464:	5f 92       	push	r5
    1466:	6f 92       	push	r6
    1468:	7f 92       	push	r7
    146a:	8f 92       	push	r8
    146c:	9f 92       	push	r9
    146e:	af 92       	push	r10
    1470:	bf 92       	push	r11
    1472:	cf 92       	push	r12
    1474:	df 92       	push	r13
    1476:	ef 92       	push	r14
    1478:	ff 92       	push	r15
    147a:	0f 93       	push	r16
    147c:	1f 93       	push	r17
    147e:	cf 93       	push	r28
    1480:	df 93       	push	r29
    1482:	ec 01       	movw	r28, r24
    1484:	6a 01       	movw	r12, r20
    1486:	7b 01       	movw	r14, r22
    1488:	28 01       	movw	r4, r16
    148a:	39 01       	movw	r6, r18
    148c:	42 30       	cpi	r20, 0x02	; 2
    148e:	51 05       	cpc	r21, r1
    1490:	61 05       	cpc	r22, r1
    1492:	71 05       	cpc	r23, r1
    1494:	08 f4       	brcc	.+2      	; 0x1498 <put_fat+0x36>
    1496:	ca c0       	rjmp	.+404    	; 0x162c <put_fat+0x1ca>
    1498:	8f 89       	ldd	r24, Y+23	; 0x17
    149a:	98 8d       	ldd	r25, Y+24	; 0x18
    149c:	a9 8d       	ldd	r26, Y+25	; 0x19
    149e:	ba 8d       	ldd	r27, Y+26	; 0x1a
    14a0:	48 17       	cp	r20, r24
    14a2:	59 07       	cpc	r21, r25
    14a4:	6a 07       	cpc	r22, r26
    14a6:	7b 07       	cpc	r23, r27
    14a8:	08 f0       	brcs	.+2      	; 0x14ac <put_fat+0x4a>
    14aa:	c2 c0       	rjmp	.+388    	; 0x1630 <put_fat+0x1ce>
    14ac:	88 81       	ld	r24, Y
    14ae:	82 30       	cpi	r24, 0x02	; 2
    14b0:	09 f4       	brne	.+2      	; 0x14b4 <put_fat+0x52>
    14b2:	62 c0       	rjmp	.+196    	; 0x1578 <put_fat+0x116>
    14b4:	83 30       	cpi	r24, 0x03	; 3
    14b6:	09 f4       	brne	.+2      	; 0x14ba <put_fat+0x58>
    14b8:	81 c0       	rjmp	.+258    	; 0x15bc <put_fat+0x15a>
    14ba:	81 30       	cpi	r24, 0x01	; 1
    14bc:	09 f0       	breq	.+2      	; 0x14c0 <put_fat+0x5e>
    14be:	ba c0       	rjmp	.+372    	; 0x1634 <put_fat+0x1d2>
    14c0:	5a 01       	movw	r10, r20
    14c2:	b6 94       	lsr	r11
    14c4:	a7 94       	ror	r10
    14c6:	a4 0e       	add	r10, r20
    14c8:	b5 1e       	adc	r11, r21
    14ca:	c5 01       	movw	r24, r10
    14cc:	89 2f       	mov	r24, r25
    14ce:	99 27       	eor	r25, r25
    14d0:	86 95       	lsr	r24
    14d2:	4b a1       	ldd	r20, Y+35	; 0x23
    14d4:	5c a1       	ldd	r21, Y+36	; 0x24
    14d6:	6d a1       	ldd	r22, Y+37	; 0x25
    14d8:	7e a1       	ldd	r23, Y+38	; 0x26
    14da:	48 0f       	add	r20, r24
    14dc:	59 1f       	adc	r21, r25
    14de:	61 1d       	adc	r22, r1
    14e0:	71 1d       	adc	r23, r1
    14e2:	ce 01       	movw	r24, r28
    14e4:	15 df       	rcall	.-470    	; 0x1310 <move_window>
    14e6:	18 2f       	mov	r17, r24
    14e8:	81 11       	cpse	r24, r1
    14ea:	c2 c0       	rjmp	.+388    	; 0x1670 <put_fat+0x20e>
    14ec:	45 01       	movw	r8, r10
    14ee:	8f ef       	ldi	r24, 0xFF	; 255
    14f0:	88 1a       	sub	r8, r24
    14f2:	98 0a       	sbc	r9, r24
    14f4:	31 e0       	ldi	r19, 0x01	; 1
    14f6:	b3 22       	and	r11, r19
    14f8:	c0 fe       	sbrs	r12, 0
    14fa:	20 c0       	rjmp	.+64     	; 0x153c <put_fat+0xda>
    14fc:	fe 01       	movw	r30, r28
    14fe:	ea 0d       	add	r30, r10
    1500:	fb 1d       	adc	r31, r11
    1502:	83 a9       	ldd	r24, Z+51	; 0x33
    1504:	28 2f       	mov	r18, r24
    1506:	2f 70       	andi	r18, 0x0F	; 15
    1508:	30 e1       	ldi	r19, 0x10	; 16
    150a:	43 9e       	mul	r4, r19
    150c:	c0 01       	movw	r24, r0
    150e:	11 24       	eor	r1, r1
    1510:	82 2b       	or	r24, r18
    1512:	83 ab       	std	Z+51, r24	; 0x33
    1514:	81 e0       	ldi	r24, 0x01	; 1
    1516:	8b 83       	std	Y+3, r24	; 0x03
    1518:	4b a1       	ldd	r20, Y+35	; 0x23
    151a:	5c a1       	ldd	r21, Y+36	; 0x24
    151c:	6d a1       	ldd	r22, Y+37	; 0x25
    151e:	7e a1       	ldd	r23, Y+38	; 0x26
    1520:	c4 01       	movw	r24, r8
    1522:	89 2f       	mov	r24, r25
    1524:	99 27       	eor	r25, r25
    1526:	86 95       	lsr	r24
    1528:	48 0f       	add	r20, r24
    152a:	59 1f       	adc	r21, r25
    152c:	61 1d       	adc	r22, r1
    152e:	71 1d       	adc	r23, r1
    1530:	ce 01       	movw	r24, r28
    1532:	ee de       	rcall	.-548    	; 0x1310 <move_window>
    1534:	88 23       	and	r24, r24
    1536:	09 f4       	brne	.+2      	; 0x153a <put_fat+0xd8>
    1538:	83 c0       	rjmp	.+262    	; 0x1640 <put_fat+0x1de>
    153a:	7e c0       	rjmp	.+252    	; 0x1638 <put_fat+0x1d6>
    153c:	fe 01       	movw	r30, r28
    153e:	ea 0d       	add	r30, r10
    1540:	fb 1d       	adc	r31, r11
    1542:	43 aa       	std	Z+51, r4	; 0x33
    1544:	81 e0       	ldi	r24, 0x01	; 1
    1546:	8b 83       	std	Y+3, r24	; 0x03
    1548:	4b a1       	ldd	r20, Y+35	; 0x23
    154a:	5c a1       	ldd	r21, Y+36	; 0x24
    154c:	6d a1       	ldd	r22, Y+37	; 0x25
    154e:	7e a1       	ldd	r23, Y+38	; 0x26
    1550:	c4 01       	movw	r24, r8
    1552:	89 2f       	mov	r24, r25
    1554:	99 27       	eor	r25, r25
    1556:	86 95       	lsr	r24
    1558:	48 0f       	add	r20, r24
    155a:	59 1f       	adc	r21, r25
    155c:	61 1d       	adc	r22, r1
    155e:	71 1d       	adc	r23, r1
    1560:	ce 01       	movw	r24, r28
    1562:	d6 de       	rcall	.-596    	; 0x1310 <move_window>
    1564:	88 23       	and	r24, r24
    1566:	09 f4       	brne	.+2      	; 0x156a <put_fat+0x108>
    1568:	76 c0       	rjmp	.+236    	; 0x1656 <put_fat+0x1f4>
    156a:	68 c0       	rjmp	.+208    	; 0x163c <put_fat+0x1da>
    156c:	ec 0f       	add	r30, r28
    156e:	fd 1f       	adc	r31, r29
    1570:	43 aa       	std	Z+51, r4	; 0x33
    1572:	81 e0       	ldi	r24, 0x01	; 1
    1574:	8b 83       	std	Y+3, r24	; 0x03
    1576:	7c c0       	rjmp	.+248    	; 0x1670 <put_fat+0x20e>
    1578:	45 2f       	mov	r20, r21
    157a:	56 2f       	mov	r21, r22
    157c:	67 2f       	mov	r22, r23
    157e:	77 27       	eor	r23, r23
    1580:	8b a1       	ldd	r24, Y+35	; 0x23
    1582:	9c a1       	ldd	r25, Y+36	; 0x24
    1584:	ad a1       	ldd	r26, Y+37	; 0x25
    1586:	be a1       	ldd	r27, Y+38	; 0x26
    1588:	48 0f       	add	r20, r24
    158a:	59 1f       	adc	r21, r25
    158c:	6a 1f       	adc	r22, r26
    158e:	7b 1f       	adc	r23, r27
    1590:	ce 01       	movw	r24, r28
    1592:	be de       	rcall	.-644    	; 0x1310 <move_window>
    1594:	18 2f       	mov	r17, r24
    1596:	81 11       	cpse	r24, r1
    1598:	6b c0       	rjmp	.+214    	; 0x1670 <put_fat+0x20e>
    159a:	cc 0c       	add	r12, r12
    159c:	dd 1c       	adc	r13, r13
    159e:	e8 94       	clt
    15a0:	c0 f8       	bld	r12, 0
    15a2:	81 e0       	ldi	r24, 0x01	; 1
    15a4:	d8 22       	and	r13, r24
    15a6:	fe 01       	movw	r30, r28
    15a8:	ec 0d       	add	r30, r12
    15aa:	fd 1d       	adc	r31, r13
    15ac:	43 aa       	std	Z+51, r4	; 0x33
    15ae:	fe 01       	movw	r30, r28
    15b0:	ec 0d       	add	r30, r12
    15b2:	fd 1d       	adc	r31, r13
    15b4:	54 aa       	std	Z+52, r5	; 0x34
    15b6:	81 e0       	ldi	r24, 0x01	; 1
    15b8:	8b 83       	std	Y+3, r24	; 0x03
    15ba:	5a c0       	rjmp	.+180    	; 0x1670 <put_fat+0x20e>
    15bc:	8b a1       	ldd	r24, Y+35	; 0x23
    15be:	9c a1       	ldd	r25, Y+36	; 0x24
    15c0:	ad a1       	ldd	r26, Y+37	; 0x25
    15c2:	be a1       	ldd	r27, Y+38	; 0x26
    15c4:	68 94       	set
    15c6:	16 f8       	bld	r1, 6
    15c8:	76 95       	lsr	r23
    15ca:	67 95       	ror	r22
    15cc:	57 95       	ror	r21
    15ce:	47 95       	ror	r20
    15d0:	16 94       	lsr	r1
    15d2:	d1 f7       	brne	.-12     	; 0x15c8 <put_fat+0x166>
    15d4:	48 0f       	add	r20, r24
    15d6:	59 1f       	adc	r21, r25
    15d8:	6a 1f       	adc	r22, r26
    15da:	7b 1f       	adc	r23, r27
    15dc:	ce 01       	movw	r24, r28
    15de:	98 de       	rcall	.-720    	; 0x1310 <move_window>
    15e0:	18 2f       	mov	r17, r24
    15e2:	81 11       	cpse	r24, r1
    15e4:	45 c0       	rjmp	.+138    	; 0x1670 <put_fat+0x20e>
    15e6:	3f e0       	ldi	r19, 0x0F	; 15
    15e8:	73 22       	and	r7, r19
    15ea:	cc 0c       	add	r12, r12
    15ec:	dd 1c       	adc	r13, r13
    15ee:	cc 0c       	add	r12, r12
    15f0:	dd 1c       	adc	r13, r13
    15f2:	76 01       	movw	r14, r12
    15f4:	8c ef       	ldi	r24, 0xFC	; 252
    15f6:	e8 22       	and	r14, r24
    15f8:	81 e0       	ldi	r24, 0x01	; 1
    15fa:	f8 22       	and	r15, r24
    15fc:	33 e3       	ldi	r19, 0x33	; 51
    15fe:	e3 0e       	add	r14, r19
    1600:	f1 1c       	adc	r15, r1
    1602:	ec 0e       	add	r14, r28
    1604:	fd 1e       	adc	r15, r29
    1606:	c7 01       	movw	r24, r14
    1608:	03 dd       	rcall	.-1530   	; 0x1010 <ld_dword>
    160a:	dc 01       	movw	r26, r24
    160c:	cb 01       	movw	r24, r22
    160e:	88 27       	eor	r24, r24
    1610:	99 27       	eor	r25, r25
    1612:	aa 27       	eor	r26, r26
    1614:	b0 7f       	andi	r27, 0xF0	; 240
    1616:	ac 01       	movw	r20, r24
    1618:	bd 01       	movw	r22, r26
    161a:	44 29       	or	r20, r4
    161c:	55 29       	or	r21, r5
    161e:	66 29       	or	r22, r6
    1620:	77 29       	or	r23, r7
    1622:	c7 01       	movw	r24, r14
    1624:	10 dd       	rcall	.-1504   	; 0x1046 <st_dword>
    1626:	81 e0       	ldi	r24, 0x01	; 1
    1628:	8b 83       	std	Y+3, r24	; 0x03
    162a:	22 c0       	rjmp	.+68     	; 0x1670 <put_fat+0x20e>
    162c:	12 e0       	ldi	r17, 0x02	; 2
    162e:	20 c0       	rjmp	.+64     	; 0x1670 <put_fat+0x20e>
    1630:	12 e0       	ldi	r17, 0x02	; 2
    1632:	1e c0       	rjmp	.+60     	; 0x1670 <put_fat+0x20e>
    1634:	12 e0       	ldi	r17, 0x02	; 2
    1636:	1c c0       	rjmp	.+56     	; 0x1670 <put_fat+0x20e>
    1638:	18 2f       	mov	r17, r24
    163a:	1a c0       	rjmp	.+52     	; 0x1670 <put_fat+0x20e>
    163c:	18 2f       	mov	r17, r24
    163e:	18 c0       	rjmp	.+48     	; 0x1670 <put_fat+0x20e>
    1640:	f4 01       	movw	r30, r8
    1642:	f1 70       	andi	r31, 0x01	; 1
    1644:	68 94       	set
    1646:	13 f8       	bld	r1, 3
    1648:	76 94       	lsr	r7
    164a:	67 94       	ror	r6
    164c:	57 94       	ror	r5
    164e:	47 94       	ror	r4
    1650:	16 94       	lsr	r1
    1652:	d1 f7       	brne	.-12     	; 0x1648 <put_fat+0x1e6>
    1654:	8b cf       	rjmp	.-234    	; 0x156c <put_fat+0x10a>
    1656:	f4 01       	movw	r30, r8
    1658:	f1 70       	andi	r31, 0x01	; 1
    165a:	de 01       	movw	r26, r28
    165c:	ae 0f       	add	r26, r30
    165e:	bf 1f       	adc	r27, r31
    1660:	d3 96       	adiw	r26, 0x33	; 51
    1662:	9c 91       	ld	r25, X
    1664:	90 7f       	andi	r25, 0xF0	; 240
    1666:	85 2d       	mov	r24, r5
    1668:	8f 70       	andi	r24, 0x0F	; 15
    166a:	49 2e       	mov	r4, r25
    166c:	48 2a       	or	r4, r24
    166e:	7e cf       	rjmp	.-260    	; 0x156c <put_fat+0x10a>
    1670:	81 2f       	mov	r24, r17
    1672:	df 91       	pop	r29
    1674:	cf 91       	pop	r28
    1676:	1f 91       	pop	r17
    1678:	0f 91       	pop	r16
    167a:	ff 90       	pop	r15
    167c:	ef 90       	pop	r14
    167e:	df 90       	pop	r13
    1680:	cf 90       	pop	r12
    1682:	bf 90       	pop	r11
    1684:	af 90       	pop	r10
    1686:	9f 90       	pop	r9
    1688:	8f 90       	pop	r8
    168a:	7f 90       	pop	r7
    168c:	6f 90       	pop	r6
    168e:	5f 90       	pop	r5
    1690:	4f 90       	pop	r4
    1692:	08 95       	ret

00001694 <st_clust>:
    1694:	fb 01       	movw	r30, r22
    1696:	22 8f       	std	Z+26, r18	; 0x1a
    1698:	33 8f       	std	Z+27, r19	; 0x1b
    169a:	dc 01       	movw	r26, r24
    169c:	8c 91       	ld	r24, X
    169e:	83 30       	cpi	r24, 0x03	; 3
    16a0:	29 f4       	brne	.+10     	; 0x16ac <st_clust+0x18>
    16a2:	ca 01       	movw	r24, r20
    16a4:	aa 27       	eor	r26, r26
    16a6:	bb 27       	eor	r27, r27
    16a8:	84 8b       	std	Z+20, r24	; 0x14
    16aa:	95 8b       	std	Z+21, r25	; 0x15
    16ac:	08 95       	ret

000016ae <get_fat>:
    16ae:	af 92       	push	r10
    16b0:	bf 92       	push	r11
    16b2:	cf 92       	push	r12
    16b4:	df 92       	push	r13
    16b6:	ef 92       	push	r14
    16b8:	ff 92       	push	r15
    16ba:	0f 93       	push	r16
    16bc:	1f 93       	push	r17
    16be:	cf 93       	push	r28
    16c0:	df 93       	push	r29
    16c2:	6a 01       	movw	r12, r20
    16c4:	7b 01       	movw	r14, r22
    16c6:	fc 01       	movw	r30, r24
    16c8:	c0 81       	ld	r28, Z
    16ca:	d1 81       	ldd	r29, Z+1	; 0x01
    16cc:	42 30       	cpi	r20, 0x02	; 2
    16ce:	51 05       	cpc	r21, r1
    16d0:	61 05       	cpc	r22, r1
    16d2:	71 05       	cpc	r23, r1
    16d4:	08 f4       	brcc	.+2      	; 0x16d8 <get_fat+0x2a>
    16d6:	9e c0       	rjmp	.+316    	; 0x1814 <get_fat+0x166>
    16d8:	8f 89       	ldd	r24, Y+23	; 0x17
    16da:	98 8d       	ldd	r25, Y+24	; 0x18
    16dc:	a9 8d       	ldd	r26, Y+25	; 0x19
    16de:	ba 8d       	ldd	r27, Y+26	; 0x1a
    16e0:	48 17       	cp	r20, r24
    16e2:	59 07       	cpc	r21, r25
    16e4:	6a 07       	cpc	r22, r26
    16e6:	7b 07       	cpc	r23, r27
    16e8:	08 f0       	brcs	.+2      	; 0x16ec <get_fat+0x3e>
    16ea:	99 c0       	rjmp	.+306    	; 0x181e <get_fat+0x170>
    16ec:	88 81       	ld	r24, Y
    16ee:	82 30       	cpi	r24, 0x02	; 2
    16f0:	09 f4       	brne	.+2      	; 0x16f4 <get_fat+0x46>
    16f2:	4b c0       	rjmp	.+150    	; 0x178a <get_fat+0xdc>
    16f4:	83 30       	cpi	r24, 0x03	; 3
    16f6:	09 f4       	brne	.+2      	; 0x16fa <get_fat+0x4c>
    16f8:	6a c0       	rjmp	.+212    	; 0x17ce <get_fat+0x120>
    16fa:	81 30       	cpi	r24, 0x01	; 1
    16fc:	09 f0       	breq	.+2      	; 0x1700 <get_fat+0x52>
    16fe:	94 c0       	rjmp	.+296    	; 0x1828 <get_fat+0x17a>
    1700:	8a 01       	movw	r16, r20
    1702:	16 95       	lsr	r17
    1704:	07 95       	ror	r16
    1706:	04 0f       	add	r16, r20
    1708:	15 1f       	adc	r17, r21
    170a:	c8 01       	movw	r24, r16
    170c:	89 2f       	mov	r24, r25
    170e:	99 27       	eor	r25, r25
    1710:	86 95       	lsr	r24
    1712:	4b a1       	ldd	r20, Y+35	; 0x23
    1714:	5c a1       	ldd	r21, Y+36	; 0x24
    1716:	6d a1       	ldd	r22, Y+37	; 0x25
    1718:	7e a1       	ldd	r23, Y+38	; 0x26
    171a:	48 0f       	add	r20, r24
    171c:	59 1f       	adc	r21, r25
    171e:	61 1d       	adc	r22, r1
    1720:	71 1d       	adc	r23, r1
    1722:	ce 01       	movw	r24, r28
    1724:	f5 dd       	rcall	.-1046   	; 0x1310 <move_window>
    1726:	81 11       	cpse	r24, r1
    1728:	84 c0       	rjmp	.+264    	; 0x1832 <get_fat+0x184>
    172a:	58 01       	movw	r10, r16
    172c:	8f ef       	ldi	r24, 0xFF	; 255
    172e:	a8 1a       	sub	r10, r24
    1730:	b8 0a       	sbc	r11, r24
    1732:	11 70       	andi	r17, 0x01	; 1
    1734:	fe 01       	movw	r30, r28
    1736:	e0 0f       	add	r30, r16
    1738:	f1 1f       	adc	r31, r17
    173a:	13 a9       	ldd	r17, Z+51	; 0x33
    173c:	c5 01       	movw	r24, r10
    173e:	89 2f       	mov	r24, r25
    1740:	99 27       	eor	r25, r25
    1742:	86 95       	lsr	r24
    1744:	4b a1       	ldd	r20, Y+35	; 0x23
    1746:	5c a1       	ldd	r21, Y+36	; 0x24
    1748:	6d a1       	ldd	r22, Y+37	; 0x25
    174a:	7e a1       	ldd	r23, Y+38	; 0x26
    174c:	48 0f       	add	r20, r24
    174e:	59 1f       	adc	r21, r25
    1750:	61 1d       	adc	r22, r1
    1752:	71 1d       	adc	r23, r1
    1754:	ce 01       	movw	r24, r28
    1756:	dc dd       	rcall	.-1096   	; 0x1310 <move_window>
    1758:	81 11       	cpse	r24, r1
    175a:	6f c0       	rjmp	.+222    	; 0x183a <get_fat+0x18c>
    175c:	e1 e0       	ldi	r30, 0x01	; 1
    175e:	be 22       	and	r11, r30
    1760:	ca 0d       	add	r28, r10
    1762:	db 1d       	adc	r29, r11
    1764:	8b a9       	ldd	r24, Y+51	; 0x33
    1766:	61 2f       	mov	r22, r17
    1768:	70 e0       	ldi	r23, 0x00	; 0
    176a:	78 2b       	or	r23, r24
    176c:	c0 fe       	sbrs	r12, 0
    176e:	09 c0       	rjmp	.+18     	; 0x1782 <get_fat+0xd4>
    1770:	72 95       	swap	r23
    1772:	62 95       	swap	r22
    1774:	6f 70       	andi	r22, 0x0F	; 15
    1776:	67 27       	eor	r22, r23
    1778:	7f 70       	andi	r23, 0x0F	; 15
    177a:	67 27       	eor	r22, r23
    177c:	80 e0       	ldi	r24, 0x00	; 0
    177e:	90 e0       	ldi	r25, 0x00	; 0
    1780:	67 c0       	rjmp	.+206    	; 0x1850 <get_fat+0x1a2>
    1782:	7f 70       	andi	r23, 0x0F	; 15
    1784:	80 e0       	ldi	r24, 0x00	; 0
    1786:	90 e0       	ldi	r25, 0x00	; 0
    1788:	63 c0       	rjmp	.+198    	; 0x1850 <get_fat+0x1a2>
    178a:	45 2f       	mov	r20, r21
    178c:	56 2f       	mov	r21, r22
    178e:	67 2f       	mov	r22, r23
    1790:	77 27       	eor	r23, r23
    1792:	8b a1       	ldd	r24, Y+35	; 0x23
    1794:	9c a1       	ldd	r25, Y+36	; 0x24
    1796:	ad a1       	ldd	r26, Y+37	; 0x25
    1798:	be a1       	ldd	r27, Y+38	; 0x26
    179a:	48 0f       	add	r20, r24
    179c:	59 1f       	adc	r21, r25
    179e:	6a 1f       	adc	r22, r26
    17a0:	7b 1f       	adc	r23, r27
    17a2:	ce 01       	movw	r24, r28
    17a4:	b5 dd       	rcall	.-1174   	; 0x1310 <move_window>
    17a6:	81 11       	cpse	r24, r1
    17a8:	4c c0       	rjmp	.+152    	; 0x1842 <get_fat+0x194>
    17aa:	cc 0c       	add	r12, r12
    17ac:	dd 1c       	adc	r13, r13
    17ae:	e8 94       	clt
    17b0:	c0 f8       	bld	r12, 0
    17b2:	f1 e0       	ldi	r31, 0x01	; 1
    17b4:	df 22       	and	r13, r31
    17b6:	fe 01       	movw	r30, r28
    17b8:	ec 0d       	add	r30, r12
    17ba:	fd 1d       	adc	r31, r13
    17bc:	64 a9       	ldd	r22, Z+52	; 0x34
    17be:	70 e0       	ldi	r23, 0x00	; 0
    17c0:	76 2f       	mov	r23, r22
    17c2:	66 27       	eor	r22, r22
    17c4:	83 a9       	ldd	r24, Z+51	; 0x33
    17c6:	68 2b       	or	r22, r24
    17c8:	80 e0       	ldi	r24, 0x00	; 0
    17ca:	90 e0       	ldi	r25, 0x00	; 0
    17cc:	41 c0       	rjmp	.+130    	; 0x1850 <get_fat+0x1a2>
    17ce:	8b a1       	ldd	r24, Y+35	; 0x23
    17d0:	9c a1       	ldd	r25, Y+36	; 0x24
    17d2:	ad a1       	ldd	r26, Y+37	; 0x25
    17d4:	be a1       	ldd	r27, Y+38	; 0x26
    17d6:	68 94       	set
    17d8:	16 f8       	bld	r1, 6
    17da:	76 95       	lsr	r23
    17dc:	67 95       	ror	r22
    17de:	57 95       	ror	r21
    17e0:	47 95       	ror	r20
    17e2:	16 94       	lsr	r1
    17e4:	d1 f7       	brne	.-12     	; 0x17da <get_fat+0x12c>
    17e6:	48 0f       	add	r20, r24
    17e8:	59 1f       	adc	r21, r25
    17ea:	6a 1f       	adc	r22, r26
    17ec:	7b 1f       	adc	r23, r27
    17ee:	ce 01       	movw	r24, r28
    17f0:	8f dd       	rcall	.-1250   	; 0x1310 <move_window>
    17f2:	81 11       	cpse	r24, r1
    17f4:	2a c0       	rjmp	.+84     	; 0x184a <get_fat+0x19c>
    17f6:	cc 0c       	add	r12, r12
    17f8:	dd 1c       	adc	r13, r13
    17fa:	cc 0c       	add	r12, r12
    17fc:	dd 1c       	adc	r13, r13
    17fe:	8c ef       	ldi	r24, 0xFC	; 252
    1800:	c8 22       	and	r12, r24
    1802:	81 e0       	ldi	r24, 0x01	; 1
    1804:	d8 22       	and	r13, r24
    1806:	c6 01       	movw	r24, r12
    1808:	c3 96       	adiw	r24, 0x33	; 51
    180a:	8c 0f       	add	r24, r28
    180c:	9d 1f       	adc	r25, r29
    180e:	00 dc       	rcall	.-2048   	; 0x1010 <ld_dword>
    1810:	9f 70       	andi	r25, 0x0F	; 15
    1812:	1e c0       	rjmp	.+60     	; 0x1850 <get_fat+0x1a2>
    1814:	61 e0       	ldi	r22, 0x01	; 1
    1816:	70 e0       	ldi	r23, 0x00	; 0
    1818:	80 e0       	ldi	r24, 0x00	; 0
    181a:	90 e0       	ldi	r25, 0x00	; 0
    181c:	19 c0       	rjmp	.+50     	; 0x1850 <get_fat+0x1a2>
    181e:	61 e0       	ldi	r22, 0x01	; 1
    1820:	70 e0       	ldi	r23, 0x00	; 0
    1822:	80 e0       	ldi	r24, 0x00	; 0
    1824:	90 e0       	ldi	r25, 0x00	; 0
    1826:	14 c0       	rjmp	.+40     	; 0x1850 <get_fat+0x1a2>
    1828:	61 e0       	ldi	r22, 0x01	; 1
    182a:	70 e0       	ldi	r23, 0x00	; 0
    182c:	80 e0       	ldi	r24, 0x00	; 0
    182e:	90 e0       	ldi	r25, 0x00	; 0
    1830:	0f c0       	rjmp	.+30     	; 0x1850 <get_fat+0x1a2>
    1832:	6f ef       	ldi	r22, 0xFF	; 255
    1834:	7f ef       	ldi	r23, 0xFF	; 255
    1836:	cb 01       	movw	r24, r22
    1838:	0b c0       	rjmp	.+22     	; 0x1850 <get_fat+0x1a2>
    183a:	6f ef       	ldi	r22, 0xFF	; 255
    183c:	7f ef       	ldi	r23, 0xFF	; 255
    183e:	cb 01       	movw	r24, r22
    1840:	07 c0       	rjmp	.+14     	; 0x1850 <get_fat+0x1a2>
    1842:	6f ef       	ldi	r22, 0xFF	; 255
    1844:	7f ef       	ldi	r23, 0xFF	; 255
    1846:	cb 01       	movw	r24, r22
    1848:	03 c0       	rjmp	.+6      	; 0x1850 <get_fat+0x1a2>
    184a:	6f ef       	ldi	r22, 0xFF	; 255
    184c:	7f ef       	ldi	r23, 0xFF	; 255
    184e:	cb 01       	movw	r24, r22
    1850:	df 91       	pop	r29
    1852:	cf 91       	pop	r28
    1854:	1f 91       	pop	r17
    1856:	0f 91       	pop	r16
    1858:	ff 90       	pop	r15
    185a:	ef 90       	pop	r14
    185c:	df 90       	pop	r13
    185e:	cf 90       	pop	r12
    1860:	bf 90       	pop	r11
    1862:	af 90       	pop	r10
    1864:	08 95       	ret

00001866 <dir_sdi>:
    1866:	4f 92       	push	r4
    1868:	5f 92       	push	r5
    186a:	6f 92       	push	r6
    186c:	7f 92       	push	r7
    186e:	8f 92       	push	r8
    1870:	9f 92       	push	r9
    1872:	af 92       	push	r10
    1874:	bf 92       	push	r11
    1876:	cf 92       	push	r12
    1878:	df 92       	push	r13
    187a:	ef 92       	push	r14
    187c:	ff 92       	push	r15
    187e:	0f 93       	push	r16
    1880:	1f 93       	push	r17
    1882:	cf 93       	push	r28
    1884:	df 93       	push	r29
    1886:	ec 01       	movw	r28, r24
    1888:	6a 01       	movw	r12, r20
    188a:	7b 01       	movw	r14, r22
    188c:	08 81       	ld	r16, Y
    188e:	19 81       	ldd	r17, Y+1	; 0x01
    1890:	41 15       	cp	r20, r1
    1892:	51 05       	cpc	r21, r1
    1894:	80 e2       	ldi	r24, 0x20	; 32
    1896:	68 07       	cpc	r22, r24
    1898:	71 05       	cpc	r23, r1
    189a:	08 f0       	brcs	.+2      	; 0x189e <dir_sdi+0x38>
    189c:	b0 c0       	rjmp	.+352    	; 0x19fe <dir_sdi+0x198>
    189e:	db 01       	movw	r26, r22
    18a0:	ca 01       	movw	r24, r20
    18a2:	8f 71       	andi	r24, 0x1F	; 31
    18a4:	99 27       	eor	r25, r25
    18a6:	aa 27       	eor	r26, r26
    18a8:	bb 27       	eor	r27, r27
    18aa:	89 2b       	or	r24, r25
    18ac:	8a 2b       	or	r24, r26
    18ae:	8b 2b       	or	r24, r27
    18b0:	09 f0       	breq	.+2      	; 0x18b4 <dir_sdi+0x4e>
    18b2:	a7 c0       	rjmp	.+334    	; 0x1a02 <dir_sdi+0x19c>
    18b4:	4e 87       	std	Y+14, r20	; 0x0e
    18b6:	5f 87       	std	Y+15, r21	; 0x0f
    18b8:	68 8b       	std	Y+16, r22	; 0x10
    18ba:	79 8b       	std	Y+17, r23	; 0x11
    18bc:	8e 80       	ldd	r8, Y+6	; 0x06
    18be:	9f 80       	ldd	r9, Y+7	; 0x07
    18c0:	a8 84       	ldd	r10, Y+8	; 0x08
    18c2:	b9 84       	ldd	r11, Y+9	; 0x09
    18c4:	81 14       	cp	r8, r1
    18c6:	91 04       	cpc	r9, r1
    18c8:	a1 04       	cpc	r10, r1
    18ca:	b1 04       	cpc	r11, r1
    18cc:	61 f5       	brne	.+88     	; 0x1926 <dir_sdi+0xc0>
    18ce:	f8 01       	movw	r30, r16
    18d0:	80 81       	ld	r24, Z
    18d2:	83 30       	cpi	r24, 0x03	; 3
    18d4:	40 f0       	brcs	.+16     	; 0x18e6 <dir_sdi+0x80>
    18d6:	87 a1       	ldd	r24, Z+39	; 0x27
    18d8:	90 a5       	ldd	r25, Z+40	; 0x28
    18da:	a1 a5       	ldd	r26, Z+41	; 0x29
    18dc:	b2 a5       	ldd	r27, Z+42	; 0x2a
    18de:	00 97       	sbiw	r24, 0x00	; 0
    18e0:	a1 05       	cpc	r26, r1
    18e2:	b1 05       	cpc	r27, r1
    18e4:	f1 f4       	brne	.+60     	; 0x1922 <dir_sdi+0xbc>
    18e6:	f8 01       	movw	r30, r16
    18e8:	87 81       	ldd	r24, Z+7	; 0x07
    18ea:	90 85       	ldd	r25, Z+8	; 0x08
    18ec:	a0 e0       	ldi	r26, 0x00	; 0
    18ee:	b0 e0       	ldi	r27, 0x00	; 0
    18f0:	b7 01       	movw	r22, r14
    18f2:	a6 01       	movw	r20, r12
    18f4:	68 94       	set
    18f6:	14 f8       	bld	r1, 4
    18f8:	76 95       	lsr	r23
    18fa:	67 95       	ror	r22
    18fc:	57 95       	ror	r21
    18fe:	47 95       	ror	r20
    1900:	16 94       	lsr	r1
    1902:	d1 f7       	brne	.-12     	; 0x18f8 <dir_sdi+0x92>
    1904:	48 17       	cp	r20, r24
    1906:	59 07       	cpc	r21, r25
    1908:	6a 07       	cpc	r22, r26
    190a:	7b 07       	cpc	r23, r27
    190c:	08 f0       	brcs	.+2      	; 0x1910 <dir_sdi+0xaa>
    190e:	7b c0       	rjmp	.+246    	; 0x1a06 <dir_sdi+0x1a0>
    1910:	87 a1       	ldd	r24, Z+39	; 0x27
    1912:	90 a5       	ldd	r25, Z+40	; 0x28
    1914:	a1 a5       	ldd	r26, Z+41	; 0x29
    1916:	b2 a5       	ldd	r27, Z+42	; 0x2a
    1918:	8e 8b       	std	Y+22, r24	; 0x16
    191a:	9f 8b       	std	Y+23, r25	; 0x17
    191c:	a8 8f       	std	Y+24, r26	; 0x18
    191e:	b9 8f       	std	Y+25, r27	; 0x19
    1920:	44 c0       	rjmp	.+136    	; 0x19aa <dir_sdi+0x144>
    1922:	4c 01       	movw	r8, r24
    1924:	5d 01       	movw	r10, r26
    1926:	f8 01       	movw	r30, r16
    1928:	41 84       	ldd	r4, Z+9	; 0x09
    192a:	52 84       	ldd	r5, Z+10	; 0x0a
    192c:	61 2c       	mov	r6, r1
    192e:	71 2c       	mov	r7, r1
    1930:	03 2e       	mov	r0, r19
    1932:	39 e0       	ldi	r19, 0x09	; 9
    1934:	44 0c       	add	r4, r4
    1936:	55 1c       	adc	r5, r5
    1938:	66 1c       	adc	r6, r6
    193a:	77 1c       	adc	r7, r7
    193c:	3a 95       	dec	r19
    193e:	d1 f7       	brne	.-12     	; 0x1934 <dir_sdi+0xce>
    1940:	30 2d       	mov	r19, r0
    1942:	c4 14       	cp	r12, r4
    1944:	d5 04       	cpc	r13, r5
    1946:	e6 04       	cpc	r14, r6
    1948:	f7 04       	cpc	r15, r7
    194a:	38 f1       	brcs	.+78     	; 0x199a <dir_sdi+0x134>
    194c:	b5 01       	movw	r22, r10
    194e:	a4 01       	movw	r20, r8
    1950:	ce 01       	movw	r24, r28
    1952:	ad de       	rcall	.-678    	; 0x16ae <get_fat>
    1954:	4b 01       	movw	r8, r22
    1956:	5c 01       	movw	r10, r24
    1958:	6f 3f       	cpi	r22, 0xFF	; 255
    195a:	7f 4f       	sbci	r23, 0xFF	; 255
    195c:	8f 4f       	sbci	r24, 0xFF	; 255
    195e:	9f 4f       	sbci	r25, 0xFF	; 255
    1960:	09 f4       	brne	.+2      	; 0x1964 <dir_sdi+0xfe>
    1962:	53 c0       	rjmp	.+166    	; 0x1a0a <dir_sdi+0x1a4>
    1964:	82 e0       	ldi	r24, 0x02	; 2
    1966:	88 16       	cp	r8, r24
    1968:	91 04       	cpc	r9, r1
    196a:	a1 04       	cpc	r10, r1
    196c:	b1 04       	cpc	r11, r1
    196e:	08 f4       	brcc	.+2      	; 0x1972 <dir_sdi+0x10c>
    1970:	4e c0       	rjmp	.+156    	; 0x1a0e <dir_sdi+0x1a8>
    1972:	f8 01       	movw	r30, r16
    1974:	87 89       	ldd	r24, Z+23	; 0x17
    1976:	90 8d       	ldd	r25, Z+24	; 0x18
    1978:	a1 8d       	ldd	r26, Z+25	; 0x19
    197a:	b2 8d       	ldd	r27, Z+26	; 0x1a
    197c:	88 16       	cp	r8, r24
    197e:	99 06       	cpc	r9, r25
    1980:	aa 06       	cpc	r10, r26
    1982:	bb 06       	cpc	r11, r27
    1984:	08 f0       	brcs	.+2      	; 0x1988 <dir_sdi+0x122>
    1986:	45 c0       	rjmp	.+138    	; 0x1a12 <dir_sdi+0x1ac>
    1988:	c4 18       	sub	r12, r4
    198a:	d5 08       	sbc	r13, r5
    198c:	e6 08       	sbc	r14, r6
    198e:	f7 08       	sbc	r15, r7
    1990:	c4 14       	cp	r12, r4
    1992:	d5 04       	cpc	r13, r5
    1994:	e6 04       	cpc	r14, r6
    1996:	f7 04       	cpc	r15, r7
    1998:	c8 f6       	brcc	.-78     	; 0x194c <dir_sdi+0xe6>
    199a:	b5 01       	movw	r22, r10
    199c:	a4 01       	movw	r20, r8
    199e:	c8 01       	movw	r24, r16
    19a0:	66 db       	rcall	.-2356   	; 0x106e <clust2sect>
    19a2:	6e 8b       	std	Y+22, r22	; 0x16
    19a4:	7f 8b       	std	Y+23, r23	; 0x17
    19a6:	88 8f       	std	Y+24, r24	; 0x18
    19a8:	99 8f       	std	Y+25, r25	; 0x19
    19aa:	8a 8a       	std	Y+18, r8	; 0x12
    19ac:	9b 8a       	std	Y+19, r9	; 0x13
    19ae:	ac 8a       	std	Y+20, r10	; 0x14
    19b0:	bd 8a       	std	Y+21, r11	; 0x15
    19b2:	8e 89       	ldd	r24, Y+22	; 0x16
    19b4:	9f 89       	ldd	r25, Y+23	; 0x17
    19b6:	a8 8d       	ldd	r26, Y+24	; 0x18
    19b8:	b9 8d       	ldd	r27, Y+25	; 0x19
    19ba:	00 97       	sbiw	r24, 0x00	; 0
    19bc:	a1 05       	cpc	r26, r1
    19be:	b1 05       	cpc	r27, r1
    19c0:	51 f1       	breq	.+84     	; 0x1a16 <dir_sdi+0x1b0>
    19c2:	b7 01       	movw	r22, r14
    19c4:	a6 01       	movw	r20, r12
    19c6:	03 2e       	mov	r0, r19
    19c8:	39 e0       	ldi	r19, 0x09	; 9
    19ca:	76 95       	lsr	r23
    19cc:	67 95       	ror	r22
    19ce:	57 95       	ror	r21
    19d0:	47 95       	ror	r20
    19d2:	3a 95       	dec	r19
    19d4:	d1 f7       	brne	.-12     	; 0x19ca <dir_sdi+0x164>
    19d6:	30 2d       	mov	r19, r0
    19d8:	84 0f       	add	r24, r20
    19da:	95 1f       	adc	r25, r21
    19dc:	a6 1f       	adc	r26, r22
    19de:	b7 1f       	adc	r27, r23
    19e0:	8e 8b       	std	Y+22, r24	; 0x16
    19e2:	9f 8b       	std	Y+23, r25	; 0x17
    19e4:	a8 8f       	std	Y+24, r26	; 0x18
    19e6:	b9 8f       	std	Y+25, r27	; 0x19
    19e8:	f1 e0       	ldi	r31, 0x01	; 1
    19ea:	df 22       	and	r13, r31
    19ec:	83 e3       	ldi	r24, 0x33	; 51
    19ee:	c8 0e       	add	r12, r24
    19f0:	d1 1c       	adc	r13, r1
    19f2:	0c 0d       	add	r16, r12
    19f4:	1d 1d       	adc	r17, r13
    19f6:	0a 8f       	std	Y+26, r16	; 0x1a
    19f8:	1b 8f       	std	Y+27, r17	; 0x1b
    19fa:	80 e0       	ldi	r24, 0x00	; 0
    19fc:	0d c0       	rjmp	.+26     	; 0x1a18 <dir_sdi+0x1b2>
    19fe:	82 e0       	ldi	r24, 0x02	; 2
    1a00:	0b c0       	rjmp	.+22     	; 0x1a18 <dir_sdi+0x1b2>
    1a02:	82 e0       	ldi	r24, 0x02	; 2
    1a04:	09 c0       	rjmp	.+18     	; 0x1a18 <dir_sdi+0x1b2>
    1a06:	82 e0       	ldi	r24, 0x02	; 2
    1a08:	07 c0       	rjmp	.+14     	; 0x1a18 <dir_sdi+0x1b2>
    1a0a:	81 e0       	ldi	r24, 0x01	; 1
    1a0c:	05 c0       	rjmp	.+10     	; 0x1a18 <dir_sdi+0x1b2>
    1a0e:	82 e0       	ldi	r24, 0x02	; 2
    1a10:	03 c0       	rjmp	.+6      	; 0x1a18 <dir_sdi+0x1b2>
    1a12:	82 e0       	ldi	r24, 0x02	; 2
    1a14:	01 c0       	rjmp	.+2      	; 0x1a18 <dir_sdi+0x1b2>
    1a16:	82 e0       	ldi	r24, 0x02	; 2
    1a18:	df 91       	pop	r29
    1a1a:	cf 91       	pop	r28
    1a1c:	1f 91       	pop	r17
    1a1e:	0f 91       	pop	r16
    1a20:	ff 90       	pop	r15
    1a22:	ef 90       	pop	r14
    1a24:	df 90       	pop	r13
    1a26:	cf 90       	pop	r12
    1a28:	bf 90       	pop	r11
    1a2a:	af 90       	pop	r10
    1a2c:	9f 90       	pop	r9
    1a2e:	8f 90       	pop	r8
    1a30:	7f 90       	pop	r7
    1a32:	6f 90       	pop	r6
    1a34:	5f 90       	pop	r5
    1a36:	4f 90       	pop	r4
    1a38:	08 95       	ret

00001a3a <create_chain>:
    1a3a:	4f 92       	push	r4
    1a3c:	5f 92       	push	r5
    1a3e:	6f 92       	push	r6
    1a40:	7f 92       	push	r7
    1a42:	8f 92       	push	r8
    1a44:	9f 92       	push	r9
    1a46:	af 92       	push	r10
    1a48:	bf 92       	push	r11
    1a4a:	cf 92       	push	r12
    1a4c:	df 92       	push	r13
    1a4e:	ef 92       	push	r14
    1a50:	ff 92       	push	r15
    1a52:	0f 93       	push	r16
    1a54:	1f 93       	push	r17
    1a56:	cf 93       	push	r28
    1a58:	df 93       	push	r29
    1a5a:	8c 01       	movw	r16, r24
    1a5c:	2a 01       	movw	r4, r20
    1a5e:	3b 01       	movw	r6, r22
    1a60:	fc 01       	movw	r30, r24
    1a62:	c0 81       	ld	r28, Z
    1a64:	d1 81       	ldd	r29, Z+1	; 0x01
    1a66:	41 15       	cp	r20, r1
    1a68:	51 05       	cpc	r21, r1
    1a6a:	61 05       	cpc	r22, r1
    1a6c:	71 05       	cpc	r23, r1
    1a6e:	b9 f4       	brne	.+46     	; 0x1a9e <create_chain+0x64>
    1a70:	8b 84       	ldd	r8, Y+11	; 0x0b
    1a72:	9c 84       	ldd	r9, Y+12	; 0x0c
    1a74:	ad 84       	ldd	r10, Y+13	; 0x0d
    1a76:	be 84       	ldd	r11, Y+14	; 0x0e
    1a78:	81 14       	cp	r8, r1
    1a7a:	91 04       	cpc	r9, r1
    1a7c:	a1 04       	cpc	r10, r1
    1a7e:	b1 04       	cpc	r11, r1
    1a80:	51 f1       	breq	.+84     	; 0x1ad6 <create_chain+0x9c>
    1a82:	8f 89       	ldd	r24, Y+23	; 0x17
    1a84:	98 8d       	ldd	r25, Y+24	; 0x18
    1a86:	a9 8d       	ldd	r26, Y+25	; 0x19
    1a88:	ba 8d       	ldd	r27, Y+26	; 0x1a
    1a8a:	88 16       	cp	r8, r24
    1a8c:	99 06       	cpc	r9, r25
    1a8e:	aa 06       	cpc	r10, r26
    1a90:	bb 06       	cpc	r11, r27
    1a92:	28 f1       	brcs	.+74     	; 0x1ade <create_chain+0xa4>
    1a94:	81 2c       	mov	r8, r1
    1a96:	91 2c       	mov	r9, r1
    1a98:	54 01       	movw	r10, r8
    1a9a:	83 94       	inc	r8
    1a9c:	20 c0       	rjmp	.+64     	; 0x1ade <create_chain+0xa4>
    1a9e:	07 de       	rcall	.-1010   	; 0x16ae <get_fat>
    1aa0:	6b 01       	movw	r12, r22
    1aa2:	7c 01       	movw	r14, r24
    1aa4:	62 30       	cpi	r22, 0x02	; 2
    1aa6:	71 05       	cpc	r23, r1
    1aa8:	81 05       	cpc	r24, r1
    1aaa:	91 05       	cpc	r25, r1
    1aac:	08 f4       	brcc	.+2      	; 0x1ab0 <create_chain+0x76>
    1aae:	95 c0       	rjmp	.+298    	; 0x1bda <create_chain+0x1a0>
    1ab0:	6f 3f       	cpi	r22, 0xFF	; 255
    1ab2:	7f 4f       	sbci	r23, 0xFF	; 255
    1ab4:	8f 4f       	sbci	r24, 0xFF	; 255
    1ab6:	9f 4f       	sbci	r25, 0xFF	; 255
    1ab8:	09 f4       	brne	.+2      	; 0x1abc <create_chain+0x82>
    1aba:	94 c0       	rjmp	.+296    	; 0x1be4 <create_chain+0x1aa>
    1abc:	8f 89       	ldd	r24, Y+23	; 0x17
    1abe:	98 8d       	ldd	r25, Y+24	; 0x18
    1ac0:	a9 8d       	ldd	r26, Y+25	; 0x19
    1ac2:	ba 8d       	ldd	r27, Y+26	; 0x1a
    1ac4:	c8 16       	cp	r12, r24
    1ac6:	d9 06       	cpc	r13, r25
    1ac8:	ea 06       	cpc	r14, r26
    1aca:	fb 06       	cpc	r15, r27
    1acc:	08 f4       	brcc	.+2      	; 0x1ad0 <create_chain+0x96>
    1ace:	8f c0       	rjmp	.+286    	; 0x1bee <create_chain+0x1b4>
    1ad0:	53 01       	movw	r10, r6
    1ad2:	42 01       	movw	r8, r4
    1ad4:	04 c0       	rjmp	.+8      	; 0x1ade <create_chain+0xa4>
    1ad6:	81 2c       	mov	r8, r1
    1ad8:	91 2c       	mov	r9, r1
    1ada:	54 01       	movw	r10, r8
    1adc:	83 94       	inc	r8
    1ade:	75 01       	movw	r14, r10
    1ae0:	64 01       	movw	r12, r8
    1ae2:	8f ef       	ldi	r24, 0xFF	; 255
    1ae4:	c8 1a       	sub	r12, r24
    1ae6:	d8 0a       	sbc	r13, r24
    1ae8:	e8 0a       	sbc	r14, r24
    1aea:	f8 0a       	sbc	r15, r24
    1aec:	8f 89       	ldd	r24, Y+23	; 0x17
    1aee:	98 8d       	ldd	r25, Y+24	; 0x18
    1af0:	a9 8d       	ldd	r26, Y+25	; 0x19
    1af2:	ba 8d       	ldd	r27, Y+26	; 0x1a
    1af4:	c8 16       	cp	r12, r24
    1af6:	d9 06       	cpc	r13, r25
    1af8:	ea 06       	cpc	r14, r26
    1afa:	fb 06       	cpc	r15, r27
    1afc:	60 f0       	brcs	.+24     	; 0x1b16 <create_chain+0xdc>
    1afe:	e2 e0       	ldi	r30, 0x02	; 2
    1b00:	8e 16       	cp	r8, r30
    1b02:	91 04       	cpc	r9, r1
    1b04:	a1 04       	cpc	r10, r1
    1b06:	b1 04       	cpc	r11, r1
    1b08:	08 f4       	brcc	.+2      	; 0x1b0c <create_chain+0xd2>
    1b0a:	76 c0       	rjmp	.+236    	; 0x1bf8 <create_chain+0x1be>
    1b0c:	c1 2c       	mov	r12, r1
    1b0e:	d1 2c       	mov	r13, r1
    1b10:	76 01       	movw	r14, r12
    1b12:	68 94       	set
    1b14:	c1 f8       	bld	r12, 1
    1b16:	b7 01       	movw	r22, r14
    1b18:	a6 01       	movw	r20, r12
    1b1a:	c8 01       	movw	r24, r16
    1b1c:	c8 dd       	rcall	.-1136   	; 0x16ae <get_fat>
    1b1e:	61 15       	cp	r22, r1
    1b20:	71 05       	cpc	r23, r1
    1b22:	81 05       	cpc	r24, r1
    1b24:	91 05       	cpc	r25, r1
    1b26:	91 f0       	breq	.+36     	; 0x1b4c <create_chain+0x112>
    1b28:	61 30       	cpi	r22, 0x01	; 1
    1b2a:	71 05       	cpc	r23, r1
    1b2c:	81 05       	cpc	r24, r1
    1b2e:	91 05       	cpc	r25, r1
    1b30:	09 f4       	brne	.+2      	; 0x1b34 <create_chain+0xfa>
    1b32:	67 c0       	rjmp	.+206    	; 0x1c02 <create_chain+0x1c8>
    1b34:	6f 3f       	cpi	r22, 0xFF	; 255
    1b36:	7f 4f       	sbci	r23, 0xFF	; 255
    1b38:	8f 4f       	sbci	r24, 0xFF	; 255
    1b3a:	9f 4f       	sbci	r25, 0xFF	; 255
    1b3c:	09 f4       	brne	.+2      	; 0x1b40 <create_chain+0x106>
    1b3e:	66 c0       	rjmp	.+204    	; 0x1c0c <create_chain+0x1d2>
    1b40:	c8 14       	cp	r12, r8
    1b42:	d9 04       	cpc	r13, r9
    1b44:	ea 04       	cpc	r14, r10
    1b46:	fb 04       	cpc	r15, r11
    1b48:	61 f6       	brne	.-104    	; 0x1ae2 <create_chain+0xa8>
    1b4a:	65 c0       	rjmp	.+202    	; 0x1c16 <create_chain+0x1dc>
    1b4c:	8c 2c       	mov	r8, r12
    1b4e:	9d 2c       	mov	r9, r13
    1b50:	ae 2c       	mov	r10, r14
    1b52:	bf 2c       	mov	r11, r15
    1b54:	0f ef       	ldi	r16, 0xFF	; 255
    1b56:	1f ef       	ldi	r17, 0xFF	; 255
    1b58:	98 01       	movw	r18, r16
    1b5a:	b7 01       	movw	r22, r14
    1b5c:	a6 01       	movw	r20, r12
    1b5e:	ce 01       	movw	r24, r28
    1b60:	80 dc       	rcall	.-1792   	; 0x1462 <put_fat>
    1b62:	81 11       	cpse	r24, r1
    1b64:	33 c0       	rjmp	.+102    	; 0x1bcc <create_chain+0x192>
    1b66:	41 14       	cp	r4, r1
    1b68:	51 04       	cpc	r5, r1
    1b6a:	61 04       	cpc	r6, r1
    1b6c:	71 04       	cpc	r7, r1
    1b6e:	51 f0       	breq	.+20     	; 0x1b84 <create_chain+0x14a>
    1b70:	0c 2d       	mov	r16, r12
    1b72:	1d 2d       	mov	r17, r13
    1b74:	2e 2d       	mov	r18, r14
    1b76:	3f 2d       	mov	r19, r15
    1b78:	b3 01       	movw	r22, r6
    1b7a:	a2 01       	movw	r20, r4
    1b7c:	ce 01       	movw	r24, r28
    1b7e:	71 dc       	rcall	.-1822   	; 0x1462 <put_fat>
    1b80:	81 11       	cpse	r24, r1
    1b82:	24 c0       	rjmp	.+72     	; 0x1bcc <create_chain+0x192>
    1b84:	8b 86       	std	Y+11, r8	; 0x0b
    1b86:	9c 86       	std	Y+12, r9	; 0x0c
    1b88:	ad 86       	std	Y+13, r10	; 0x0d
    1b8a:	be 86       	std	Y+14, r11	; 0x0e
    1b8c:	4f 85       	ldd	r20, Y+15	; 0x0f
    1b8e:	58 89       	ldd	r21, Y+16	; 0x10
    1b90:	69 89       	ldd	r22, Y+17	; 0x11
    1b92:	7a 89       	ldd	r23, Y+18	; 0x12
    1b94:	8f 89       	ldd	r24, Y+23	; 0x17
    1b96:	98 8d       	ldd	r25, Y+24	; 0x18
    1b98:	a9 8d       	ldd	r26, Y+25	; 0x19
    1b9a:	ba 8d       	ldd	r27, Y+26	; 0x1a
    1b9c:	02 97       	sbiw	r24, 0x02	; 2
    1b9e:	a1 09       	sbc	r26, r1
    1ba0:	b1 09       	sbc	r27, r1
    1ba2:	48 17       	cp	r20, r24
    1ba4:	59 07       	cpc	r21, r25
    1ba6:	6a 07       	cpc	r22, r26
    1ba8:	7b 07       	cpc	r23, r27
    1baa:	40 f4       	brcc	.+16     	; 0x1bbc <create_chain+0x182>
    1bac:	41 50       	subi	r20, 0x01	; 1
    1bae:	51 09       	sbc	r21, r1
    1bb0:	61 09       	sbc	r22, r1
    1bb2:	71 09       	sbc	r23, r1
    1bb4:	4f 87       	std	Y+15, r20	; 0x0f
    1bb6:	58 8b       	std	Y+16, r21	; 0x10
    1bb8:	69 8b       	std	Y+17, r22	; 0x11
    1bba:	7a 8b       	std	Y+18, r23	; 0x12
    1bbc:	8c 81       	ldd	r24, Y+4	; 0x04
    1bbe:	81 60       	ori	r24, 0x01	; 1
    1bc0:	8c 83       	std	Y+4, r24	; 0x04
    1bc2:	6c 2d       	mov	r22, r12
    1bc4:	7d 2d       	mov	r23, r13
    1bc6:	8e 2d       	mov	r24, r14
    1bc8:	9f 2d       	mov	r25, r15
    1bca:	2e c0       	rjmp	.+92     	; 0x1c28 <create_chain+0x1ee>
    1bcc:	81 30       	cpi	r24, 0x01	; 1
    1bce:	41 f1       	breq	.+80     	; 0x1c20 <create_chain+0x1e6>
    1bd0:	61 e0       	ldi	r22, 0x01	; 1
    1bd2:	70 e0       	ldi	r23, 0x00	; 0
    1bd4:	80 e0       	ldi	r24, 0x00	; 0
    1bd6:	90 e0       	ldi	r25, 0x00	; 0
    1bd8:	27 c0       	rjmp	.+78     	; 0x1c28 <create_chain+0x1ee>
    1bda:	61 e0       	ldi	r22, 0x01	; 1
    1bdc:	70 e0       	ldi	r23, 0x00	; 0
    1bde:	80 e0       	ldi	r24, 0x00	; 0
    1be0:	90 e0       	ldi	r25, 0x00	; 0
    1be2:	22 c0       	rjmp	.+68     	; 0x1c28 <create_chain+0x1ee>
    1be4:	6f ef       	ldi	r22, 0xFF	; 255
    1be6:	7f ef       	ldi	r23, 0xFF	; 255
    1be8:	8f ef       	ldi	r24, 0xFF	; 255
    1bea:	9f ef       	ldi	r25, 0xFF	; 255
    1bec:	1d c0       	rjmp	.+58     	; 0x1c28 <create_chain+0x1ee>
    1bee:	6c 2d       	mov	r22, r12
    1bf0:	7d 2d       	mov	r23, r13
    1bf2:	8e 2d       	mov	r24, r14
    1bf4:	9f 2d       	mov	r25, r15
    1bf6:	18 c0       	rjmp	.+48     	; 0x1c28 <create_chain+0x1ee>
    1bf8:	60 e0       	ldi	r22, 0x00	; 0
    1bfa:	70 e0       	ldi	r23, 0x00	; 0
    1bfc:	80 e0       	ldi	r24, 0x00	; 0
    1bfe:	90 e0       	ldi	r25, 0x00	; 0
    1c00:	13 c0       	rjmp	.+38     	; 0x1c28 <create_chain+0x1ee>
    1c02:	61 e0       	ldi	r22, 0x01	; 1
    1c04:	70 e0       	ldi	r23, 0x00	; 0
    1c06:	80 e0       	ldi	r24, 0x00	; 0
    1c08:	90 e0       	ldi	r25, 0x00	; 0
    1c0a:	0e c0       	rjmp	.+28     	; 0x1c28 <create_chain+0x1ee>
    1c0c:	6f ef       	ldi	r22, 0xFF	; 255
    1c0e:	7f ef       	ldi	r23, 0xFF	; 255
    1c10:	8f ef       	ldi	r24, 0xFF	; 255
    1c12:	9f ef       	ldi	r25, 0xFF	; 255
    1c14:	09 c0       	rjmp	.+18     	; 0x1c28 <create_chain+0x1ee>
    1c16:	60 e0       	ldi	r22, 0x00	; 0
    1c18:	70 e0       	ldi	r23, 0x00	; 0
    1c1a:	80 e0       	ldi	r24, 0x00	; 0
    1c1c:	90 e0       	ldi	r25, 0x00	; 0
    1c1e:	04 c0       	rjmp	.+8      	; 0x1c28 <create_chain+0x1ee>
    1c20:	6f ef       	ldi	r22, 0xFF	; 255
    1c22:	7f ef       	ldi	r23, 0xFF	; 255
    1c24:	8f ef       	ldi	r24, 0xFF	; 255
    1c26:	9f ef       	ldi	r25, 0xFF	; 255
    1c28:	df 91       	pop	r29
    1c2a:	cf 91       	pop	r28
    1c2c:	1f 91       	pop	r17
    1c2e:	0f 91       	pop	r16
    1c30:	ff 90       	pop	r15
    1c32:	ef 90       	pop	r14
    1c34:	df 90       	pop	r13
    1c36:	cf 90       	pop	r12
    1c38:	bf 90       	pop	r11
    1c3a:	af 90       	pop	r10
    1c3c:	9f 90       	pop	r9
    1c3e:	8f 90       	pop	r8
    1c40:	7f 90       	pop	r7
    1c42:	6f 90       	pop	r6
    1c44:	5f 90       	pop	r5
    1c46:	4f 90       	pop	r4
    1c48:	08 95       	ret

00001c4a <remove_chain>:
    1c4a:	4f 92       	push	r4
    1c4c:	5f 92       	push	r5
    1c4e:	6f 92       	push	r6
    1c50:	7f 92       	push	r7
    1c52:	af 92       	push	r10
    1c54:	bf 92       	push	r11
    1c56:	cf 92       	push	r12
    1c58:	df 92       	push	r13
    1c5a:	ef 92       	push	r14
    1c5c:	ff 92       	push	r15
    1c5e:	0f 93       	push	r16
    1c60:	1f 93       	push	r17
    1c62:	cf 93       	push	r28
    1c64:	df 93       	push	r29
    1c66:	5c 01       	movw	r10, r24
    1c68:	6a 01       	movw	r12, r20
    1c6a:	7b 01       	movw	r14, r22
    1c6c:	b9 01       	movw	r22, r18
    1c6e:	a8 01       	movw	r20, r16
    1c70:	fc 01       	movw	r30, r24
    1c72:	c0 81       	ld	r28, Z
    1c74:	d1 81       	ldd	r29, Z+1	; 0x01
    1c76:	f2 e0       	ldi	r31, 0x02	; 2
    1c78:	cf 16       	cp	r12, r31
    1c7a:	d1 04       	cpc	r13, r1
    1c7c:	e1 04       	cpc	r14, r1
    1c7e:	f1 04       	cpc	r15, r1
    1c80:	08 f4       	brcc	.+2      	; 0x1c84 <remove_chain+0x3a>
    1c82:	5d c0       	rjmp	.+186    	; 0x1d3e <remove_chain+0xf4>
    1c84:	8f 89       	ldd	r24, Y+23	; 0x17
    1c86:	98 8d       	ldd	r25, Y+24	; 0x18
    1c88:	a9 8d       	ldd	r26, Y+25	; 0x19
    1c8a:	ba 8d       	ldd	r27, Y+26	; 0x1a
    1c8c:	c8 16       	cp	r12, r24
    1c8e:	d9 06       	cpc	r13, r25
    1c90:	ea 06       	cpc	r14, r26
    1c92:	fb 06       	cpc	r15, r27
    1c94:	08 f0       	brcs	.+2      	; 0x1c98 <remove_chain+0x4e>
    1c96:	55 c0       	rjmp	.+170    	; 0x1d42 <remove_chain+0xf8>
    1c98:	01 2b       	or	r16, r17
    1c9a:	02 2b       	or	r16, r18
    1c9c:	03 2b       	or	r16, r19
    1c9e:	39 f0       	breq	.+14     	; 0x1cae <remove_chain+0x64>
    1ca0:	0f ef       	ldi	r16, 0xFF	; 255
    1ca2:	1f ef       	ldi	r17, 0xFF	; 255
    1ca4:	98 01       	movw	r18, r16
    1ca6:	ce 01       	movw	r24, r28
    1ca8:	dc db       	rcall	.-2120   	; 0x1462 <put_fat>
    1caa:	81 11       	cpse	r24, r1
    1cac:	51 c0       	rjmp	.+162    	; 0x1d50 <remove_chain+0x106>
    1cae:	b7 01       	movw	r22, r14
    1cb0:	a6 01       	movw	r20, r12
    1cb2:	c5 01       	movw	r24, r10
    1cb4:	fc dc       	rcall	.-1544   	; 0x16ae <get_fat>
    1cb6:	2b 01       	movw	r4, r22
    1cb8:	3c 01       	movw	r6, r24
    1cba:	61 15       	cp	r22, r1
    1cbc:	71 05       	cpc	r23, r1
    1cbe:	81 05       	cpc	r24, r1
    1cc0:	91 05       	cpc	r25, r1
    1cc2:	09 f4       	brne	.+2      	; 0x1cc6 <remove_chain+0x7c>
    1cc4:	40 c0       	rjmp	.+128    	; 0x1d46 <remove_chain+0xfc>
    1cc6:	61 30       	cpi	r22, 0x01	; 1
    1cc8:	71 05       	cpc	r23, r1
    1cca:	81 05       	cpc	r24, r1
    1ccc:	91 05       	cpc	r25, r1
    1cce:	e9 f1       	breq	.+122    	; 0x1d4a <remove_chain+0x100>
    1cd0:	8f ef       	ldi	r24, 0xFF	; 255
    1cd2:	48 16       	cp	r4, r24
    1cd4:	58 06       	cpc	r5, r24
    1cd6:	68 06       	cpc	r6, r24
    1cd8:	78 06       	cpc	r7, r24
    1cda:	c9 f1       	breq	.+114    	; 0x1d4e <remove_chain+0x104>
    1cdc:	00 e0       	ldi	r16, 0x00	; 0
    1cde:	10 e0       	ldi	r17, 0x00	; 0
    1ce0:	98 01       	movw	r18, r16
    1ce2:	b7 01       	movw	r22, r14
    1ce4:	a6 01       	movw	r20, r12
    1ce6:	ce 01       	movw	r24, r28
    1ce8:	bc db       	rcall	.-2184   	; 0x1462 <put_fat>
    1cea:	81 11       	cpse	r24, r1
    1cec:	31 c0       	rjmp	.+98     	; 0x1d50 <remove_chain+0x106>
    1cee:	8f 85       	ldd	r24, Y+15	; 0x0f
    1cf0:	98 89       	ldd	r25, Y+16	; 0x10
    1cf2:	a9 89       	ldd	r26, Y+17	; 0x11
    1cf4:	ba 89       	ldd	r27, Y+18	; 0x12
    1cf6:	4f 89       	ldd	r20, Y+23	; 0x17
    1cf8:	58 8d       	ldd	r21, Y+24	; 0x18
    1cfa:	69 8d       	ldd	r22, Y+25	; 0x19
    1cfc:	7a 8d       	ldd	r23, Y+26	; 0x1a
    1cfe:	6a 01       	movw	r12, r20
    1d00:	7b 01       	movw	r14, r22
    1d02:	e2 e0       	ldi	r30, 0x02	; 2
    1d04:	ce 1a       	sub	r12, r30
    1d06:	d1 08       	sbc	r13, r1
    1d08:	e1 08       	sbc	r14, r1
    1d0a:	f1 08       	sbc	r15, r1
    1d0c:	8c 15       	cp	r24, r12
    1d0e:	9d 05       	cpc	r25, r13
    1d10:	ae 05       	cpc	r26, r14
    1d12:	bf 05       	cpc	r27, r15
    1d14:	50 f4       	brcc	.+20     	; 0x1d2a <remove_chain+0xe0>
    1d16:	01 96       	adiw	r24, 0x01	; 1
    1d18:	a1 1d       	adc	r26, r1
    1d1a:	b1 1d       	adc	r27, r1
    1d1c:	8f 87       	std	Y+15, r24	; 0x0f
    1d1e:	98 8b       	std	Y+16, r25	; 0x10
    1d20:	a9 8b       	std	Y+17, r26	; 0x11
    1d22:	ba 8b       	std	Y+18, r27	; 0x12
    1d24:	8c 81       	ldd	r24, Y+4	; 0x04
    1d26:	81 60       	ori	r24, 0x01	; 1
    1d28:	8c 83       	std	Y+4, r24	; 0x04
    1d2a:	73 01       	movw	r14, r6
    1d2c:	62 01       	movw	r12, r4
    1d2e:	44 16       	cp	r4, r20
    1d30:	55 06       	cpc	r5, r21
    1d32:	66 06       	cpc	r6, r22
    1d34:	77 06       	cpc	r7, r23
    1d36:	08 f4       	brcc	.+2      	; 0x1d3a <remove_chain+0xf0>
    1d38:	ba cf       	rjmp	.-140    	; 0x1cae <remove_chain+0x64>
    1d3a:	80 e0       	ldi	r24, 0x00	; 0
    1d3c:	09 c0       	rjmp	.+18     	; 0x1d50 <remove_chain+0x106>
    1d3e:	82 e0       	ldi	r24, 0x02	; 2
    1d40:	07 c0       	rjmp	.+14     	; 0x1d50 <remove_chain+0x106>
    1d42:	82 e0       	ldi	r24, 0x02	; 2
    1d44:	05 c0       	rjmp	.+10     	; 0x1d50 <remove_chain+0x106>
    1d46:	80 e0       	ldi	r24, 0x00	; 0
    1d48:	03 c0       	rjmp	.+6      	; 0x1d50 <remove_chain+0x106>
    1d4a:	82 e0       	ldi	r24, 0x02	; 2
    1d4c:	01 c0       	rjmp	.+2      	; 0x1d50 <remove_chain+0x106>
    1d4e:	81 e0       	ldi	r24, 0x01	; 1
    1d50:	df 91       	pop	r29
    1d52:	cf 91       	pop	r28
    1d54:	1f 91       	pop	r17
    1d56:	0f 91       	pop	r16
    1d58:	ff 90       	pop	r15
    1d5a:	ef 90       	pop	r14
    1d5c:	df 90       	pop	r13
    1d5e:	cf 90       	pop	r12
    1d60:	bf 90       	pop	r11
    1d62:	af 90       	pop	r10
    1d64:	7f 90       	pop	r7
    1d66:	6f 90       	pop	r6
    1d68:	5f 90       	pop	r5
    1d6a:	4f 90       	pop	r4
    1d6c:	08 95       	ret

00001d6e <dir_next>:
    1d6e:	4f 92       	push	r4
    1d70:	5f 92       	push	r5
    1d72:	6f 92       	push	r6
    1d74:	7f 92       	push	r7
    1d76:	9f 92       	push	r9
    1d78:	af 92       	push	r10
    1d7a:	bf 92       	push	r11
    1d7c:	cf 92       	push	r12
    1d7e:	df 92       	push	r13
    1d80:	ef 92       	push	r14
    1d82:	ff 92       	push	r15
    1d84:	0f 93       	push	r16
    1d86:	1f 93       	push	r17
    1d88:	cf 93       	push	r28
    1d8a:	df 93       	push	r29
    1d8c:	ec 01       	movw	r28, r24
    1d8e:	a8 80       	ld	r10, Y
    1d90:	b9 80       	ldd	r11, Y+1	; 0x01
    1d92:	ce 84       	ldd	r12, Y+14	; 0x0e
    1d94:	df 84       	ldd	r13, Y+15	; 0x0f
    1d96:	e8 88       	ldd	r14, Y+16	; 0x10
    1d98:	f9 88       	ldd	r15, Y+17	; 0x11
    1d9a:	8e 89       	ldd	r24, Y+22	; 0x16
    1d9c:	9f 89       	ldd	r25, Y+23	; 0x17
    1d9e:	a8 8d       	ldd	r26, Y+24	; 0x18
    1da0:	b9 8d       	ldd	r27, Y+25	; 0x19
    1da2:	00 97       	sbiw	r24, 0x00	; 0
    1da4:	a1 05       	cpc	r26, r1
    1da6:	b1 05       	cpc	r27, r1
    1da8:	09 f4       	brne	.+2      	; 0x1dac <dir_next+0x3e>
    1daa:	f5 c0       	rjmp	.+490    	; 0x1f96 <dir_next+0x228>
    1dac:	20 e2       	ldi	r18, 0x20	; 32
    1dae:	c2 0e       	add	r12, r18
    1db0:	d1 1c       	adc	r13, r1
    1db2:	e1 1c       	adc	r14, r1
    1db4:	f1 1c       	adc	r15, r1
    1db6:	c1 14       	cp	r12, r1
    1db8:	d1 04       	cpc	r13, r1
    1dba:	e0 e2       	ldi	r30, 0x20	; 32
    1dbc:	ee 06       	cpc	r14, r30
    1dbe:	f1 04       	cpc	r15, r1
    1dc0:	08 f0       	brcs	.+2      	; 0x1dc4 <dir_next+0x56>
    1dc2:	eb c0       	rjmp	.+470    	; 0x1f9a <dir_next+0x22c>
    1dc4:	8b 01       	movw	r16, r22
    1dc6:	b7 01       	movw	r22, r14
    1dc8:	a6 01       	movw	r20, r12
    1dca:	51 70       	andi	r21, 0x01	; 1
    1dcc:	66 27       	eor	r22, r22
    1dce:	77 27       	eor	r23, r23
    1dd0:	45 2b       	or	r20, r21
    1dd2:	46 2b       	or	r20, r22
    1dd4:	47 2b       	or	r20, r23
    1dd6:	09 f0       	breq	.+2      	; 0x1dda <dir_next+0x6c>
    1dd8:	cf c0       	rjmp	.+414    	; 0x1f78 <dir_next+0x20a>
    1dda:	01 96       	adiw	r24, 0x01	; 1
    1ddc:	a1 1d       	adc	r26, r1
    1dde:	b1 1d       	adc	r27, r1
    1de0:	8e 8b       	std	Y+22, r24	; 0x16
    1de2:	9f 8b       	std	Y+23, r25	; 0x17
    1de4:	a8 8f       	std	Y+24, r26	; 0x18
    1de6:	b9 8f       	std	Y+25, r27	; 0x19
    1de8:	4a 89       	ldd	r20, Y+18	; 0x12
    1dea:	5b 89       	ldd	r21, Y+19	; 0x13
    1dec:	6c 89       	ldd	r22, Y+20	; 0x14
    1dee:	7d 89       	ldd	r23, Y+21	; 0x15
    1df0:	41 15       	cp	r20, r1
    1df2:	51 05       	cpc	r21, r1
    1df4:	61 05       	cpc	r22, r1
    1df6:	71 05       	cpc	r23, r1
    1df8:	d9 f4       	brne	.+54     	; 0x1e30 <dir_next+0xc2>
    1dfa:	f5 01       	movw	r30, r10
    1dfc:	87 81       	ldd	r24, Z+7	; 0x07
    1dfe:	90 85       	ldd	r25, Z+8	; 0x08
    1e00:	a0 e0       	ldi	r26, 0x00	; 0
    1e02:	b0 e0       	ldi	r27, 0x00	; 0
    1e04:	b7 01       	movw	r22, r14
    1e06:	a6 01       	movw	r20, r12
    1e08:	68 94       	set
    1e0a:	14 f8       	bld	r1, 4
    1e0c:	76 95       	lsr	r23
    1e0e:	67 95       	ror	r22
    1e10:	57 95       	ror	r21
    1e12:	47 95       	ror	r20
    1e14:	16 94       	lsr	r1
    1e16:	d1 f7       	brne	.-12     	; 0x1e0c <dir_next+0x9e>
    1e18:	48 17       	cp	r20, r24
    1e1a:	59 07       	cpc	r21, r25
    1e1c:	6a 07       	cpc	r22, r26
    1e1e:	7b 07       	cpc	r23, r27
    1e20:	08 f4       	brcc	.+2      	; 0x1e24 <dir_next+0xb6>
    1e22:	aa c0       	rjmp	.+340    	; 0x1f78 <dir_next+0x20a>
    1e24:	1e 8a       	std	Y+22, r1	; 0x16
    1e26:	1f 8a       	std	Y+23, r1	; 0x17
    1e28:	18 8e       	std	Y+24, r1	; 0x18
    1e2a:	19 8e       	std	Y+25, r1	; 0x19
    1e2c:	84 e0       	ldi	r24, 0x04	; 4
    1e2e:	c4 c0       	rjmp	.+392    	; 0x1fb8 <dir_next+0x24a>
    1e30:	f5 01       	movw	r30, r10
    1e32:	81 85       	ldd	r24, Z+9	; 0x09
    1e34:	92 85       	ldd	r25, Z+10	; 0x0a
    1e36:	01 97       	sbiw	r24, 0x01	; 1
    1e38:	a0 e0       	ldi	r26, 0x00	; 0
    1e3a:	b0 e0       	ldi	r27, 0x00	; 0
    1e3c:	26 01       	movw	r4, r12
    1e3e:	37 01       	movw	r6, r14
    1e40:	03 2e       	mov	r0, r19
    1e42:	39 e0       	ldi	r19, 0x09	; 9
    1e44:	76 94       	lsr	r7
    1e46:	67 94       	ror	r6
    1e48:	57 94       	ror	r5
    1e4a:	47 94       	ror	r4
    1e4c:	3a 95       	dec	r19
    1e4e:	d1 f7       	brne	.-12     	; 0x1e44 <dir_next+0xd6>
    1e50:	30 2d       	mov	r19, r0
    1e52:	84 21       	and	r24, r4
    1e54:	95 21       	and	r25, r5
    1e56:	a6 21       	and	r26, r6
    1e58:	b7 21       	and	r27, r7
    1e5a:	89 2b       	or	r24, r25
    1e5c:	8a 2b       	or	r24, r26
    1e5e:	8b 2b       	or	r24, r27
    1e60:	09 f0       	breq	.+2      	; 0x1e64 <dir_next+0xf6>
    1e62:	8a c0       	rjmp	.+276    	; 0x1f78 <dir_next+0x20a>
    1e64:	ce 01       	movw	r24, r28
    1e66:	23 dc       	rcall	.-1978   	; 0x16ae <get_fat>
    1e68:	2b 01       	movw	r4, r22
    1e6a:	3c 01       	movw	r6, r24
    1e6c:	62 30       	cpi	r22, 0x02	; 2
    1e6e:	71 05       	cpc	r23, r1
    1e70:	81 05       	cpc	r24, r1
    1e72:	91 05       	cpc	r25, r1
    1e74:	08 f4       	brcc	.+2      	; 0x1e78 <dir_next+0x10a>
    1e76:	93 c0       	rjmp	.+294    	; 0x1f9e <dir_next+0x230>
    1e78:	6f 3f       	cpi	r22, 0xFF	; 255
    1e7a:	7f 4f       	sbci	r23, 0xFF	; 255
    1e7c:	8f 4f       	sbci	r24, 0xFF	; 255
    1e7e:	9f 4f       	sbci	r25, 0xFF	; 255
    1e80:	09 f4       	brne	.+2      	; 0x1e84 <dir_next+0x116>
    1e82:	8f c0       	rjmp	.+286    	; 0x1fa2 <dir_next+0x234>
    1e84:	f5 01       	movw	r30, r10
    1e86:	87 89       	ldd	r24, Z+23	; 0x17
    1e88:	90 8d       	ldd	r25, Z+24	; 0x18
    1e8a:	a1 8d       	ldd	r26, Z+25	; 0x19
    1e8c:	b2 8d       	ldd	r27, Z+26	; 0x1a
    1e8e:	48 16       	cp	r4, r24
    1e90:	59 06       	cpc	r5, r25
    1e92:	6a 06       	cpc	r6, r26
    1e94:	7b 06       	cpc	r7, r27
    1e96:	08 f4       	brcc	.+2      	; 0x1e9a <dir_next+0x12c>
    1e98:	63 c0       	rjmp	.+198    	; 0x1f60 <dir_next+0x1f2>
    1e9a:	01 2b       	or	r16, r17
    1e9c:	31 f4       	brne	.+12     	; 0x1eaa <dir_next+0x13c>
    1e9e:	1e 8a       	std	Y+22, r1	; 0x16
    1ea0:	1f 8a       	std	Y+23, r1	; 0x17
    1ea2:	18 8e       	std	Y+24, r1	; 0x18
    1ea4:	19 8e       	std	Y+25, r1	; 0x19
    1ea6:	84 e0       	ldi	r24, 0x04	; 4
    1ea8:	87 c0       	rjmp	.+270    	; 0x1fb8 <dir_next+0x24a>
    1eaa:	4a 89       	ldd	r20, Y+18	; 0x12
    1eac:	5b 89       	ldd	r21, Y+19	; 0x13
    1eae:	6c 89       	ldd	r22, Y+20	; 0x14
    1eb0:	7d 89       	ldd	r23, Y+21	; 0x15
    1eb2:	ce 01       	movw	r24, r28
    1eb4:	c2 dd       	rcall	.-1148   	; 0x1a3a <create_chain>
    1eb6:	2b 01       	movw	r4, r22
    1eb8:	3c 01       	movw	r6, r24
    1eba:	61 15       	cp	r22, r1
    1ebc:	71 05       	cpc	r23, r1
    1ebe:	81 05       	cpc	r24, r1
    1ec0:	91 05       	cpc	r25, r1
    1ec2:	09 f4       	brne	.+2      	; 0x1ec6 <dir_next+0x158>
    1ec4:	70 c0       	rjmp	.+224    	; 0x1fa6 <dir_next+0x238>
    1ec6:	61 30       	cpi	r22, 0x01	; 1
    1ec8:	71 05       	cpc	r23, r1
    1eca:	81 05       	cpc	r24, r1
    1ecc:	91 05       	cpc	r25, r1
    1ece:	09 f4       	brne	.+2      	; 0x1ed2 <dir_next+0x164>
    1ed0:	6c c0       	rjmp	.+216    	; 0x1faa <dir_next+0x23c>
    1ed2:	6f 3f       	cpi	r22, 0xFF	; 255
    1ed4:	7f 4f       	sbci	r23, 0xFF	; 255
    1ed6:	8f 4f       	sbci	r24, 0xFF	; 255
    1ed8:	9f 4f       	sbci	r25, 0xFF	; 255
    1eda:	09 f4       	brne	.+2      	; 0x1ede <dir_next+0x170>
    1edc:	68 c0       	rjmp	.+208    	; 0x1fae <dir_next+0x240>
    1ede:	c5 01       	movw	r24, r10
    1ee0:	ac d9       	rcall	.-3240   	; 0x123a <sync_window>
    1ee2:	81 11       	cpse	r24, r1
    1ee4:	66 c0       	rjmp	.+204    	; 0x1fb2 <dir_next+0x244>
    1ee6:	f5 01       	movw	r30, r10
    1ee8:	f3 96       	adiw	r30, 0x33	; 51
    1eea:	c5 01       	movw	r24, r10
    1eec:	8d 5c       	subi	r24, 0xCD	; 205
    1eee:	9d 4f       	sbci	r25, 0xFD	; 253
    1ef0:	11 92       	st	Z+, r1
    1ef2:	e8 17       	cp	r30, r24
    1ef4:	f9 07       	cpc	r31, r25
    1ef6:	e1 f7       	brne	.-8      	; 0x1ef0 <dir_next+0x182>
    1ef8:	b3 01       	movw	r22, r6
    1efa:	a2 01       	movw	r20, r4
    1efc:	c5 01       	movw	r24, r10
    1efe:	b7 d8       	rcall	.-3730   	; 0x106e <clust2sect>
    1f00:	f5 01       	movw	r30, r10
    1f02:	67 a7       	std	Z+47, r22	; 0x2f
    1f04:	70 ab       	std	Z+48, r23	; 0x30
    1f06:	81 ab       	std	Z+49, r24	; 0x31
    1f08:	92 ab       	std	Z+50, r25	; 0x32
    1f0a:	00 e0       	ldi	r16, 0x00	; 0
    1f0c:	10 e0       	ldi	r17, 0x00	; 0
    1f0e:	99 24       	eor	r9, r9
    1f10:	93 94       	inc	r9
    1f12:	14 c0       	rjmp	.+40     	; 0x1f3c <dir_next+0x1ce>
    1f14:	f5 01       	movw	r30, r10
    1f16:	93 82       	std	Z+3, r9	; 0x03
    1f18:	c5 01       	movw	r24, r10
    1f1a:	8f d9       	rcall	.-3298   	; 0x123a <sync_window>
    1f1c:	81 11       	cpse	r24, r1
    1f1e:	4b c0       	rjmp	.+150    	; 0x1fb6 <dir_next+0x248>
    1f20:	0f 5f       	subi	r16, 0xFF	; 255
    1f22:	1f 4f       	sbci	r17, 0xFF	; 255
    1f24:	f5 01       	movw	r30, r10
    1f26:	87 a5       	ldd	r24, Z+47	; 0x2f
    1f28:	90 a9       	ldd	r25, Z+48	; 0x30
    1f2a:	a1 a9       	ldd	r26, Z+49	; 0x31
    1f2c:	b2 a9       	ldd	r27, Z+50	; 0x32
    1f2e:	01 96       	adiw	r24, 0x01	; 1
    1f30:	a1 1d       	adc	r26, r1
    1f32:	b1 1d       	adc	r27, r1
    1f34:	87 a7       	std	Z+47, r24	; 0x2f
    1f36:	90 ab       	std	Z+48, r25	; 0x30
    1f38:	a1 ab       	std	Z+49, r26	; 0x31
    1f3a:	b2 ab       	std	Z+50, r27	; 0x32
    1f3c:	f5 01       	movw	r30, r10
    1f3e:	81 85       	ldd	r24, Z+9	; 0x09
    1f40:	92 85       	ldd	r25, Z+10	; 0x0a
    1f42:	08 17       	cp	r16, r24
    1f44:	19 07       	cpc	r17, r25
    1f46:	30 f3       	brcs	.-52     	; 0x1f14 <dir_next+0x1a6>
    1f48:	87 a5       	ldd	r24, Z+47	; 0x2f
    1f4a:	90 a9       	ldd	r25, Z+48	; 0x30
    1f4c:	a1 a9       	ldd	r26, Z+49	; 0x31
    1f4e:	b2 a9       	ldd	r27, Z+50	; 0x32
    1f50:	80 1b       	sub	r24, r16
    1f52:	91 0b       	sbc	r25, r17
    1f54:	a1 09       	sbc	r26, r1
    1f56:	b1 09       	sbc	r27, r1
    1f58:	87 a7       	std	Z+47, r24	; 0x2f
    1f5a:	90 ab       	std	Z+48, r25	; 0x30
    1f5c:	a1 ab       	std	Z+49, r26	; 0x31
    1f5e:	b2 ab       	std	Z+50, r27	; 0x32
    1f60:	4a 8a       	std	Y+18, r4	; 0x12
    1f62:	5b 8a       	std	Y+19, r5	; 0x13
    1f64:	6c 8a       	std	Y+20, r6	; 0x14
    1f66:	7d 8a       	std	Y+21, r7	; 0x15
    1f68:	b3 01       	movw	r22, r6
    1f6a:	a2 01       	movw	r20, r4
    1f6c:	c5 01       	movw	r24, r10
    1f6e:	7f d8       	rcall	.-3842   	; 0x106e <clust2sect>
    1f70:	6e 8b       	std	Y+22, r22	; 0x16
    1f72:	7f 8b       	std	Y+23, r23	; 0x17
    1f74:	88 8f       	std	Y+24, r24	; 0x18
    1f76:	99 8f       	std	Y+25, r25	; 0x19
    1f78:	ce 86       	std	Y+14, r12	; 0x0e
    1f7a:	df 86       	std	Y+15, r13	; 0x0f
    1f7c:	e8 8a       	std	Y+16, r14	; 0x10
    1f7e:	f9 8a       	std	Y+17, r15	; 0x11
    1f80:	f1 e0       	ldi	r31, 0x01	; 1
    1f82:	df 22       	and	r13, r31
    1f84:	23 e3       	ldi	r18, 0x33	; 51
    1f86:	c2 0e       	add	r12, r18
    1f88:	d1 1c       	adc	r13, r1
    1f8a:	ac 0c       	add	r10, r12
    1f8c:	bd 1c       	adc	r11, r13
    1f8e:	aa 8e       	std	Y+26, r10	; 0x1a
    1f90:	bb 8e       	std	Y+27, r11	; 0x1b
    1f92:	80 e0       	ldi	r24, 0x00	; 0
    1f94:	11 c0       	rjmp	.+34     	; 0x1fb8 <dir_next+0x24a>
    1f96:	84 e0       	ldi	r24, 0x04	; 4
    1f98:	0f c0       	rjmp	.+30     	; 0x1fb8 <dir_next+0x24a>
    1f9a:	84 e0       	ldi	r24, 0x04	; 4
    1f9c:	0d c0       	rjmp	.+26     	; 0x1fb8 <dir_next+0x24a>
    1f9e:	82 e0       	ldi	r24, 0x02	; 2
    1fa0:	0b c0       	rjmp	.+22     	; 0x1fb8 <dir_next+0x24a>
    1fa2:	81 e0       	ldi	r24, 0x01	; 1
    1fa4:	09 c0       	rjmp	.+18     	; 0x1fb8 <dir_next+0x24a>
    1fa6:	87 e0       	ldi	r24, 0x07	; 7
    1fa8:	07 c0       	rjmp	.+14     	; 0x1fb8 <dir_next+0x24a>
    1faa:	82 e0       	ldi	r24, 0x02	; 2
    1fac:	05 c0       	rjmp	.+10     	; 0x1fb8 <dir_next+0x24a>
    1fae:	81 e0       	ldi	r24, 0x01	; 1
    1fb0:	03 c0       	rjmp	.+6      	; 0x1fb8 <dir_next+0x24a>
    1fb2:	81 e0       	ldi	r24, 0x01	; 1
    1fb4:	01 c0       	rjmp	.+2      	; 0x1fb8 <dir_next+0x24a>
    1fb6:	81 e0       	ldi	r24, 0x01	; 1
    1fb8:	df 91       	pop	r29
    1fba:	cf 91       	pop	r28
    1fbc:	1f 91       	pop	r17
    1fbe:	0f 91       	pop	r16
    1fc0:	ff 90       	pop	r15
    1fc2:	ef 90       	pop	r14
    1fc4:	df 90       	pop	r13
    1fc6:	cf 90       	pop	r12
    1fc8:	bf 90       	pop	r11
    1fca:	af 90       	pop	r10
    1fcc:	9f 90       	pop	r9
    1fce:	7f 90       	pop	r7
    1fd0:	6f 90       	pop	r6
    1fd2:	5f 90       	pop	r5
    1fd4:	4f 90       	pop	r4
    1fd6:	08 95       	ret

00001fd8 <dir_register>:
    1fd8:	ef 92       	push	r14
    1fda:	ff 92       	push	r15
    1fdc:	0f 93       	push	r16
    1fde:	1f 93       	push	r17
    1fe0:	cf 93       	push	r28
    1fe2:	8c 01       	movw	r16, r24
    1fe4:	dc 01       	movw	r26, r24
    1fe6:	ed 90       	ld	r14, X+
    1fe8:	fc 90       	ld	r15, X
    1fea:	40 e0       	ldi	r20, 0x00	; 0
    1fec:	50 e0       	ldi	r21, 0x00	; 0
    1fee:	ba 01       	movw	r22, r20
    1ff0:	3a dc       	rcall	.-1932   	; 0x1866 <dir_sdi>
    1ff2:	c8 2f       	mov	r28, r24
    1ff4:	81 11       	cpse	r24, r1
    1ff6:	40 c0       	rjmp	.+128    	; 0x2078 <dir_register+0xa0>
    1ff8:	f8 01       	movw	r30, r16
    1ffa:	46 89       	ldd	r20, Z+22	; 0x16
    1ffc:	57 89       	ldd	r21, Z+23	; 0x17
    1ffe:	60 8d       	ldd	r22, Z+24	; 0x18
    2000:	71 8d       	ldd	r23, Z+25	; 0x19
    2002:	c7 01       	movw	r24, r14
    2004:	85 d9       	rcall	.-3318   	; 0x1310 <move_window>
    2006:	c8 2f       	mov	r28, r24
    2008:	81 11       	cpse	r24, r1
    200a:	36 c0       	rjmp	.+108    	; 0x2078 <dir_register+0xa0>
    200c:	d8 01       	movw	r26, r16
    200e:	5a 96       	adiw	r26, 0x1a	; 26
    2010:	ed 91       	ld	r30, X+
    2012:	fc 91       	ld	r31, X
    2014:	5b 97       	sbiw	r26, 0x1b	; 27
    2016:	90 81       	ld	r25, Z
    2018:	95 3e       	cpi	r25, 0xE5	; 229
    201a:	51 f0       	breq	.+20     	; 0x2030 <dir_register+0x58>
    201c:	99 23       	and	r25, r25
    201e:	41 f0       	breq	.+16     	; 0x2030 <dir_register+0x58>
    2020:	61 e0       	ldi	r22, 0x01	; 1
    2022:	70 e0       	ldi	r23, 0x00	; 0
    2024:	c8 01       	movw	r24, r16
    2026:	a3 de       	rcall	.-698    	; 0x1d6e <dir_next>
    2028:	c8 2f       	mov	r28, r24
    202a:	88 23       	and	r24, r24
    202c:	29 f3       	breq	.-54     	; 0x1ff8 <dir_register+0x20>
    202e:	24 c0       	rjmp	.+72     	; 0x2078 <dir_register+0xa0>
    2030:	f8 01       	movw	r30, r16
    2032:	46 89       	ldd	r20, Z+22	; 0x16
    2034:	57 89       	ldd	r21, Z+23	; 0x17
    2036:	60 8d       	ldd	r22, Z+24	; 0x18
    2038:	71 8d       	ldd	r23, Z+25	; 0x19
    203a:	c7 01       	movw	r24, r14
    203c:	69 d9       	rcall	.-3374   	; 0x1310 <move_window>
    203e:	c8 2f       	mov	r28, r24
    2040:	81 11       	cpse	r24, r1
    2042:	1d c0       	rjmp	.+58     	; 0x207e <dir_register+0xa6>
    2044:	d8 01       	movw	r26, r16
    2046:	5a 96       	adiw	r26, 0x1a	; 26
    2048:	ed 91       	ld	r30, X+
    204a:	fc 91       	ld	r31, X
    204c:	5b 97       	sbiw	r26, 0x1b	; 27
    204e:	cf 01       	movw	r24, r30
    2050:	80 96       	adiw	r24, 0x20	; 32
    2052:	11 92       	st	Z+, r1
    2054:	e8 17       	cp	r30, r24
    2056:	f9 07       	cpc	r31, r25
    2058:	e1 f7       	brne	.-8      	; 0x2052 <dir_register+0x7a>
    205a:	b8 01       	movw	r22, r16
    205c:	64 5e       	subi	r22, 0xE4	; 228
    205e:	7f 4f       	sbci	r23, 0xFF	; 255
    2060:	4b e0       	ldi	r20, 0x0B	; 11
    2062:	50 e0       	ldi	r21, 0x00	; 0
    2064:	f8 01       	movw	r30, r16
    2066:	82 8d       	ldd	r24, Z+26	; 0x1a
    2068:	93 8d       	ldd	r25, Z+27	; 0x1b
    206a:	0e 94 29 08 	call	0x1052	; 0x1052 <mem_cpy>
    206e:	81 e0       	ldi	r24, 0x01	; 1
    2070:	d7 01       	movw	r26, r14
    2072:	13 96       	adiw	r26, 0x03	; 3
    2074:	8c 93       	st	X, r24
    2076:	03 c0       	rjmp	.+6      	; 0x207e <dir_register+0xa6>
    2078:	c4 30       	cpi	r28, 0x04	; 4
    207a:	09 f4       	brne	.+2      	; 0x207e <dir_register+0xa6>
    207c:	c7 e0       	ldi	r28, 0x07	; 7
    207e:	8c 2f       	mov	r24, r28
    2080:	cf 91       	pop	r28
    2082:	1f 91       	pop	r17
    2084:	0f 91       	pop	r16
    2086:	ff 90       	pop	r15
    2088:	ef 90       	pop	r14
    208a:	08 95       	ret

0000208c <check_fs>:
    208c:	cf 93       	push	r28
    208e:	df 93       	push	r29
    2090:	ec 01       	movw	r28, r24
    2092:	1b 82       	std	Y+3, r1	; 0x03
    2094:	8f ef       	ldi	r24, 0xFF	; 255
    2096:	9f ef       	ldi	r25, 0xFF	; 255
    2098:	dc 01       	movw	r26, r24
    209a:	8f a7       	std	Y+47, r24	; 0x2f
    209c:	98 ab       	std	Y+48, r25	; 0x30
    209e:	a9 ab       	std	Y+49, r26	; 0x31
    20a0:	ba ab       	std	Y+50, r27	; 0x32
    20a2:	ce 01       	movw	r24, r28
    20a4:	35 d9       	rcall	.-3478   	; 0x1310 <move_window>
    20a6:	81 11       	cpse	r24, r1
    20a8:	2e c0       	rjmp	.+92     	; 0x2106 <check_fs+0x7a>
    20aa:	fe 01       	movw	r30, r28
    20ac:	ee 5c       	subi	r30, 0xCE	; 206
    20ae:	fd 4f       	sbci	r31, 0xFD	; 253
    20b0:	80 81       	ld	r24, Z
    20b2:	90 e0       	ldi	r25, 0x00	; 0
    20b4:	98 2f       	mov	r25, r24
    20b6:	88 27       	eor	r24, r24
    20b8:	31 97       	sbiw	r30, 0x01	; 1
    20ba:	20 81       	ld	r18, Z
    20bc:	82 2b       	or	r24, r18
    20be:	85 35       	cpi	r24, 0x55	; 85
    20c0:	9a 4a       	sbci	r25, 0xAA	; 170
    20c2:	19 f5       	brne	.+70     	; 0x210a <check_fs+0x7e>
    20c4:	8b a9       	ldd	r24, Y+51	; 0x33
    20c6:	89 3e       	cpi	r24, 0xE9	; 233
    20c8:	29 f0       	breq	.+10     	; 0x20d4 <check_fs+0x48>
    20ca:	8b 3e       	cpi	r24, 0xEB	; 235
    20cc:	01 f5       	brne	.+64     	; 0x210e <check_fs+0x82>
    20ce:	8d a9       	ldd	r24, Y+53	; 0x35
    20d0:	80 39       	cpi	r24, 0x90	; 144
    20d2:	f9 f4       	brne	.+62     	; 0x2112 <check_fs+0x86>
    20d4:	ce 01       	movw	r24, r28
    20d6:	87 59       	subi	r24, 0x97	; 151
    20d8:	9f 4f       	sbci	r25, 0xFF	; 255
    20da:	0e 94 08 08 	call	0x1010	; 0x1010 <ld_dword>
    20de:	dc 01       	movw	r26, r24
    20e0:	cb 01       	movw	r24, r22
    20e2:	bb 27       	eor	r27, r27
    20e4:	86 34       	cpi	r24, 0x46	; 70
    20e6:	91 44       	sbci	r25, 0x41	; 65
    20e8:	a4 45       	sbci	r26, 0x54	; 84
    20ea:	b1 05       	cpc	r27, r1
    20ec:	a1 f0       	breq	.+40     	; 0x2116 <check_fs+0x8a>
    20ee:	ce 01       	movw	r24, r28
    20f0:	8b 57       	subi	r24, 0x7B	; 123
    20f2:	9f 4f       	sbci	r25, 0xFF	; 255
    20f4:	0e 94 08 08 	call	0x1010	; 0x1010 <ld_dword>
    20f8:	66 34       	cpi	r22, 0x46	; 70
    20fa:	71 44       	sbci	r23, 0x41	; 65
    20fc:	84 45       	sbci	r24, 0x54	; 84
    20fe:	93 43       	sbci	r25, 0x33	; 51
    2100:	61 f4       	brne	.+24     	; 0x211a <check_fs+0x8e>
    2102:	80 e0       	ldi	r24, 0x00	; 0
    2104:	0b c0       	rjmp	.+22     	; 0x211c <check_fs+0x90>
    2106:	84 e0       	ldi	r24, 0x04	; 4
    2108:	09 c0       	rjmp	.+18     	; 0x211c <check_fs+0x90>
    210a:	83 e0       	ldi	r24, 0x03	; 3
    210c:	07 c0       	rjmp	.+14     	; 0x211c <check_fs+0x90>
    210e:	82 e0       	ldi	r24, 0x02	; 2
    2110:	05 c0       	rjmp	.+10     	; 0x211c <check_fs+0x90>
    2112:	82 e0       	ldi	r24, 0x02	; 2
    2114:	03 c0       	rjmp	.+6      	; 0x211c <check_fs+0x90>
    2116:	80 e0       	ldi	r24, 0x00	; 0
    2118:	01 c0       	rjmp	.+2      	; 0x211c <check_fs+0x90>
    211a:	82 e0       	ldi	r24, 0x02	; 2
    211c:	df 91       	pop	r29
    211e:	cf 91       	pop	r28
    2120:	08 95       	ret

00002122 <find_volume>:
    2122:	2f 92       	push	r2
    2124:	3f 92       	push	r3
    2126:	4f 92       	push	r4
    2128:	5f 92       	push	r5
    212a:	6f 92       	push	r6
    212c:	7f 92       	push	r7
    212e:	8f 92       	push	r8
    2130:	9f 92       	push	r9
    2132:	af 92       	push	r10
    2134:	bf 92       	push	r11
    2136:	cf 92       	push	r12
    2138:	df 92       	push	r13
    213a:	ef 92       	push	r14
    213c:	ff 92       	push	r15
    213e:	0f 93       	push	r16
    2140:	1f 93       	push	r17
    2142:	cf 93       	push	r28
    2144:	df 93       	push	r29
    2146:	cd b7       	in	r28, 0x3d	; 61
    2148:	de b7       	in	r29, 0x3e	; 62
    214a:	6e 97       	sbiw	r28, 0x1e	; 30
    214c:	cd bf       	out	0x3d, r28	; 61
    214e:	de bf       	out	0x3e, r29	; 62
    2150:	6b 01       	movw	r12, r22
    2152:	b4 2e       	mov	r11, r20
    2154:	db 01       	movw	r26, r22
    2156:	1d 92       	st	X+, r1
    2158:	1c 92       	st	X, r1
    215a:	0d d8       	rcall	.-4070   	; 0x1176 <get_ldnumber>
    215c:	7c 01       	movw	r14, r24
    215e:	99 23       	and	r25, r25
    2160:	0c f4       	brge	.+2      	; 0x2164 <find_volume+0x42>
    2162:	39 c2       	rjmp	.+1138   	; 0x25d6 <find_volume+0x4b4>
    2164:	fc 01       	movw	r30, r24
    2166:	ee 0f       	add	r30, r30
    2168:	ff 1f       	adc	r31, r31
    216a:	ed 55       	subi	r30, 0x5D	; 93
    216c:	fb 4d       	sbci	r31, 0xDB	; 219
    216e:	00 81       	ld	r16, Z
    2170:	11 81       	ldd	r17, Z+1	; 0x01
    2172:	01 15       	cp	r16, r1
    2174:	11 05       	cpc	r17, r1
    2176:	09 f4       	brne	.+2      	; 0x217a <find_volume+0x58>
    2178:	30 c2       	rjmp	.+1120   	; 0x25da <find_volume+0x4b8>
    217a:	f6 01       	movw	r30, r12
    217c:	00 83       	st	Z, r16
    217e:	11 83       	std	Z+1, r17	; 0x01
    2180:	fb 2d       	mov	r31, r11
    2182:	fe 7f       	andi	r31, 0xFE	; 254
    2184:	bf 2e       	mov	r11, r31
    2186:	d8 01       	movw	r26, r16
    2188:	8c 91       	ld	r24, X
    218a:	88 23       	and	r24, r24
    218c:	69 f0       	breq	.+26     	; 0x21a8 <find_volume+0x86>
    218e:	11 96       	adiw	r26, 0x01	; 1
    2190:	8c 91       	ld	r24, X
    2192:	0e 94 b5 1c 	call	0x396a	; 0x396a <disk_status>
    2196:	80 fd       	sbrc	r24, 0
    2198:	07 c0       	rjmp	.+14     	; 0x21a8 <find_volume+0x86>
    219a:	bb 20       	and	r11, r11
    219c:	09 f4       	brne	.+2      	; 0x21a0 <find_volume+0x7e>
    219e:	1f c2       	rjmp	.+1086   	; 0x25de <find_volume+0x4bc>
    21a0:	82 ff       	sbrs	r24, 2
    21a2:	1f c2       	rjmp	.+1086   	; 0x25e2 <find_volume+0x4c0>
    21a4:	8a e0       	ldi	r24, 0x0A	; 10
    21a6:	de c2       	rjmp	.+1468   	; 0x2764 <find_volume+0x642>
    21a8:	f8 01       	movw	r30, r16
    21aa:	10 82       	st	Z, r1
    21ac:	e1 82       	std	Z+1, r14	; 0x01
    21ae:	8e 2d       	mov	r24, r14
    21b0:	0e 94 ad 1c 	call	0x395a	; 0x395a <disk_initialize>
    21b4:	80 fd       	sbrc	r24, 0
    21b6:	17 c2       	rjmp	.+1070   	; 0x25e6 <find_volume+0x4c4>
    21b8:	bb 20       	and	r11, r11
    21ba:	09 f4       	brne	.+2      	; 0x21be <find_volume+0x9c>
    21bc:	3a c2       	rjmp	.+1140   	; 0x2632 <find_volume+0x510>
    21be:	82 fd       	sbrc	r24, 2
    21c0:	14 c2       	rjmp	.+1064   	; 0x25ea <find_volume+0x4c8>
    21c2:	37 c2       	rjmp	.+1134   	; 0x2632 <find_volume+0x510>
    21c4:	f7 01       	movw	r30, r14
    21c6:	34 97       	sbiw	r30, 0x04	; 4
    21c8:	80 81       	ld	r24, Z
    21ca:	88 23       	and	r24, r24
    21cc:	21 f0       	breq	.+8      	; 0x21d6 <find_volume+0xb4>
    21ce:	c7 01       	movw	r24, r14
    21d0:	0e 94 08 08 	call	0x1010	; 0x1010 <ld_dword>
    21d4:	03 c0       	rjmp	.+6      	; 0x21dc <find_volume+0xba>
    21d6:	60 e0       	ldi	r22, 0x00	; 0
    21d8:	70 e0       	ldi	r23, 0x00	; 0
    21da:	cb 01       	movw	r24, r22
    21dc:	d6 01       	movw	r26, r12
    21de:	6d 93       	st	X+, r22
    21e0:	7d 93       	st	X+, r23
    21e2:	8d 93       	st	X+, r24
    21e4:	9d 93       	st	X+, r25
    21e6:	6d 01       	movw	r12, r26
    21e8:	b0 e1       	ldi	r27, 0x10	; 16
    21ea:	eb 0e       	add	r14, r27
    21ec:	f1 1c       	adc	r15, r1
    21ee:	c8 14       	cp	r12, r8
    21f0:	d9 04       	cpc	r13, r9
    21f2:	41 f7       	brne	.-48     	; 0x21c4 <find_volume+0xa2>
    21f4:	f5 01       	movw	r30, r10
    21f6:	c1 90       	ld	r12, Z+
    21f8:	d1 90       	ld	r13, Z+
    21fa:	e1 90       	ld	r14, Z+
    21fc:	f1 90       	ld	r15, Z+
    21fe:	5f 01       	movw	r10, r30
    2200:	c1 14       	cp	r12, r1
    2202:	d1 04       	cpc	r13, r1
    2204:	e1 04       	cpc	r14, r1
    2206:	f1 04       	cpc	r15, r1
    2208:	39 f0       	breq	.+14     	; 0x2218 <find_volume+0xf6>
    220a:	b7 01       	movw	r22, r14
    220c:	a6 01       	movw	r20, r12
    220e:	c8 01       	movw	r24, r16
    2210:	3d df       	rcall	.-390    	; 0x208c <check_fs>
    2212:	82 30       	cpi	r24, 0x02	; 2
    2214:	10 f4       	brcc	.+4      	; 0x221a <find_volume+0xf8>
    2216:	23 c2       	rjmp	.+1094   	; 0x265e <find_volume+0x53c>
    2218:	83 e0       	ldi	r24, 0x03	; 3
    221a:	a8 14       	cp	r10, r8
    221c:	b9 04       	cpc	r11, r9
    221e:	51 f7       	brne	.-44     	; 0x21f4 <find_volume+0xd2>
    2220:	03 c0       	rjmp	.+6      	; 0x2228 <find_volume+0x106>
    2222:	c1 2c       	mov	r12, r1
    2224:	d1 2c       	mov	r13, r1
    2226:	76 01       	movw	r14, r12
    2228:	84 30       	cpi	r24, 0x04	; 4
    222a:	09 f4       	brne	.+2      	; 0x222e <find_volume+0x10c>
    222c:	e0 c1       	rjmp	.+960    	; 0x25ee <find_volume+0x4cc>
    222e:	82 30       	cpi	r24, 0x02	; 2
    2230:	08 f0       	brcs	.+2      	; 0x2234 <find_volume+0x112>
    2232:	df c1       	rjmp	.+958    	; 0x25f2 <find_volume+0x4d0>
    2234:	d8 01       	movw	r26, r16
    2236:	df 96       	adiw	r26, 0x3f	; 63
    2238:	8c 91       	ld	r24, X
    223a:	df 97       	sbiw	r26, 0x3f	; 63
    223c:	90 e0       	ldi	r25, 0x00	; 0
    223e:	98 2f       	mov	r25, r24
    2240:	88 27       	eor	r24, r24
    2242:	de 96       	adiw	r26, 0x3e	; 62
    2244:	2c 91       	ld	r18, X
    2246:	82 2b       	or	r24, r18
    2248:	81 15       	cp	r24, r1
    224a:	92 40       	sbci	r25, 0x02	; 2
    224c:	09 f0       	breq	.+2      	; 0x2250 <find_volume+0x12e>
    224e:	d3 c1       	rjmp	.+934    	; 0x25f6 <find_volume+0x4d4>
    2250:	f8 01       	movw	r30, r16
    2252:	e6 5b       	subi	r30, 0xB6	; 182
    2254:	ff 4f       	sbci	r31, 0xFF	; 255
    2256:	40 80       	ld	r4, Z
    2258:	51 2c       	mov	r5, r1
    225a:	54 2c       	mov	r5, r4
    225c:	44 24       	eor	r4, r4
    225e:	31 97       	sbiw	r30, 0x01	; 1
    2260:	80 81       	ld	r24, Z
    2262:	48 2a       	or	r4, r24
    2264:	61 2c       	mov	r6, r1
    2266:	71 2c       	mov	r7, r1
    2268:	41 14       	cp	r4, r1
    226a:	51 04       	cpc	r5, r1
    226c:	61 04       	cpc	r6, r1
    226e:	71 04       	cpc	r7, r1
    2270:	39 f4       	brne	.+14     	; 0x2280 <find_volume+0x15e>
    2272:	c8 01       	movw	r24, r16
    2274:	89 5a       	subi	r24, 0xA9	; 169
    2276:	9f 4f       	sbci	r25, 0xFF	; 255
    2278:	0e 94 08 08 	call	0x1010	; 0x1010 <ld_dword>
    227c:	2b 01       	movw	r4, r22
    227e:	3c 01       	movw	r6, r24
    2280:	f8 01       	movw	r30, r16
    2282:	43 8e       	std	Z+27, r4	; 0x1b
    2284:	54 8e       	std	Z+28, r5	; 0x1c
    2286:	65 8e       	std	Z+29, r6	; 0x1d
    2288:	76 8e       	std	Z+30, r7	; 0x1e
    228a:	ed 5b       	subi	r30, 0xBD	; 189
    228c:	ff 4f       	sbci	r31, 0xFF	; 255
    228e:	20 81       	ld	r18, Z
    2290:	29 8b       	std	Y+17, r18	; 0x11
    2292:	d8 01       	movw	r26, r16
    2294:	12 96       	adiw	r26, 0x02	; 2
    2296:	2c 93       	st	X, r18
    2298:	82 2f       	mov	r24, r18
    229a:	81 50       	subi	r24, 0x01	; 1
    229c:	82 30       	cpi	r24, 0x02	; 2
    229e:	08 f0       	brcs	.+2      	; 0x22a2 <find_volume+0x180>
    22a0:	ac c1       	rjmp	.+856    	; 0x25fa <find_volume+0x4d8>
    22a2:	33 97       	sbiw	r30, 0x03	; 3
    22a4:	b0 81       	ld	r27, Z
    22a6:	be 8f       	std	Y+30, r27	; 0x1e
    22a8:	8b 2f       	mov	r24, r27
    22aa:	90 e0       	ldi	r25, 0x00	; 0
    22ac:	f8 01       	movw	r30, r16
    22ae:	81 87       	std	Z+9, r24	; 0x09
    22b0:	92 87       	std	Z+10, r25	; 0x0a
    22b2:	00 97       	sbiw	r24, 0x00	; 0
    22b4:	09 f4       	brne	.+2      	; 0x22b8 <find_volume+0x196>
    22b6:	a3 c1       	rjmp	.+838    	; 0x25fe <find_volume+0x4dc>
    22b8:	9c 01       	movw	r18, r24
    22ba:	21 50       	subi	r18, 0x01	; 1
    22bc:	31 09       	sbc	r19, r1
    22be:	82 23       	and	r24, r18
    22c0:	93 23       	and	r25, r19
    22c2:	89 2b       	or	r24, r25
    22c4:	09 f0       	breq	.+2      	; 0x22c8 <find_volume+0x1a6>
    22c6:	9d c1       	rjmp	.+826    	; 0x2602 <find_volume+0x4e0>
    22c8:	eb 5b       	subi	r30, 0xBB	; 187
    22ca:	ff 4f       	sbci	r31, 0xFF	; 255
    22cc:	80 81       	ld	r24, Z
    22ce:	90 e0       	ldi	r25, 0x00	; 0
    22d0:	98 2f       	mov	r25, r24
    22d2:	88 27       	eor	r24, r24
    22d4:	31 97       	sbiw	r30, 0x01	; 1
    22d6:	20 81       	ld	r18, Z
    22d8:	1c 01       	movw	r2, r24
    22da:	22 2a       	or	r2, r18
    22dc:	d8 01       	movw	r26, r16
    22de:	17 96       	adiw	r26, 0x07	; 7
    22e0:	2d 92       	st	X+, r2
    22e2:	3c 92       	st	X, r3
    22e4:	18 97       	sbiw	r26, 0x08	; 8
    22e6:	c1 01       	movw	r24, r2
    22e8:	8f 70       	andi	r24, 0x0F	; 15
    22ea:	99 27       	eor	r25, r25
    22ec:	89 2b       	or	r24, r25
    22ee:	09 f0       	breq	.+2      	; 0x22f2 <find_volume+0x1d0>
    22f0:	8a c1       	rjmp	.+788    	; 0x2606 <find_volume+0x4e4>
    22f2:	33 96       	adiw	r30, 0x03	; 3
    22f4:	80 80       	ld	r8, Z
    22f6:	91 2c       	mov	r9, r1
    22f8:	98 2c       	mov	r9, r8
    22fa:	88 24       	eor	r8, r8
    22fc:	31 97       	sbiw	r30, 0x01	; 1
    22fe:	80 81       	ld	r24, Z
    2300:	88 2a       	or	r8, r24
    2302:	a1 2c       	mov	r10, r1
    2304:	b1 2c       	mov	r11, r1
    2306:	81 14       	cp	r8, r1
    2308:	91 04       	cpc	r9, r1
    230a:	a1 04       	cpc	r10, r1
    230c:	b1 04       	cpc	r11, r1
    230e:	39 f4       	brne	.+14     	; 0x231e <find_volume+0x1fc>
    2310:	c8 01       	movw	r24, r16
    2312:	8d 5a       	subi	r24, 0xAD	; 173
    2314:	9f 4f       	sbci	r25, 0xFF	; 255
    2316:	0e 94 08 08 	call	0x1010	; 0x1010 <ld_dword>
    231a:	4b 01       	movw	r8, r22
    231c:	5c 01       	movw	r10, r24
    231e:	f8 01       	movw	r30, r16
    2320:	ee 5b       	subi	r30, 0xBE	; 190
    2322:	ff 4f       	sbci	r31, 0xFF	; 255
    2324:	e0 81       	ld	r30, Z
    2326:	f0 e0       	ldi	r31, 0x00	; 0
    2328:	fe 2f       	mov	r31, r30
    232a:	ee 27       	eor	r30, r30
    232c:	d8 01       	movw	r26, r16
    232e:	af 5b       	subi	r26, 0xBF	; 191
    2330:	bf 4f       	sbci	r27, 0xFF	; 255
    2332:	8c 91       	ld	r24, X
    2334:	e8 2b       	or	r30, r24
    2336:	30 97       	sbiw	r30, 0x00	; 0
    2338:	09 f4       	brne	.+2      	; 0x233c <find_volume+0x21a>
    233a:	67 c1       	rjmp	.+718    	; 0x260a <find_volume+0x4e8>
    233c:	29 89       	ldd	r18, Y+17	; 0x11
    233e:	a2 2f       	mov	r26, r18
    2340:	b0 e0       	ldi	r27, 0x00	; 0
    2342:	a3 01       	movw	r20, r6
    2344:	92 01       	movw	r18, r4
    2346:	0e 94 52 34 	call	0x68a4	; 0x68a4 <__muluhisi3>
    234a:	6e 8b       	std	Y+22, r22	; 0x16
    234c:	7f 8b       	std	Y+23, r23	; 0x17
    234e:	88 8f       	std	Y+24, r24	; 0x18
    2350:	99 8f       	std	Y+25, r25	; 0x19
    2352:	cf 01       	movw	r24, r30
    2354:	a0 e0       	ldi	r26, 0x00	; 0
    2356:	b0 e0       	ldi	r27, 0x00	; 0
    2358:	8a 8f       	std	Y+26, r24	; 0x1a
    235a:	9b 8f       	std	Y+27, r25	; 0x1b
    235c:	ac 8f       	std	Y+28, r26	; 0x1c
    235e:	bd 8f       	std	Y+29, r27	; 0x1d
    2360:	c1 01       	movw	r24, r2
    2362:	92 95       	swap	r25
    2364:	82 95       	swap	r24
    2366:	8f 70       	andi	r24, 0x0F	; 15
    2368:	89 27       	eor	r24, r25
    236a:	9f 70       	andi	r25, 0x0F	; 15
    236c:	89 27       	eor	r24, r25
    236e:	2a 8d       	ldd	r18, Y+26	; 0x1a
    2370:	3b 8d       	ldd	r19, Y+27	; 0x1b
    2372:	4c 8d       	ldd	r20, Y+28	; 0x1c
    2374:	5d 8d       	ldd	r21, Y+29	; 0x1d
    2376:	28 0f       	add	r18, r24
    2378:	39 1f       	adc	r19, r25
    237a:	41 1d       	adc	r20, r1
    237c:	51 1d       	adc	r21, r1
    237e:	da 01       	movw	r26, r20
    2380:	c9 01       	movw	r24, r18
    2382:	2e 89       	ldd	r18, Y+22	; 0x16
    2384:	3f 89       	ldd	r19, Y+23	; 0x17
    2386:	48 8d       	ldd	r20, Y+24	; 0x18
    2388:	59 8d       	ldd	r21, Y+25	; 0x19
    238a:	28 0f       	add	r18, r24
    238c:	39 1f       	adc	r19, r25
    238e:	4a 1f       	adc	r20, r26
    2390:	5b 1f       	adc	r21, r27
    2392:	2a 8b       	std	Y+18, r18	; 0x12
    2394:	3b 8b       	std	Y+19, r19	; 0x13
    2396:	4c 8b       	std	Y+20, r20	; 0x14
    2398:	5d 8b       	std	Y+21, r21	; 0x15
    239a:	82 16       	cp	r8, r18
    239c:	93 06       	cpc	r9, r19
    239e:	a4 06       	cpc	r10, r20
    23a0:	b5 06       	cpc	r11, r21
    23a2:	08 f4       	brcc	.+2      	; 0x23a6 <find_volume+0x284>
    23a4:	34 c1       	rjmp	.+616    	; 0x260e <find_volume+0x4ec>
    23a6:	c5 01       	movw	r24, r10
    23a8:	b4 01       	movw	r22, r8
    23aa:	62 1b       	sub	r22, r18
    23ac:	73 0b       	sbc	r23, r19
    23ae:	84 0b       	sbc	r24, r20
    23b0:	95 0b       	sbc	r25, r21
    23b2:	ae 8d       	ldd	r26, Y+30	; 0x1e
    23b4:	2a 2f       	mov	r18, r26
    23b6:	30 e0       	ldi	r19, 0x00	; 0
    23b8:	40 e0       	ldi	r20, 0x00	; 0
    23ba:	50 e0       	ldi	r21, 0x00	; 0
    23bc:	0e 94 05 34 	call	0x680a	; 0x680a <__udivmodsi4>
    23c0:	da 01       	movw	r26, r20
    23c2:	c9 01       	movw	r24, r18
    23c4:	21 15       	cp	r18, r1
    23c6:	31 05       	cpc	r19, r1
    23c8:	41 05       	cpc	r20, r1
    23ca:	51 05       	cpc	r21, r1
    23cc:	09 f4       	brne	.+2      	; 0x23d0 <find_volume+0x2ae>
    23ce:	21 c1       	rjmp	.+578    	; 0x2612 <find_volume+0x4f0>
    23d0:	26 3f       	cpi	r18, 0xF6	; 246
    23d2:	ef ef       	ldi	r30, 0xFF	; 255
    23d4:	3e 07       	cpc	r19, r30
    23d6:	41 05       	cpc	r20, r1
    23d8:	51 05       	cpc	r21, r1
    23da:	18 f4       	brcc	.+6      	; 0x23e2 <find_volume+0x2c0>
    23dc:	f2 e0       	ldi	r31, 0x02	; 2
    23de:	f9 8b       	std	Y+17, r31	; 0x11
    23e0:	02 c0       	rjmp	.+4      	; 0x23e6 <find_volume+0x2c4>
    23e2:	63 e0       	ldi	r22, 0x03	; 3
    23e4:	69 8b       	std	Y+17, r22	; 0x11
    23e6:	86 3f       	cpi	r24, 0xF6	; 246
    23e8:	9f 40       	sbci	r25, 0x0F	; 15
    23ea:	a1 05       	cpc	r26, r1
    23ec:	b1 05       	cpc	r27, r1
    23ee:	08 f4       	brcc	.+2      	; 0x23f2 <find_volume+0x2d0>
    23f0:	3a c1       	rjmp	.+628    	; 0x2666 <find_volume+0x544>
    23f2:	49 01       	movw	r8, r18
    23f4:	5a 01       	movw	r10, r20
    23f6:	f2 e0       	ldi	r31, 0x02	; 2
    23f8:	8f 0e       	add	r8, r31
    23fa:	91 1c       	adc	r9, r1
    23fc:	a1 1c       	adc	r10, r1
    23fe:	b1 1c       	adc	r11, r1
    2400:	d8 01       	movw	r26, r16
    2402:	57 96       	adiw	r26, 0x17	; 23
    2404:	8d 92       	st	X+, r8
    2406:	9d 92       	st	X+, r9
    2408:	ad 92       	st	X+, r10
    240a:	bc 92       	st	X, r11
    240c:	5a 97       	sbiw	r26, 0x1a	; 26
    240e:	f8 01       	movw	r30, r16
    2410:	c7 8e       	std	Z+31, r12	; 0x1f
    2412:	d0 a2       	std	Z+32, r13	; 0x20
    2414:	e1 a2       	std	Z+33, r14	; 0x21
    2416:	f2 a2       	std	Z+34, r15	; 0x22
    2418:	8a 8d       	ldd	r24, Y+26	; 0x1a
    241a:	9b 8d       	ldd	r25, Y+27	; 0x1b
    241c:	ac 8d       	ldd	r26, Y+28	; 0x1c
    241e:	bd 8d       	ldd	r27, Y+29	; 0x1d
    2420:	8c 0d       	add	r24, r12
    2422:	9d 1d       	adc	r25, r13
    2424:	ae 1d       	adc	r26, r14
    2426:	bf 1d       	adc	r27, r15
    2428:	83 a3       	std	Z+35, r24	; 0x23
    242a:	94 a3       	std	Z+36, r25	; 0x24
    242c:	a5 a3       	std	Z+37, r26	; 0x25
    242e:	b6 a3       	std	Z+38, r27	; 0x26
    2430:	4a 89       	ldd	r20, Y+18	; 0x12
    2432:	5b 89       	ldd	r21, Y+19	; 0x13
    2434:	6c 89       	ldd	r22, Y+20	; 0x14
    2436:	7d 89       	ldd	r23, Y+21	; 0x15
    2438:	4c 0d       	add	r20, r12
    243a:	5d 1d       	adc	r21, r13
    243c:	6e 1d       	adc	r22, r14
    243e:	7f 1d       	adc	r23, r15
    2440:	43 a7       	std	Z+43, r20	; 0x2b
    2442:	54 a7       	std	Z+44, r21	; 0x2c
    2444:	65 a7       	std	Z+45, r22	; 0x2d
    2446:	76 a7       	std	Z+46, r23	; 0x2e
    2448:	f9 89       	ldd	r31, Y+17	; 0x11
    244a:	f3 30       	cpi	r31, 0x03	; 3
    244c:	d1 f5       	brne	.+116    	; 0x24c2 <find_volume+0x3a0>
    244e:	f8 01       	movw	r30, r16
    2450:	e2 5a       	subi	r30, 0xA2	; 162
    2452:	ff 4f       	sbci	r31, 0xFF	; 255
    2454:	80 81       	ld	r24, Z
    2456:	90 e0       	ldi	r25, 0x00	; 0
    2458:	98 2f       	mov	r25, r24
    245a:	88 27       	eor	r24, r24
    245c:	31 97       	sbiw	r30, 0x01	; 1
    245e:	20 81       	ld	r18, Z
    2460:	82 2b       	or	r24, r18
    2462:	89 2b       	or	r24, r25
    2464:	09 f0       	breq	.+2      	; 0x2468 <find_volume+0x346>
    2466:	d7 c0       	rjmp	.+430    	; 0x2616 <find_volume+0x4f4>
    2468:	23 28       	or	r2, r3
    246a:	09 f0       	breq	.+2      	; 0x246e <find_volume+0x34c>
    246c:	d6 c0       	rjmp	.+428    	; 0x261a <find_volume+0x4f8>
    246e:	c8 01       	movw	r24, r16
    2470:	81 5a       	subi	r24, 0xA1	; 161
    2472:	9f 4f       	sbci	r25, 0xFF	; 255
    2474:	0e 94 08 08 	call	0x1010	; 0x1010 <ld_dword>
    2478:	d8 01       	movw	r26, r16
    247a:	97 96       	adiw	r26, 0x27	; 39
    247c:	6d 93       	st	X+, r22
    247e:	7d 93       	st	X+, r23
    2480:	8d 93       	st	X+, r24
    2482:	9c 93       	st	X, r25
    2484:	9a 97       	sbiw	r26, 0x2a	; 42
    2486:	88 0c       	add	r8, r8
    2488:	99 1c       	adc	r9, r9
    248a:	aa 1c       	adc	r10, r10
    248c:	bb 1c       	adc	r11, r11
    248e:	88 0c       	add	r8, r8
    2490:	99 1c       	adc	r9, r9
    2492:	aa 1c       	adc	r10, r10
    2494:	bb 1c       	adc	r11, r11
    2496:	bf ef       	ldi	r27, 0xFF	; 255
    2498:	8b 0e       	add	r8, r27
    249a:	b1 e0       	ldi	r27, 0x01	; 1
    249c:	9b 1e       	adc	r9, r27
    249e:	a1 1c       	adc	r10, r1
    24a0:	b1 1c       	adc	r11, r1
    24a2:	07 2e       	mov	r0, r23
    24a4:	79 e0       	ldi	r23, 0x09	; 9
    24a6:	b6 94       	lsr	r11
    24a8:	a7 94       	ror	r10
    24aa:	97 94       	ror	r9
    24ac:	87 94       	ror	r8
    24ae:	7a 95       	dec	r23
    24b0:	d1 f7       	brne	.-12     	; 0x24a6 <find_volume+0x384>
    24b2:	70 2d       	mov	r23, r0
    24b4:	48 14       	cp	r4, r8
    24b6:	59 04       	cpc	r5, r9
    24b8:	6a 04       	cpc	r6, r10
    24ba:	7b 04       	cpc	r7, r11
    24bc:	08 f4       	brcc	.+2      	; 0x24c0 <find_volume+0x39e>
    24be:	af c0       	rjmp	.+350    	; 0x261e <find_volume+0x4fc>
    24c0:	26 c1       	rjmp	.+588    	; 0x270e <find_volume+0x5ec>
    24c2:	23 28       	or	r2, r3
    24c4:	09 f4       	brne	.+2      	; 0x24c8 <find_volume+0x3a6>
    24c6:	ad c0       	rjmp	.+346    	; 0x2622 <find_volume+0x500>
    24c8:	2e 89       	ldd	r18, Y+22	; 0x16
    24ca:	3f 89       	ldd	r19, Y+23	; 0x17
    24cc:	48 8d       	ldd	r20, Y+24	; 0x18
    24ce:	59 8d       	ldd	r21, Y+25	; 0x19
    24d0:	82 0f       	add	r24, r18
    24d2:	93 1f       	adc	r25, r19
    24d4:	a4 1f       	adc	r26, r20
    24d6:	b5 1f       	adc	r27, r21
    24d8:	f8 01       	movw	r30, r16
    24da:	87 a3       	std	Z+39, r24	; 0x27
    24dc:	90 a7       	std	Z+40, r25	; 0x28
    24de:	a1 a7       	std	Z+41, r26	; 0x29
    24e0:	b2 a7       	std	Z+42, r27	; 0x2a
    24e2:	f9 89       	ldd	r31, Y+17	; 0x11
    24e4:	f2 30       	cpi	r31, 0x02	; 2
    24e6:	29 f4       	brne	.+10     	; 0x24f2 <find_volume+0x3d0>
    24e8:	88 0c       	add	r8, r8
    24ea:	99 1c       	adc	r9, r9
    24ec:	aa 1c       	adc	r10, r10
    24ee:	bb 1c       	adc	r11, r11
    24f0:	f8 c0       	rjmp	.+496    	; 0x26e2 <find_volume+0x5c0>
    24f2:	a3 e0       	ldi	r26, 0x03	; 3
    24f4:	b0 e0       	ldi	r27, 0x00	; 0
    24f6:	a5 01       	movw	r20, r10
    24f8:	94 01       	movw	r18, r8
    24fa:	0e 94 52 34 	call	0x68a4	; 0x68a4 <__muluhisi3>
    24fe:	dc 01       	movw	r26, r24
    2500:	cb 01       	movw	r24, r22
    2502:	b6 95       	lsr	r27
    2504:	a7 95       	ror	r26
    2506:	97 95       	ror	r25
    2508:	87 95       	ror	r24
    250a:	21 e0       	ldi	r18, 0x01	; 1
    250c:	82 22       	and	r8, r18
    250e:	99 24       	eor	r9, r9
    2510:	aa 24       	eor	r10, r10
    2512:	bb 24       	eor	r11, r11
    2514:	88 0e       	add	r8, r24
    2516:	99 1e       	adc	r9, r25
    2518:	aa 1e       	adc	r10, r26
    251a:	bb 1e       	adc	r11, r27
    251c:	e2 c0       	rjmp	.+452    	; 0x26e2 <find_volume+0x5c0>
    251e:	b7 01       	movw	r22, r14
    2520:	a6 01       	movw	r20, r12
    2522:	4f 5f       	subi	r20, 0xFF	; 255
    2524:	5f 4f       	sbci	r21, 0xFF	; 255
    2526:	6f 4f       	sbci	r22, 0xFF	; 255
    2528:	7f 4f       	sbci	r23, 0xFF	; 255
    252a:	c8 01       	movw	r24, r16
    252c:	0e 94 88 09 	call	0x1310	; 0x1310 <move_window>
    2530:	81 11       	cpse	r24, r1
    2532:	39 c0       	rjmp	.+114    	; 0x25a6 <find_volume+0x484>
    2534:	d8 01       	movw	r26, r16
    2536:	14 96       	adiw	r26, 0x04	; 4
    2538:	1c 92       	st	X, r1
    253a:	f8 01       	movw	r30, r16
    253c:	ee 5c       	subi	r30, 0xCE	; 206
    253e:	fd 4f       	sbci	r31, 0xFD	; 253
    2540:	80 81       	ld	r24, Z
    2542:	90 e0       	ldi	r25, 0x00	; 0
    2544:	98 2f       	mov	r25, r24
    2546:	88 27       	eor	r24, r24
    2548:	31 97       	sbiw	r30, 0x01	; 1
    254a:	20 81       	ld	r18, Z
    254c:	82 2b       	or	r24, r18
    254e:	85 35       	cpi	r24, 0x55	; 85
    2550:	9a 4a       	sbci	r25, 0xAA	; 170
    2552:	49 f5       	brne	.+82     	; 0x25a6 <find_volume+0x484>
    2554:	c8 01       	movw	r24, r16
    2556:	c3 96       	adiw	r24, 0x33	; 51
    2558:	0e 94 08 08 	call	0x1010	; 0x1010 <ld_dword>
    255c:	62 35       	cpi	r22, 0x52	; 82
    255e:	72 45       	sbci	r23, 0x52	; 82
    2560:	81 46       	sbci	r24, 0x61	; 97
    2562:	91 44       	sbci	r25, 0x41	; 65
    2564:	01 f5       	brne	.+64     	; 0x25a6 <find_volume+0x484>
    2566:	c8 01       	movw	r24, r16
    2568:	89 5e       	subi	r24, 0xE9	; 233
    256a:	9d 4f       	sbci	r25, 0xFD	; 253
    256c:	0e 94 08 08 	call	0x1010	; 0x1010 <ld_dword>
    2570:	62 37       	cpi	r22, 0x72	; 114
    2572:	72 47       	sbci	r23, 0x72	; 114
    2574:	81 44       	sbci	r24, 0x41	; 65
    2576:	91 46       	sbci	r25, 0x61	; 97
    2578:	b1 f4       	brne	.+44     	; 0x25a6 <find_volume+0x484>
    257a:	c8 01       	movw	r24, r16
    257c:	85 5e       	subi	r24, 0xE5	; 229
    257e:	9d 4f       	sbci	r25, 0xFD	; 253
    2580:	0e 94 08 08 	call	0x1010	; 0x1010 <ld_dword>
    2584:	d8 01       	movw	r26, r16
    2586:	1f 96       	adiw	r26, 0x0f	; 15
    2588:	6d 93       	st	X+, r22
    258a:	7d 93       	st	X+, r23
    258c:	8d 93       	st	X+, r24
    258e:	9c 93       	st	X, r25
    2590:	52 97       	sbiw	r26, 0x12	; 18
    2592:	c8 01       	movw	r24, r16
    2594:	81 5e       	subi	r24, 0xE1	; 225
    2596:	9d 4f       	sbci	r25, 0xFD	; 253
    2598:	0e 94 08 08 	call	0x1010	; 0x1010 <ld_dword>
    259c:	f8 01       	movw	r30, r16
    259e:	63 87       	std	Z+11, r22	; 0x0b
    25a0:	74 87       	std	Z+12, r23	; 0x0c
    25a2:	85 87       	std	Z+13, r24	; 0x0d
    25a4:	96 87       	std	Z+14, r25	; 0x0e
    25a6:	e9 89       	ldd	r30, Y+17	; 0x11
    25a8:	d8 01       	movw	r26, r16
    25aa:	ec 93       	st	X, r30
    25ac:	80 91 a1 24 	lds	r24, 0x24A1
    25b0:	90 91 a2 24 	lds	r25, 0x24A2
    25b4:	01 96       	adiw	r24, 0x01	; 1
    25b6:	80 93 a1 24 	sts	0x24A1, r24
    25ba:	90 93 a2 24 	sts	0x24A2, r25
    25be:	15 96       	adiw	r26, 0x05	; 5
    25c0:	8d 93       	st	X+, r24
    25c2:	9c 93       	st	X, r25
    25c4:	16 97       	sbiw	r26, 0x06	; 6
    25c6:	53 96       	adiw	r26, 0x13	; 19
    25c8:	1d 92       	st	X+, r1
    25ca:	1d 92       	st	X+, r1
    25cc:	1d 92       	st	X+, r1
    25ce:	1c 92       	st	X, r1
    25d0:	56 97       	sbiw	r26, 0x16	; 22
    25d2:	80 e0       	ldi	r24, 0x00	; 0
    25d4:	c7 c0       	rjmp	.+398    	; 0x2764 <find_volume+0x642>
    25d6:	8b e0       	ldi	r24, 0x0B	; 11
    25d8:	c5 c0       	rjmp	.+394    	; 0x2764 <find_volume+0x642>
    25da:	8c e0       	ldi	r24, 0x0C	; 12
    25dc:	c3 c0       	rjmp	.+390    	; 0x2764 <find_volume+0x642>
    25de:	80 e0       	ldi	r24, 0x00	; 0
    25e0:	c1 c0       	rjmp	.+386    	; 0x2764 <find_volume+0x642>
    25e2:	80 e0       	ldi	r24, 0x00	; 0
    25e4:	bf c0       	rjmp	.+382    	; 0x2764 <find_volume+0x642>
    25e6:	83 e0       	ldi	r24, 0x03	; 3
    25e8:	bd c0       	rjmp	.+378    	; 0x2764 <find_volume+0x642>
    25ea:	8a e0       	ldi	r24, 0x0A	; 10
    25ec:	bb c0       	rjmp	.+374    	; 0x2764 <find_volume+0x642>
    25ee:	81 e0       	ldi	r24, 0x01	; 1
    25f0:	b9 c0       	rjmp	.+370    	; 0x2764 <find_volume+0x642>
    25f2:	8d e0       	ldi	r24, 0x0D	; 13
    25f4:	b7 c0       	rjmp	.+366    	; 0x2764 <find_volume+0x642>
    25f6:	8d e0       	ldi	r24, 0x0D	; 13
    25f8:	b5 c0       	rjmp	.+362    	; 0x2764 <find_volume+0x642>
    25fa:	8d e0       	ldi	r24, 0x0D	; 13
    25fc:	b3 c0       	rjmp	.+358    	; 0x2764 <find_volume+0x642>
    25fe:	8d e0       	ldi	r24, 0x0D	; 13
    2600:	b1 c0       	rjmp	.+354    	; 0x2764 <find_volume+0x642>
    2602:	8d e0       	ldi	r24, 0x0D	; 13
    2604:	af c0       	rjmp	.+350    	; 0x2764 <find_volume+0x642>
    2606:	8d e0       	ldi	r24, 0x0D	; 13
    2608:	ad c0       	rjmp	.+346    	; 0x2764 <find_volume+0x642>
    260a:	8d e0       	ldi	r24, 0x0D	; 13
    260c:	ab c0       	rjmp	.+342    	; 0x2764 <find_volume+0x642>
    260e:	8d e0       	ldi	r24, 0x0D	; 13
    2610:	a9 c0       	rjmp	.+338    	; 0x2764 <find_volume+0x642>
    2612:	8d e0       	ldi	r24, 0x0D	; 13
    2614:	a7 c0       	rjmp	.+334    	; 0x2764 <find_volume+0x642>
    2616:	8d e0       	ldi	r24, 0x0D	; 13
    2618:	a5 c0       	rjmp	.+330    	; 0x2764 <find_volume+0x642>
    261a:	8d e0       	ldi	r24, 0x0D	; 13
    261c:	a3 c0       	rjmp	.+326    	; 0x2764 <find_volume+0x642>
    261e:	8d e0       	ldi	r24, 0x0D	; 13
    2620:	a1 c0       	rjmp	.+322    	; 0x2764 <find_volume+0x642>
    2622:	8d e0       	ldi	r24, 0x0D	; 13
    2624:	9f c0       	rjmp	.+318    	; 0x2764 <find_volume+0x642>
    2626:	81 e0       	ldi	r24, 0x01	; 1
    2628:	9d c0       	rjmp	.+314    	; 0x2764 <find_volume+0x642>
    262a:	8d e0       	ldi	r24, 0x0D	; 13
    262c:	9b c0       	rjmp	.+310    	; 0x2764 <find_volume+0x642>
    262e:	8d e0       	ldi	r24, 0x0D	; 13
    2630:	99 c0       	rjmp	.+306    	; 0x2764 <find_volume+0x642>
    2632:	40 e0       	ldi	r20, 0x00	; 0
    2634:	50 e0       	ldi	r21, 0x00	; 0
    2636:	ba 01       	movw	r22, r20
    2638:	c8 01       	movw	r24, r16
    263a:	28 dd       	rcall	.-1456   	; 0x208c <check_fs>
    263c:	82 30       	cpi	r24, 0x02	; 2
    263e:	09 f0       	breq	.+2      	; 0x2642 <find_volume+0x520>
    2640:	f0 cd       	rjmp	.-1056   	; 0x2222 <find_volume+0x100>
    2642:	fe 01       	movw	r30, r28
    2644:	31 96       	adiw	r30, 0x01	; 1
    2646:	5f 01       	movw	r10, r30
    2648:	78 01       	movw	r14, r16
    264a:	f7 e0       	ldi	r31, 0x07	; 7
    264c:	ef 1a       	sub	r14, r31
    264e:	fe ef       	ldi	r31, 0xFE	; 254
    2650:	ff 0a       	sbc	r15, r31
    2652:	4e 01       	movw	r8, r28
    2654:	21 e1       	ldi	r18, 0x11	; 17
    2656:	82 0e       	add	r8, r18
    2658:	91 1c       	adc	r9, r1
    265a:	65 01       	movw	r12, r10
    265c:	b3 cd       	rjmp	.-1178   	; 0x21c4 <find_volume+0xa2>
    265e:	84 30       	cpi	r24, 0x04	; 4
    2660:	09 f0       	breq	.+2      	; 0x2664 <find_volume+0x542>
    2662:	e8 cd       	rjmp	.-1072   	; 0x2234 <find_volume+0x112>
    2664:	e0 cf       	rjmp	.-64     	; 0x2626 <find_volume+0x504>
    2666:	49 01       	movw	r8, r18
    2668:	5a 01       	movw	r10, r20
    266a:	62 e0       	ldi	r22, 0x02	; 2
    266c:	86 0e       	add	r8, r22
    266e:	91 1c       	adc	r9, r1
    2670:	a1 1c       	adc	r10, r1
    2672:	b1 1c       	adc	r11, r1
    2674:	d8 01       	movw	r26, r16
    2676:	57 96       	adiw	r26, 0x17	; 23
    2678:	8d 92       	st	X+, r8
    267a:	9d 92       	st	X+, r9
    267c:	ad 92       	st	X+, r10
    267e:	bc 92       	st	X, r11
    2680:	5a 97       	sbiw	r26, 0x1a	; 26
    2682:	f8 01       	movw	r30, r16
    2684:	c7 8e       	std	Z+31, r12	; 0x1f
    2686:	d0 a2       	std	Z+32, r13	; 0x20
    2688:	e1 a2       	std	Z+33, r14	; 0x21
    268a:	f2 a2       	std	Z+34, r15	; 0x22
    268c:	8a 8d       	ldd	r24, Y+26	; 0x1a
    268e:	9b 8d       	ldd	r25, Y+27	; 0x1b
    2690:	ac 8d       	ldd	r26, Y+28	; 0x1c
    2692:	bd 8d       	ldd	r27, Y+29	; 0x1d
    2694:	8c 0d       	add	r24, r12
    2696:	9d 1d       	adc	r25, r13
    2698:	ae 1d       	adc	r26, r14
    269a:	bf 1d       	adc	r27, r15
    269c:	83 a3       	std	Z+35, r24	; 0x23
    269e:	94 a3       	std	Z+36, r25	; 0x24
    26a0:	a5 a3       	std	Z+37, r26	; 0x25
    26a2:	b6 a3       	std	Z+38, r27	; 0x26
    26a4:	2a 89       	ldd	r18, Y+18	; 0x12
    26a6:	3b 89       	ldd	r19, Y+19	; 0x13
    26a8:	4c 89       	ldd	r20, Y+20	; 0x14
    26aa:	5d 89       	ldd	r21, Y+21	; 0x15
    26ac:	c2 0e       	add	r12, r18
    26ae:	d3 1e       	adc	r13, r19
    26b0:	e4 1e       	adc	r14, r20
    26b2:	f5 1e       	adc	r15, r21
    26b4:	c3 a6       	std	Z+43, r12	; 0x2b
    26b6:	d4 a6       	std	Z+44, r13	; 0x2c
    26b8:	e5 a6       	std	Z+45, r14	; 0x2d
    26ba:	f6 a6       	std	Z+46, r15	; 0x2e
    26bc:	23 28       	or	r2, r3
    26be:	09 f4       	brne	.+2      	; 0x26c2 <find_volume+0x5a0>
    26c0:	b4 cf       	rjmp	.-152    	; 0x262a <find_volume+0x508>
    26c2:	40 c0       	rjmp	.+128    	; 0x2744 <find_volume+0x622>
    26c4:	8f ef       	ldi	r24, 0xFF	; 255
    26c6:	9f ef       	ldi	r25, 0xFF	; 255
    26c8:	dc 01       	movw	r26, r24
    26ca:	f8 01       	movw	r30, r16
    26cc:	87 87       	std	Z+15, r24	; 0x0f
    26ce:	90 8b       	std	Z+16, r25	; 0x10
    26d0:	a1 8b       	std	Z+17, r26	; 0x11
    26d2:	b2 8b       	std	Z+18, r27	; 0x12
    26d4:	83 87       	std	Z+11, r24	; 0x0b
    26d6:	94 87       	std	Z+12, r25	; 0x0c
    26d8:	a5 87       	std	Z+13, r26	; 0x0d
    26da:	b6 87       	std	Z+14, r27	; 0x0e
    26dc:	80 e8       	ldi	r24, 0x80	; 128
    26de:	84 83       	std	Z+4, r24	; 0x04
    26e0:	62 cf       	rjmp	.-316    	; 0x25a6 <find_volume+0x484>
    26e2:	ff ef       	ldi	r31, 0xFF	; 255
    26e4:	8f 0e       	add	r8, r31
    26e6:	f1 e0       	ldi	r31, 0x01	; 1
    26e8:	9f 1e       	adc	r9, r31
    26ea:	a1 1c       	adc	r10, r1
    26ec:	b1 1c       	adc	r11, r1
    26ee:	07 2e       	mov	r0, r23
    26f0:	79 e0       	ldi	r23, 0x09	; 9
    26f2:	b6 94       	lsr	r11
    26f4:	a7 94       	ror	r10
    26f6:	97 94       	ror	r9
    26f8:	87 94       	ror	r8
    26fa:	7a 95       	dec	r23
    26fc:	d1 f7       	brne	.-12     	; 0x26f2 <find_volume+0x5d0>
    26fe:	70 2d       	mov	r23, r0
    2700:	48 14       	cp	r4, r8
    2702:	59 04       	cpc	r5, r9
    2704:	6a 04       	cpc	r6, r10
    2706:	7b 04       	cpc	r7, r11
    2708:	08 f4       	brcc	.+2      	; 0x270c <find_volume+0x5ea>
    270a:	91 cf       	rjmp	.-222    	; 0x262e <find_volume+0x50c>
    270c:	db cf       	rjmp	.-74     	; 0x26c4 <find_volume+0x5a2>
    270e:	8f ef       	ldi	r24, 0xFF	; 255
    2710:	9f ef       	ldi	r25, 0xFF	; 255
    2712:	dc 01       	movw	r26, r24
    2714:	f8 01       	movw	r30, r16
    2716:	87 87       	std	Z+15, r24	; 0x0f
    2718:	90 8b       	std	Z+16, r25	; 0x10
    271a:	a1 8b       	std	Z+17, r26	; 0x11
    271c:	b2 8b       	std	Z+18, r27	; 0x12
    271e:	83 87       	std	Z+11, r24	; 0x0b
    2720:	94 87       	std	Z+12, r25	; 0x0c
    2722:	a5 87       	std	Z+13, r26	; 0x0d
    2724:	b6 87       	std	Z+14, r27	; 0x0e
    2726:	80 e8       	ldi	r24, 0x80	; 128
    2728:	84 83       	std	Z+4, r24	; 0x04
    272a:	ec 59       	subi	r30, 0x9C	; 156
    272c:	ff 4f       	sbci	r31, 0xFF	; 255
    272e:	80 81       	ld	r24, Z
    2730:	90 e0       	ldi	r25, 0x00	; 0
    2732:	98 2f       	mov	r25, r24
    2734:	88 27       	eor	r24, r24
    2736:	31 97       	sbiw	r30, 0x01	; 1
    2738:	20 81       	ld	r18, Z
    273a:	82 2b       	or	r24, r18
    273c:	01 97       	sbiw	r24, 0x01	; 1
    273e:	09 f0       	breq	.+2      	; 0x2742 <find_volume+0x620>
    2740:	32 cf       	rjmp	.-412    	; 0x25a6 <find_volume+0x484>
    2742:	ed ce       	rjmp	.-550    	; 0x251e <find_volume+0x3fc>
    2744:	2e 89       	ldd	r18, Y+22	; 0x16
    2746:	3f 89       	ldd	r19, Y+23	; 0x17
    2748:	48 8d       	ldd	r20, Y+24	; 0x18
    274a:	59 8d       	ldd	r21, Y+25	; 0x19
    274c:	82 0f       	add	r24, r18
    274e:	93 1f       	adc	r25, r19
    2750:	a4 1f       	adc	r26, r20
    2752:	b5 1f       	adc	r27, r21
    2754:	f8 01       	movw	r30, r16
    2756:	87 a3       	std	Z+39, r24	; 0x27
    2758:	90 a7       	std	Z+40, r25	; 0x28
    275a:	a1 a7       	std	Z+41, r26	; 0x29
    275c:	b2 a7       	std	Z+42, r27	; 0x2a
    275e:	f1 e0       	ldi	r31, 0x01	; 1
    2760:	f9 8b       	std	Y+17, r31	; 0x11
    2762:	c7 ce       	rjmp	.-626    	; 0x24f2 <find_volume+0x3d0>
    2764:	6e 96       	adiw	r28, 0x1e	; 30
    2766:	cd bf       	out	0x3d, r28	; 61
    2768:	de bf       	out	0x3e, r29	; 62
    276a:	df 91       	pop	r29
    276c:	cf 91       	pop	r28
    276e:	1f 91       	pop	r17
    2770:	0f 91       	pop	r16
    2772:	ff 90       	pop	r15
    2774:	ef 90       	pop	r14
    2776:	df 90       	pop	r13
    2778:	cf 90       	pop	r12
    277a:	bf 90       	pop	r11
    277c:	af 90       	pop	r10
    277e:	9f 90       	pop	r9
    2780:	8f 90       	pop	r8
    2782:	7f 90       	pop	r7
    2784:	6f 90       	pop	r6
    2786:	5f 90       	pop	r5
    2788:	4f 90       	pop	r4
    278a:	3f 90       	pop	r3
    278c:	2f 90       	pop	r2
    278e:	08 95       	ret

00002790 <ld_clust>:
    2790:	0f 93       	push	r16
    2792:	1f 93       	push	r17
    2794:	dc 01       	movw	r26, r24
    2796:	fb 01       	movw	r30, r22
    2798:	93 8d       	ldd	r25, Z+27	; 0x1b
    279a:	69 2f       	mov	r22, r25
    279c:	70 e0       	ldi	r23, 0x00	; 0
    279e:	76 2f       	mov	r23, r22
    27a0:	66 27       	eor	r22, r22
    27a2:	82 8d       	ldd	r24, Z+26	; 0x1a
    27a4:	68 2b       	or	r22, r24
    27a6:	80 e0       	ldi	r24, 0x00	; 0
    27a8:	90 e0       	ldi	r25, 0x00	; 0
    27aa:	2c 91       	ld	r18, X
    27ac:	23 30       	cpi	r18, 0x03	; 3
    27ae:	79 f4       	brne	.+30     	; 0x27ce <ld_clust+0x3e>
    27b0:	05 89       	ldd	r16, Z+21	; 0x15
    27b2:	10 e0       	ldi	r17, 0x00	; 0
    27b4:	10 2f       	mov	r17, r16
    27b6:	00 27       	eor	r16, r16
    27b8:	24 89       	ldd	r18, Z+20	; 0x14
    27ba:	02 2b       	or	r16, r18
    27bc:	20 e0       	ldi	r18, 0x00	; 0
    27be:	30 e0       	ldi	r19, 0x00	; 0
    27c0:	98 01       	movw	r18, r16
    27c2:	11 27       	eor	r17, r17
    27c4:	00 27       	eor	r16, r16
    27c6:	60 2b       	or	r22, r16
    27c8:	71 2b       	or	r23, r17
    27ca:	82 2b       	or	r24, r18
    27cc:	93 2b       	or	r25, r19
    27ce:	1f 91       	pop	r17
    27d0:	0f 91       	pop	r16
    27d2:	08 95       	ret

000027d4 <follow_path>:
    27d4:	2f 92       	push	r2
    27d6:	3f 92       	push	r3
    27d8:	4f 92       	push	r4
    27da:	5f 92       	push	r5
    27dc:	6f 92       	push	r6
    27de:	7f 92       	push	r7
    27e0:	8f 92       	push	r8
    27e2:	9f 92       	push	r9
    27e4:	af 92       	push	r10
    27e6:	bf 92       	push	r11
    27e8:	cf 92       	push	r12
    27ea:	df 92       	push	r13
    27ec:	ef 92       	push	r14
    27ee:	ff 92       	push	r15
    27f0:	0f 93       	push	r16
    27f2:	1f 93       	push	r17
    27f4:	cf 93       	push	r28
    27f6:	df 93       	push	r29
    27f8:	00 d0       	rcall	.+0      	; 0x27fa <follow_path+0x26>
    27fa:	1f 92       	push	r1
    27fc:	cd b7       	in	r28, 0x3d	; 61
    27fe:	de b7       	in	r29, 0x3e	; 62
    2800:	8c 01       	movw	r16, r24
    2802:	5b 01       	movw	r10, r22
    2804:	dc 01       	movw	r26, r24
    2806:	6d 90       	ld	r6, X+
    2808:	7c 90       	ld	r7, X
    280a:	fb 01       	movw	r30, r22
    280c:	80 81       	ld	r24, Z
    280e:	8f 32       	cpi	r24, 0x2F	; 47
    2810:	11 f4       	brne	.+4      	; 0x2816 <follow_path+0x42>
    2812:	f5 01       	movw	r30, r10
    2814:	0d c0       	rjmp	.+26     	; 0x2830 <follow_path+0x5c>
    2816:	8c 35       	cpi	r24, 0x5C	; 92
    2818:	e1 f3       	breq	.-8      	; 0x2812 <follow_path+0x3e>
    281a:	f3 01       	movw	r30, r6
    281c:	83 89       	ldd	r24, Z+19	; 0x13
    281e:	94 89       	ldd	r25, Z+20	; 0x14
    2820:	a5 89       	ldd	r26, Z+21	; 0x15
    2822:	b6 89       	ldd	r27, Z+22	; 0x16
    2824:	f8 01       	movw	r30, r16
    2826:	86 83       	std	Z+6, r24	; 0x06
    2828:	97 83       	std	Z+7, r25	; 0x07
    282a:	a0 87       	std	Z+8, r26	; 0x08
    282c:	b1 87       	std	Z+9, r27	; 0x09
    282e:	0d c0       	rjmp	.+26     	; 0x284a <follow_path+0x76>
    2830:	5f 01       	movw	r10, r30
    2832:	81 91       	ld	r24, Z+
    2834:	8f 32       	cpi	r24, 0x2F	; 47
    2836:	e1 f3       	breq	.-8      	; 0x2830 <follow_path+0x5c>
    2838:	8c 35       	cpi	r24, 0x5C	; 92
    283a:	d1 f3       	breq	.-12     	; 0x2830 <follow_path+0x5c>
    283c:	d8 01       	movw	r26, r16
    283e:	16 96       	adiw	r26, 0x06	; 6
    2840:	1d 92       	st	X+, r1
    2842:	1d 92       	st	X+, r1
    2844:	1d 92       	st	X+, r1
    2846:	1c 92       	st	X, r1
    2848:	19 97       	sbiw	r26, 0x09	; 9
    284a:	f5 01       	movw	r30, r10
    284c:	80 81       	ld	r24, Z
    284e:	80 32       	cpi	r24, 0x20	; 32
    2850:	50 f4       	brcc	.+20     	; 0x2866 <follow_path+0x92>
    2852:	80 e8       	ldi	r24, 0x80	; 128
    2854:	d8 01       	movw	r26, r16
    2856:	97 96       	adiw	r26, 0x27	; 39
    2858:	8c 93       	st	X, r24
    285a:	40 e0       	ldi	r20, 0x00	; 0
    285c:	50 e0       	ldi	r21, 0x00	; 0
    285e:	ba 01       	movw	r22, r20
    2860:	c8 01       	movw	r24, r16
    2862:	01 d8       	rcall	.-4094   	; 0x1866 <dir_sdi>
    2864:	48 c1       	rjmp	.+656    	; 0x2af6 <follow_path+0x322>
    2866:	18 01       	movw	r2, r16
    2868:	bc e1       	ldi	r27, 0x1C	; 28
    286a:	2b 0e       	add	r2, r27
    286c:	31 1c       	adc	r3, r1
    286e:	29 82       	std	Y+1, r2	; 0x01
    2870:	3a 82       	std	Y+2, r3	; 0x02
    2872:	68 01       	movw	r12, r16
    2874:	e7 e2       	ldi	r30, 0x27	; 39
    2876:	ce 0e       	add	r12, r30
    2878:	d1 1c       	adc	r13, r1
    287a:	68 94       	set
    287c:	ff 24       	eor	r15, r15
    287e:	f5 f8       	bld	r15, 5
    2880:	0f 2e       	mov	r0, r31
    2882:	fe e2       	ldi	r31, 0x2E	; 46
    2884:	ef 2e       	mov	r14, r31
    2886:	f0 2d       	mov	r31, r0
    2888:	48 01       	movw	r8, r16
    288a:	fd e1       	ldi	r31, 0x1D	; 29
    288c:	8f 0e       	add	r8, r31
    288e:	91 1c       	adc	r9, r1
    2890:	cb 82       	std	Y+3, r12	; 0x03
    2892:	dc 82       	std	Y+4, r13	; 0x04
    2894:	e9 81       	ldd	r30, Y+1	; 0x01
    2896:	fa 81       	ldd	r31, Y+2	; 0x02
    2898:	8b 81       	ldd	r24, Y+3	; 0x03
    289a:	9c 81       	ldd	r25, Y+4	; 0x04
    289c:	f1 92       	st	Z+, r15
    289e:	e8 17       	cp	r30, r24
    28a0:	f9 07       	cpc	r31, r25
    28a2:	e1 f7       	brne	.-8      	; 0x289c <follow_path+0xc8>
    28a4:	8b 83       	std	Y+3, r24	; 0x03
    28a6:	9c 83       	std	Y+4, r25	; 0x04
    28a8:	d5 01       	movw	r26, r10
    28aa:	8c 91       	ld	r24, X
    28ac:	8e 32       	cpi	r24, 0x2E	; 46
    28ae:	49 f0       	breq	.+18     	; 0x28c2 <follow_path+0xee>
    28b0:	c1 2c       	mov	r12, r1
    28b2:	d1 2c       	mov	r13, r1
    28b4:	40 e0       	ldi	r20, 0x00	; 0
    28b6:	50 e0       	ldi	r21, 0x00	; 0
    28b8:	68 94       	set
    28ba:	44 24       	eor	r4, r4
    28bc:	43 f8       	bld	r4, 3
    28be:	51 2c       	mov	r5, r1
    28c0:	21 c0       	rjmp	.+66     	; 0x2904 <follow_path+0x130>
    28c2:	d8 01       	movw	r26, r16
    28c4:	5c 96       	adiw	r26, 0x1c	; 28
    28c6:	ec 92       	st	X, r14
    28c8:	5c 97       	sbiw	r26, 0x1c	; 28
    28ca:	f5 01       	movw	r30, r10
    28cc:	81 81       	ldd	r24, Z+1	; 0x01
    28ce:	8e 32       	cpi	r24, 0x2E	; 46
    28d0:	49 f4       	brne	.+18     	; 0x28e4 <follow_path+0x110>
    28d2:	5d 96       	adiw	r26, 0x1d	; 29
    28d4:	ec 92       	st	X, r14
    28d6:	82 81       	ldd	r24, Z+2	; 0x02
    28d8:	8e 32       	cpi	r24, 0x2E	; 46
    28da:	09 f4       	brne	.+2      	; 0x28de <follow_path+0x10a>
    28dc:	66 c0       	rjmp	.+204    	; 0x29aa <follow_path+0x1d6>
    28de:	23 e0       	ldi	r18, 0x03	; 3
    28e0:	30 e0       	ldi	r19, 0x00	; 0
    28e2:	02 c0       	rjmp	.+4      	; 0x28e8 <follow_path+0x114>
    28e4:	22 e0       	ldi	r18, 0x02	; 2
    28e6:	30 e0       	ldi	r19, 0x00	; 0
    28e8:	8f 32       	cpi	r24, 0x2F	; 47
    28ea:	09 f4       	brne	.+2      	; 0x28ee <follow_path+0x11a>
    28ec:	be c0       	rjmp	.+380    	; 0x2a6a <follow_path+0x296>
    28ee:	8c 35       	cpi	r24, 0x5C	; 92
    28f0:	09 f4       	brne	.+2      	; 0x28f4 <follow_path+0x120>
    28f2:	bb c0       	rjmp	.+374    	; 0x2a6a <follow_path+0x296>
    28f4:	81 32       	cpi	r24, 0x21	; 33
    28f6:	08 f0       	brcs	.+2      	; 0x28fa <follow_path+0x126>
    28f8:	df c0       	rjmp	.+446    	; 0x2ab8 <follow_path+0x2e4>
    28fa:	b3 c0       	rjmp	.+358    	; 0x2a62 <follow_path+0x28e>
    28fc:	d8 01       	movw	r26, r16
    28fe:	97 96       	adiw	r26, 0x27	; 39
    2900:	8c 93       	st	X, r24
    2902:	cc c0       	rjmp	.+408    	; 0x2a9c <follow_path+0x2c8>
    2904:	4f 5f       	subi	r20, 0xFF	; 255
    2906:	5f 4f       	sbci	r21, 0xFF	; 255
    2908:	6d 91       	ld	r22, X+
    290a:	61 32       	cpi	r22, 0x21	; 33
    290c:	b8 f1       	brcs	.+110    	; 0x297c <follow_path+0x1a8>
    290e:	6f 32       	cpi	r22, 0x2F	; 47
    2910:	11 f0       	breq	.+4      	; 0x2916 <follow_path+0x142>
    2912:	6c 35       	cpi	r22, 0x5C	; 92
    2914:	81 f4       	brne	.+32     	; 0x2936 <follow_path+0x162>
    2916:	f5 01       	movw	r30, r10
    2918:	e4 0f       	add	r30, r20
    291a:	f5 1f       	adc	r31, r21
    291c:	2b 81       	ldd	r18, Y+3	; 0x03
    291e:	3c 81       	ldd	r19, Y+4	; 0x04
    2920:	02 c0       	rjmp	.+4      	; 0x2926 <follow_path+0x152>
    2922:	4f 5f       	subi	r20, 0xFF	; 255
    2924:	5f 4f       	sbci	r21, 0xFF	; 255
    2926:	81 91       	ld	r24, Z+
    2928:	8f 32       	cpi	r24, 0x2F	; 47
    292a:	d9 f3       	breq	.-10     	; 0x2922 <follow_path+0x14e>
    292c:	8c 35       	cpi	r24, 0x5C	; 92
    292e:	c9 f3       	breq	.-14     	; 0x2922 <follow_path+0x14e>
    2930:	2b 83       	std	Y+3, r18	; 0x03
    2932:	3c 83       	std	Y+4, r19	; 0x04
    2934:	23 c0       	rjmp	.+70     	; 0x297c <follow_path+0x1a8>
    2936:	6e 32       	cpi	r22, 0x2E	; 46
    2938:	09 f4       	brne	.+2      	; 0x293c <follow_path+0x168>
    293a:	9b c0       	rjmp	.+310    	; 0x2a72 <follow_path+0x29e>
    293c:	c4 14       	cp	r12, r4
    293e:	d5 04       	cpc	r13, r5
    2940:	08 f0       	brcs	.+2      	; 0x2944 <follow_path+0x170>
    2942:	ba c0       	rjmp	.+372    	; 0x2ab8 <follow_path+0x2e4>
    2944:	66 23       	and	r22, r22
    2946:	0c f4       	brge	.+2      	; 0x294a <follow_path+0x176>
    2948:	b7 c0       	rjmp	.+366    	; 0x2ab8 <follow_path+0x2e4>
    294a:	26 2f       	mov	r18, r22
    294c:	30 e0       	ldi	r19, 0x00	; 0
    294e:	22 32       	cpi	r18, 0x22	; 34
    2950:	31 05       	cpc	r19, r1
    2952:	59 f1       	breq	.+86     	; 0x29aa <follow_path+0x1d6>
    2954:	e5 e6       	ldi	r30, 0x65	; 101
    2956:	f0 e2       	ldi	r31, 0x20	; 32
    2958:	81 91       	ld	r24, Z+
    295a:	88 23       	and	r24, r24
    295c:	09 f4       	brne	.+2      	; 0x2960 <follow_path+0x18c>
    295e:	98 c0       	rjmp	.+304    	; 0x2a90 <follow_path+0x2bc>
    2960:	90 e0       	ldi	r25, 0x00	; 0
    2962:	28 17       	cp	r18, r24
    2964:	39 07       	cpc	r19, r25
    2966:	c1 f7       	brne	.-16     	; 0x2958 <follow_path+0x184>
    2968:	20 c0       	rjmp	.+64     	; 0x29aa <follow_path+0x1d6>
    296a:	60 52       	subi	r22, 0x20	; 32
    296c:	f1 01       	movw	r30, r2
    296e:	ec 0d       	add	r30, r12
    2970:	fd 1d       	adc	r31, r13
    2972:	60 83       	st	Z, r22
    2974:	f6 01       	movw	r30, r12
    2976:	31 96       	adiw	r30, 0x01	; 1
    2978:	6f 01       	movw	r12, r30
    297a:	c4 cf       	rjmp	.-120    	; 0x2904 <follow_path+0x130>
    297c:	cd 28       	or	r12, r13
    297e:	09 f4       	brne	.+2      	; 0x2982 <follow_path+0x1ae>
    2980:	9b c0       	rjmp	.+310    	; 0x2ab8 <follow_path+0x2e4>
    2982:	d8 01       	movw	r26, r16
    2984:	5c 96       	adiw	r26, 0x1c	; 28
    2986:	8c 91       	ld	r24, X
    2988:	5c 97       	sbiw	r26, 0x1c	; 28
    298a:	85 3e       	cpi	r24, 0xE5	; 229
    298c:	19 f4       	brne	.+6      	; 0x2994 <follow_path+0x1c0>
    298e:	e5 e0       	ldi	r30, 0x05	; 5
    2990:	5c 96       	adiw	r26, 0x1c	; 28
    2992:	ec 93       	st	X, r30
    2994:	61 32       	cpi	r22, 0x21	; 33
    2996:	10 f0       	brcs	.+4      	; 0x299c <follow_path+0x1c8>
    2998:	80 e0       	ldi	r24, 0x00	; 0
    299a:	01 c0       	rjmp	.+2      	; 0x299e <follow_path+0x1ca>
    299c:	84 e0       	ldi	r24, 0x04	; 4
    299e:	a4 0e       	add	r10, r20
    29a0:	b5 1e       	adc	r11, r21
    29a2:	d8 01       	movw	r26, r16
    29a4:	97 96       	adiw	r26, 0x27	; 39
    29a6:	8c 93       	st	X, r24
    29a8:	79 c0       	rjmp	.+242    	; 0x2a9c <follow_path+0x2c8>
    29aa:	86 e0       	ldi	r24, 0x06	; 6
    29ac:	a4 c0       	rjmp	.+328    	; 0x2af6 <follow_path+0x322>
    29ae:	f8 01       	movw	r30, r16
    29b0:	46 89       	ldd	r20, Z+22	; 0x16
    29b2:	57 89       	ldd	r21, Z+23	; 0x17
    29b4:	60 8d       	ldd	r22, Z+24	; 0x18
    29b6:	71 8d       	ldd	r23, Z+25	; 0x19
    29b8:	c6 01       	movw	r24, r12
    29ba:	0e 94 88 09 	call	0x1310	; 0x1310 <move_window>
    29be:	81 11       	cpse	r24, r1
    29c0:	84 c0       	rjmp	.+264    	; 0x2aca <follow_path+0x2f6>
    29c2:	f8 01       	movw	r30, r16
    29c4:	a2 8d       	ldd	r26, Z+26	; 0x1a
    29c6:	b3 8d       	ldd	r27, Z+27	; 0x1b
    29c8:	9c 91       	ld	r25, X
    29ca:	99 23       	and	r25, r25
    29cc:	09 f4       	brne	.+2      	; 0x29d0 <follow_path+0x1fc>
    29ce:	86 c0       	rjmp	.+268    	; 0x2adc <follow_path+0x308>
    29d0:	1b 96       	adiw	r26, 0x0b	; 11
    29d2:	9c 91       	ld	r25, X
    29d4:	1b 97       	sbiw	r26, 0x0b	; 11
    29d6:	9f 73       	andi	r25, 0x3F	; 63
    29d8:	94 83       	std	Z+4, r25	; 0x04
    29da:	1b 96       	adiw	r26, 0x0b	; 11
    29dc:	9c 91       	ld	r25, X
    29de:	1b 97       	sbiw	r26, 0x0b	; 11
    29e0:	93 ff       	sbrs	r25, 3
    29e2:	81 c0       	rjmp	.+258    	; 0x2ae6 <follow_path+0x312>
    29e4:	0e c0       	rjmp	.+28     	; 0x2a02 <follow_path+0x22e>
    29e6:	2d 91       	ld	r18, X+
    29e8:	91 91       	ld	r25, Z+
    29ea:	30 e0       	ldi	r19, 0x00	; 0
    29ec:	29 1b       	sub	r18, r25
    29ee:	31 09       	sbc	r19, r1
    29f0:	e4 15       	cp	r30, r4
    29f2:	f5 05       	cpc	r31, r5
    29f4:	19 f0       	breq	.+6      	; 0x29fc <follow_path+0x228>
    29f6:	23 2b       	or	r18, r19
    29f8:	b1 f3       	breq	.-20     	; 0x29e6 <follow_path+0x212>
    29fa:	03 c0       	rjmp	.+6      	; 0x2a02 <follow_path+0x22e>
    29fc:	23 2b       	or	r18, r19
    29fe:	09 f4       	brne	.+2      	; 0x2a02 <follow_path+0x22e>
    2a00:	5d c0       	rjmp	.+186    	; 0x2abc <follow_path+0x2e8>
    2a02:	60 e0       	ldi	r22, 0x00	; 0
    2a04:	70 e0       	ldi	r23, 0x00	; 0
    2a06:	c8 01       	movw	r24, r16
    2a08:	b2 d9       	rcall	.-3228   	; 0x1d6e <dir_next>
    2a0a:	88 23       	and	r24, r24
    2a0c:	81 f2       	breq	.-96     	; 0x29ae <follow_path+0x1da>
    2a0e:	4b 82       	std	Y+3, r4	; 0x03
    2a10:	5c 82       	std	Y+4, r5	; 0x04
    2a12:	5d c0       	rjmp	.+186    	; 0x2ace <follow_path+0x2fa>
    2a14:	95 ff       	sbrs	r25, 5
    2a16:	08 c0       	rjmp	.+16     	; 0x2a28 <follow_path+0x254>
    2a18:	92 ff       	sbrs	r25, 2
    2a1a:	3c cf       	rjmp	.-392    	; 0x2894 <follow_path+0xc0>
    2a1c:	80 e8       	ldi	r24, 0x80	; 128
    2a1e:	d8 01       	movw	r26, r16
    2a20:	97 96       	adiw	r26, 0x27	; 39
    2a22:	8c 93       	st	X, r24
    2a24:	80 e0       	ldi	r24, 0x00	; 0
    2a26:	67 c0       	rjmp	.+206    	; 0x2af6 <follow_path+0x322>
    2a28:	92 fd       	sbrc	r25, 2
    2a2a:	17 c0       	rjmp	.+46     	; 0x2a5a <follow_path+0x286>
    2a2c:	85 e0       	ldi	r24, 0x05	; 5
    2a2e:	63 c0       	rjmp	.+198    	; 0x2af6 <follow_path+0x322>
    2a30:	f8 01       	movw	r30, r16
    2a32:	84 81       	ldd	r24, Z+4	; 0x04
    2a34:	84 ff       	sbrs	r24, 4
    2a36:	13 c0       	rjmp	.+38     	; 0x2a5e <follow_path+0x28a>
    2a38:	66 85       	ldd	r22, Z+14	; 0x0e
    2a3a:	77 85       	ldd	r23, Z+15	; 0x0f
    2a3c:	71 70       	andi	r23, 0x01	; 1
    2a3e:	6d 5c       	subi	r22, 0xCD	; 205
    2a40:	7f 4f       	sbci	r23, 0xFF	; 255
    2a42:	66 0d       	add	r22, r6
    2a44:	77 1d       	adc	r23, r7
    2a46:	c3 01       	movw	r24, r6
    2a48:	a3 de       	rcall	.-698    	; 0x2790 <ld_clust>
    2a4a:	d8 01       	movw	r26, r16
    2a4c:	16 96       	adiw	r26, 0x06	; 6
    2a4e:	6d 93       	st	X+, r22
    2a50:	7d 93       	st	X+, r23
    2a52:	8d 93       	st	X+, r24
    2a54:	9c 93       	st	X, r25
    2a56:	19 97       	sbiw	r26, 0x09	; 9
    2a58:	1d cf       	rjmp	.-454    	; 0x2894 <follow_path+0xc0>
    2a5a:	84 e0       	ldi	r24, 0x04	; 4
    2a5c:	4c c0       	rjmp	.+152    	; 0x2af6 <follow_path+0x322>
    2a5e:	85 e0       	ldi	r24, 0x05	; 5
    2a60:	4a c0       	rjmp	.+148    	; 0x2af6 <follow_path+0x322>
    2a62:	a2 0e       	add	r10, r18
    2a64:	b3 1e       	adc	r11, r19
    2a66:	84 e2       	ldi	r24, 0x24	; 36
    2a68:	49 cf       	rjmp	.-366    	; 0x28fc <follow_path+0x128>
    2a6a:	a2 0e       	add	r10, r18
    2a6c:	b3 1e       	adc	r11, r19
    2a6e:	8f 2d       	mov	r24, r15
    2a70:	45 cf       	rjmp	.-374    	; 0x28fc <follow_path+0x128>
    2a72:	eb e0       	ldi	r30, 0x0B	; 11
    2a74:	4e 16       	cp	r4, r30
    2a76:	51 04       	cpc	r5, r1
    2a78:	09 f4       	brne	.+2      	; 0x2a7c <follow_path+0x2a8>
    2a7a:	97 cf       	rjmp	.-210    	; 0x29aa <follow_path+0x1d6>
    2a7c:	68 94       	set
    2a7e:	cc 24       	eor	r12, r12
    2a80:	c3 f8       	bld	r12, 3
    2a82:	d1 2c       	mov	r13, r1
    2a84:	0f 2e       	mov	r0, r31
    2a86:	fb e0       	ldi	r31, 0x0B	; 11
    2a88:	4f 2e       	mov	r4, r31
    2a8a:	51 2c       	mov	r5, r1
    2a8c:	f0 2d       	mov	r31, r0
    2a8e:	3a cf       	rjmp	.-396    	; 0x2904 <follow_path+0x130>
    2a90:	8f e9       	ldi	r24, 0x9F	; 159
    2a92:	86 0f       	add	r24, r22
    2a94:	8a 31       	cpi	r24, 0x1A	; 26
    2a96:	08 f4       	brcc	.+2      	; 0x2a9a <follow_path+0x2c6>
    2a98:	68 cf       	rjmp	.-304    	; 0x296a <follow_path+0x196>
    2a9a:	68 cf       	rjmp	.-304    	; 0x296c <follow_path+0x198>
    2a9c:	d8 01       	movw	r26, r16
    2a9e:	cd 90       	ld	r12, X+
    2aa0:	dc 90       	ld	r13, X
    2aa2:	40 e0       	ldi	r20, 0x00	; 0
    2aa4:	50 e0       	ldi	r21, 0x00	; 0
    2aa6:	ba 01       	movw	r22, r20
    2aa8:	c8 01       	movw	r24, r16
    2aaa:	0e 94 33 0c 	call	0x1866	; 0x1866 <dir_sdi>
    2aae:	81 11       	cpse	r24, r1
    2ab0:	0e c0       	rjmp	.+28     	; 0x2ace <follow_path+0x2fa>
    2ab2:	4b 80       	ldd	r4, Y+3	; 0x03
    2ab4:	5c 80       	ldd	r5, Y+4	; 0x04
    2ab6:	7b cf       	rjmp	.-266    	; 0x29ae <follow_path+0x1da>
    2ab8:	86 e0       	ldi	r24, 0x06	; 6
    2aba:	1d c0       	rjmp	.+58     	; 0x2af6 <follow_path+0x322>
    2abc:	4b 82       	std	Y+3, r4	; 0x03
    2abe:	5c 82       	std	Y+4, r5	; 0x04
    2ac0:	f8 01       	movw	r30, r16
    2ac2:	97 a1       	ldd	r25, Z+39	; 0x27
    2ac4:	92 ff       	sbrs	r25, 2
    2ac6:	b4 cf       	rjmp	.-152    	; 0x2a30 <follow_path+0x25c>
    2ac8:	16 c0       	rjmp	.+44     	; 0x2af6 <follow_path+0x322>
    2aca:	4b 82       	std	Y+3, r4	; 0x03
    2acc:	5c 82       	std	Y+4, r5	; 0x04
    2ace:	d8 01       	movw	r26, r16
    2ad0:	97 96       	adiw	r26, 0x27	; 39
    2ad2:	9c 91       	ld	r25, X
    2ad4:	84 30       	cpi	r24, 0x04	; 4
    2ad6:	09 f4       	brne	.+2      	; 0x2ada <follow_path+0x306>
    2ad8:	9d cf       	rjmp	.-198    	; 0x2a14 <follow_path+0x240>
    2ada:	0d c0       	rjmp	.+26     	; 0x2af6 <follow_path+0x322>
    2adc:	4b 82       	std	Y+3, r4	; 0x03
    2ade:	5c 82       	std	Y+4, r5	; 0x04
    2ae0:	f8 01       	movw	r30, r16
    2ae2:	97 a1       	ldd	r25, Z+39	; 0x27
    2ae4:	97 cf       	rjmp	.-210    	; 0x2a14 <follow_path+0x240>
    2ae6:	2d 91       	ld	r18, X+
    2ae8:	30 e0       	ldi	r19, 0x00	; 0
    2aea:	f8 01       	movw	r30, r16
    2aec:	94 8d       	ldd	r25, Z+28	; 0x1c
    2aee:	29 1b       	sub	r18, r25
    2af0:	31 09       	sbc	r19, r1
    2af2:	f4 01       	movw	r30, r8
    2af4:	80 cf       	rjmp	.-256    	; 0x29f6 <follow_path+0x222>
    2af6:	24 96       	adiw	r28, 0x04	; 4
    2af8:	cd bf       	out	0x3d, r28	; 61
    2afa:	de bf       	out	0x3e, r29	; 62
    2afc:	df 91       	pop	r29
    2afe:	cf 91       	pop	r28
    2b00:	1f 91       	pop	r17
    2b02:	0f 91       	pop	r16
    2b04:	ff 90       	pop	r15
    2b06:	ef 90       	pop	r14
    2b08:	df 90       	pop	r13
    2b0a:	cf 90       	pop	r12
    2b0c:	bf 90       	pop	r11
    2b0e:	af 90       	pop	r10
    2b10:	9f 90       	pop	r9
    2b12:	8f 90       	pop	r8
    2b14:	7f 90       	pop	r7
    2b16:	6f 90       	pop	r6
    2b18:	5f 90       	pop	r5
    2b1a:	4f 90       	pop	r4
    2b1c:	3f 90       	pop	r3
    2b1e:	2f 90       	pop	r2
    2b20:	08 95       	ret

00002b22 <f_mount>:
    2b22:	1f 93       	push	r17
    2b24:	cf 93       	push	r28
    2b26:	df 93       	push	r29
    2b28:	00 d0       	rcall	.+0      	; 0x2b2a <f_mount+0x8>
    2b2a:	00 d0       	rcall	.+0      	; 0x2b2c <f_mount+0xa>
    2b2c:	cd b7       	in	r28, 0x3d	; 61
    2b2e:	de b7       	in	r29, 0x3e	; 62
    2b30:	8b 83       	std	Y+3, r24	; 0x03
    2b32:	9c 83       	std	Y+4, r25	; 0x04
    2b34:	6d 83       	std	Y+5, r22	; 0x05
    2b36:	7e 83       	std	Y+6, r23	; 0x06
    2b38:	14 2f       	mov	r17, r20
    2b3a:	69 83       	std	Y+1, r22	; 0x01
    2b3c:	7a 83       	std	Y+2, r23	; 0x02
    2b3e:	ce 01       	movw	r24, r28
    2b40:	01 96       	adiw	r24, 0x01	; 1
    2b42:	0e 94 bb 08 	call	0x1176	; 0x1176 <get_ldnumber>
    2b46:	99 23       	and	r25, r25
    2b48:	2c f1       	brlt	.+74     	; 0x2b94 <f_mount+0x72>
    2b4a:	fc 01       	movw	r30, r24
    2b4c:	ee 0f       	add	r30, r30
    2b4e:	ff 1f       	adc	r31, r31
    2b50:	ed 55       	subi	r30, 0x5D	; 93
    2b52:	fb 4d       	sbci	r31, 0xDB	; 219
    2b54:	01 90       	ld	r0, Z+
    2b56:	f0 81       	ld	r31, Z
    2b58:	e0 2d       	mov	r30, r0
    2b5a:	30 97       	sbiw	r30, 0x00	; 0
    2b5c:	09 f0       	breq	.+2      	; 0x2b60 <f_mount+0x3e>
    2b5e:	10 82       	st	Z, r1
    2b60:	eb 81       	ldd	r30, Y+3	; 0x03
    2b62:	fc 81       	ldd	r31, Y+4	; 0x04
    2b64:	30 97       	sbiw	r30, 0x00	; 0
    2b66:	e1 f0       	breq	.+56     	; 0x2ba0 <f_mount+0x7e>
    2b68:	10 82       	st	Z, r1
    2b6a:	2b 81       	ldd	r18, Y+3	; 0x03
    2b6c:	3c 81       	ldd	r19, Y+4	; 0x04
    2b6e:	88 0f       	add	r24, r24
    2b70:	99 1f       	adc	r25, r25
    2b72:	fc 01       	movw	r30, r24
    2b74:	ed 55       	subi	r30, 0x5D	; 93
    2b76:	fb 4d       	sbci	r31, 0xDB	; 219
    2b78:	20 83       	st	Z, r18
    2b7a:	31 83       	std	Z+1, r19	; 0x01
    2b7c:	23 2b       	or	r18, r19
    2b7e:	61 f0       	breq	.+24     	; 0x2b98 <f_mount+0x76>
    2b80:	11 30       	cpi	r17, 0x01	; 1
    2b82:	61 f4       	brne	.+24     	; 0x2b9c <f_mount+0x7a>
    2b84:	40 e0       	ldi	r20, 0x00	; 0
    2b86:	be 01       	movw	r22, r28
    2b88:	6d 5f       	subi	r22, 0xFD	; 253
    2b8a:	7f 4f       	sbci	r23, 0xFF	; 255
    2b8c:	ce 01       	movw	r24, r28
    2b8e:	05 96       	adiw	r24, 0x05	; 5
    2b90:	c8 da       	rcall	.-2672   	; 0x2122 <find_volume>
    2b92:	0e c0       	rjmp	.+28     	; 0x2bb0 <f_mount+0x8e>
    2b94:	8b e0       	ldi	r24, 0x0B	; 11
    2b96:	0c c0       	rjmp	.+24     	; 0x2bb0 <f_mount+0x8e>
    2b98:	80 e0       	ldi	r24, 0x00	; 0
    2b9a:	0a c0       	rjmp	.+20     	; 0x2bb0 <f_mount+0x8e>
    2b9c:	80 e0       	ldi	r24, 0x00	; 0
    2b9e:	08 c0       	rjmp	.+16     	; 0x2bb0 <f_mount+0x8e>
    2ba0:	88 0f       	add	r24, r24
    2ba2:	99 1f       	adc	r25, r25
    2ba4:	fc 01       	movw	r30, r24
    2ba6:	ed 55       	subi	r30, 0x5D	; 93
    2ba8:	fb 4d       	sbci	r31, 0xDB	; 219
    2baa:	10 82       	st	Z, r1
    2bac:	11 82       	std	Z+1, r1	; 0x01
    2bae:	80 e0       	ldi	r24, 0x00	; 0
    2bb0:	26 96       	adiw	r28, 0x06	; 6
    2bb2:	cd bf       	out	0x3d, r28	; 61
    2bb4:	de bf       	out	0x3e, r29	; 62
    2bb6:	df 91       	pop	r29
    2bb8:	cf 91       	pop	r28
    2bba:	1f 91       	pop	r17
    2bbc:	08 95       	ret

00002bbe <f_open>:
    2bbe:	4f 92       	push	r4
    2bc0:	5f 92       	push	r5
    2bc2:	6f 92       	push	r6
    2bc4:	7f 92       	push	r7
    2bc6:	8f 92       	push	r8
    2bc8:	9f 92       	push	r9
    2bca:	af 92       	push	r10
    2bcc:	bf 92       	push	r11
    2bce:	cf 92       	push	r12
    2bd0:	df 92       	push	r13
    2bd2:	ef 92       	push	r14
    2bd4:	ff 92       	push	r15
    2bd6:	0f 93       	push	r16
    2bd8:	1f 93       	push	r17
    2bda:	cf 93       	push	r28
    2bdc:	df 93       	push	r29
    2bde:	cd b7       	in	r28, 0x3d	; 61
    2be0:	de b7       	in	r29, 0x3e	; 62
    2be2:	e0 97       	sbiw	r28, 0x30	; 48
    2be4:	cd bf       	out	0x3d, r28	; 61
    2be6:	de bf       	out	0x3e, r29	; 62
    2be8:	6b a7       	std	Y+43, r22	; 0x2b
    2bea:	7c a7       	std	Y+44, r23	; 0x2c
    2bec:	00 97       	sbiw	r24, 0x00	; 0
    2bee:	09 f4       	brne	.+2      	; 0x2bf2 <f_open+0x34>
    2bf0:	49 c1       	rjmp	.+658    	; 0x2e84 <f_open+0x2c6>
    2bf2:	14 2f       	mov	r17, r20
    2bf4:	7c 01       	movw	r14, r24
    2bf6:	24 2f       	mov	r18, r20
    2bf8:	2f 73       	andi	r18, 0x3F	; 63
    2bfa:	d2 2e       	mov	r13, r18
    2bfc:	42 2f       	mov	r20, r18
    2bfe:	be 01       	movw	r22, r28
    2c00:	67 5d       	subi	r22, 0xD7	; 215
    2c02:	7f 4f       	sbci	r23, 0xFF	; 255
    2c04:	ce 01       	movw	r24, r28
    2c06:	8b 96       	adiw	r24, 0x2b	; 43
    2c08:	8c da       	rcall	.-2792   	; 0x2122 <find_volume>
    2c0a:	81 11       	cpse	r24, r1
    2c0c:	37 c1       	rjmp	.+622    	; 0x2e7c <f_open+0x2be>
    2c0e:	89 a5       	ldd	r24, Y+41	; 0x29
    2c10:	9a a5       	ldd	r25, Y+42	; 0x2a
    2c12:	89 83       	std	Y+1, r24	; 0x01
    2c14:	9a 83       	std	Y+2, r25	; 0x02
    2c16:	6b a5       	ldd	r22, Y+43	; 0x2b
    2c18:	7c a5       	ldd	r23, Y+44	; 0x2c
    2c1a:	ce 01       	movw	r24, r28
    2c1c:	01 96       	adiw	r24, 0x01	; 1
    2c1e:	da dd       	rcall	.-1100   	; 0x27d4 <follow_path>
    2c20:	81 11       	cpse	r24, r1
    2c22:	32 c1       	rjmp	.+612    	; 0x2e88 <f_open+0x2ca>
    2c24:	88 a5       	ldd	r24, Y+40	; 0x28
    2c26:	88 23       	and	r24, r24
    2c28:	0c f0       	brlt	.+2      	; 0x2c2c <f_open+0x6e>
    2c2a:	36 c1       	rjmp	.+620    	; 0x2e98 <f_open+0x2da>
    2c2c:	31 c1       	rjmp	.+610    	; 0x2e90 <f_open+0x2d2>
    2c2e:	84 30       	cpi	r24, 0x04	; 4
    2c30:	09 f0       	breq	.+2      	; 0x2c34 <f_open+0x76>
    2c32:	62 c1       	rjmp	.+708    	; 0x2ef8 <f_open+0x33a>
    2c34:	ce 01       	movw	r24, r28
    2c36:	01 96       	adiw	r24, 0x01	; 1
    2c38:	cf d9       	rcall	.-3170   	; 0x1fd8 <dir_register>
    2c3a:	3d 2d       	mov	r19, r13
    2c3c:	38 60       	ori	r19, 0x08	; 8
    2c3e:	d3 2e       	mov	r13, r19
    2c40:	88 23       	and	r24, r24
    2c42:	39 f0       	breq	.+14     	; 0x2c52 <f_open+0x94>
    2c44:	31 c1       	rjmp	.+610    	; 0x2ea8 <f_open+0x2ea>
    2c46:	8d 81       	ldd	r24, Y+5	; 0x05
    2c48:	81 71       	andi	r24, 0x11	; 17
    2c4a:	09 f0       	breq	.+2      	; 0x2c4e <f_open+0x90>
    2c4c:	83 c1       	rjmp	.+774    	; 0x2f54 <f_open+0x396>
    2c4e:	12 fd       	sbrc	r17, 2
    2c50:	83 c1       	rjmp	.+774    	; 0x2f58 <f_open+0x39a>
    2c52:	d3 fe       	sbrs	r13, 3
    2c54:	2c c1       	rjmp	.+600    	; 0x2eae <f_open+0x2f0>
    2c56:	a5 d7       	rcall	.+3914   	; 0x3ba2 <get_fattime>
    2c58:	2b 01       	movw	r4, r22
    2c5a:	3c 01       	movw	r6, r24
    2c5c:	8b 8d       	ldd	r24, Y+27	; 0x1b
    2c5e:	9c 8d       	ldd	r25, Y+28	; 0x1c
    2c60:	b3 01       	movw	r22, r6
    2c62:	a2 01       	movw	r20, r4
    2c64:	0e 96       	adiw	r24, 0x0e	; 14
    2c66:	0e 94 23 08 	call	0x1046	; 0x1046 <st_dword>
    2c6a:	8b 8d       	ldd	r24, Y+27	; 0x1b
    2c6c:	9c 8d       	ldd	r25, Y+28	; 0x1c
    2c6e:	b3 01       	movw	r22, r6
    2c70:	a2 01       	movw	r20, r4
    2c72:	46 96       	adiw	r24, 0x16	; 22
    2c74:	0e 94 23 08 	call	0x1046	; 0x1046 <st_dword>
    2c78:	eb 8d       	ldd	r30, Y+27	; 0x1b
    2c7a:	fc 8d       	ldd	r31, Y+28	; 0x1c
    2c7c:	80 e2       	ldi	r24, 0x20	; 32
    2c7e:	83 87       	std	Z+11, r24	; 0x0b
    2c80:	ab 8c       	ldd	r10, Y+27	; 0x1b
    2c82:	bc 8c       	ldd	r11, Y+28	; 0x1c
    2c84:	09 a5       	ldd	r16, Y+41	; 0x29
    2c86:	1a a5       	ldd	r17, Y+42	; 0x2a
    2c88:	b5 01       	movw	r22, r10
    2c8a:	c8 01       	movw	r24, r16
    2c8c:	81 dd       	rcall	.-1278   	; 0x2790 <ld_clust>
    2c8e:	2b 01       	movw	r4, r22
    2c90:	3c 01       	movw	r6, r24
    2c92:	20 e0       	ldi	r18, 0x00	; 0
    2c94:	30 e0       	ldi	r19, 0x00	; 0
    2c96:	a9 01       	movw	r20, r18
    2c98:	b5 01       	movw	r22, r10
    2c9a:	c8 01       	movw	r24, r16
    2c9c:	0e 94 4a 0b 	call	0x1694	; 0x1694 <st_clust>
    2ca0:	8b 8d       	ldd	r24, Y+27	; 0x1b
    2ca2:	9c 8d       	ldd	r25, Y+28	; 0x1c
    2ca4:	40 e0       	ldi	r20, 0x00	; 0
    2ca6:	50 e0       	ldi	r21, 0x00	; 0
    2ca8:	ba 01       	movw	r22, r20
    2caa:	4c 96       	adiw	r24, 0x1c	; 28
    2cac:	0e 94 23 08 	call	0x1046	; 0x1046 <st_dword>
    2cb0:	e9 a5       	ldd	r30, Y+41	; 0x29
    2cb2:	fa a5       	ldd	r31, Y+42	; 0x2a
    2cb4:	81 e0       	ldi	r24, 0x01	; 1
    2cb6:	83 83       	std	Z+3, r24	; 0x03
    2cb8:	41 14       	cp	r4, r1
    2cba:	51 04       	cpc	r5, r1
    2cbc:	61 04       	cpc	r6, r1
    2cbe:	71 04       	cpc	r7, r1
    2cc0:	09 f4       	brne	.+2      	; 0x2cc4 <f_open+0x106>
    2cc2:	f5 c0       	rjmp	.+490    	; 0x2eae <f_open+0x2f0>
    2cc4:	87 a4       	ldd	r8, Z+47	; 0x2f
    2cc6:	90 a8       	ldd	r9, Z+48	; 0x30
    2cc8:	a1 a8       	ldd	r10, Z+49	; 0x31
    2cca:	b2 a8       	ldd	r11, Z+50	; 0x32
    2ccc:	00 e0       	ldi	r16, 0x00	; 0
    2cce:	10 e0       	ldi	r17, 0x00	; 0
    2cd0:	98 01       	movw	r18, r16
    2cd2:	b3 01       	movw	r22, r6
    2cd4:	a2 01       	movw	r20, r4
    2cd6:	ce 01       	movw	r24, r28
    2cd8:	01 96       	adiw	r24, 0x01	; 1
    2cda:	0e 94 25 0e 	call	0x1c4a	; 0x1c4a <remove_chain>
    2cde:	81 11       	cpse	r24, r1
    2ce0:	e3 c0       	rjmp	.+454    	; 0x2ea8 <f_open+0x2ea>
    2ce2:	b5 01       	movw	r22, r10
    2ce4:	a4 01       	movw	r20, r8
    2ce6:	89 a5       	ldd	r24, Y+41	; 0x29
    2ce8:	9a a5       	ldd	r25, Y+42	; 0x2a
    2cea:	0e 94 88 09 	call	0x1310	; 0x1310 <move_window>
    2cee:	e9 a5       	ldd	r30, Y+41	; 0x29
    2cf0:	fa a5       	ldd	r31, Y+42	; 0x2a
    2cf2:	41 e0       	ldi	r20, 0x01	; 1
    2cf4:	44 1a       	sub	r4, r20
    2cf6:	51 08       	sbc	r5, r1
    2cf8:	61 08       	sbc	r6, r1
    2cfa:	71 08       	sbc	r7, r1
    2cfc:	43 86       	std	Z+11, r4	; 0x0b
    2cfe:	54 86       	std	Z+12, r5	; 0x0c
    2d00:	65 86       	std	Z+13, r6	; 0x0d
    2d02:	76 86       	std	Z+14, r7	; 0x0e
    2d04:	88 23       	and	r24, r24
    2d06:	31 f0       	breq	.+12     	; 0x2d14 <f_open+0x156>
    2d08:	b9 c0       	rjmp	.+370    	; 0x2e7c <f_open+0x2be>
    2d0a:	11 ff       	sbrs	r17, 1
    2d0c:	d0 c0       	rjmp	.+416    	; 0x2eae <f_open+0x2f0>
    2d0e:	80 fd       	sbrc	r24, 0
    2d10:	c8 c0       	rjmp	.+400    	; 0x2ea2 <f_open+0x2e4>
    2d12:	cd c0       	rjmp	.+410    	; 0x2eae <f_open+0x2f0>
    2d14:	5d 2d       	mov	r21, r13
    2d16:	50 64       	ori	r21, 0x40	; 64
    2d18:	d5 2e       	mov	r13, r21
    2d1a:	e9 a5       	ldd	r30, Y+41	; 0x29
    2d1c:	fa a5       	ldd	r31, Y+42	; 0x2a
    2d1e:	87 a5       	ldd	r24, Z+47	; 0x2f
    2d20:	90 a9       	ldd	r25, Z+48	; 0x30
    2d22:	a1 a9       	ldd	r26, Z+49	; 0x31
    2d24:	b2 a9       	ldd	r27, Z+50	; 0x32
    2d26:	f7 01       	movw	r30, r14
    2d28:	84 8f       	std	Z+28, r24	; 0x1c
    2d2a:	95 8f       	std	Z+29, r25	; 0x1d
    2d2c:	a6 8f       	std	Z+30, r26	; 0x1e
    2d2e:	b7 8f       	std	Z+31, r27	; 0x1f
    2d30:	8b 8d       	ldd	r24, Y+27	; 0x1b
    2d32:	9c 8d       	ldd	r25, Y+28	; 0x1c
    2d34:	80 a3       	std	Z+32, r24	; 0x20
    2d36:	91 a3       	std	Z+33, r25	; 0x21
    2d38:	ab 8c       	ldd	r10, Y+27	; 0x1b
    2d3a:	bc 8c       	ldd	r11, Y+28	; 0x1c
    2d3c:	09 a5       	ldd	r16, Y+41	; 0x29
    2d3e:	1a a5       	ldd	r17, Y+42	; 0x2a
    2d40:	b5 01       	movw	r22, r10
    2d42:	c8 01       	movw	r24, r16
    2d44:	25 dd       	rcall	.-1462   	; 0x2790 <ld_clust>
    2d46:	d7 01       	movw	r26, r14
    2d48:	16 96       	adiw	r26, 0x06	; 6
    2d4a:	6d 93       	st	X+, r22
    2d4c:	7d 93       	st	X+, r23
    2d4e:	8d 93       	st	X+, r24
    2d50:	9c 93       	st	X, r25
    2d52:	19 97       	sbiw	r26, 0x09	; 9
    2d54:	c5 01       	movw	r24, r10
    2d56:	4c 96       	adiw	r24, 0x1c	; 28
    2d58:	0e 94 08 08 	call	0x1010	; 0x1010 <ld_dword>
    2d5c:	f7 01       	movw	r30, r14
    2d5e:	62 87       	std	Z+10, r22	; 0x0a
    2d60:	73 87       	std	Z+11, r23	; 0x0b
    2d62:	84 87       	std	Z+12, r24	; 0x0c
    2d64:	95 87       	std	Z+13, r25	; 0x0d
    2d66:	00 83       	st	Z, r16
    2d68:	11 83       	std	Z+1, r17	; 0x01
    2d6a:	d8 01       	movw	r26, r16
    2d6c:	15 96       	adiw	r26, 0x05	; 5
    2d6e:	8d 91       	ld	r24, X+
    2d70:	9c 91       	ld	r25, X
    2d72:	16 97       	sbiw	r26, 0x06	; 6
    2d74:	82 83       	std	Z+2, r24	; 0x02
    2d76:	93 83       	std	Z+3, r25	; 0x03
    2d78:	d6 86       	std	Z+14, r13	; 0x0e
    2d7a:	17 86       	std	Z+15, r1	; 0x0f
    2d7c:	10 8e       	std	Z+24, r1	; 0x18
    2d7e:	11 8e       	std	Z+25, r1	; 0x19
    2d80:	12 8e       	std	Z+26, r1	; 0x1a
    2d82:	13 8e       	std	Z+27, r1	; 0x1b
    2d84:	10 8a       	std	Z+16, r1	; 0x10
    2d86:	11 8a       	std	Z+17, r1	; 0x11
    2d88:	12 8a       	std	Z+18, r1	; 0x12
    2d8a:	13 8a       	std	Z+19, r1	; 0x13
    2d8c:	57 01       	movw	r10, r14
    2d8e:	b2 e2       	ldi	r27, 0x22	; 34
    2d90:	ab 0e       	add	r10, r27
    2d92:	b1 1c       	adc	r11, r1
    2d94:	f5 01       	movw	r30, r10
    2d96:	c7 01       	movw	r24, r14
    2d98:	8e 5d       	subi	r24, 0xDE	; 222
    2d9a:	9d 4f       	sbci	r25, 0xFD	; 253
    2d9c:	11 92       	st	Z+, r1
    2d9e:	e8 17       	cp	r30, r24
    2da0:	f9 07       	cpc	r31, r25
    2da2:	e1 f7       	brne	.-8      	; 0x2d9c <f_open+0x1de>
    2da4:	d5 fe       	sbrs	r13, 5
    2da6:	a1 c0       	rjmp	.+322    	; 0x2eea <f_open+0x32c>
    2da8:	f7 01       	movw	r30, r14
    2daa:	42 84       	ldd	r4, Z+10	; 0x0a
    2dac:	53 84       	ldd	r5, Z+11	; 0x0b
    2dae:	64 84       	ldd	r6, Z+12	; 0x0c
    2db0:	75 84       	ldd	r7, Z+13	; 0x0d
    2db2:	41 14       	cp	r4, r1
    2db4:	51 04       	cpc	r5, r1
    2db6:	61 04       	cpc	r6, r1
    2db8:	71 04       	cpc	r7, r1
    2dba:	09 f4       	brne	.+2      	; 0x2dbe <f_open+0x200>
    2dbc:	96 c0       	rjmp	.+300    	; 0x2eea <f_open+0x32c>
    2dbe:	40 8a       	std	Z+16, r4	; 0x10
    2dc0:	51 8a       	std	Z+17, r5	; 0x11
    2dc2:	62 8a       	std	Z+18, r6	; 0x12
    2dc4:	73 8a       	std	Z+19, r7	; 0x13
    2dc6:	f8 01       	movw	r30, r16
    2dc8:	81 85       	ldd	r24, Z+9	; 0x09
    2dca:	92 85       	ldd	r25, Z+10	; 0x0a
    2dcc:	a0 e0       	ldi	r26, 0x00	; 0
    2dce:	b0 e0       	ldi	r27, 0x00	; 0
    2dd0:	9c 01       	movw	r18, r24
    2dd2:	ad 01       	movw	r20, r26
    2dd4:	01 2e       	mov	r0, r17
    2dd6:	19 e0       	ldi	r17, 0x09	; 9
    2dd8:	22 0f       	add	r18, r18
    2dda:	33 1f       	adc	r19, r19
    2ddc:	44 1f       	adc	r20, r20
    2dde:	55 1f       	adc	r21, r21
    2de0:	1a 95       	dec	r17
    2de2:	d1 f7       	brne	.-12     	; 0x2dd8 <f_open+0x21a>
    2de4:	10 2d       	mov	r17, r0
    2de6:	2d a7       	std	Y+45, r18	; 0x2d
    2de8:	3e a7       	std	Y+46, r19	; 0x2e
    2dea:	4f a7       	std	Y+47, r20	; 0x2f
    2dec:	58 ab       	std	Y+48, r21	; 0x30
    2dee:	d7 01       	movw	r26, r14
    2df0:	16 96       	adiw	r26, 0x06	; 6
    2df2:	4d 91       	ld	r20, X+
    2df4:	5d 91       	ld	r21, X+
    2df6:	6d 91       	ld	r22, X+
    2df8:	7c 91       	ld	r23, X
    2dfa:	19 97       	sbiw	r26, 0x09	; 9
    2dfc:	8d a5       	ldd	r24, Y+45	; 0x2d
    2dfe:	9e a5       	ldd	r25, Y+46	; 0x2e
    2e00:	af a5       	ldd	r26, Y+47	; 0x2f
    2e02:	b8 a9       	ldd	r27, Y+48	; 0x30
    2e04:	84 15       	cp	r24, r4
    2e06:	95 05       	cpc	r25, r5
    2e08:	a6 05       	cpc	r26, r6
    2e0a:	b7 05       	cpc	r27, r7
    2e0c:	08 f0       	brcs	.+2      	; 0x2e10 <f_open+0x252>
    2e0e:	5c c0       	rjmp	.+184    	; 0x2ec8 <f_open+0x30a>
    2e10:	c7 01       	movw	r24, r14
    2e12:	0e 94 57 0b 	call	0x16ae	; 0x16ae <get_fat>
    2e16:	ab 01       	movw	r20, r22
    2e18:	bc 01       	movw	r22, r24
    2e1a:	42 30       	cpi	r20, 0x02	; 2
    2e1c:	51 05       	cpc	r21, r1
    2e1e:	61 05       	cpc	r22, r1
    2e20:	71 05       	cpc	r23, r1
    2e22:	08 f0       	brcs	.+2      	; 0x2e26 <f_open+0x268>
    2e24:	80 c0       	rjmp	.+256    	; 0x2f26 <f_open+0x368>
    2e26:	8f c0       	rjmp	.+286    	; 0x2f46 <f_open+0x388>
    2e28:	c9 a4       	ldd	r12, Y+41	; 0x29
    2e2a:	da a4       	ldd	r13, Y+42	; 0x2a
    2e2c:	c6 01       	movw	r24, r12
    2e2e:	0e 94 37 08 	call	0x106e	; 0x106e <clust2sect>
    2e32:	61 15       	cp	r22, r1
    2e34:	71 05       	cpc	r23, r1
    2e36:	81 05       	cpc	r24, r1
    2e38:	91 05       	cpc	r25, r1
    2e3a:	09 f4       	brne	.+2      	; 0x2e3e <f_open+0x280>
    2e3c:	58 c0       	rjmp	.+176    	; 0x2eee <f_open+0x330>
    2e3e:	03 2e       	mov	r0, r19
    2e40:	39 e0       	ldi	r19, 0x09	; 9
    2e42:	76 94       	lsr	r7
    2e44:	67 94       	ror	r6
    2e46:	57 94       	ror	r5
    2e48:	47 94       	ror	r4
    2e4a:	3a 95       	dec	r19
    2e4c:	d1 f7       	brne	.-12     	; 0x2e42 <f_open+0x284>
    2e4e:	30 2d       	mov	r19, r0
    2e50:	9b 01       	movw	r18, r22
    2e52:	ac 01       	movw	r20, r24
    2e54:	24 0d       	add	r18, r4
    2e56:	35 1d       	adc	r19, r5
    2e58:	46 1d       	adc	r20, r6
    2e5a:	57 1d       	adc	r21, r7
    2e5c:	d7 01       	movw	r26, r14
    2e5e:	58 96       	adiw	r26, 0x18	; 24
    2e60:	2d 93       	st	X+, r18
    2e62:	3d 93       	st	X+, r19
    2e64:	4d 93       	st	X+, r20
    2e66:	5c 93       	st	X, r21
    2e68:	5b 97       	sbiw	r26, 0x1b	; 27
    2e6a:	01 e0       	ldi	r16, 0x01	; 1
    2e6c:	10 e0       	ldi	r17, 0x00	; 0
    2e6e:	b5 01       	movw	r22, r10
    2e70:	f6 01       	movw	r30, r12
    2e72:	81 81       	ldd	r24, Z+1	; 0x01
    2e74:	81 d5       	rcall	.+2818   	; 0x3978 <disk_read>
    2e76:	81 11       	cpse	r24, r1
    2e78:	3c c0       	rjmp	.+120    	; 0x2ef2 <f_open+0x334>
    2e7a:	37 c0       	rjmp	.+110    	; 0x2eea <f_open+0x32c>
    2e7c:	d7 01       	movw	r26, r14
    2e7e:	1d 92       	st	X+, r1
    2e80:	1c 92       	st	X, r1
    2e82:	6c c0       	rjmp	.+216    	; 0x2f5c <f_open+0x39e>
    2e84:	89 e0       	ldi	r24, 0x09	; 9
    2e86:	6a c0       	rjmp	.+212    	; 0x2f5c <f_open+0x39e>
    2e88:	1c 71       	andi	r17, 0x1C	; 28
    2e8a:	09 f0       	breq	.+2      	; 0x2e8e <f_open+0x2d0>
    2e8c:	d0 ce       	rjmp	.-608    	; 0x2c2e <f_open+0x70>
    2e8e:	0c c0       	rjmp	.+24     	; 0x2ea8 <f_open+0x2ea>
    2e90:	1c 71       	andi	r17, 0x1C	; 28
    2e92:	89 f5       	brne	.+98     	; 0x2ef6 <f_open+0x338>
    2e94:	86 e0       	ldi	r24, 0x06	; 6
    2e96:	08 c0       	rjmp	.+16     	; 0x2ea8 <f_open+0x2ea>
    2e98:	81 2f       	mov	r24, r17
    2e9a:	8c 71       	andi	r24, 0x1C	; 28
    2e9c:	09 f0       	breq	.+2      	; 0x2ea0 <f_open+0x2e2>
    2e9e:	d3 ce       	rjmp	.-602    	; 0x2c46 <f_open+0x88>
    2ea0:	2f c0       	rjmp	.+94     	; 0x2f00 <f_open+0x342>
    2ea2:	87 e0       	ldi	r24, 0x07	; 7
    2ea4:	01 c0       	rjmp	.+2      	; 0x2ea8 <f_open+0x2ea>
    2ea6:	84 e0       	ldi	r24, 0x04	; 4
    2ea8:	81 11       	cpse	r24, r1
    2eaa:	e8 cf       	rjmp	.-48     	; 0x2e7c <f_open+0x2be>
    2eac:	45 cf       	rjmp	.-374    	; 0x2d38 <f_open+0x17a>
    2eae:	d3 fc       	sbrc	r13, 3
    2eb0:	31 cf       	rjmp	.-414    	; 0x2d14 <f_open+0x156>
    2eb2:	33 cf       	rjmp	.-410    	; 0x2d1a <f_open+0x15c>
    2eb4:	8f ef       	ldi	r24, 0xFF	; 255
    2eb6:	9f ef       	ldi	r25, 0xFF	; 255
    2eb8:	dc 01       	movw	r26, r24
    2eba:	f7 01       	movw	r30, r14
    2ebc:	84 8b       	std	Z+20, r24	; 0x14
    2ebe:	95 8b       	std	Z+21, r25	; 0x15
    2ec0:	a6 8b       	std	Z+22, r26	; 0x16
    2ec2:	b7 8b       	std	Z+23, r27	; 0x17
    2ec4:	81 e0       	ldi	r24, 0x01	; 1
    2ec6:	da cf       	rjmp	.-76     	; 0x2e7c <f_open+0x2be>
    2ec8:	d7 01       	movw	r26, r14
    2eca:	54 96       	adiw	r26, 0x14	; 20
    2ecc:	4d 93       	st	X+, r20
    2ece:	5d 93       	st	X+, r21
    2ed0:	6d 93       	st	X+, r22
    2ed2:	7c 93       	st	X, r23
    2ed4:	57 97       	sbiw	r26, 0x17	; 23
    2ed6:	d3 01       	movw	r26, r6
    2ed8:	c2 01       	movw	r24, r4
    2eda:	91 70       	andi	r25, 0x01	; 1
    2edc:	aa 27       	eor	r26, r26
    2ede:	bb 27       	eor	r27, r27
    2ee0:	89 2b       	or	r24, r25
    2ee2:	8a 2b       	or	r24, r26
    2ee4:	8b 2b       	or	r24, r27
    2ee6:	09 f0       	breq	.+2      	; 0x2eea <f_open+0x32c>
    2ee8:	9f cf       	rjmp	.-194    	; 0x2e28 <f_open+0x26a>
    2eea:	80 e0       	ldi	r24, 0x00	; 0
    2eec:	37 c0       	rjmp	.+110    	; 0x2f5c <f_open+0x39e>
    2eee:	82 e0       	ldi	r24, 0x02	; 2
    2ef0:	c5 cf       	rjmp	.-118    	; 0x2e7c <f_open+0x2be>
    2ef2:	81 e0       	ldi	r24, 0x01	; 1
    2ef4:	c3 cf       	rjmp	.-122    	; 0x2e7c <f_open+0x2be>
    2ef6:	86 e0       	ldi	r24, 0x06	; 6
    2ef8:	bd 2d       	mov	r27, r13
    2efa:	b8 60       	ori	r27, 0x08	; 8
    2efc:	db 2e       	mov	r13, r27
    2efe:	d4 cf       	rjmp	.-88     	; 0x2ea8 <f_open+0x2ea>
    2f00:	8d 81       	ldd	r24, Y+5	; 0x05
    2f02:	84 fd       	sbrc	r24, 4
    2f04:	d0 cf       	rjmp	.-96     	; 0x2ea6 <f_open+0x2e8>
    2f06:	01 cf       	rjmp	.-510    	; 0x2d0a <f_open+0x14c>
    2f08:	8d a5       	ldd	r24, Y+45	; 0x2d
    2f0a:	9e a5       	ldd	r25, Y+46	; 0x2e
    2f0c:	af a5       	ldd	r26, Y+47	; 0x2f
    2f0e:	b8 a9       	ldd	r27, Y+48	; 0x30
    2f10:	48 1a       	sub	r4, r24
    2f12:	59 0a       	sbc	r5, r25
    2f14:	6a 0a       	sbc	r6, r26
    2f16:	7b 0a       	sbc	r7, r27
    2f18:	84 15       	cp	r24, r4
    2f1a:	95 05       	cpc	r25, r5
    2f1c:	a6 05       	cpc	r26, r6
    2f1e:	b7 05       	cpc	r27, r7
    2f20:	08 f4       	brcc	.+2      	; 0x2f24 <f_open+0x366>
    2f22:	76 cf       	rjmp	.-276    	; 0x2e10 <f_open+0x252>
    2f24:	d1 cf       	rjmp	.-94     	; 0x2ec8 <f_open+0x30a>
    2f26:	4f 3f       	cpi	r20, 0xFF	; 255
    2f28:	9f ef       	ldi	r25, 0xFF	; 255
    2f2a:	59 07       	cpc	r21, r25
    2f2c:	69 07       	cpc	r22, r25
    2f2e:	79 07       	cpc	r23, r25
    2f30:	59 f7       	brne	.-42     	; 0x2f08 <f_open+0x34a>
    2f32:	c0 cf       	rjmp	.-128    	; 0x2eb4 <f_open+0x2f6>
    2f34:	d7 01       	movw	r26, r14
    2f36:	54 96       	adiw	r26, 0x14	; 20
    2f38:	4d 93       	st	X+, r20
    2f3a:	5d 93       	st	X+, r21
    2f3c:	6d 93       	st	X+, r22
    2f3e:	7c 93       	st	X, r23
    2f40:	57 97       	sbiw	r26, 0x17	; 23
    2f42:	82 e0       	ldi	r24, 0x02	; 2
    2f44:	9b cf       	rjmp	.-202    	; 0x2e7c <f_open+0x2be>
    2f46:	4f 3f       	cpi	r20, 0xFF	; 255
    2f48:	bf ef       	ldi	r27, 0xFF	; 255
    2f4a:	5b 07       	cpc	r21, r27
    2f4c:	6b 07       	cpc	r22, r27
    2f4e:	7b 07       	cpc	r23, r27
    2f50:	89 f7       	brne	.-30     	; 0x2f34 <f_open+0x376>
    2f52:	b0 cf       	rjmp	.-160    	; 0x2eb4 <f_open+0x2f6>
    2f54:	87 e0       	ldi	r24, 0x07	; 7
    2f56:	92 cf       	rjmp	.-220    	; 0x2e7c <f_open+0x2be>
    2f58:	88 e0       	ldi	r24, 0x08	; 8
    2f5a:	90 cf       	rjmp	.-224    	; 0x2e7c <f_open+0x2be>
    2f5c:	e0 96       	adiw	r28, 0x30	; 48
    2f5e:	cd bf       	out	0x3d, r28	; 61
    2f60:	de bf       	out	0x3e, r29	; 62
    2f62:	df 91       	pop	r29
    2f64:	cf 91       	pop	r28
    2f66:	1f 91       	pop	r17
    2f68:	0f 91       	pop	r16
    2f6a:	ff 90       	pop	r15
    2f6c:	ef 90       	pop	r14
    2f6e:	df 90       	pop	r13
    2f70:	cf 90       	pop	r12
    2f72:	bf 90       	pop	r11
    2f74:	af 90       	pop	r10
    2f76:	9f 90       	pop	r9
    2f78:	8f 90       	pop	r8
    2f7a:	7f 90       	pop	r7
    2f7c:	6f 90       	pop	r6
    2f7e:	5f 90       	pop	r5
    2f80:	4f 90       	pop	r4
    2f82:	08 95       	ret

00002f84 <f_write>:
    2f84:	2f 92       	push	r2
    2f86:	3f 92       	push	r3
    2f88:	4f 92       	push	r4
    2f8a:	5f 92       	push	r5
    2f8c:	6f 92       	push	r6
    2f8e:	7f 92       	push	r7
    2f90:	8f 92       	push	r8
    2f92:	9f 92       	push	r9
    2f94:	af 92       	push	r10
    2f96:	bf 92       	push	r11
    2f98:	cf 92       	push	r12
    2f9a:	df 92       	push	r13
    2f9c:	ef 92       	push	r14
    2f9e:	ff 92       	push	r15
    2fa0:	0f 93       	push	r16
    2fa2:	1f 93       	push	r17
    2fa4:	cf 93       	push	r28
    2fa6:	df 93       	push	r29
    2fa8:	cd b7       	in	r28, 0x3d	; 61
    2faa:	de b7       	in	r29, 0x3e	; 62
    2fac:	2a 97       	sbiw	r28, 0x0a	; 10
    2fae:	cd bf       	out	0x3d, r28	; 61
    2fb0:	de bf       	out	0x3e, r29	; 62
    2fb2:	7c 01       	movw	r14, r24
    2fb4:	4b 01       	movw	r8, r22
    2fb6:	6a 01       	movw	r12, r20
    2fb8:	59 01       	movw	r10, r18
    2fba:	f9 01       	movw	r30, r18
    2fbc:	10 82       	st	Z, r1
    2fbe:	11 82       	std	Z+1, r1	; 0x01
    2fc0:	8f 83       	std	Y+7, r24	; 0x07
    2fc2:	f8 86       	std	Y+8, r15	; 0x08
    2fc4:	be 01       	movw	r22, r28
    2fc6:	6f 5f       	subi	r22, 0xFF	; 255
    2fc8:	7f 4f       	sbci	r23, 0xFF	; 255
    2fca:	0e 94 f2 08 	call	0x11e4	; 0x11e4 <validate>
    2fce:	81 11       	cpse	r24, r1
    2fd0:	90 c1       	rjmp	.+800    	; 0x32f2 <f_write+0x36e>
    2fd2:	f7 01       	movw	r30, r14
    2fd4:	87 85       	ldd	r24, Z+15	; 0x0f
    2fd6:	81 11       	cpse	r24, r1
    2fd8:	8c c1       	rjmp	.+792    	; 0x32f2 <f_write+0x36e>
    2fda:	86 85       	ldd	r24, Z+14	; 0x0e
    2fdc:	81 ff       	sbrs	r24, 1
    2fde:	88 c1       	rjmp	.+784    	; 0x32f0 <f_write+0x36c>
    2fe0:	80 89       	ldd	r24, Z+16	; 0x10
    2fe2:	91 89       	ldd	r25, Z+17	; 0x11
    2fe4:	a2 89       	ldd	r26, Z+18	; 0x12
    2fe6:	b3 89       	ldd	r27, Z+19	; 0x13
    2fe8:	ac 01       	movw	r20, r24
    2fea:	bd 01       	movw	r22, r26
    2fec:	4c 0d       	add	r20, r12
    2fee:	5d 1d       	adc	r21, r13
    2ff0:	61 1d       	adc	r22, r1
    2ff2:	71 1d       	adc	r23, r1
    2ff4:	48 17       	cp	r20, r24
    2ff6:	59 07       	cpc	r21, r25
    2ff8:	6a 07       	cpc	r22, r26
    2ffa:	7b 07       	cpc	r23, r27
    2ffc:	18 f4       	brcc	.+6      	; 0x3004 <f_write+0x80>
    2ffe:	6c 01       	movw	r12, r24
    3000:	c0 94       	com	r12
    3002:	d0 94       	com	r13
    3004:	c1 14       	cp	r12, r1
    3006:	d1 04       	cpc	r13, r1
    3008:	09 f4       	brne	.+2      	; 0x300c <f_write+0x88>
    300a:	6c c1       	rjmp	.+728    	; 0x32e4 <f_write+0x360>
    300c:	97 01       	movw	r18, r14
    300e:	2e 5d       	subi	r18, 0xDE	; 222
    3010:	3f 4f       	sbci	r19, 0xFF	; 255
    3012:	29 87       	std	Y+9, r18	; 0x09
    3014:	3a 87       	std	Y+10, r19	; 0x0a
    3016:	f7 01       	movw	r30, r14
    3018:	80 89       	ldd	r24, Z+16	; 0x10
    301a:	91 89       	ldd	r25, Z+17	; 0x11
    301c:	a2 89       	ldd	r26, Z+18	; 0x12
    301e:	b3 89       	ldd	r27, Z+19	; 0x13
    3020:	ac 01       	movw	r20, r24
    3022:	bd 01       	movw	r22, r26
    3024:	51 70       	andi	r21, 0x01	; 1
    3026:	66 27       	eor	r22, r22
    3028:	77 27       	eor	r23, r23
    302a:	45 2b       	or	r20, r21
    302c:	46 2b       	or	r20, r22
    302e:	47 2b       	or	r20, r23
    3030:	09 f0       	breq	.+2      	; 0x3034 <f_write+0xb0>
    3032:	12 c1       	rjmp	.+548    	; 0x3258 <f_write+0x2d4>
    3034:	e9 81       	ldd	r30, Y+1	; 0x01
    3036:	fa 81       	ldd	r31, Y+2	; 0x02
    3038:	61 84       	ldd	r6, Z+9	; 0x09
    303a:	72 84       	ldd	r7, Z+10	; 0x0a
    303c:	f1 e0       	ldi	r31, 0x01	; 1
    303e:	6f 1a       	sub	r6, r31
    3040:	71 08       	sbc	r7, r1
    3042:	ac 01       	movw	r20, r24
    3044:	bd 01       	movw	r22, r26
    3046:	03 2e       	mov	r0, r19
    3048:	39 e0       	ldi	r19, 0x09	; 9
    304a:	76 95       	lsr	r23
    304c:	67 95       	ror	r22
    304e:	57 95       	ror	r21
    3050:	47 95       	ror	r20
    3052:	3a 95       	dec	r19
    3054:	d1 f7       	brne	.-12     	; 0x304a <f_write+0xc6>
    3056:	30 2d       	mov	r19, r0
    3058:	64 22       	and	r6, r20
    305a:	75 22       	and	r7, r21
    305c:	61 14       	cp	r6, r1
    305e:	71 04       	cpc	r7, r1
    3060:	09 f0       	breq	.+2      	; 0x3064 <f_write+0xe0>
    3062:	49 c0       	rjmp	.+146    	; 0x30f6 <f_write+0x172>
    3064:	89 2b       	or	r24, r25
    3066:	8a 2b       	or	r24, r26
    3068:	8b 2b       	or	r24, r27
    306a:	91 f4       	brne	.+36     	; 0x3090 <f_write+0x10c>
    306c:	f7 01       	movw	r30, r14
    306e:	66 81       	ldd	r22, Z+6	; 0x06
    3070:	77 81       	ldd	r23, Z+7	; 0x07
    3072:	80 85       	ldd	r24, Z+8	; 0x08
    3074:	91 85       	ldd	r25, Z+9	; 0x09
    3076:	61 15       	cp	r22, r1
    3078:	71 05       	cpc	r23, r1
    307a:	81 05       	cpc	r24, r1
    307c:	91 05       	cpc	r25, r1
    307e:	b9 f4       	brne	.+46     	; 0x30ae <f_write+0x12a>
    3080:	40 e0       	ldi	r20, 0x00	; 0
    3082:	50 e0       	ldi	r21, 0x00	; 0
    3084:	ba 01       	movw	r22, r20
    3086:	8f 81       	ldd	r24, Y+7	; 0x07
    3088:	98 85       	ldd	r25, Y+8	; 0x08
    308a:	0e 94 1d 0d 	call	0x1a3a	; 0x1a3a <create_chain>
    308e:	09 c0       	rjmp	.+18     	; 0x30a2 <f_write+0x11e>
    3090:	f7 01       	movw	r30, r14
    3092:	44 89       	ldd	r20, Z+20	; 0x14
    3094:	55 89       	ldd	r21, Z+21	; 0x15
    3096:	66 89       	ldd	r22, Z+22	; 0x16
    3098:	77 89       	ldd	r23, Z+23	; 0x17
    309a:	8f 81       	ldd	r24, Y+7	; 0x07
    309c:	98 85       	ldd	r25, Y+8	; 0x08
    309e:	0e 94 1d 0d 	call	0x1a3a	; 0x1a3a <create_chain>
    30a2:	61 15       	cp	r22, r1
    30a4:	71 05       	cpc	r23, r1
    30a6:	81 05       	cpc	r24, r1
    30a8:	91 05       	cpc	r25, r1
    30aa:	09 f4       	brne	.+2      	; 0x30ae <f_write+0x12a>
    30ac:	1b c1       	rjmp	.+566    	; 0x32e4 <f_write+0x360>
    30ae:	61 30       	cpi	r22, 0x01	; 1
    30b0:	71 05       	cpc	r23, r1
    30b2:	81 05       	cpc	r24, r1
    30b4:	91 05       	cpc	r25, r1
    30b6:	21 f4       	brne	.+8      	; 0x30c0 <f_write+0x13c>
    30b8:	82 e0       	ldi	r24, 0x02	; 2
    30ba:	f7 01       	movw	r30, r14
    30bc:	87 87       	std	Z+15, r24	; 0x0f
    30be:	19 c1       	rjmp	.+562    	; 0x32f2 <f_write+0x36e>
    30c0:	6f 3f       	cpi	r22, 0xFF	; 255
    30c2:	ff ef       	ldi	r31, 0xFF	; 255
    30c4:	7f 07       	cpc	r23, r31
    30c6:	8f 07       	cpc	r24, r31
    30c8:	9f 07       	cpc	r25, r31
    30ca:	21 f4       	brne	.+8      	; 0x30d4 <f_write+0x150>
    30cc:	81 e0       	ldi	r24, 0x01	; 1
    30ce:	f7 01       	movw	r30, r14
    30d0:	87 87       	std	Z+15, r24	; 0x0f
    30d2:	0f c1       	rjmp	.+542    	; 0x32f2 <f_write+0x36e>
    30d4:	f7 01       	movw	r30, r14
    30d6:	64 8b       	std	Z+20, r22	; 0x14
    30d8:	75 8b       	std	Z+21, r23	; 0x15
    30da:	86 8b       	std	Z+22, r24	; 0x16
    30dc:	97 8b       	std	Z+23, r25	; 0x17
    30de:	06 81       	ldd	r16, Z+6	; 0x06
    30e0:	17 81       	ldd	r17, Z+7	; 0x07
    30e2:	20 85       	ldd	r18, Z+8	; 0x08
    30e4:	31 85       	ldd	r19, Z+9	; 0x09
    30e6:	01 2b       	or	r16, r17
    30e8:	02 2b       	or	r16, r18
    30ea:	03 2b       	or	r16, r19
    30ec:	21 f4       	brne	.+8      	; 0x30f6 <f_write+0x172>
    30ee:	66 83       	std	Z+6, r22	; 0x06
    30f0:	77 83       	std	Z+7, r23	; 0x07
    30f2:	80 87       	std	Z+8, r24	; 0x08
    30f4:	91 87       	std	Z+9, r25	; 0x09
    30f6:	f7 01       	movw	r30, r14
    30f8:	86 85       	ldd	r24, Z+14	; 0x0e
    30fa:	88 23       	and	r24, r24
    30fc:	b4 f4       	brge	.+44     	; 0x312a <f_write+0x1a6>
    30fe:	20 8d       	ldd	r18, Z+24	; 0x18
    3100:	31 8d       	ldd	r19, Z+25	; 0x19
    3102:	42 8d       	ldd	r20, Z+26	; 0x1a
    3104:	53 8d       	ldd	r21, Z+27	; 0x1b
    3106:	e9 81       	ldd	r30, Y+1	; 0x01
    3108:	fa 81       	ldd	r31, Y+2	; 0x02
    310a:	01 e0       	ldi	r16, 0x01	; 1
    310c:	10 e0       	ldi	r17, 0x00	; 0
    310e:	69 85       	ldd	r22, Y+9	; 0x09
    3110:	7a 85       	ldd	r23, Y+10	; 0x0a
    3112:	81 81       	ldd	r24, Z+1	; 0x01
    3114:	3e d4       	rcall	.+2172   	; 0x3992 <disk_write>
    3116:	88 23       	and	r24, r24
    3118:	21 f0       	breq	.+8      	; 0x3122 <f_write+0x19e>
    311a:	81 e0       	ldi	r24, 0x01	; 1
    311c:	f7 01       	movw	r30, r14
    311e:	87 87       	std	Z+15, r24	; 0x0f
    3120:	e8 c0       	rjmp	.+464    	; 0x32f2 <f_write+0x36e>
    3122:	f7 01       	movw	r30, r14
    3124:	86 85       	ldd	r24, Z+14	; 0x0e
    3126:	8f 77       	andi	r24, 0x7F	; 127
    3128:	86 87       	std	Z+14, r24	; 0x0e
    312a:	29 81       	ldd	r18, Y+1	; 0x01
    312c:	3a 81       	ldd	r19, Y+2	; 0x02
    312e:	2d 83       	std	Y+5, r18	; 0x05
    3130:	3e 83       	std	Y+6, r19	; 0x06
    3132:	f7 01       	movw	r30, r14
    3134:	44 89       	ldd	r20, Z+20	; 0x14
    3136:	55 89       	ldd	r21, Z+21	; 0x15
    3138:	66 89       	ldd	r22, Z+22	; 0x16
    313a:	77 89       	ldd	r23, Z+23	; 0x17
    313c:	c9 01       	movw	r24, r18
    313e:	0e 94 37 08 	call	0x106e	; 0x106e <clust2sect>
    3142:	61 15       	cp	r22, r1
    3144:	71 05       	cpc	r23, r1
    3146:	81 05       	cpc	r24, r1
    3148:	91 05       	cpc	r25, r1
    314a:	21 f4       	brne	.+8      	; 0x3154 <f_write+0x1d0>
    314c:	82 e0       	ldi	r24, 0x02	; 2
    314e:	f7 01       	movw	r30, r14
    3150:	87 87       	std	Z+15, r24	; 0x0f
    3152:	cf c0       	rjmp	.+414    	; 0x32f2 <f_write+0x36e>
    3154:	1b 01       	movw	r2, r22
    3156:	2c 01       	movw	r4, r24
    3158:	26 0c       	add	r2, r6
    315a:	37 1c       	adc	r3, r7
    315c:	41 1c       	adc	r4, r1
    315e:	51 1c       	adc	r5, r1
    3160:	96 01       	movw	r18, r12
    3162:	23 2f       	mov	r18, r19
    3164:	33 27       	eor	r19, r19
    3166:	26 95       	lsr	r18
    3168:	2b 83       	std	Y+3, r18	; 0x03
    316a:	3c 83       	std	Y+4, r19	; 0x04
    316c:	21 15       	cp	r18, r1
    316e:	31 05       	cpc	r19, r1
    3170:	09 f4       	brne	.+2      	; 0x3174 <f_write+0x1f0>
    3172:	46 c0       	rjmp	.+140    	; 0x3200 <f_write+0x27c>
    3174:	ed 81       	ldd	r30, Y+5	; 0x05
    3176:	fe 81       	ldd	r31, Y+6	; 0x06
    3178:	81 85       	ldd	r24, Z+9	; 0x09
    317a:	92 85       	ldd	r25, Z+10	; 0x0a
    317c:	26 0d       	add	r18, r6
    317e:	37 1d       	adc	r19, r7
    3180:	82 17       	cp	r24, r18
    3182:	93 07       	cpc	r25, r19
    3184:	28 f4       	brcc	.+10     	; 0x3190 <f_write+0x20c>
    3186:	9c 01       	movw	r18, r24
    3188:	26 19       	sub	r18, r6
    318a:	37 09       	sbc	r19, r7
    318c:	2b 83       	std	Y+3, r18	; 0x03
    318e:	3c 83       	std	Y+4, r19	; 0x04
    3190:	0b 81       	ldd	r16, Y+3	; 0x03
    3192:	1c 81       	ldd	r17, Y+4	; 0x04
    3194:	a2 01       	movw	r20, r4
    3196:	91 01       	movw	r18, r2
    3198:	b4 01       	movw	r22, r8
    319a:	ed 81       	ldd	r30, Y+5	; 0x05
    319c:	fe 81       	ldd	r31, Y+6	; 0x06
    319e:	81 81       	ldd	r24, Z+1	; 0x01
    31a0:	f8 d3       	rcall	.+2032   	; 0x3992 <disk_write>
    31a2:	88 23       	and	r24, r24
    31a4:	21 f0       	breq	.+8      	; 0x31ae <f_write+0x22a>
    31a6:	81 e0       	ldi	r24, 0x01	; 1
    31a8:	f7 01       	movw	r30, r14
    31aa:	87 87       	std	Z+15, r24	; 0x0f
    31ac:	a2 c0       	rjmp	.+324    	; 0x32f2 <f_write+0x36e>
    31ae:	f7 01       	movw	r30, r14
    31b0:	80 8d       	ldd	r24, Z+24	; 0x18
    31b2:	91 8d       	ldd	r25, Z+25	; 0x19
    31b4:	a2 8d       	ldd	r26, Z+26	; 0x1a
    31b6:	b3 8d       	ldd	r27, Z+27	; 0x1b
    31b8:	82 19       	sub	r24, r2
    31ba:	93 09       	sbc	r25, r3
    31bc:	a4 09       	sbc	r26, r4
    31be:	b5 09       	sbc	r27, r5
    31c0:	2b 81       	ldd	r18, Y+3	; 0x03
    31c2:	3c 81       	ldd	r19, Y+4	; 0x04
    31c4:	a9 01       	movw	r20, r18
    31c6:	60 e0       	ldi	r22, 0x00	; 0
    31c8:	70 e0       	ldi	r23, 0x00	; 0
    31ca:	84 17       	cp	r24, r20
    31cc:	95 07       	cpc	r25, r21
    31ce:	a6 07       	cpc	r26, r22
    31d0:	b7 07       	cpc	r27, r23
    31d2:	80 f4       	brcc	.+32     	; 0x31f4 <f_write+0x270>
    31d4:	98 2f       	mov	r25, r24
    31d6:	88 27       	eor	r24, r24
    31d8:	99 0f       	add	r25, r25
    31da:	b4 01       	movw	r22, r8
    31dc:	68 0f       	add	r22, r24
    31de:	79 1f       	adc	r23, r25
    31e0:	40 e0       	ldi	r20, 0x00	; 0
    31e2:	52 e0       	ldi	r21, 0x02	; 2
    31e4:	89 85       	ldd	r24, Y+9	; 0x09
    31e6:	9a 85       	ldd	r25, Y+10	; 0x0a
    31e8:	0e 94 29 08 	call	0x1052	; 0x1052 <mem_cpy>
    31ec:	f7 01       	movw	r30, r14
    31ee:	86 85       	ldd	r24, Z+14	; 0x0e
    31f0:	8f 77       	andi	r24, 0x7F	; 127
    31f2:	86 87       	std	Z+14, r24	; 0x0e
    31f4:	6b 80       	ldd	r6, Y+3	; 0x03
    31f6:	7c 80       	ldd	r7, Y+4	; 0x04
    31f8:	76 2c       	mov	r7, r6
    31fa:	66 24       	eor	r6, r6
    31fc:	77 0c       	add	r7, r7
    31fe:	48 c0       	rjmp	.+144    	; 0x3290 <f_write+0x30c>
    3200:	f7 01       	movw	r30, r14
    3202:	80 8d       	ldd	r24, Z+24	; 0x18
    3204:	91 8d       	ldd	r25, Z+25	; 0x19
    3206:	a2 8d       	ldd	r26, Z+26	; 0x1a
    3208:	b3 8d       	ldd	r27, Z+27	; 0x1b
    320a:	82 15       	cp	r24, r2
    320c:	93 05       	cpc	r25, r3
    320e:	a4 05       	cpc	r26, r4
    3210:	b5 05       	cpc	r27, r5
    3212:	e9 f0       	breq	.+58     	; 0x324e <f_write+0x2ca>
    3214:	40 89       	ldd	r20, Z+16	; 0x10
    3216:	51 89       	ldd	r21, Z+17	; 0x11
    3218:	62 89       	ldd	r22, Z+18	; 0x12
    321a:	73 89       	ldd	r23, Z+19	; 0x13
    321c:	82 85       	ldd	r24, Z+10	; 0x0a
    321e:	93 85       	ldd	r25, Z+11	; 0x0b
    3220:	a4 85       	ldd	r26, Z+12	; 0x0c
    3222:	b5 85       	ldd	r27, Z+13	; 0x0d
    3224:	48 17       	cp	r20, r24
    3226:	59 07       	cpc	r21, r25
    3228:	6a 07       	cpc	r22, r26
    322a:	7b 07       	cpc	r23, r27
    322c:	80 f4       	brcc	.+32     	; 0x324e <f_write+0x2ca>
    322e:	01 e0       	ldi	r16, 0x01	; 1
    3230:	10 e0       	ldi	r17, 0x00	; 0
    3232:	a2 01       	movw	r20, r4
    3234:	91 01       	movw	r18, r2
    3236:	69 85       	ldd	r22, Y+9	; 0x09
    3238:	7a 85       	ldd	r23, Y+10	; 0x0a
    323a:	ed 81       	ldd	r30, Y+5	; 0x05
    323c:	fe 81       	ldd	r31, Y+6	; 0x06
    323e:	81 81       	ldd	r24, Z+1	; 0x01
    3240:	9b d3       	rcall	.+1846   	; 0x3978 <disk_read>
    3242:	88 23       	and	r24, r24
    3244:	21 f0       	breq	.+8      	; 0x324e <f_write+0x2ca>
    3246:	81 e0       	ldi	r24, 0x01	; 1
    3248:	f7 01       	movw	r30, r14
    324a:	87 87       	std	Z+15, r24	; 0x0f
    324c:	52 c0       	rjmp	.+164    	; 0x32f2 <f_write+0x36e>
    324e:	f7 01       	movw	r30, r14
    3250:	20 8e       	std	Z+24, r2	; 0x18
    3252:	31 8e       	std	Z+25, r3	; 0x19
    3254:	42 8e       	std	Z+26, r4	; 0x1a
    3256:	53 8e       	std	Z+27, r5	; 0x1b
    3258:	f7 01       	movw	r30, r14
    325a:	80 89       	ldd	r24, Z+16	; 0x10
    325c:	91 89       	ldd	r25, Z+17	; 0x11
    325e:	a2 89       	ldd	r26, Z+18	; 0x12
    3260:	b3 89       	ldd	r27, Z+19	; 0x13
    3262:	ac 01       	movw	r20, r24
    3264:	51 70       	andi	r21, 0x01	; 1
    3266:	20 e0       	ldi	r18, 0x00	; 0
    3268:	32 e0       	ldi	r19, 0x02	; 2
    326a:	24 1b       	sub	r18, r20
    326c:	35 0b       	sbc	r19, r21
    326e:	36 01       	movw	r6, r12
    3270:	2c 15       	cp	r18, r12
    3272:	3d 05       	cpc	r19, r13
    3274:	08 f4       	brcc	.+2      	; 0x3278 <f_write+0x2f4>
    3276:	39 01       	movw	r6, r18
    3278:	91 70       	andi	r25, 0x01	; 1
    327a:	82 96       	adiw	r24, 0x22	; 34
    327c:	a3 01       	movw	r20, r6
    327e:	b4 01       	movw	r22, r8
    3280:	8e 0d       	add	r24, r14
    3282:	9f 1d       	adc	r25, r15
    3284:	0e 94 29 08 	call	0x1052	; 0x1052 <mem_cpy>
    3288:	f7 01       	movw	r30, r14
    328a:	86 85       	ldd	r24, Z+14	; 0x0e
    328c:	80 68       	ori	r24, 0x80	; 128
    328e:	86 87       	std	Z+14, r24	; 0x0e
    3290:	86 0c       	add	r8, r6
    3292:	97 1c       	adc	r9, r7
    3294:	f7 01       	movw	r30, r14
    3296:	80 89       	ldd	r24, Z+16	; 0x10
    3298:	91 89       	ldd	r25, Z+17	; 0x11
    329a:	a2 89       	ldd	r26, Z+18	; 0x12
    329c:	b3 89       	ldd	r27, Z+19	; 0x13
    329e:	86 0d       	add	r24, r6
    32a0:	97 1d       	adc	r25, r7
    32a2:	a1 1d       	adc	r26, r1
    32a4:	b1 1d       	adc	r27, r1
    32a6:	80 8b       	std	Z+16, r24	; 0x10
    32a8:	91 8b       	std	Z+17, r25	; 0x11
    32aa:	a2 8b       	std	Z+18, r26	; 0x12
    32ac:	b3 8b       	std	Z+19, r27	; 0x13
    32ae:	42 85       	ldd	r20, Z+10	; 0x0a
    32b0:	53 85       	ldd	r21, Z+11	; 0x0b
    32b2:	64 85       	ldd	r22, Z+12	; 0x0c
    32b4:	75 85       	ldd	r23, Z+13	; 0x0d
    32b6:	84 17       	cp	r24, r20
    32b8:	95 07       	cpc	r25, r21
    32ba:	a6 07       	cpc	r26, r22
    32bc:	b7 07       	cpc	r27, r23
    32be:	10 f4       	brcc	.+4      	; 0x32c4 <f_write+0x340>
    32c0:	db 01       	movw	r26, r22
    32c2:	ca 01       	movw	r24, r20
    32c4:	f7 01       	movw	r30, r14
    32c6:	82 87       	std	Z+10, r24	; 0x0a
    32c8:	93 87       	std	Z+11, r25	; 0x0b
    32ca:	a4 87       	std	Z+12, r26	; 0x0c
    32cc:	b5 87       	std	Z+13, r27	; 0x0d
    32ce:	f5 01       	movw	r30, r10
    32d0:	80 81       	ld	r24, Z
    32d2:	91 81       	ldd	r25, Z+1	; 0x01
    32d4:	86 0d       	add	r24, r6
    32d6:	97 1d       	adc	r25, r7
    32d8:	80 83       	st	Z, r24
    32da:	91 83       	std	Z+1, r25	; 0x01
    32dc:	c6 18       	sub	r12, r6
    32de:	d7 08       	sbc	r13, r7
    32e0:	09 f0       	breq	.+2      	; 0x32e4 <f_write+0x360>
    32e2:	99 ce       	rjmp	.-718    	; 0x3016 <f_write+0x92>
    32e4:	f7 01       	movw	r30, r14
    32e6:	86 85       	ldd	r24, Z+14	; 0x0e
    32e8:	80 64       	ori	r24, 0x40	; 64
    32ea:	86 87       	std	Z+14, r24	; 0x0e
    32ec:	80 e0       	ldi	r24, 0x00	; 0
    32ee:	01 c0       	rjmp	.+2      	; 0x32f2 <f_write+0x36e>
    32f0:	87 e0       	ldi	r24, 0x07	; 7
    32f2:	2a 96       	adiw	r28, 0x0a	; 10
    32f4:	cd bf       	out	0x3d, r28	; 61
    32f6:	de bf       	out	0x3e, r29	; 62
    32f8:	df 91       	pop	r29
    32fa:	cf 91       	pop	r28
    32fc:	1f 91       	pop	r17
    32fe:	0f 91       	pop	r16
    3300:	ff 90       	pop	r15
    3302:	ef 90       	pop	r14
    3304:	df 90       	pop	r13
    3306:	cf 90       	pop	r12
    3308:	bf 90       	pop	r11
    330a:	af 90       	pop	r10
    330c:	9f 90       	pop	r9
    330e:	8f 90       	pop	r8
    3310:	7f 90       	pop	r7
    3312:	6f 90       	pop	r6
    3314:	5f 90       	pop	r5
    3316:	4f 90       	pop	r4
    3318:	3f 90       	pop	r3
    331a:	2f 90       	pop	r2
    331c:	08 95       	ret

0000331e <f_sync>:
    331e:	8f 92       	push	r8
    3320:	9f 92       	push	r9
    3322:	af 92       	push	r10
    3324:	bf 92       	push	r11
    3326:	ef 92       	push	r14
    3328:	ff 92       	push	r15
    332a:	0f 93       	push	r16
    332c:	1f 93       	push	r17
    332e:	cf 93       	push	r28
    3330:	df 93       	push	r29
    3332:	1f 92       	push	r1
    3334:	1f 92       	push	r1
    3336:	cd b7       	in	r28, 0x3d	; 61
    3338:	de b7       	in	r29, 0x3e	; 62
    333a:	7c 01       	movw	r14, r24
    333c:	be 01       	movw	r22, r28
    333e:	6f 5f       	subi	r22, 0xFF	; 255
    3340:	7f 4f       	sbci	r23, 0xFF	; 255
    3342:	0e 94 f2 08 	call	0x11e4	; 0x11e4 <validate>
    3346:	81 11       	cpse	r24, r1
    3348:	59 c0       	rjmp	.+178    	; 0x33fc <f_sync+0xde>
    334a:	f7 01       	movw	r30, r14
    334c:	86 85       	ldd	r24, Z+14	; 0x0e
    334e:	86 ff       	sbrs	r24, 6
    3350:	52 c0       	rjmp	.+164    	; 0x33f6 <f_sync+0xd8>
    3352:	88 23       	and	r24, r24
    3354:	9c f4       	brge	.+38     	; 0x337c <f_sync+0x5e>
    3356:	20 8d       	ldd	r18, Z+24	; 0x18
    3358:	31 8d       	ldd	r19, Z+25	; 0x19
    335a:	42 8d       	ldd	r20, Z+26	; 0x1a
    335c:	53 8d       	ldd	r21, Z+27	; 0x1b
    335e:	e9 81       	ldd	r30, Y+1	; 0x01
    3360:	fa 81       	ldd	r31, Y+2	; 0x02
    3362:	01 e0       	ldi	r16, 0x01	; 1
    3364:	10 e0       	ldi	r17, 0x00	; 0
    3366:	b7 01       	movw	r22, r14
    3368:	6e 5d       	subi	r22, 0xDE	; 222
    336a:	7f 4f       	sbci	r23, 0xFF	; 255
    336c:	81 81       	ldd	r24, Z+1	; 0x01
    336e:	11 d3       	rcall	.+1570   	; 0x3992 <disk_write>
    3370:	81 11       	cpse	r24, r1
    3372:	43 c0       	rjmp	.+134    	; 0x33fa <f_sync+0xdc>
    3374:	f7 01       	movw	r30, r14
    3376:	86 85       	ldd	r24, Z+14	; 0x0e
    3378:	8f 77       	andi	r24, 0x7F	; 127
    337a:	86 87       	std	Z+14, r24	; 0x0e
    337c:	12 d4       	rcall	.+2084   	; 0x3ba2 <get_fattime>
    337e:	4b 01       	movw	r8, r22
    3380:	5c 01       	movw	r10, r24
    3382:	f7 01       	movw	r30, r14
    3384:	44 8d       	ldd	r20, Z+28	; 0x1c
    3386:	55 8d       	ldd	r21, Z+29	; 0x1d
    3388:	66 8d       	ldd	r22, Z+30	; 0x1e
    338a:	77 8d       	ldd	r23, Z+31	; 0x1f
    338c:	89 81       	ldd	r24, Y+1	; 0x01
    338e:	9a 81       	ldd	r25, Y+2	; 0x02
    3390:	0e 94 88 09 	call	0x1310	; 0x1310 <move_window>
    3394:	81 11       	cpse	r24, r1
    3396:	32 c0       	rjmp	.+100    	; 0x33fc <f_sync+0xde>
    3398:	f7 01       	movw	r30, r14
    339a:	00 a1       	ldd	r16, Z+32	; 0x20
    339c:	11 a1       	ldd	r17, Z+33	; 0x21
    339e:	f8 01       	movw	r30, r16
    33a0:	83 85       	ldd	r24, Z+11	; 0x0b
    33a2:	80 62       	ori	r24, 0x20	; 32
    33a4:	83 87       	std	Z+11, r24	; 0x0b
    33a6:	f7 01       	movw	r30, r14
    33a8:	26 81       	ldd	r18, Z+6	; 0x06
    33aa:	37 81       	ldd	r19, Z+7	; 0x07
    33ac:	40 85       	ldd	r20, Z+8	; 0x08
    33ae:	51 85       	ldd	r21, Z+9	; 0x09
    33b0:	b8 01       	movw	r22, r16
    33b2:	80 81       	ld	r24, Z
    33b4:	91 81       	ldd	r25, Z+1	; 0x01
    33b6:	0e 94 4a 0b 	call	0x1694	; 0x1694 <st_clust>
    33ba:	f7 01       	movw	r30, r14
    33bc:	42 85       	ldd	r20, Z+10	; 0x0a
    33be:	53 85       	ldd	r21, Z+11	; 0x0b
    33c0:	64 85       	ldd	r22, Z+12	; 0x0c
    33c2:	75 85       	ldd	r23, Z+13	; 0x0d
    33c4:	c8 01       	movw	r24, r16
    33c6:	4c 96       	adiw	r24, 0x1c	; 28
    33c8:	0e 94 23 08 	call	0x1046	; 0x1046 <st_dword>
    33cc:	b5 01       	movw	r22, r10
    33ce:	a4 01       	movw	r20, r8
    33d0:	c8 01       	movw	r24, r16
    33d2:	46 96       	adiw	r24, 0x16	; 22
    33d4:	0e 94 23 08 	call	0x1046	; 0x1046 <st_dword>
    33d8:	f8 01       	movw	r30, r16
    33da:	12 8a       	std	Z+18, r1	; 0x12
    33dc:	13 8a       	std	Z+19, r1	; 0x13
    33de:	89 81       	ldd	r24, Y+1	; 0x01
    33e0:	9a 81       	ldd	r25, Y+2	; 0x02
    33e2:	21 e0       	ldi	r18, 0x01	; 1
    33e4:	fc 01       	movw	r30, r24
    33e6:	23 83       	std	Z+3, r18	; 0x03
    33e8:	0e 94 c5 09 	call	0x138a	; 0x138a <sync_fs>
    33ec:	f7 01       	movw	r30, r14
    33ee:	96 85       	ldd	r25, Z+14	; 0x0e
    33f0:	9f 7b       	andi	r25, 0xBF	; 191
    33f2:	96 87       	std	Z+14, r25	; 0x0e
    33f4:	03 c0       	rjmp	.+6      	; 0x33fc <f_sync+0xde>
    33f6:	80 e0       	ldi	r24, 0x00	; 0
    33f8:	01 c0       	rjmp	.+2      	; 0x33fc <f_sync+0xde>
    33fa:	81 e0       	ldi	r24, 0x01	; 1
    33fc:	0f 90       	pop	r0
    33fe:	0f 90       	pop	r0
    3400:	df 91       	pop	r29
    3402:	cf 91       	pop	r28
    3404:	1f 91       	pop	r17
    3406:	0f 91       	pop	r16
    3408:	ff 90       	pop	r15
    340a:	ef 90       	pop	r14
    340c:	bf 90       	pop	r11
    340e:	af 90       	pop	r10
    3410:	9f 90       	pop	r9
    3412:	8f 90       	pop	r8
    3414:	08 95       	ret

00003416 <f_close>:
    3416:	0f 93       	push	r16
    3418:	1f 93       	push	r17
    341a:	cf 93       	push	r28
    341c:	df 93       	push	r29
    341e:	1f 92       	push	r1
    3420:	1f 92       	push	r1
    3422:	cd b7       	in	r28, 0x3d	; 61
    3424:	de b7       	in	r29, 0x3e	; 62
    3426:	8c 01       	movw	r16, r24
    3428:	7a df       	rcall	.-268    	; 0x331e <f_sync>
    342a:	81 11       	cpse	r24, r1
    342c:	0b c0       	rjmp	.+22     	; 0x3444 <f_close+0x2e>
    342e:	be 01       	movw	r22, r28
    3430:	6f 5f       	subi	r22, 0xFF	; 255
    3432:	7f 4f       	sbci	r23, 0xFF	; 255
    3434:	c8 01       	movw	r24, r16
    3436:	0e 94 f2 08 	call	0x11e4	; 0x11e4 <validate>
    343a:	81 11       	cpse	r24, r1
    343c:	03 c0       	rjmp	.+6      	; 0x3444 <f_close+0x2e>
    343e:	f8 01       	movw	r30, r16
    3440:	10 82       	st	Z, r1
    3442:	11 82       	std	Z+1, r1	; 0x01
    3444:	0f 90       	pop	r0
    3446:	0f 90       	pop	r0
    3448:	df 91       	pop	r29
    344a:	cf 91       	pop	r28
    344c:	1f 91       	pop	r17
    344e:	0f 91       	pop	r16
    3450:	08 95       	ret

00003452 <f_stat>:

FRESULT f_stat (
	const TCHAR* path,	/* Pointer to the file path */
	FILINFO* fno		/* Pointer to file information to return */
)
{
    3452:	ef 92       	push	r14
    3454:	ff 92       	push	r15
    3456:	1f 93       	push	r17
    3458:	cf 93       	push	r28
    345a:	df 93       	push	r29
    345c:	cd b7       	in	r28, 0x3d	; 61
    345e:	de b7       	in	r29, 0x3e	; 62
    3460:	aa 97       	sbiw	r28, 0x2a	; 42
    3462:	cd bf       	out	0x3d, r28	; 61
    3464:	de bf       	out	0x3e, r29	; 62
    3466:	89 a7       	std	Y+41, r24	; 0x29
    3468:	9a a7       	std	Y+42, r25	; 0x2a
    346a:	7b 01       	movw	r14, r22
	DIR dj;
	DEF_NAMBUF


	/* Get logical drive */
	res = find_volume(&path, &dj.obj.fs, 0);
    346c:	40 e0       	ldi	r20, 0x00	; 0
    346e:	be 01       	movw	r22, r28
    3470:	6f 5f       	subi	r22, 0xFF	; 255
    3472:	7f 4f       	sbci	r23, 0xFF	; 255
    3474:	ce 01       	movw	r24, r28
    3476:	89 96       	adiw	r24, 0x29	; 41
    3478:	0e 94 91 10 	call	0x2122	; 0x2122 <find_volume>
    347c:	18 2f       	mov	r17, r24
	if (res == FR_OK) {
    347e:	81 11       	cpse	r24, r1
    3480:	15 c0       	rjmp	.+42     	; 0x34ac <f_stat+0x5a>
		INIT_NAMBUF(dj.obj.fs);
		res = follow_path(&dj, path);	/* Follow the file path */
    3482:	69 a5       	ldd	r22, Y+41	; 0x29
    3484:	7a a5       	ldd	r23, Y+42	; 0x2a
    3486:	ce 01       	movw	r24, r28
    3488:	01 96       	adiw	r24, 0x01	; 1
    348a:	a4 d9       	rcall	.-3256   	; 0x27d4 <follow_path>
    348c:	18 2f       	mov	r17, r24
		if (res == FR_OK) {				/* Follow completed */
    348e:	81 11       	cpse	r24, r1
    3490:	0d c0       	rjmp	.+26     	; 0x34ac <f_stat+0x5a>
			if (dj.fn[NSFLAG] & NS_NONAME) {	/* It is origin directory */
    3492:	88 a5       	ldd	r24, Y+40	; 0x28
    3494:	88 23       	and	r24, r24
    3496:	4c f0       	brlt	.+18     	; 0x34aa <f_stat+0x58>
				res = FR_INVALID_NAME;
			} else {							/* Found an object */
				if (fno) get_fileinfo(&dj, fno);
    3498:	e1 14       	cp	r14, r1
    349a:	f1 04       	cpc	r15, r1
    349c:	39 f0       	breq	.+14     	; 0x34ac <f_stat+0x5a>
    349e:	b7 01       	movw	r22, r14
    34a0:	ce 01       	movw	r24, r28
    34a2:	01 96       	adiw	r24, 0x01	; 1
    34a4:	0e 94 65 08 	call	0x10ca	; 0x10ca <get_fileinfo>
    34a8:	01 c0       	rjmp	.+2      	; 0x34ac <f_stat+0x5a>
	if (res == FR_OK) {
		INIT_NAMBUF(dj.obj.fs);
		res = follow_path(&dj, path);	/* Follow the file path */
		if (res == FR_OK) {				/* Follow completed */
			if (dj.fn[NSFLAG] & NS_NONAME) {	/* It is origin directory */
				res = FR_INVALID_NAME;
    34aa:	16 e0       	ldi	r17, 0x06	; 6
		}
		FREE_NAMBUF();
	}

	LEAVE_FF(dj.obj.fs, res);
}
    34ac:	81 2f       	mov	r24, r17
    34ae:	aa 96       	adiw	r28, 0x2a	; 42
    34b0:	cd bf       	out	0x3d, r28	; 61
    34b2:	de bf       	out	0x3e, r29	; 62
    34b4:	df 91       	pop	r29
    34b6:	cf 91       	pop	r28
    34b8:	1f 91       	pop	r17
    34ba:	ff 90       	pop	r15
    34bc:	ef 90       	pop	r14
    34be:	08 95       	ret

000034c0 <SPI_SetBaudrate_400kHz>:
        SPI_RW_Byte(0xff);        //Karta ulega deaktywacji po otrzymaniu kolejnego zbocza sygnau SCK
    }
}

void SPI_SetBaudrate_400kHz() {
    SD_SPI.CTRL = (SD_SPI.CTRL & (~(SPI_PRESCALER_gm | SPI_CLK2X_bm))) | SPI_PRESCALER_DIV64_gc; //Preskaler naley dobra zalenie od taktowania CPU
    34c0:	e0 ec       	ldi	r30, 0xC0	; 192
    34c2:	fa e0       	ldi	r31, 0x0A	; 10
    34c4:	80 81       	ld	r24, Z
    34c6:	8c 77       	andi	r24, 0x7C	; 124
    34c8:	82 60       	ori	r24, 0x02	; 2
    34ca:	80 83       	st	Z, r24
    34cc:	08 95       	ret

000034ce <SPI_SetMaxBaudrate>:
}

void SPI_SetMaxBaudrate() {
    SD_SPI.CTRL = (SD_SPI.CTRL & (~SPI_PRESCALER_gm)) | SPI_PRESCALER_DIV4_gc | SPI_CLK2X_bm;
    34ce:	e0 ec       	ldi	r30, 0xC0	; 192
    34d0:	fa e0       	ldi	r31, 0x0A	; 10
    34d2:	80 81       	ld	r24, Z
    34d4:	8c 77       	andi	r24, 0x7C	; 124
    34d6:	80 68       	ori	r24, 0x80	; 128
    34d8:	80 83       	st	Z, r24
    34da:	08 95       	ret

000034dc <SPI_RW_Byte>:
}

uint8_t SPI_RW_Byte(uint8_t byte) {
    SD_SPI.DATA = byte;
    34dc:	80 93 c3 0a 	sts	0x0AC3, r24
    while(!(SD_SPI.STATUS & SPI_IF_bm));
    34e0:	e0 ec       	ldi	r30, 0xC0	; 192
    34e2:	fa e0       	ldi	r31, 0x0A	; 10
    34e4:	82 81       	ldd	r24, Z+2	; 0x02
    34e6:	88 23       	and	r24, r24
    34e8:	ec f7       	brge	.-6      	; 0x34e4 <SPI_RW_Byte+0x8>
    SD_SPI.STATUS = SPI_IF_bm;
    34ea:	e0 ec       	ldi	r30, 0xC0	; 192
    34ec:	fa e0       	ldi	r31, 0x0A	; 10
    34ee:	80 e8       	ldi	r24, 0x80	; 128
    34f0:	82 83       	std	Z+2, r24	; 0x02
    return SD_SPI.DATA;
    34f2:	83 81       	ldd	r24, Z+3	; 0x03
}
    34f4:	08 95       	ret

000034f6 <MemorySPIInit>:

void MemorySPIInit() {
    SD_PORT.DIRSET = SD_MOSI | SD_SCK | SD_CS | PIN4_bm;      //MOSI i SCK s wyjciami
    34f6:	88 eb       	ldi	r24, 0xB8	; 184
    34f8:	80 93 81 06 	sts	0x0681, r24
    SD_SPI.CTRL = SPI_ENABLE_bm | SPI_MASTER_bm | SPI_MODE_0_gc | SPI_PRESCALER_DIV64_gc;
    34fc:	82 e5       	ldi	r24, 0x52	; 82
    34fe:	80 93 c0 0a 	sts	0x0AC0, r24
    SD_Status = STA_NOINIT; //Dysk niezainicjowany
    3502:	81 e0       	ldi	r24, 0x01	; 1
    3504:	80 93 40 29 	sts	0x2940, r24
    3508:	08 95       	ret

0000350a <SD_CRC7>:
}

void SD_CRC7(uint8_t *crc, uint8_t byte) { //Wylicza CRC7 dla karty, pocztkowo crc=0
    350a:	fc 01       	movw	r30, r24
    350c:	28 e0       	ldi	r18, 0x08	; 8
    for (uint8_t i = 0; i < 8; i++) {
        *crc <<= 1;
        if ((((byte & 0x80) ^ (*crc & 0x80)) != 0))
            *crc ^= 0x09;
    350e:	39 e0       	ldi	r19, 0x09	; 9
    SD_Status = STA_NOINIT; //Dysk niezainicjowany
}

void SD_CRC7(uint8_t *crc, uint8_t byte) { //Wylicza CRC7 dla karty, pocztkowo crc=0
    for (uint8_t i = 0; i < 8; i++) {
        *crc <<= 1;
    3510:	90 81       	ld	r25, Z
    3512:	99 0f       	add	r25, r25
        if ((((byte & 0x80) ^ (*crc & 0x80)) != 0))
    3514:	86 2f       	mov	r24, r22
    3516:	89 27       	eor	r24, r25
    3518:	14 f0       	brlt	.+4      	; 0x351e <SD_CRC7+0x14>
    SD_Status = STA_NOINIT; //Dysk niezainicjowany
}

void SD_CRC7(uint8_t *crc, uint8_t byte) { //Wylicza CRC7 dla karty, pocztkowo crc=0
    for (uint8_t i = 0; i < 8; i++) {
        *crc <<= 1;
    351a:	90 83       	st	Z, r25
    351c:	02 c0       	rjmp	.+4      	; 0x3522 <SD_CRC7+0x18>
        if ((((byte & 0x80) ^ (*crc & 0x80)) != 0))
            *crc ^= 0x09;
    351e:	93 27       	eor	r25, r19
    3520:	90 83       	st	Z, r25
        byte <<= 1;
    3522:	66 0f       	add	r22, r22
    3524:	21 50       	subi	r18, 0x01	; 1
    SD_SPI.CTRL = SPI_ENABLE_bm | SPI_MASTER_bm | SPI_MODE_0_gc | SPI_PRESCALER_DIV64_gc;
    SD_Status = STA_NOINIT; //Dysk niezainicjowany
}

void SD_CRC7(uint8_t *crc, uint8_t byte) { //Wylicza CRC7 dla karty, pocztkowo crc=0
    for (uint8_t i = 0; i < 8; i++) {
    3526:	a1 f7       	brne	.-24     	; 0x3510 <SD_CRC7+0x6>
        *crc <<= 1;
        if ((((byte & 0x80) ^ (*crc & 0x80)) != 0))
            *crc ^= 0x09;
        byte <<= 1;
    }
}
    3528:	08 95       	ret

0000352a <SD_GetR7>:
        res = SPI_RW_Byte(0xff);
    } while ((res & 0x80) && --i);
    return res;                //Po wysaniu polecenia karta pozostaje wybrana w celu odczytu/zapisu kolejnych bajtw
}

uint32_t SD_GetR7() { //Pobierz odpowied typu R7
    352a:	cf 92       	push	r12
    352c:	df 92       	push	r13
    352e:	ef 92       	push	r14
    3530:	ff 92       	push	r15
    3532:	cf 93       	push	r28
    3534:	c4 e0       	ldi	r28, 0x04	; 4
    uint32_t R7 = 0;
    3536:	60 e0       	ldi	r22, 0x00	; 0
    3538:	70 e0       	ldi	r23, 0x00	; 0
    353a:	cb 01       	movw	r24, r22
    for(uint8_t i = 0; i < 4; i++) {
        R7 <<= 8;
    353c:	cc 24       	eor	r12, r12
    353e:	d6 2e       	mov	r13, r22
    3540:	e7 2e       	mov	r14, r23
    3542:	f8 2e       	mov	r15, r24
        R7 |= SPI_RW_Byte(0xff);
    3544:	8f ef       	ldi	r24, 0xFF	; 255
    3546:	ca df       	rcall	.-108    	; 0x34dc <SPI_RW_Byte>
    3548:	a7 01       	movw	r20, r14
    354a:	96 01       	movw	r18, r12
    354c:	28 2b       	or	r18, r24
    354e:	ca 01       	movw	r24, r20
    3550:	b9 01       	movw	r22, r18
    3552:	c1 50       	subi	r28, 0x01	; 1
    return res;                //Po wysaniu polecenia karta pozostaje wybrana w celu odczytu/zapisu kolejnych bajtw
}

uint32_t SD_GetR7() { //Pobierz odpowied typu R7
    uint32_t R7 = 0;
    for(uint8_t i = 0; i < 4; i++) {
    3554:	99 f7       	brne	.-26     	; 0x353c <SD_GetR7+0x12>
        R7 <<= 8;
        R7 |= SPI_RW_Byte(0xff);
    }
    return R7;
}
    3556:	cf 91       	pop	r28
    3558:	ff 90       	pop	r15
    355a:	ef 90       	pop	r14
    355c:	df 90       	pop	r13
    355e:	cf 90       	pop	r12
    3560:	08 95       	ret

00003562 <SD_WaitForReady>:
    if(result == false) SD_Status = STA_NODISK;
    SPI_SetMaxBaudrate();						//Przecz interfejs na maksymaln szybko pracy
    return result;
}

_Bool SD_WaitForReady() {
    3562:	cf 93       	push	r28
    3564:	df 93       	push	r29
    uint16_t counter = 5000;            //Czekamy maksymalnie ok. 500 ms
    SPI_RW_Byte(0xff);
    3566:	8f ef       	ldi	r24, 0xFF	; 255
    3568:	b9 df       	rcall	.-142    	; 0x34dc <SPI_RW_Byte>
    SPI_SetMaxBaudrate();						//Przecz interfejs na maksymaln szybko pracy
    return result;
}

_Bool SD_WaitForReady() {
    uint16_t counter = 5000;            //Czekamy maksymalnie ok. 500 ms
    356a:	c8 e8       	ldi	r28, 0x88	; 136
    356c:	d3 e1       	ldi	r29, 0x13	; 19
    SPI_RW_Byte(0xff);
    do {								//Zaczekaj na gotowo karty - sygna CS musi by wczeniej aktywowany
        if(SPI_RW_Byte(0xff) == 0xff) break;
    356e:	8f ef       	ldi	r24, 0xFF	; 255
    3570:	b5 df       	rcall	.-150    	; 0x34dc <SPI_RW_Byte>
    3572:	8f 3f       	cpi	r24, 0xFF	; 255
    3574:	41 f0       	breq	.+16     	; 0x3586 <SD_WaitForReady+0x24>
    3576:	8f e1       	ldi	r24, 0x1F	; 31
    3578:	93 e0       	ldi	r25, 0x03	; 3
    357a:	01 97       	sbiw	r24, 0x01	; 1
    357c:	f1 f7       	brne	.-4      	; 0x357a <SD_WaitForReady+0x18>
    357e:	00 c0       	rjmp	.+0      	; 0x3580 <SD_WaitForReady+0x1e>
    3580:	00 00       	nop
        _delay_us(100);
    } while (--counter);
    3582:	21 97       	sbiw	r28, 0x01	; 1
    3584:	a1 f7       	brne	.-24     	; 0x356e <SD_WaitForReady+0xc>
    return counter ? true : false;      //Czy wystpi timeout?
    3586:	81 e0       	ldi	r24, 0x01	; 1
    3588:	cd 2b       	or	r28, r29
    358a:	09 f4       	brne	.+2      	; 0x358e <SD_WaitForReady+0x2c>
    358c:	80 e0       	ldi	r24, 0x00	; 0
}
    358e:	df 91       	pop	r29
    3590:	cf 91       	pop	r28
    3592:	08 95       	ret

00003594 <SPI_SD_CS>:

uint8_t SD_Status;               //Co aktualnie jest podpite
uint8_t SD_Type;                 //Typ karty - SD lub SDHC

void SPI_SD_CS(_Bool SS_en) {
    if(SS_en) {
    3594:	88 23       	and	r24, r24
    3596:	29 f0       	breq	.+10     	; 0x35a2 <SPI_SD_CS+0xe>
        SD_PORT.OUTCLR = SD_CS; //Aktywuj kart SD
    3598:	88 e0       	ldi	r24, 0x08	; 8
    359a:	80 93 86 06 	sts	0x0686, r24
        SD_WaitForReady();       //Zaczekaj a karta bdzie gotowa
    359e:	e1 cf       	rjmp	.-62     	; 0x3562 <SD_WaitForReady>
    35a0:	08 95       	ret
    } else {
        SD_PORT.OUTSET = SD_CS;
    35a2:	88 e0       	ldi	r24, 0x08	; 8
    35a4:	80 93 85 06 	sts	0x0685, r24
        SPI_RW_Byte(0xff);        //Karta ulega deaktywacji po otrzymaniu kolejnego zbocza sygnau SCK
    35a8:	8f ef       	ldi	r24, 0xFF	; 255
    35aa:	98 cf       	rjmp	.-208    	; 0x34dc <SPI_RW_Byte>
    35ac:	08 95       	ret

000035ae <SD_SendCMD>:
            *crc ^= 0x09;
        byte <<= 1;
    }
}

uint8_t SD_SendCMD(uint8_t cmd, uint32_t arg) {
    35ae:	8f 92       	push	r8
    35b0:	9f 92       	push	r9
    35b2:	af 92       	push	r10
    35b4:	bf 92       	push	r11
    35b6:	cf 92       	push	r12
    35b8:	df 92       	push	r13
    35ba:	ef 92       	push	r14
    35bc:	ff 92       	push	r15
    35be:	1f 93       	push	r17
    35c0:	cf 93       	push	r28
    35c2:	df 93       	push	r29
    35c4:	1f 92       	push	r1
    35c6:	cd b7       	in	r28, 0x3d	; 61
    35c8:	de b7       	in	r29, 0x3e	; 62
    35ca:	18 2f       	mov	r17, r24
    35cc:	6a 01       	movw	r12, r20
    35ce:	7b 01       	movw	r14, r22
    uint8_t crc = 0, res;
    35d0:	19 82       	std	Y+1, r1	; 0x01
    if(cmd & 0x80) {
    35d2:	88 23       	and	r24, r24
    35d4:	44 f4       	brge	.+16     	; 0x35e6 <SD_SendCMD+0x38>
        cmd &= 0x7F;          //Skasuj najstarszy bit polecenia
        res = SD_SendCMD(CMD55, 0); //Kolejne polecenie naley do grupy ACMD
    35d6:	40 e0       	ldi	r20, 0x00	; 0
    35d8:	50 e0       	ldi	r21, 0x00	; 0
    35da:	ba 01       	movw	r22, r20
    35dc:	87 e3       	ldi	r24, 0x37	; 55
    35de:	e7 df       	rcall	.-50     	; 0x35ae <SD_SendCMD>
        if(res > 0x01) return res; //Polecenie CMD55 zakoczyo si bdem
    35e0:	82 30       	cpi	r24, 0x02	; 2
    35e2:	48 f5       	brcc	.+82     	; 0x3636 <SD_SendCMD+0x88>
}

uint8_t SD_SendCMD(uint8_t cmd, uint32_t arg) {
    uint8_t crc = 0, res;
    if(cmd & 0x80) {
        cmd &= 0x7F;          //Skasuj najstarszy bit polecenia
    35e4:	1f 77       	andi	r17, 0x7F	; 127
        res = SD_SendCMD(CMD55, 0); //Kolejne polecenie naley do grupy ACMD
        if(res > 0x01) return res; //Polecenie CMD55 zakoczyo si bdem
    }
    SPI_SD_CS(false);         //Deaktywuj kart
    35e6:	80 e0       	ldi	r24, 0x00	; 0
    35e8:	d5 df       	rcall	.-86     	; 0x3594 <SPI_SD_CS>
    SPI_SD_CS(true);          //Aktywuj kart
    35ea:	81 e0       	ldi	r24, 0x01	; 1
    35ec:	d3 df       	rcall	.-90     	; 0x3594 <SPI_SD_CS>
    cmd |= 0x40;              //najstarsze dwa bity zawsze s rwne 01
    35ee:	10 64       	ori	r17, 0x40	; 64
    SPI_RW_Byte(cmd);
    35f0:	81 2f       	mov	r24, r17
    35f2:	74 df       	rcall	.-280    	; 0x34dc <SPI_RW_Byte>
    SD_CRC7(&crc, cmd);
    35f4:	61 2f       	mov	r22, r17
    35f6:	ce 01       	movw	r24, r28
    35f8:	01 96       	adiw	r24, 0x01	; 1
    35fa:	87 df       	rcall	.-242    	; 0x350a <SD_CRC7>
    35fc:	14 e0       	ldi	r17, 0x04	; 4
    for(uint8_t i = 0; i < 4; i++) {
        SPI_RW_Byte((arg >> 24) & 0xff);
    35fe:	8f 2c       	mov	r8, r15
    3600:	99 24       	eor	r9, r9
    3602:	aa 24       	eor	r10, r10
    3604:	bb 24       	eor	r11, r11
    3606:	88 2d       	mov	r24, r8
    3608:	69 df       	rcall	.-302    	; 0x34dc <SPI_RW_Byte>
        SD_CRC7(&crc, (arg >> 24) & 0xff);
    360a:	68 2d       	mov	r22, r8
    360c:	ce 01       	movw	r24, r28
    360e:	01 96       	adiw	r24, 0x01	; 1
    3610:	7c df       	rcall	.-264    	; 0x350a <SD_CRC7>
        arg <<= 8;
    3612:	fe 2c       	mov	r15, r14
    3614:	ed 2c       	mov	r14, r13
    3616:	dc 2c       	mov	r13, r12
    3618:	cc 24       	eor	r12, r12
    361a:	11 50       	subi	r17, 0x01	; 1
    SPI_SD_CS(false);         //Deaktywuj kart
    SPI_SD_CS(true);          //Aktywuj kart
    cmd |= 0x40;              //najstarsze dwa bity zawsze s rwne 01
    SPI_RW_Byte(cmd);
    SD_CRC7(&crc, cmd);
    for(uint8_t i = 0; i < 4; i++) {
    361c:	81 f7       	brne	.-32     	; 0x35fe <SD_SendCMD+0x50>
        SPI_RW_Byte((arg >> 24) & 0xff);
        SD_CRC7(&crc, (arg >> 24) & 0xff);
        arg <<= 8;
    }
    crc = (crc << 1) | 1;      //CRC7 dla SD jest przesunite o jeden bit w lewo i ma ustawiony najmodszy bit
    361e:	89 81       	ldd	r24, Y+1	; 0x01
    3620:	88 0f       	add	r24, r24
    3622:	81 60       	ori	r24, 0x01	; 1
    3624:	89 83       	std	Y+1, r24	; 0x01
    SPI_RW_Byte(crc);          //Wylij CRC polecenia
    3626:	5a df       	rcall	.-332    	; 0x34dc <SPI_RW_Byte>
    3628:	1a e0       	ldi	r17, 0x0A	; 10
    uint8_t i = 10;       //Odpowied moe nadej od 1 do 10 bajtw po poleceniu
    do {
        res = SPI_RW_Byte(0xff);
    362a:	8f ef       	ldi	r24, 0xFF	; 255
    362c:	57 df       	rcall	.-338    	; 0x34dc <SPI_RW_Byte>
    } while ((res & 0x80) && --i);
    362e:	88 23       	and	r24, r24
    3630:	14 f4       	brge	.+4      	; 0x3636 <SD_SendCMD+0x88>
    3632:	11 50       	subi	r17, 0x01	; 1
    3634:	d1 f7       	brne	.-12     	; 0x362a <SD_SendCMD+0x7c>
    return res;                //Po wysaniu polecenia karta pozostaje wybrana w celu odczytu/zapisu kolejnych bajtw
}
    3636:	0f 90       	pop	r0
    3638:	df 91       	pop	r29
    363a:	cf 91       	pop	r28
    363c:	1f 91       	pop	r17
    363e:	ff 90       	pop	r15
    3640:	ef 90       	pop	r14
    3642:	df 90       	pop	r13
    3644:	cf 90       	pop	r12
    3646:	bf 90       	pop	r11
    3648:	af 90       	pop	r10
    364a:	9f 90       	pop	r9
    364c:	8f 90       	pop	r8
    364e:	08 95       	ret

00003650 <SD_CardInitV1>:
        R7 |= SPI_RW_Byte(0xff);
    }
    return R7;
}

_Bool SD_CardInitV1() {
    3650:	cf 93       	push	r28
    uint8_t i;
    for(i = 0; i < 255; i++) {
    3652:	c0 e0       	ldi	r28, 0x00	; 0
        if(SD_SendCMD(ACMD41, 0) == 0) break;  //Karta w tryb aktywny
    3654:	40 e0       	ldi	r20, 0x00	; 0
    3656:	50 e0       	ldi	r21, 0x00	; 0
    3658:	ba 01       	movw	r22, r20
    365a:	89 ea       	ldi	r24, 0xA9	; 169
    365c:	a8 df       	rcall	.-176    	; 0x35ae <SD_SendCMD>
    365e:	88 23       	and	r24, r24
    3660:	71 f0       	breq	.+28     	; 0x367e <SD_CardInitV1+0x2e>
	#else
		//round up by default
		__ticks_dc = (uint32_t)(ceil(fabs(__tmp)));
	#endif

	__builtin_avr_delay_cycles(__ticks_dc);
    3662:	2f ef       	ldi	r18, 0xFF	; 255
    3664:	89 ef       	ldi	r24, 0xF9	; 249
    3666:	90 e0       	ldi	r25, 0x00	; 0
    3668:	21 50       	subi	r18, 0x01	; 1
    366a:	80 40       	sbci	r24, 0x00	; 0
    366c:	90 40       	sbci	r25, 0x00	; 0
    366e:	e1 f7       	brne	.-8      	; 0x3668 <SD_CardInitV1+0x18>
    3670:	00 c0       	rjmp	.+0      	; 0x3672 <SD_CardInitV1+0x22>
    3672:	00 00       	nop
    return R7;
}

_Bool SD_CardInitV1() {
    uint8_t i;
    for(i = 0; i < 255; i++) {
    3674:	cf 5f       	subi	r28, 0xFF	; 255
    3676:	cf 3f       	cpi	r28, 0xFF	; 255
    3678:	69 f7       	brne	.-38     	; 0x3654 <SD_CardInitV1+0x4>
        if(SD_SendCMD(ACMD41, 0) == 0) break;  //Karta w tryb aktywny
        else _delay_ms(10);
    }
    if(i == 255) return false;      //Karta nie akceptuje polecenia - uszkodzona?
    367a:	80 e0       	ldi	r24, 0x00	; 0
    367c:	11 c0       	rjmp	.+34     	; 0x36a0 <SD_CardInitV1+0x50>
    367e:	cf 3f       	cpi	r28, 0xFF	; 255
    3680:	71 f0       	breq	.+28     	; 0x369e <SD_CardInitV1+0x4e>
    SD_GetR7();                     //Co prawda mamy odpowied R3, ale jej dugo jest taka sama jak R7
    3682:	53 df       	rcall	.-346    	; 0x352a <SD_GetR7>
    SD_SendCMD(CMD16, 512);         //Dugo bloku 512 bajtw
    3684:	40 e0       	ldi	r20, 0x00	; 0
    3686:	52 e0       	ldi	r21, 0x02	; 2
    3688:	60 e0       	ldi	r22, 0x00	; 0
    368a:	70 e0       	ldi	r23, 0x00	; 0
    368c:	80 e1       	ldi	r24, 0x10	; 16
    368e:	8f df       	rcall	.-226    	; 0x35ae <SD_SendCMD>
    SD_Status = 0;
    3690:	10 92 40 29 	sts	0x2940, r1
    SD_Type = CT_SD1;
    3694:	82 e0       	ldi	r24, 0x02	; 2
    3696:	80 93 41 29 	sts	0x2941, r24
    return true;
    369a:	81 e0       	ldi	r24, 0x01	; 1
    369c:	01 c0       	rjmp	.+2      	; 0x36a0 <SD_CardInitV1+0x50>
    uint8_t i;
    for(i = 0; i < 255; i++) {
        if(SD_SendCMD(ACMD41, 0) == 0) break;  //Karta w tryb aktywny
        else _delay_ms(10);
    }
    if(i == 255) return false;      //Karta nie akceptuje polecenia - uszkodzona?
    369e:	80 e0       	ldi	r24, 0x00	; 0
    SD_GetR7();                     //Co prawda mamy odpowied R3, ale jej dugo jest taka sama jak R7
    SD_SendCMD(CMD16, 512);         //Dugo bloku 512 bajtw
    SD_Status = 0;
    SD_Type = CT_SD1;
    return true;
}
    36a0:	cf 91       	pop	r28
    36a2:	08 95       	ret

000036a4 <SD_CardInitV2>:

_Bool SD_CardInitV2() {
    36a4:	cf 93       	push	r28
    uint8_t i;
    if(SD_GetR7() != 0x1aa)
    36a6:	41 df       	rcall	.-382    	; 0x352a <SD_GetR7>
    36a8:	6a 3a       	cpi	r22, 0xAA	; 170
    36aa:	71 40       	sbci	r23, 0x01	; 1
    36ac:	81 05       	cpc	r24, r1
    36ae:	91 05       	cpc	r25, r1
    36b0:	79 f5       	brne	.+94     	; 0x3710 <SD_CardInitV2+0x6c>
    36b2:	c0 e0       	ldi	r28, 0x00	; 0
        return false;  //Bedne napicie pracy karty
    for(i = 0; i < 255; i++) {
        if(SD_SendCMD(ACMD41, SD_OCR_CCS) == 0) break;  //Karta w tryb aktywny
    36b4:	40 e0       	ldi	r20, 0x00	; 0
    36b6:	50 e0       	ldi	r21, 0x00	; 0
    36b8:	60 e0       	ldi	r22, 0x00	; 0
    36ba:	70 e4       	ldi	r23, 0x40	; 64
    36bc:	89 ea       	ldi	r24, 0xA9	; 169
    36be:	77 df       	rcall	.-274    	; 0x35ae <SD_SendCMD>
    36c0:	88 23       	and	r24, r24
    36c2:	71 f0       	breq	.+28     	; 0x36e0 <SD_CardInitV2+0x3c>
    36c4:	8f ef       	ldi	r24, 0xFF	; 255
    36c6:	97 ee       	ldi	r25, 0xE7	; 231
    36c8:	23 e0       	ldi	r18, 0x03	; 3
    36ca:	81 50       	subi	r24, 0x01	; 1
    36cc:	90 40       	sbci	r25, 0x00	; 0
    36ce:	20 40       	sbci	r18, 0x00	; 0
    36d0:	e1 f7       	brne	.-8      	; 0x36ca <SD_CardInitV2+0x26>
    36d2:	00 c0       	rjmp	.+0      	; 0x36d4 <SD_CardInitV2+0x30>
    36d4:	00 00       	nop

_Bool SD_CardInitV2() {
    uint8_t i;
    if(SD_GetR7() != 0x1aa)
        return false;  //Bedne napicie pracy karty
    for(i = 0; i < 255; i++) {
    36d6:	cf 5f       	subi	r28, 0xFF	; 255
    36d8:	cf 3f       	cpi	r28, 0xFF	; 255
    36da:	61 f7       	brne	.-40     	; 0x36b4 <SD_CardInitV2+0x10>
        if(SD_SendCMD(ACMD41, SD_OCR_CCS) == 0) break;  //Karta w tryb aktywny
        else _delay_ms(40);
    }
    if(i == 255) return false;           //Karta nie akceptuje polecenia - uszkodzona?
    36dc:	80 e0       	ldi	r24, 0x00	; 0
    36de:	1d c0       	rjmp	.+58     	; 0x371a <SD_CardInitV2+0x76>
    36e0:	cf 3f       	cpi	r28, 0xFF	; 255
    36e2:	c1 f0       	breq	.+48     	; 0x3714 <SD_CardInitV2+0x70>
    if(SD_SendCMD(CMD58, 0) == 0) {
    36e4:	40 e0       	ldi	r20, 0x00	; 0
    36e6:	50 e0       	ldi	r21, 0x00	; 0
    36e8:	ba 01       	movw	r22, r20
    36ea:	8a e3       	ldi	r24, 0x3A	; 58
    36ec:	60 df       	rcall	.-320    	; 0x35ae <SD_SendCMD>
    36ee:	81 11       	cpse	r24, r1
    36f0:	13 c0       	rjmp	.+38     	; 0x3718 <SD_CardInitV2+0x74>
        SD_Status = 0;
    36f2:	10 92 40 29 	sts	0x2940, r1
        if(SD_GetR7() & SD_OCR_CCS) SD_Type = CT_SD2; //Pobierz OCR
    36f6:	19 df       	rcall	.-462    	; 0x352a <SD_GetR7>
    36f8:	96 ff       	sbrs	r25, 6
    36fa:	05 c0       	rjmp	.+10     	; 0x3706 <SD_CardInitV2+0x62>
    36fc:	84 e0       	ldi	r24, 0x04	; 4
    36fe:	80 93 41 29 	sts	0x2941, r24
        else SD_Type = CT_SD1;
    }
    return true;
    3702:	81 e0       	ldi	r24, 0x01	; 1
    3704:	0a c0       	rjmp	.+20     	; 0x371a <SD_CardInitV2+0x76>
    }
    if(i == 255) return false;           //Karta nie akceptuje polecenia - uszkodzona?
    if(SD_SendCMD(CMD58, 0) == 0) {
        SD_Status = 0;
        if(SD_GetR7() & SD_OCR_CCS) SD_Type = CT_SD2; //Pobierz OCR
        else SD_Type = CT_SD1;
    3706:	82 e0       	ldi	r24, 0x02	; 2
    3708:	80 93 41 29 	sts	0x2941, r24
    }
    return true;
    370c:	81 e0       	ldi	r24, 0x01	; 1
    370e:	05 c0       	rjmp	.+10     	; 0x371a <SD_CardInitV2+0x76>
}

_Bool SD_CardInitV2() {
    uint8_t i;
    if(SD_GetR7() != 0x1aa)
        return false;  //Bedne napicie pracy karty
    3710:	80 e0       	ldi	r24, 0x00	; 0
    3712:	03 c0       	rjmp	.+6      	; 0x371a <SD_CardInitV2+0x76>
    for(i = 0; i < 255; i++) {
        if(SD_SendCMD(ACMD41, SD_OCR_CCS) == 0) break;  //Karta w tryb aktywny
        else _delay_ms(40);
    }
    if(i == 255) return false;           //Karta nie akceptuje polecenia - uszkodzona?
    3714:	80 e0       	ldi	r24, 0x00	; 0
    3716:	01 c0       	rjmp	.+2      	; 0x371a <SD_CardInitV2+0x76>
    if(SD_SendCMD(CMD58, 0) == 0) {
        SD_Status = 0;
        if(SD_GetR7() & SD_OCR_CCS) SD_Type = CT_SD2; //Pobierz OCR
        else SD_Type = CT_SD1;
    }
    return true;
    3718:	81 e0       	ldi	r24, 0x01	; 1
}
    371a:	cf 91       	pop	r28
    371c:	08 95       	ret

0000371e <SD_CardInit>:

_Bool SD_CardInit() {
    371e:	cf 93       	push	r28
    SPI_SetBaudrate_400kHz();     //Kart naley zainicjowa przy SCK rwnym 400 kHz
    3720:	cf de       	rcall	.-610    	; 0x34c0 <SPI_SetBaudrate_400kHz>
    SPI_SD_CS(false);                      //Deaktywuj kart
    3722:	80 e0       	ldi	r24, 0x00	; 0
    3724:	37 df       	rcall	.-402    	; 0x3594 <SPI_SD_CS>
    3726:	ca e0       	ldi	r28, 0x0A	; 10
    for(uint8_t i = 0; i < 10; i++) {
        SPI_RW_Byte(0xff);                 //Wylij co najmniej 74 takty SCK dla inicjalizacji karty
    3728:	8f ef       	ldi	r24, 0xFF	; 255
    372a:	d8 de       	rcall	.-592    	; 0x34dc <SPI_RW_Byte>
    372c:	c1 50       	subi	r28, 0x01	; 1
}

_Bool SD_CardInit() {
    SPI_SetBaudrate_400kHz();     //Kart naley zainicjowa przy SCK rwnym 400 kHz
    SPI_SD_CS(false);                      //Deaktywuj kart
    for(uint8_t i = 0; i < 10; i++) {
    372e:	e1 f7       	brne	.-8      	; 0x3728 <SD_CardInit+0xa>
    3730:	ca e0       	ldi	r28, 0x0A	; 10
        SPI_RW_Byte(0xff);                 //Wylij co najmniej 74 takty SCK dla inicjalizacji karty
    }
    uint8_t i = 10, ret;
    do {
        ret = SD_SendCMD(CMD0, 0);
    3732:	40 e0       	ldi	r20, 0x00	; 0
    3734:	50 e0       	ldi	r21, 0x00	; 0
    3736:	ba 01       	movw	r22, r20
    3738:	80 e0       	ldi	r24, 0x00	; 0
    373a:	39 df       	rcall	.-398    	; 0x35ae <SD_SendCMD>
    } while ((ret != SD_R1_Idle) && --i);  //Zaczekaj na prawidow odpowied ze strony karty
    373c:	81 30       	cpi	r24, 0x01	; 1
    373e:	19 f0       	breq	.+6      	; 0x3746 <SD_CardInit+0x28>
    3740:	c1 50       	subi	r28, 0x01	; 1
    3742:	b9 f7       	brne	.-18     	; 0x3732 <SD_CardInit+0x14>
    3744:	02 c0       	rjmp	.+4      	; 0x374a <SD_CardInit+0x2c>
    if(!i) {
    3746:	c1 11       	cpse	r28, r1
    3748:	05 c0       	rjmp	.+10     	; 0x3754 <SD_CardInit+0x36>
        SD_Status = STA_NODISK;            //Brak karty lub inny bd
    374a:	82 e0       	ldi	r24, 0x02	; 2
    374c:	80 93 40 29 	sts	0x2940, r24
        return false;                      //Niedoczekalimy si
    3750:	80 e0       	ldi	r24, 0x00	; 0
    3752:	1a c0       	rjmp	.+52     	; 0x3788 <SD_CardInit+0x6a>
    3754:	ca e0       	ldi	r28, 0x0A	; 10
    }
    i = 10;
    do {
        ret = SD_SendCMD(CMD8, 0x1aa);
    3756:	4a ea       	ldi	r20, 0xAA	; 170
    3758:	51 e0       	ldi	r21, 0x01	; 1
    375a:	60 e0       	ldi	r22, 0x00	; 0
    375c:	70 e0       	ldi	r23, 0x00	; 0
    375e:	88 e0       	ldi	r24, 0x08	; 8
    3760:	26 df       	rcall	.-436    	; 0x35ae <SD_SendCMD>
    } while ((ret & 0xc0) && --i);
    3762:	98 2f       	mov	r25, r24
    3764:	90 7c       	andi	r25, 0xC0	; 192
    3766:	11 f0       	breq	.+4      	; 0x376c <SD_CardInit+0x4e>
    3768:	c1 50       	subi	r28, 0x01	; 1
    376a:	a9 f7       	brne	.-22     	; 0x3756 <SD_CardInit+0x38>
    _Bool result;
    if(ret == 0x05) result = SD_CardInitV1();
    376c:	85 30       	cpi	r24, 0x05	; 5
    376e:	19 f4       	brne	.+6      	; 0x3776 <SD_CardInit+0x58>
    3770:	6f df       	rcall	.-290    	; 0x3650 <SD_CardInitV1>
    3772:	c8 2f       	mov	r28, r24
    3774:	02 c0       	rjmp	.+4      	; 0x377a <SD_CardInit+0x5c>
    else result = SD_CardInitV2();				//Z jak kart mamy do czynienia
    3776:	96 df       	rcall	.-212    	; 0x36a4 <SD_CardInitV2>
    3778:	c8 2f       	mov	r28, r24
    if(result == false) SD_Status = STA_NODISK;
    377a:	c1 11       	cpse	r28, r1
    377c:	03 c0       	rjmp	.+6      	; 0x3784 <SD_CardInit+0x66>
    377e:	82 e0       	ldi	r24, 0x02	; 2
    3780:	80 93 40 29 	sts	0x2940, r24
    SPI_SetMaxBaudrate();						//Przecz interfejs na maksymaln szybko pracy
    3784:	a4 de       	rcall	.-696    	; 0x34ce <SPI_SetMaxBaudrate>
    return result;
    3786:	8c 2f       	mov	r24, r28
}
    3788:	cf 91       	pop	r28
    378a:	08 95       	ret

0000378c <SD_Rec_Datablock>:
        _delay_us(100);
    } while (--counter);
    return counter ? true : false;      //Czy wystpi timeout?
}

_Bool SD_Rec_Datablock(uint8_t *buff, uint16_t size) {
    378c:	ef 92       	push	r14
    378e:	ff 92       	push	r15
    3790:	0f 93       	push	r16
    3792:	1f 93       	push	r17
    3794:	cf 93       	push	r28
    3796:	7c 01       	movw	r14, r24
    3798:	8b 01       	movw	r16, r22
    379a:	c9 ec       	ldi	r28, 0xC9	; 201
	#else
		//round up by default
		__ticks_dc = (uint32_t)(ceil(fabs(__tmp)));
	#endif

	__builtin_avr_delay_cycles(__ticks_dc);
    379c:	8f e9       	ldi	r24, 0x9F	; 159
    379e:	9f e0       	ldi	r25, 0x0F	; 15
    37a0:	01 97       	sbiw	r24, 0x01	; 1
    37a2:	f1 f7       	brne	.-4      	; 0x37a0 <SD_Rec_Datablock+0x14>
    37a4:	00 c0       	rjmp	.+0      	; 0x37a6 <SD_Rec_Datablock+0x1a>
    37a6:	00 00       	nop
    uint8_t rec, timeout;
    timeout = 200;
    do {
        _delay_us(500);                  //Zanim blok danych bdzie gotowy potrzebujemy chwilk	-------------------->moliwa optymalizacja - skrcenie czasu
        rec = SPI_RW_Byte(0xff);
    37a8:	8f ef       	ldi	r24, 0xFF	; 255
    37aa:	98 de       	rcall	.-720    	; 0x34dc <SPI_RW_Byte>
    } while((rec == 0xff) && timeout--); //Czekamy na otrzymanie 0xfe, ale max 100 ms
    37ac:	8f 3f       	cpi	r24, 0xFF	; 255
    37ae:	21 f4       	brne	.+8      	; 0x37b8 <SD_Rec_Datablock+0x2c>
    37b0:	c1 50       	subi	r28, 0x01	; 1
    37b2:	a1 f7       	brne	.-24     	; 0x379c <SD_Rec_Datablock+0x10>
    if(rec != 0xfe) return false;		 //Bd - nie ma pocztku danych
    37b4:	80 e0       	ldi	r24, 0x00	; 0
    37b6:	11 c0       	rjmp	.+34     	; 0x37da <SD_Rec_Datablock+0x4e>
    37b8:	8e 3f       	cpi	r24, 0xFE	; 254
    37ba:	71 f4       	brne	.+28     	; 0x37d8 <SD_Rec_Datablock+0x4c>
    do {						         //Odbierz blok danych
        *buff = SPI_RW_Byte(0xff);
    37bc:	8f ef       	ldi	r24, 0xFF	; 255
    37be:	8e de       	rcall	.-740    	; 0x34dc <SPI_RW_Byte>
    37c0:	f7 01       	movw	r30, r14
    37c2:	81 93       	st	Z+, r24
    37c4:	7f 01       	movw	r14, r30
        buff++;
    } while(--size);
    37c6:	01 50       	subi	r16, 0x01	; 1
    37c8:	11 09       	sbc	r17, r1
    37ca:	c1 f7       	brne	.-16     	; 0x37bc <SD_Rec_Datablock+0x30>
    SPI_RW_Byte(0xff);                   //Odbierz CRC bloku danych - obowizkowe
    37cc:	8f ef       	ldi	r24, 0xFF	; 255
    37ce:	86 de       	rcall	.-756    	; 0x34dc <SPI_RW_Byte>
    SPI_RW_Byte(0xff);
    37d0:	8f ef       	ldi	r24, 0xFF	; 255
    37d2:	84 de       	rcall	.-760    	; 0x34dc <SPI_RW_Byte>
    return true;
    37d4:	81 e0       	ldi	r24, 0x01	; 1
    37d6:	01 c0       	rjmp	.+2      	; 0x37da <SD_Rec_Datablock+0x4e>
    timeout = 200;
    do {
        _delay_us(500);                  //Zanim blok danych bdzie gotowy potrzebujemy chwilk	-------------------->moliwa optymalizacja - skrcenie czasu
        rec = SPI_RW_Byte(0xff);
    } while((rec == 0xff) && timeout--); //Czekamy na otrzymanie 0xfe, ale max 100 ms
    if(rec != 0xfe) return false;		 //Bd - nie ma pocztku danych
    37d8:	80 e0       	ldi	r24, 0x00	; 0
        buff++;
    } while(--size);
    SPI_RW_Byte(0xff);                   //Odbierz CRC bloku danych - obowizkowe
    SPI_RW_Byte(0xff);
    return true;
}
    37da:	cf 91       	pop	r28
    37dc:	1f 91       	pop	r17
    37de:	0f 91       	pop	r16
    37e0:	ff 90       	pop	r15
    37e2:	ef 90       	pop	r14
    37e4:	08 95       	ret

000037e6 <SD_Sendblock>:

_Bool SD_Sendblock(const uint8_t *buff, uint8_t token) { //Wylij 512-bajtowy blok danych i zakocz go tokenem
    37e6:	0f 93       	push	r16
    37e8:	1f 93       	push	r17
    37ea:	cf 93       	push	r28
    37ec:	df 93       	push	r29
    37ee:	8c 01       	movw	r16, r24
    37f0:	d6 2f       	mov	r29, r22
    uint8_t resp;
    uint16_t counter;
    if(SD_WaitForReady() == false) return false; //Zaczekaj na gotowo karty
    37f2:	b7 de       	rcall	.-658    	; 0x3562 <SD_WaitForReady>
    37f4:	c8 2f       	mov	r28, r24
    37f6:	88 23       	and	r24, r24
    37f8:	b1 f0       	breq	.+44     	; 0x3826 <SD_Sendblock+0x40>
    SPI_RW_Byte(token);					//Wylij token pocztku/koca danych
    37fa:	8d 2f       	mov	r24, r29
    37fc:	6f de       	rcall	.-802    	; 0x34dc <SPI_RW_Byte>
    if(token != 0xfd) {                 //0xfd to token koca danych - po nim nic nie wysyamy
    37fe:	dd 3f       	cpi	r29, 0xFD	; 253
    3800:	91 f0       	breq	.+36     	; 0x3826 <SD_Sendblock+0x40>
    3802:	e8 01       	movw	r28, r16
    3804:	1e 5f       	subi	r17, 0xFE	; 254
        counter = 512;
        do {
            SPI_RW_Byte(*buff++);       //Wylij dane
    3806:	89 91       	ld	r24, Y+
    3808:	69 de       	rcall	.-814    	; 0x34dc <SPI_RW_Byte>
        } while(--counter);
    380a:	c0 17       	cp	r28, r16
    380c:	d1 07       	cpc	r29, r17
    380e:	d9 f7       	brne	.-10     	; 0x3806 <SD_Sendblock+0x20>
        SPI_RW_Byte(0xff);				//Musimy wysa CRC16, nawet jeli karta go nie sprawdza
    3810:	8f ef       	ldi	r24, 0xFF	; 255
    3812:	64 de       	rcall	.-824    	; 0x34dc <SPI_RW_Byte>
        SPI_RW_Byte(0xff);
    3814:	8f ef       	ldi	r24, 0xFF	; 255
    3816:	62 de       	rcall	.-828    	; 0x34dc <SPI_RW_Byte>
        resp = SPI_RW_Byte(0xff);			//Odczytaj odpoweid karty
    3818:	8f ef       	ldi	r24, 0xFF	; 255
    381a:	60 de       	rcall	.-832    	; 0x34dc <SPI_RW_Byte>
        if((resp & 0x1F) != 0x05) return false;	//Sprawd czy karta zaakceptowaa dane
    381c:	8f 71       	andi	r24, 0x1F	; 31
    381e:	c1 e0       	ldi	r28, 0x01	; 1
    3820:	85 30       	cpi	r24, 0x05	; 5
    3822:	09 f0       	breq	.+2      	; 0x3826 <SD_Sendblock+0x40>
    3824:	c0 e0       	ldi	r28, 0x00	; 0
    }
    return true;
}
    3826:	8c 2f       	mov	r24, r28
    3828:	df 91       	pop	r29
    382a:	cf 91       	pop	r28
    382c:	1f 91       	pop	r17
    382e:	0f 91       	pop	r16
    3830:	08 95       	ret

00003832 <SD_disk_read>:

uint8_t SD_disk_read(uint8_t *buff, uint32_t sector, uint8_t count) {
    3832:	0f 93       	push	r16
    3834:	1f 93       	push	r17
    3836:	cf 93       	push	r28
    3838:	8c 01       	movw	r16, r24
    383a:	c2 2f       	mov	r28, r18
    if(SD_Status != 0) return RES_NOTRDY;
    383c:	80 91 40 29 	lds	r24, 0x2940
    3840:	81 11       	cpse	r24, r1
    3842:	32 c0       	rjmp	.+100    	; 0x38a8 <SD_disk_read+0x76>
    if(SD_Type == CT_SD1) sector *= 512;	//SDSC adresowana jest bajtami
    3844:	80 91 41 29 	lds	r24, 0x2941
    3848:	82 30       	cpi	r24, 0x02	; 2
    384a:	49 f4       	brne	.+18     	; 0x385e <SD_disk_read+0x2c>
    384c:	03 2e       	mov	r0, r19
    384e:	39 e0       	ldi	r19, 0x09	; 9
    3850:	44 0f       	add	r20, r20
    3852:	55 1f       	adc	r21, r21
    3854:	66 1f       	adc	r22, r22
    3856:	77 1f       	adc	r23, r23
    3858:	3a 95       	dec	r19
    385a:	d1 f7       	brne	.-12     	; 0x3850 <SD_disk_read+0x1e>
    385c:	30 2d       	mov	r19, r0
    if(count == 1) {
    385e:	c1 30       	cpi	r28, 0x01	; 1
    3860:	51 f4       	brne	.+20     	; 0x3876 <SD_disk_read+0x44>
        //Odczytujemy pojedynczy sektor
        if((SD_SendCMD(CMD17, sector) == 0) && SD_Rec_Datablock(buff, 512))
    3862:	81 e1       	ldi	r24, 0x11	; 17
    3864:	a4 de       	rcall	.-696    	; 0x35ae <SD_SendCMD>
    3866:	81 11       	cpse	r24, r1
    3868:	18 c0       	rjmp	.+48     	; 0x389a <SD_disk_read+0x68>
    386a:	60 e0       	ldi	r22, 0x00	; 0
    386c:	72 e0       	ldi	r23, 0x02	; 2
    386e:	c8 01       	movw	r24, r16
    3870:	8d df       	rcall	.-230    	; 0x378c <SD_Rec_Datablock>
    3872:	c8 27       	eor	r28, r24
    3874:	12 c0       	rjmp	.+36     	; 0x389a <SD_disk_read+0x68>
            count = 0;
    } else {
        //Odczytujemy kilka sektorw na raz
        if(SD_SendCMD(CMD18, sector) == 0) {
    3876:	82 e1       	ldi	r24, 0x12	; 18
    3878:	9a de       	rcall	.-716    	; 0x35ae <SD_SendCMD>
    387a:	81 11       	cpse	r24, r1
    387c:	0e c0       	rjmp	.+28     	; 0x389a <SD_disk_read+0x68>
            do {
                if(!SD_Rec_Datablock(buff, 512)) break;
    387e:	60 e0       	ldi	r22, 0x00	; 0
    3880:	72 e0       	ldi	r23, 0x02	; 2
    3882:	c8 01       	movw	r24, r16
    3884:	83 df       	rcall	.-250    	; 0x378c <SD_Rec_Datablock>
    3886:	88 23       	and	r24, r24
    3888:	19 f0       	breq	.+6      	; 0x3890 <SD_disk_read+0x5e>
                buff += 512;
    388a:	1e 5f       	subi	r17, 0xFE	; 254
            } while(--count);
    388c:	c1 50       	subi	r28, 0x01	; 1
    388e:	b9 f7       	brne	.-18     	; 0x387e <SD_disk_read+0x4c>
            SD_SendCMD(CMD12, 0);				//Koniec transmisji
    3890:	40 e0       	ldi	r20, 0x00	; 0
    3892:	50 e0       	ldi	r21, 0x00	; 0
    3894:	ba 01       	movw	r22, r20
    3896:	8c e0       	ldi	r24, 0x0C	; 12
    3898:	8a de       	rcall	.-748    	; 0x35ae <SD_SendCMD>
        }
    }
    SPI_SD_CS(false);
    389a:	80 e0       	ldi	r24, 0x00	; 0
    389c:	7b de       	rcall	.-778    	; 0x3594 <SPI_SD_CS>
    return count ? RES_ERROR : RES_OK;
    389e:	81 e0       	ldi	r24, 0x01	; 1
    38a0:	c1 11       	cpse	r28, r1
    38a2:	03 c0       	rjmp	.+6      	; 0x38aa <SD_disk_read+0x78>
    38a4:	80 e0       	ldi	r24, 0x00	; 0
    38a6:	01 c0       	rjmp	.+2      	; 0x38aa <SD_disk_read+0x78>
    }
    return true;
}

uint8_t SD_disk_read(uint8_t *buff, uint32_t sector, uint8_t count) {
    if(SD_Status != 0) return RES_NOTRDY;
    38a8:	83 e0       	ldi	r24, 0x03	; 3
            SD_SendCMD(CMD12, 0);				//Koniec transmisji
        }
    }
    SPI_SD_CS(false);
    return count ? RES_ERROR : RES_OK;
}
    38aa:	cf 91       	pop	r28
    38ac:	1f 91       	pop	r17
    38ae:	0f 91       	pop	r16
    38b0:	08 95       	ret

000038b2 <DS_disk_write>:

uint8_t DS_disk_write(const uint8_t *buff, uint32_t sector, uint8_t count) {
    38b2:	cf 92       	push	r12
    38b4:	df 92       	push	r13
    38b6:	ef 92       	push	r14
    38b8:	ff 92       	push	r15
    38ba:	0f 93       	push	r16
    38bc:	1f 93       	push	r17
    38be:	cf 93       	push	r28
    38c0:	8c 01       	movw	r16, r24
    38c2:	6a 01       	movw	r12, r20
    38c4:	7b 01       	movw	r14, r22
    38c6:	c2 2f       	mov	r28, r18
    if(SD_Status != 0) return RES_NOTRDY;
    38c8:	80 91 40 29 	lds	r24, 0x2940
    38cc:	81 11       	cpse	r24, r1
    38ce:	3c c0       	rjmp	.+120    	; 0x3948 <DS_disk_write+0x96>
    if(SD_Type == CT_SD1) sector *= 512;	//SDSC adresowana jest bajtami
    38d0:	80 91 41 29 	lds	r24, 0x2941
    38d4:	82 30       	cpi	r24, 0x02	; 2
    38d6:	49 f4       	brne	.+18     	; 0x38ea <DS_disk_write+0x38>
    38d8:	0b 2e       	mov	r0, r27
    38da:	b9 e0       	ldi	r27, 0x09	; 9
    38dc:	cc 0c       	add	r12, r12
    38de:	dd 1c       	adc	r13, r13
    38e0:	ee 1c       	adc	r14, r14
    38e2:	ff 1c       	adc	r15, r15
    38e4:	ba 95       	dec	r27
    38e6:	d1 f7       	brne	.-12     	; 0x38dc <DS_disk_write+0x2a>
    38e8:	b0 2d       	mov	r27, r0
    if(count == 1) {
    38ea:	c1 30       	cpi	r28, 0x01	; 1
    38ec:	59 f4       	brne	.+22     	; 0x3904 <DS_disk_write+0x52>
        //Zapisujemy pojedynczy sektor
        if((SD_SendCMD(CMD24, sector) == 0) && SD_Sendblock(buff, 0xfe)) count = 0;
    38ee:	b7 01       	movw	r22, r14
    38f0:	a6 01       	movw	r20, r12
    38f2:	88 e1       	ldi	r24, 0x18	; 24
    38f4:	5c de       	rcall	.-840    	; 0x35ae <SD_SendCMD>
    38f6:	81 11       	cpse	r24, r1
    38f8:	20 c0       	rjmp	.+64     	; 0x393a <DS_disk_write+0x88>
    38fa:	6e ef       	ldi	r22, 0xFE	; 254
    38fc:	c8 01       	movw	r24, r16
    38fe:	73 df       	rcall	.-282    	; 0x37e6 <SD_Sendblock>
    3900:	c8 27       	eor	r28, r24
    3902:	1b c0       	rjmp	.+54     	; 0x393a <DS_disk_write+0x88>
    } else {
        //Zapisujemy kilka sektorw na raz
        SD_SendCMD(ACMD23, count);
    3904:	4c 2f       	mov	r20, r28
    3906:	50 e0       	ldi	r21, 0x00	; 0
    3908:	60 e0       	ldi	r22, 0x00	; 0
    390a:	70 e0       	ldi	r23, 0x00	; 0
    390c:	87 e9       	ldi	r24, 0x97	; 151
    390e:	4f de       	rcall	.-866    	; 0x35ae <SD_SendCMD>
        if(SD_SendCMD(CMD25, sector) == 0) {
    3910:	b7 01       	movw	r22, r14
    3912:	a6 01       	movw	r20, r12
    3914:	89 e1       	ldi	r24, 0x19	; 25
    3916:	4b de       	rcall	.-874    	; 0x35ae <SD_SendCMD>
    3918:	81 11       	cpse	r24, r1
    391a:	0f c0       	rjmp	.+30     	; 0x393a <DS_disk_write+0x88>
            do {
                if (!SD_Sendblock(buff, 0xfc)) break;
    391c:	6c ef       	ldi	r22, 0xFC	; 252
    391e:	c8 01       	movw	r24, r16
    3920:	62 df       	rcall	.-316    	; 0x37e6 <SD_Sendblock>
    3922:	88 23       	and	r24, r24
    3924:	19 f0       	breq	.+6      	; 0x392c <DS_disk_write+0x7a>
                buff += 512;
    3926:	1e 5f       	subi	r17, 0xFE	; 254
            } while (--count);
    3928:	c1 50       	subi	r28, 0x01	; 1
    392a:	c1 f7       	brne	.-16     	; 0x391c <DS_disk_write+0x6a>
            if (!SD_Sendblock(0, 0xfd)) count = 1;	//Token koca wielobajtowego bloku danych
    392c:	6d ef       	ldi	r22, 0xFD	; 253
    392e:	80 e0       	ldi	r24, 0x00	; 0
    3930:	90 e0       	ldi	r25, 0x00	; 0
    3932:	59 df       	rcall	.-334    	; 0x37e6 <SD_Sendblock>
    3934:	81 11       	cpse	r24, r1
    3936:	01 c0       	rjmp	.+2      	; 0x393a <DS_disk_write+0x88>
    3938:	c1 e0       	ldi	r28, 0x01	; 1
        }
    }
    SPI_SD_CS(false);
    393a:	80 e0       	ldi	r24, 0x00	; 0
    393c:	2b de       	rcall	.-938    	; 0x3594 <SPI_SD_CS>
    return count ? RES_ERROR : RES_OK;
    393e:	81 e0       	ldi	r24, 0x01	; 1
    3940:	c1 11       	cpse	r28, r1
    3942:	03 c0       	rjmp	.+6      	; 0x394a <DS_disk_write+0x98>
    3944:	80 e0       	ldi	r24, 0x00	; 0
    3946:	01 c0       	rjmp	.+2      	; 0x394a <DS_disk_write+0x98>
    SPI_SD_CS(false);
    return count ? RES_ERROR : RES_OK;
}

uint8_t DS_disk_write(const uint8_t *buff, uint32_t sector, uint8_t count) {
    if(SD_Status != 0) return RES_NOTRDY;
    3948:	83 e0       	ldi	r24, 0x03	; 3
            if (!SD_Sendblock(0, 0xfd)) count = 1;	//Token koca wielobajtowego bloku danych
        }
    }
    SPI_SD_CS(false);
    return count ? RES_ERROR : RES_OK;
}
    394a:	cf 91       	pop	r28
    394c:	1f 91       	pop	r17
    394e:	0f 91       	pop	r16
    3950:	ff 90       	pop	r15
    3952:	ef 90       	pop	r14
    3954:	df 90       	pop	r13
    3956:	cf 90       	pop	r12
    3958:	08 95       	ret

0000395a <disk_initialize>:
/* Initialize Disk Drive                                                 */
/*-----------------------------------------------------------------------*/

DSTATUS disk_initialize(
    BYTE drv) {	/* Physical drive nmuber (0) */
    if (drv) return STA_NOINIT;			/* Supports only single drive */
    395a:	81 11       	cpse	r24, r1
    395c:	04 c0       	rjmp	.+8      	; 0x3966 <disk_initialize+0xc>
    SD_CardInit();
    395e:	df de       	rcall	.-578    	; 0x371e <SD_CardInit>
    return SD_Status;
    3960:	80 91 40 29 	lds	r24, 0x2940
    3964:	08 95       	ret
/* Initialize Disk Drive                                                 */
/*-----------------------------------------------------------------------*/

DSTATUS disk_initialize(
    BYTE drv) {	/* Physical drive nmuber (0) */
    if (drv) return STA_NOINIT;			/* Supports only single drive */
    3966:	81 e0       	ldi	r24, 0x01	; 1
    SD_CardInit();
    return SD_Status;
}
    3968:	08 95       	ret

0000396a <disk_status>:
/* Get Disk Status                                                       */
/*-----------------------------------------------------------------------*/

DSTATUS disk_status(
    BYTE drv) {	/* Physical drive nmuber (0) */
    if (drv) return STA_NOINIT;		/* Supports only single drive */
    396a:	81 11       	cpse	r24, r1
    396c:	03 c0       	rjmp	.+6      	; 0x3974 <disk_status+0xa>
    return SD_Status;
    396e:	80 91 40 29 	lds	r24, 0x2940
    3972:	08 95       	ret
/* Get Disk Status                                                       */
/*-----------------------------------------------------------------------*/

DSTATUS disk_status(
    BYTE drv) {	/* Physical drive nmuber (0) */
    if (drv) return STA_NOINIT;		/* Supports only single drive */
    3974:	81 e0       	ldi	r24, 0x01	; 1
    return SD_Status;
}
    3976:	08 95       	ret

00003978 <disk_read>:

DRESULT disk_read (
    BYTE drv,			/* Physical drive nmuber (0) */
    BYTE *buff,			/* Pointer to the data buffer to store read data */
    DWORD sector,		/* Start sector number (LBA) */
    UINT count) {		/* Sector count (1..255) */
    3978:	0f 93       	push	r16
    397a:	fb 01       	movw	r30, r22
    if(drv) return RES_ERROR;
    397c:	81 11       	cpse	r24, r1
    397e:	06 c0       	rjmp	.+12     	; 0x398c <disk_read+0x14>
    3980:	ba 01       	movw	r22, r20
    3982:	a9 01       	movw	r20, r18
    3984:	cf 01       	movw	r24, r30
    return SD_disk_read(buff, sector, count);
    3986:	20 2f       	mov	r18, r16
    3988:	54 df       	rcall	.-344    	; 0x3832 <SD_disk_read>
    398a:	01 c0       	rjmp	.+2      	; 0x398e <disk_read+0x16>
DRESULT disk_read (
    BYTE drv,			/* Physical drive nmuber (0) */
    BYTE *buff,			/* Pointer to the data buffer to store read data */
    DWORD sector,		/* Start sector number (LBA) */
    UINT count) {		/* Sector count (1..255) */
    if(drv) return RES_ERROR;
    398c:	81 e0       	ldi	r24, 0x01	; 1
    return SD_disk_read(buff, sector, count);
}
    398e:	0f 91       	pop	r16
    3990:	08 95       	ret

00003992 <disk_write>:

DRESULT disk_write (
    BYTE drv,			/* Physical drive nmuber (0) */
    const BYTE *buff,	/* Pointer to the data to be written */
    DWORD sector,		/* Start sector number (LBA) */
    UINT count) {		/* Sector count (1..255) */
    3992:	0f 93       	push	r16
    3994:	fb 01       	movw	r30, r22
    if(drv) return RES_ERROR;
    3996:	81 11       	cpse	r24, r1
    3998:	06 c0       	rjmp	.+12     	; 0x39a6 <disk_write+0x14>
    399a:	ba 01       	movw	r22, r20
    399c:	a9 01       	movw	r20, r18
    399e:	cf 01       	movw	r24, r30
    return DS_disk_write(buff, sector, count);
    39a0:	20 2f       	mov	r18, r16
    39a2:	87 df       	rcall	.-242    	; 0x38b2 <DS_disk_write>
    39a4:	01 c0       	rjmp	.+2      	; 0x39a8 <disk_write+0x16>
DRESULT disk_write (
    BYTE drv,			/* Physical drive nmuber (0) */
    const BYTE *buff,	/* Pointer to the data to be written */
    DWORD sector,		/* Start sector number (LBA) */
    UINT count) {		/* Sector count (1..255) */
    if(drv) return RES_ERROR;
    39a6:	81 e0       	ldi	r24, 0x01	; 1
    return DS_disk_write(buff, sector, count);
}
    39a8:	0f 91       	pop	r16
    39aa:	08 95       	ret

000039ac <SD_GetResponse>:

_Bool SD_GetResponse(void *buf, uint8_t size) {
    39ac:	ef 92       	push	r14
    39ae:	ff 92       	push	r15
    39b0:	1f 93       	push	r17
    39b2:	cf 93       	push	r28
    39b4:	df 93       	push	r29
    39b6:	7c 01       	movw	r14, r24
    39b8:	16 2f       	mov	r17, r22
    uint8_t i = 10;
    39ba:	ca e0       	ldi	r28, 0x0A	; 10
    while((SPI_RW_Byte(0xff) != 0xfe) && (--i));
    39bc:	8f ef       	ldi	r24, 0xFF	; 255
    39be:	8e dd       	rcall	.-1252   	; 0x34dc <SPI_RW_Byte>
    39c0:	8e 3f       	cpi	r24, 0xFE	; 254
    39c2:	21 f0       	breq	.+8      	; 0x39cc <SD_GetResponse+0x20>
    39c4:	c1 50       	subi	r28, 0x01	; 1
    39c6:	d1 f7       	brne	.-12     	; 0x39bc <SD_GetResponse+0x10>
    if(!i) return false;
    39c8:	80 e0       	ldi	r24, 0x00	; 0
    39ca:	13 c0       	rjmp	.+38     	; 0x39f2 <SD_GetResponse+0x46>
    39cc:	cc 23       	and	r28, r28
    39ce:	71 f0       	breq	.+28     	; 0x39ec <SD_GetResponse+0x40>
    while(size) {
    39d0:	11 23       	and	r17, r17
    39d2:	71 f0       	breq	.+28     	; 0x39f0 <SD_GetResponse+0x44>
        ((uint8_t*)buf)[size - 1] = SPI_RW_Byte(0xff);
    39d4:	c1 2f       	mov	r28, r17
    39d6:	d0 e0       	ldi	r29, 0x00	; 0
    39d8:	21 97       	sbiw	r28, 0x01	; 1
    39da:	ce 0d       	add	r28, r14
    39dc:	df 1d       	adc	r29, r15
    39de:	8f ef       	ldi	r24, 0xFF	; 255
    39e0:	7d dd       	rcall	.-1286   	; 0x34dc <SPI_RW_Byte>
    39e2:	88 83       	st	Y, r24
        --size;
    39e4:	11 50       	subi	r17, 0x01	; 1

_Bool SD_GetResponse(void *buf, uint8_t size) {
    uint8_t i = 10;
    while((SPI_RW_Byte(0xff) != 0xfe) && (--i));
    if(!i) return false;
    while(size) {
    39e6:	b1 f7       	brne	.-20     	; 0x39d4 <SD_GetResponse+0x28>
        ((uint8_t*)buf)[size - 1] = SPI_RW_Byte(0xff);
        --size;
    }
    return true;
    39e8:	81 e0       	ldi	r24, 0x01	; 1
    39ea:	03 c0       	rjmp	.+6      	; 0x39f2 <SD_GetResponse+0x46>
}

_Bool SD_GetResponse(void *buf, uint8_t size) {
    uint8_t i = 10;
    while((SPI_RW_Byte(0xff) != 0xfe) && (--i));
    if(!i) return false;
    39ec:	80 e0       	ldi	r24, 0x00	; 0
    39ee:	01 c0       	rjmp	.+2      	; 0x39f2 <SD_GetResponse+0x46>
    while(size) {
        ((uint8_t*)buf)[size - 1] = SPI_RW_Byte(0xff);
        --size;
    }
    return true;
    39f0:	81 e0       	ldi	r24, 0x01	; 1
}
    39f2:	df 91       	pop	r29
    39f4:	cf 91       	pop	r28
    39f6:	1f 91       	pop	r17
    39f8:	ff 90       	pop	r15
    39fa:	ef 90       	pop	r14
    39fc:	08 95       	ret

000039fe <disk_ioctl>:

DRESULT disk_ioctl (
    BYTE pdrv,		/* Physical drive nmuber (0..) */
    BYTE cmd,		/* Control code */
    void *buff) {	/* Buffer to send/receive control data */
    39fe:	8f 92       	push	r8
    3a00:	9f 92       	push	r9
    3a02:	af 92       	push	r10
    3a04:	bf 92       	push	r11
    3a06:	cf 92       	push	r12
    3a08:	df 92       	push	r13
    3a0a:	ef 92       	push	r14
    3a0c:	ff 92       	push	r15
    3a0e:	0f 93       	push	r16
    3a10:	1f 93       	push	r17
    3a12:	cf 93       	push	r28
    3a14:	df 93       	push	r29
    3a16:	cd b7       	in	r28, 0x3d	; 61
    3a18:	de b7       	in	r29, 0x3e	; 62
    3a1a:	68 97       	sbiw	r28, 0x18	; 24
    3a1c:	cd bf       	out	0x3d, r28	; 61
    3a1e:	de bf       	out	0x3e, r29	; 62
    if(SD_Status != 0) return RES_NOTRDY;    //Pami niezainicjowana
    3a20:	80 91 40 29 	lds	r24, 0x2940
    3a24:	81 11       	cpse	r24, r1
    3a26:	aa c0       	rjmp	.+340    	; 0x3b7c <disk_ioctl+0x17e>
    DRESULT res = RES_OK;
    switch(cmd) {
    3a28:	61 30       	cpi	r22, 0x01	; 1
    3a2a:	a1 f0       	breq	.+40     	; 0x3a54 <disk_ioctl+0x56>
    3a2c:	08 f4       	brcc	.+2      	; 0x3a30 <disk_ioctl+0x32>
    3a2e:	a8 c0       	rjmp	.+336    	; 0x3b80 <disk_ioctl+0x182>
    3a30:	62 30       	cpi	r22, 0x02	; 2
    3a32:	29 f0       	breq	.+10     	; 0x3a3e <disk_ioctl+0x40>
    3a34:	63 30       	cpi	r22, 0x03	; 3
    3a36:	09 f4       	brne	.+2      	; 0x3a3a <disk_ioctl+0x3c>
    3a38:	96 c0       	rjmp	.+300    	; 0x3b66 <disk_ioctl+0x168>
        *((DWORD*)buff) = 1;         //Ile mona na raz skasowa sektorw
        break;
    case CTRL_SYNC:
        break;
    default:
        res = RES_PARERR;            //Nieznane polecenie
    3a3a:	84 e0       	ldi	r24, 0x04	; 4
    3a3c:	a2 c0       	rjmp	.+324    	; 0x3b82 <disk_ioctl+0x184>
    void *buff) {	/* Buffer to send/receive control data */
    if(SD_Status != 0) return RES_NOTRDY;    //Pami niezainicjowana
    DRESULT res = RES_OK;
    switch(cmd) {
    case GET_SECTOR_SIZE:
        *((DWORD*)buff) = 512;       //Dugo sektora 512 bajtw
    3a3e:	80 e0       	ldi	r24, 0x00	; 0
    3a40:	92 e0       	ldi	r25, 0x02	; 2
    3a42:	a0 e0       	ldi	r26, 0x00	; 0
    3a44:	b0 e0       	ldi	r27, 0x00	; 0
    3a46:	fa 01       	movw	r30, r20
    3a48:	80 83       	st	Z, r24
    3a4a:	91 83       	std	Z+1, r25	; 0x01
    3a4c:	a2 83       	std	Z+2, r26	; 0x02
    3a4e:	b3 83       	std	Z+3, r27	; 0x03
DRESULT disk_ioctl (
    BYTE pdrv,		/* Physical drive nmuber (0..) */
    BYTE cmd,		/* Control code */
    void *buff) {	/* Buffer to send/receive control data */
    if(SD_Status != 0) return RES_NOTRDY;    //Pami niezainicjowana
    DRESULT res = RES_OK;
    3a50:	80 e0       	ldi	r24, 0x00	; 0
    switch(cmd) {
    case GET_SECTOR_SIZE:
        *((DWORD*)buff) = 512;       //Dugo sektora 512 bajtw
        break;
    3a52:	97 c0       	rjmp	.+302    	; 0x3b82 <disk_ioctl+0x184>
    3a54:	4a 01       	movw	r8, r20
    case GET_SECTOR_COUNT: {
        char buf[16];
        SD_CSDRegv1 *csd = (SD_CSDRegv1*)buf;
        uint8_t r1 = SD_SendCMD(CMD9, 0); //Odczytaj CSD
    3a56:	40 e0       	ldi	r20, 0x00	; 0
    3a58:	50 e0       	ldi	r21, 0x00	; 0
    3a5a:	ba 01       	movw	r22, r20
    3a5c:	89 e0       	ldi	r24, 0x09	; 9
    3a5e:	a7 dd       	rcall	.-1202   	; 0x35ae <SD_SendCMD>
        if(r1 == 0) {
    3a60:	81 11       	cpse	r24, r1
    3a62:	7f c0       	rjmp	.+254    	; 0x3b62 <disk_ioctl+0x164>
            SD_GetResponse(csd->Reg, 16);
    3a64:	60 e1       	ldi	r22, 0x10	; 16
    3a66:	ce 01       	movw	r24, r28
    3a68:	01 96       	adiw	r24, 0x01	; 1
    3a6a:	a0 df       	rcall	.-192    	; 0x39ac <SD_GetResponse>
            uint64_t size;  //Rozmiar karty
            if(csd->CSD_Struct == 0)
    3a6c:	88 89       	ldd	r24, Y+16	; 0x10
    3a6e:	80 7c       	andi	r24, 0xC0	; 192
    3a70:	09 f0       	breq	.+2      	; 0x3a74 <disk_ioctl+0x76>
    3a72:	5a c0       	rjmp	.+180    	; 0x3b28 <disk_ioctl+0x12a>
                size = (csd->C_Size + 1) * (1ULL << csd->Read_Bl_Len) * (1UL << (csd->C_Size_mult + 2));
    3a74:	8e 81       	ldd	r24, Y+6	; 0x06
    3a76:	98 2f       	mov	r25, r24
    3a78:	99 1f       	adc	r25, r25
    3a7a:	99 27       	eor	r25, r25
    3a7c:	99 1f       	adc	r25, r25
    3a7e:	8f 81       	ldd	r24, Y+7	; 0x07
    3a80:	83 70       	andi	r24, 0x03	; 3
    3a82:	88 0f       	add	r24, r24
    3a84:	89 2b       	or	r24, r25
    3a86:	8e 5f       	subi	r24, 0xFE	; 254
    3a88:	41 e0       	ldi	r20, 0x01	; 1
    3a8a:	50 e0       	ldi	r21, 0x00	; 0
    3a8c:	60 e0       	ldi	r22, 0x00	; 0
    3a8e:	70 e0       	ldi	r23, 0x00	; 0
    3a90:	8a 01       	movw	r16, r20
    3a92:	9b 01       	movw	r18, r22
    3a94:	04 c0       	rjmp	.+8      	; 0x3a9e <disk_ioctl+0xa0>
    3a96:	00 0f       	add	r16, r16
    3a98:	11 1f       	adc	r17, r17
    3a9a:	22 1f       	adc	r18, r18
    3a9c:	33 1f       	adc	r19, r19
    3a9e:	8a 95       	dec	r24
    3aa0:	d2 f7       	brpl	.-12     	; 0x3a96 <disk_ioctl+0x98>
    3aa2:	40 e0       	ldi	r20, 0x00	; 0
    3aa4:	50 e0       	ldi	r21, 0x00	; 0
    3aa6:	ba 01       	movw	r22, r20
    3aa8:	09 8b       	std	Y+17, r16	; 0x11
    3aaa:	1a 8b       	std	Y+18, r17	; 0x12
    3aac:	2b 8b       	std	Y+19, r18	; 0x13
    3aae:	3c 8b       	std	Y+20, r19	; 0x14
    3ab0:	4d 8b       	std	Y+21, r20	; 0x15
    3ab2:	5e 8b       	std	Y+22, r21	; 0x16
    3ab4:	6f 8b       	std	Y+23, r22	; 0x17
    3ab6:	78 8f       	std	Y+24, r23	; 0x18
    3ab8:	98 85       	ldd	r25, Y+8	; 0x08
    3aba:	92 95       	swap	r25
    3abc:	96 95       	lsr	r25
    3abe:	96 95       	lsr	r25
    3ac0:	93 70       	andi	r25, 0x03	; 3
    3ac2:	89 85       	ldd	r24, Y+9	; 0x09
    3ac4:	28 2f       	mov	r18, r24
    3ac6:	22 0f       	add	r18, r18
    3ac8:	22 0f       	add	r18, r18
    3aca:	e2 2f       	mov	r30, r18
    3acc:	e9 2b       	or	r30, r25
    3ace:	98 2f       	mov	r25, r24
    3ad0:	92 95       	swap	r25
    3ad2:	96 95       	lsr	r25
    3ad4:	96 95       	lsr	r25
    3ad6:	93 70       	andi	r25, 0x03	; 3
    3ad8:	8a 85       	ldd	r24, Y+10	; 0x0a
    3ada:	83 70       	andi	r24, 0x03	; 3
    3adc:	88 0f       	add	r24, r24
    3ade:	88 0f       	add	r24, r24
    3ae0:	f8 2f       	mov	r31, r24
    3ae2:	f9 2b       	or	r31, r25
    3ae4:	31 96       	adiw	r30, 0x01	; 1
    3ae6:	9f 2f       	mov	r25, r31
    3ae8:	99 0f       	add	r25, r25
    3aea:	99 0b       	sbc	r25, r25
    3aec:	0b 85       	ldd	r16, Y+11	; 0x0b
    3aee:	0f 70       	andi	r16, 0x0F	; 15
    3af0:	2e 2f       	mov	r18, r30
    3af2:	3f 2f       	mov	r19, r31
    3af4:	49 2f       	mov	r20, r25
    3af6:	59 2f       	mov	r21, r25
    3af8:	69 2f       	mov	r22, r25
    3afa:	79 2f       	mov	r23, r25
    3afc:	89 2f       	mov	r24, r25
    3afe:	0e 94 ad 34 	call	0x695a	; 0x695a <__ashldi3>
    3b02:	a2 2e       	mov	r10, r18
    3b04:	b3 2e       	mov	r11, r19
    3b06:	c4 2e       	mov	r12, r20
    3b08:	d5 2e       	mov	r13, r21
    3b0a:	e6 2e       	mov	r14, r22
    3b0c:	f7 2e       	mov	r15, r23
    3b0e:	08 2f       	mov	r16, r24
    3b10:	19 2f       	mov	r17, r25
    3b12:	29 89       	ldd	r18, Y+17	; 0x11
    3b14:	3a 89       	ldd	r19, Y+18	; 0x12
    3b16:	4b 89       	ldd	r20, Y+19	; 0x13
    3b18:	5c 89       	ldd	r21, Y+20	; 0x14
    3b1a:	60 e0       	ldi	r22, 0x00	; 0
    3b1c:	70 e0       	ldi	r23, 0x00	; 0
    3b1e:	80 e0       	ldi	r24, 0x00	; 0
    3b20:	90 e0       	ldi	r25, 0x00	; 0
    3b22:	0e 94 5c 34 	call	0x68b8	; 0x68b8 <__muldi3>
    3b26:	13 c0       	rjmp	.+38     	; 0x3b4e <disk_ioctl+0x150>
            else {
                size = (((SD_CSDRegv2*)csd)->C_Size + 1) * 524288ULL; //C_Size zawiera liczb blokw po 512 kB
    3b28:	8f 81       	ldd	r24, Y+7	; 0x07
    3b2a:	98 85       	ldd	r25, Y+8	; 0x08
    3b2c:	29 85       	ldd	r18, Y+9	; 0x09
    3b2e:	a2 2f       	mov	r26, r18
    3b30:	af 73       	andi	r26, 0x3F	; 63
    3b32:	01 96       	adiw	r24, 0x01	; 1
    3b34:	a1 1d       	adc	r26, r1
    3b36:	af 73       	andi	r26, 0x3F	; 63
    3b38:	28 2f       	mov	r18, r24
    3b3a:	39 2f       	mov	r19, r25
    3b3c:	4a 2f       	mov	r20, r26
    3b3e:	50 e0       	ldi	r21, 0x00	; 0
    3b40:	60 e0       	ldi	r22, 0x00	; 0
    3b42:	70 e0       	ldi	r23, 0x00	; 0
    3b44:	80 e0       	ldi	r24, 0x00	; 0
    3b46:	90 e0       	ldi	r25, 0x00	; 0
    3b48:	03 e1       	ldi	r16, 0x13	; 19
    3b4a:	0e 94 ad 34 	call	0x695a	; 0x695a <__ashldi3>
            }
            *((DWORD*)buff) = size / 512;  //Zwracami liczb 512-bajtowych sektorw
    3b4e:	09 e0       	ldi	r16, 0x09	; 9
    3b50:	0e 94 c8 34 	call	0x6990	; 0x6990 <__lshrdi3>
    3b54:	f4 01       	movw	r30, r8
    3b56:	20 83       	st	Z, r18
    3b58:	31 83       	std	Z+1, r19	; 0x01
    3b5a:	42 83       	std	Z+2, r20	; 0x02
    3b5c:	53 83       	std	Z+3, r21	; 0x03
DRESULT disk_ioctl (
    BYTE pdrv,		/* Physical drive nmuber (0..) */
    BYTE cmd,		/* Control code */
    void *buff) {	/* Buffer to send/receive control data */
    if(SD_Status != 0) return RES_NOTRDY;    //Pami niezainicjowana
    DRESULT res = RES_OK;
    3b5e:	80 e0       	ldi	r24, 0x00	; 0
    3b60:	10 c0       	rjmp	.+32     	; 0x3b82 <disk_ioctl+0x184>
                size = (csd->C_Size + 1) * (1ULL << csd->Read_Bl_Len) * (1UL << (csd->C_Size_mult + 2));
            else {
                size = (((SD_CSDRegv2*)csd)->C_Size + 1) * 524288ULL; //C_Size zawiera liczb blokw po 512 kB
            }
            *((DWORD*)buff) = size / 512;  //Zwracami liczb 512-bajtowych sektorw
        } else res = RES_NOTRDY;
    3b62:	83 e0       	ldi	r24, 0x03	; 3
    }
    break;
    3b64:	0e c0       	rjmp	.+28     	; 0x3b82 <disk_ioctl+0x184>
    case GET_BLOCK_SIZE:
        *((DWORD*)buff) = 1;         //Ile mona na raz skasowa sektorw
    3b66:	81 e0       	ldi	r24, 0x01	; 1
    3b68:	90 e0       	ldi	r25, 0x00	; 0
    3b6a:	a0 e0       	ldi	r26, 0x00	; 0
    3b6c:	b0 e0       	ldi	r27, 0x00	; 0
    3b6e:	fa 01       	movw	r30, r20
    3b70:	80 83       	st	Z, r24
    3b72:	91 83       	std	Z+1, r25	; 0x01
    3b74:	a2 83       	std	Z+2, r26	; 0x02
    3b76:	b3 83       	std	Z+3, r27	; 0x03
DRESULT disk_ioctl (
    BYTE pdrv,		/* Physical drive nmuber (0..) */
    BYTE cmd,		/* Control code */
    void *buff) {	/* Buffer to send/receive control data */
    if(SD_Status != 0) return RES_NOTRDY;    //Pami niezainicjowana
    DRESULT res = RES_OK;
    3b78:	80 e0       	ldi	r24, 0x00	; 0
        } else res = RES_NOTRDY;
    }
    break;
    case GET_BLOCK_SIZE:
        *((DWORD*)buff) = 1;         //Ile mona na raz skasowa sektorw
        break;
    3b7a:	03 c0       	rjmp	.+6      	; 0x3b82 <disk_ioctl+0x184>

DRESULT disk_ioctl (
    BYTE pdrv,		/* Physical drive nmuber (0..) */
    BYTE cmd,		/* Control code */
    void *buff) {	/* Buffer to send/receive control data */
    if(SD_Status != 0) return RES_NOTRDY;    //Pami niezainicjowana
    3b7c:	83 e0       	ldi	r24, 0x03	; 3
    3b7e:	01 c0       	rjmp	.+2      	; 0x3b82 <disk_ioctl+0x184>
    DRESULT res = RES_OK;
    3b80:	80 e0       	ldi	r24, 0x00	; 0
        break;
    default:
        res = RES_PARERR;            //Nieznane polecenie
    }
    return res;
}
    3b82:	68 96       	adiw	r28, 0x18	; 24
    3b84:	cd bf       	out	0x3d, r28	; 61
    3b86:	de bf       	out	0x3e, r29	; 62
    3b88:	df 91       	pop	r29
    3b8a:	cf 91       	pop	r28
    3b8c:	1f 91       	pop	r17
    3b8e:	0f 91       	pop	r16
    3b90:	ff 90       	pop	r15
    3b92:	ef 90       	pop	r14
    3b94:	df 90       	pop	r13
    3b96:	cf 90       	pop	r12
    3b98:	bf 90       	pop	r11
    3b9a:	af 90       	pop	r10
    3b9c:	9f 90       	pop	r9
    3b9e:	8f 90       	pop	r8
    3ba0:	08 95       	ret

00003ba2 <get_fattime>:
    | ((DWORD)1 << 21)            /* Month 1 */
    | ((DWORD)11 << 16)            /* Mday 28 */
    | ((DWORD)0 << 11)            /* Hour 0 */
    | ((DWORD)0 << 5)            /* Min 0 */
    | ((DWORD)0 >> 1);            /* Sec 0 */
}
    3ba2:	60 e0       	ldi	r22, 0x00	; 0
    3ba4:	70 e0       	ldi	r23, 0x00	; 0
    3ba6:	8b e2       	ldi	r24, 0x2B	; 43
    3ba8:	94 e4       	ldi	r25, 0x44	; 68
    3baa:	08 95       	ret

00003bac <SPI_W_Byte>:
#include <util/atomic.h>
#include "struct.h"
#include "SPI.h"
#include "CanSat.h"

void SPI_W_Byte(uint8_t byte){
    3bac:	cf 93       	push	r28
    3bae:	df 93       	push	r29
    3bb0:	1f 92       	push	r1
    3bb2:	cd b7       	in	r28, 0x3d	; 61
    3bb4:	de b7       	in	r29, 0x3e	; 62
	ADC_SPI.DATA = byte;
    3bb6:	80 93 c3 08 	sts	0x08C3, r24
	while(!(ADC_SPI.STATUS & SPI_IF_bm)){}
    3bba:	e0 ec       	ldi	r30, 0xC0	; 192
    3bbc:	f8 e0       	ldi	r31, 0x08	; 8
    3bbe:	82 81       	ldd	r24, Z+2	; 0x02
    3bc0:	88 23       	and	r24, r24
    3bc2:	ec f7       	brge	.-6      	; 0x3bbe <SPI_W_Byte+0x12>
	volatile char tmp = ADC_SPI.DATA;
    3bc4:	80 91 c3 08 	lds	r24, 0x08C3
    3bc8:	89 83       	std	Y+1, r24	; 0x01
}
    3bca:	0f 90       	pop	r0
    3bcc:	df 91       	pop	r29
    3bce:	cf 91       	pop	r28
    3bd0:	08 95       	ret

00003bd2 <SPI_R_Byte>:

uint8_t SPI_R_Byte(void){
	ADC_SPI.DATA = 0x00;
    3bd2:	10 92 c3 08 	sts	0x08C3, r1
	while(!(ADC_SPI.STATUS & SPI_IF_bm)){}
    3bd6:	e0 ec       	ldi	r30, 0xC0	; 192
    3bd8:	f8 e0       	ldi	r31, 0x08	; 8
    3bda:	82 81       	ldd	r24, Z+2	; 0x02
    3bdc:	88 23       	and	r24, r24
    3bde:	ec f7       	brge	.-6      	; 0x3bda <SPI_R_Byte+0x8>
	return ADC_SPI.DATA;
    3be0:	80 91 c3 08 	lds	r24, 0x08C3
}
    3be4:	08 95       	ret

00003be6 <Osc2MHz>:
void CPU_clk(uint8_t val) {
    Osc2MHz((uint8_t)(val / 2));
}

void Osc2MHz(uint8_t pll_factor) {
    OSC.CTRL |= OSC_RC2MEN_bm;						// wczenie oscylatora 2MHz
    3be6:	e0 e5       	ldi	r30, 0x50	; 80
    3be8:	f0 e0       	ldi	r31, 0x00	; 0
    3bea:	90 81       	ld	r25, Z
    3bec:	91 60       	ori	r25, 0x01	; 1
    3bee:	90 83       	st	Z, r25
    //--------------stabilizacja czstotliwoci
    DFLLRC2M.CALA = 0x40;								//dane z sygnatury
    3bf0:	a8 e6       	ldi	r26, 0x68	; 104
    3bf2:	b0 e0       	ldi	r27, 0x00	; 0
    3bf4:	90 e4       	ldi	r25, 0x40	; 64
    3bf6:	12 96       	adiw	r26, 0x02	; 2
    3bf8:	9c 93       	st	X, r25
    3bfa:	12 97       	sbiw	r26, 0x02	; 2
    DFLLRC2M.CALB = 0x0D;
    3bfc:	9d e0       	ldi	r25, 0x0D	; 13
    3bfe:	13 96       	adiw	r26, 0x03	; 3
    3c00:	9c 93       	st	X, r25
    OSC.CTRL |= OSC_RC32KEN_bm;							//wczenie oscylatora 32kHz
    3c02:	90 81       	ld	r25, Z
    3c04:	94 60       	ori	r25, 0x04	; 4
    3c06:	90 83       	st	Z, r25
    while(!(OSC.STATUS & OSC_RC32KRDY_bm));				//czekanie na ustabilizowanie zegara 32kHz
    3c08:	91 81       	ldd	r25, Z+1	; 0x01
    3c0a:	92 ff       	sbrs	r25, 2
    3c0c:	fd cf       	rjmp	.-6      	; 0x3c08 <Osc2MHz+0x22>
    OSC.DFLLCTRL &= ~(OSC_RC32MCREF_gm | OSC_RC2MCREF_bm);
    3c0e:	e0 e5       	ldi	r30, 0x50	; 80
    3c10:	f0 e0       	ldi	r31, 0x00	; 0
    3c12:	96 81       	ldd	r25, Z+6	; 0x06
    3c14:	98 7f       	andi	r25, 0xF8	; 248
    3c16:	96 83       	std	Z+6, r25	; 0x06
    DFLLRC2M.CTRL |= DFLL_ENABLE_bm;
    3c18:	e8 e6       	ldi	r30, 0x68	; 104
    3c1a:	f0 e0       	ldi	r31, 0x00	; 0
    3c1c:	90 81       	ld	r25, Z
    3c1e:	91 60       	ori	r25, 0x01	; 1
    3c20:	90 83       	st	Z, r25
    while(!(OSC.STATUS & OSC_RC2MRDY_bm));			// czekanie na ustabilizowanie zegara 2MHz
    3c22:	e0 e5       	ldi	r30, 0x50	; 80
    3c24:	f0 e0       	ldi	r31, 0x00	; 0
    3c26:	91 81       	ldd	r25, Z+1	; 0x01
    3c28:	90 ff       	sbrs	r25, 0
    3c2a:	fd cf       	rjmp	.-6      	; 0x3c26 <Osc2MHz+0x40>
    CPU_CCP = CCP_IOREG_gc;							// odblokowanie zmiany rda sygnau
    3c2c:	98 ed       	ldi	r25, 0xD8	; 216
    3c2e:	94 bf       	out	0x34, r25	; 52
    CLK.CTRL = CLK_SCLKSEL_RC2M_gc;					// zmiana rda sygnau na RC 2MHz
    3c30:	10 92 40 00 	sts	0x0040, r1
    OSC.CTRL &= ~OSC_PLLEN_bm;						// wyczenie PLL
    3c34:	e0 e5       	ldi	r30, 0x50	; 80
    3c36:	f0 e0       	ldi	r31, 0x00	; 0
    3c38:	90 81       	ld	r25, Z
    3c3a:	9f 7e       	andi	r25, 0xEF	; 239
    3c3c:	90 83       	st	Z, r25
    OSC.PLLCTRL = OSC_PLLSRC_RC2M_gc | pll_factor;	// mnonik czstotliwoci (od 1 do 31)
    3c3e:	85 83       	std	Z+5, r24	; 0x05
    OSC.CTRL = OSC_PLLEN_bm;						// wczenie ukadu PLL
    3c40:	80 e1       	ldi	r24, 0x10	; 16
    3c42:	80 83       	st	Z, r24
    while(!(OSC.STATUS & OSC_PLLRDY_bm));			// czekanie na ustabilizowanie si generatora PLL
    3c44:	81 81       	ldd	r24, Z+1	; 0x01
    3c46:	84 ff       	sbrs	r24, 4
    3c48:	fd cf       	rjmp	.-6      	; 0x3c44 <Osc2MHz+0x5e>
    CPU_CCP = CCP_IOREG_gc;							// odblokowanie zmiany rda sygnau
    3c4a:	88 ed       	ldi	r24, 0xD8	; 216
    3c4c:	84 bf       	out	0x34, r24	; 52
    CLK.CTRL = CLK_SCLKSEL_PLL_gc;					// wybr rda sygnau zegarowego PLL
    3c4e:	84 e0       	ldi	r24, 0x04	; 4
    3c50:	80 93 40 00 	sts	0x0040, r24
    3c54:	08 95       	ret

00003c56 <CPU_clk>:
#include "Initialization.h"
#include "CanSat.h"
#include "util.h"

void CPU_clk(uint8_t val) {
    Osc2MHz((uint8_t)(val / 2));
    3c56:	86 95       	lsr	r24
    3c58:	c6 cf       	rjmp	.-116    	; 0x3be6 <Osc2MHz>
    3c5a:	08 95       	ret

00003c5c <OscRTC>:
    while(!(OSC.STATUS & OSC_PLLRDY_bm));			// czekanie na ustabilizowanie si generatora PLL
    CPU_CCP = CCP_IOREG_gc;							// odblokowanie zmiany rda sygnau
    CLK.CTRL = CLK_SCLKSEL_PLL_gc;					// wybr rda sygnau zegarowego PLL
}

void OscRTC(void) {
    3c5c:	08 95       	ret

00003c5e <RTC_Init>:
    CLK.RTCCTRL = CLK_RTCSRC_RCOSC32_gc;			//RTC zasilane z 32.768kHz
    CLK.RTCCTRL |= CLK_RTCEN_bm;					//wczenie RTC
    */
}

void RTC_Init(void) {
    3c5e:	08 95       	ret

00003c60 <TimerCInit>:
    RTC.INTCTRL = RTC_OVFINTLVL_MED_gc;				//przerwanie od przepenienia - niski priorytet
    */
}

void TimerCInit(uint16_t period_ms) {
    TCC0_CTRLA = TC_CLKSEL_DIV1024_gc;				//wczenie timera z preskalerem 64
    3c60:	27 e0       	ldi	r18, 0x07	; 7
    3c62:	20 93 00 08 	sts	0x0800, r18
    TCC0_CTRLB = 0x00;								//Normal mode
    3c66:	10 92 01 08 	sts	0x0801, r1
    TCC0_CNT = 0;									//zeruj licznik
    3c6a:	10 92 20 08 	sts	0x0820, r1
    3c6e:	10 92 21 08 	sts	0x0821, r1
    TCC0_PER = (period_ms * 32000UL) / 1024;			//przeliczenie okresu na 1ms*period
    3c72:	9c 01       	movw	r18, r24
    3c74:	a0 e0       	ldi	r26, 0x00	; 0
    3c76:	bd e7       	ldi	r27, 0x7D	; 125
    3c78:	0e 94 43 34 	call	0x6886	; 0x6886 <__umulhisi3>
    3c7c:	dc 01       	movw	r26, r24
    3c7e:	cb 01       	movw	r24, r22
    3c80:	07 2e       	mov	r0, r23
    3c82:	7a e0       	ldi	r23, 0x0A	; 10
    3c84:	b6 95       	lsr	r27
    3c86:	a7 95       	ror	r26
    3c88:	97 95       	ror	r25
    3c8a:	87 95       	ror	r24
    3c8c:	7a 95       	dec	r23
    3c8e:	d1 f7       	brne	.-12     	; 0x3c84 <TimerCInit+0x24>
    3c90:	70 2d       	mov	r23, r0
    3c92:	80 93 26 08 	sts	0x0826, r24
    3c96:	90 93 27 08 	sts	0x0827, r25
    TCC0_INTCTRLA = TC_OVFINTLVL_MED_gc;			//redni poziom przerwania od przepenienia
    3c9a:	82 e0       	ldi	r24, 0x02	; 2
    3c9c:	80 93 06 08 	sts	0x0806, r24
    3ca0:	08 95       	ret

00003ca2 <TimerDInit>:
}

void TimerDInit(uint16_t period_ms) {
    TCD0_CTRLA = TC_CLKSEL_DIV1024_gc;				//wczenie timera z preskalerem 64
    3ca2:	27 e0       	ldi	r18, 0x07	; 7
    3ca4:	20 93 00 09 	sts	0x0900, r18
    TCD0_CTRLB = 0x00;								//Normal mode
    3ca8:	10 92 01 09 	sts	0x0901, r1
    TCD0_CNT = 0;									//zeruj licznik
    3cac:	10 92 20 09 	sts	0x0920, r1
    3cb0:	10 92 21 09 	sts	0x0921, r1
    TCD0_PER = (period_ms * 32000UL) / 1024;			//przeliczenie okresu na 1ms*period
    3cb4:	9c 01       	movw	r18, r24
    3cb6:	a0 e0       	ldi	r26, 0x00	; 0
    3cb8:	bd e7       	ldi	r27, 0x7D	; 125
    3cba:	0e 94 43 34 	call	0x6886	; 0x6886 <__umulhisi3>
    3cbe:	dc 01       	movw	r26, r24
    3cc0:	cb 01       	movw	r24, r22
    3cc2:	07 2e       	mov	r0, r23
    3cc4:	7a e0       	ldi	r23, 0x0A	; 10
    3cc6:	b6 95       	lsr	r27
    3cc8:	a7 95       	ror	r26
    3cca:	97 95       	ror	r25
    3ccc:	87 95       	ror	r24
    3cce:	7a 95       	dec	r23
    3cd0:	d1 f7       	brne	.-12     	; 0x3cc6 <TimerDInit+0x24>
    3cd2:	70 2d       	mov	r23, r0
    3cd4:	80 93 26 09 	sts	0x0926, r24
    3cd8:	90 93 27 09 	sts	0x0927, r25
    TCD0_INTCTRLA = TC_OVFINTLVL_LO_gc;				//redni poziom przerwania od przepenienia
    3cdc:	81 e0       	ldi	r24, 0x01	; 1
    3cde:	80 93 06 09 	sts	0x0906, r24
    3ce2:	08 95       	ret

00003ce4 <TimerEInit>:
}

void TimerEInit(uint16_t period_ms) {
    TCE0_CTRLA = TC_CLKSEL_DIV1024_gc;				//wczenie timera z preskalerem 64
    3ce4:	27 e0       	ldi	r18, 0x07	; 7
    3ce6:	20 93 00 0a 	sts	0x0A00, r18
    TCE0_CTRLB = 0x00;								//Normal mode
    3cea:	10 92 01 0a 	sts	0x0A01, r1
    TCE0_CNT = 0;									//zeruj licznik
    3cee:	10 92 20 0a 	sts	0x0A20, r1
    3cf2:	10 92 21 0a 	sts	0x0A21, r1
    TCE0_PER = (period_ms * 32000UL) / 1024;			//przeliczenie okresu na 1ms*period
    3cf6:	9c 01       	movw	r18, r24
    3cf8:	a0 e0       	ldi	r26, 0x00	; 0
    3cfa:	bd e7       	ldi	r27, 0x7D	; 125
    3cfc:	0e 94 43 34 	call	0x6886	; 0x6886 <__umulhisi3>
    3d00:	dc 01       	movw	r26, r24
    3d02:	cb 01       	movw	r24, r22
    3d04:	07 2e       	mov	r0, r23
    3d06:	7a e0       	ldi	r23, 0x0A	; 10
    3d08:	b6 95       	lsr	r27
    3d0a:	a7 95       	ror	r26
    3d0c:	97 95       	ror	r25
    3d0e:	87 95       	ror	r24
    3d10:	7a 95       	dec	r23
    3d12:	d1 f7       	brne	.-12     	; 0x3d08 <TimerEInit+0x24>
    3d14:	70 2d       	mov	r23, r0
    3d16:	80 93 26 0a 	sts	0x0A26, r24
    3d1a:	90 93 27 0a 	sts	0x0A27, r25
    TCE0_INTCTRLA = TC_OVFINTLVL_MED_gc;			//redni poziom przerwania od przepenienia
    3d1e:	82 e0       	ldi	r24, 0x02	; 2
    3d20:	80 93 06 0a 	sts	0x0A06, r24
    3d24:	08 95       	ret

00003d26 <TimerFInit>:
}

void TimerFInit(uint16_t period_ms) {
    TCF0_CTRLA = TC_CLKSEL_DIV1024_gc;				//wczenie timera z preskalerem 64
    3d26:	27 e0       	ldi	r18, 0x07	; 7
    3d28:	20 93 00 0b 	sts	0x0B00, r18
    TCF0_CTRLB = 0x00;								//Normal mode
    3d2c:	10 92 01 0b 	sts	0x0B01, r1
    TCF0_CNT = 0;									//zeruj licznik
    3d30:	10 92 20 0b 	sts	0x0B20, r1
    3d34:	10 92 21 0b 	sts	0x0B21, r1
    3d38:	81 3d       	cpi	r24, 0xD1	; 209
    3d3a:	27 e0       	ldi	r18, 0x07	; 7
    3d3c:	92 07       	cpc	r25, r18
    3d3e:	10 f0       	brcs	.+4      	; 0x3d44 <TimerFInit+0x1e>
    3d40:	80 ed       	ldi	r24, 0xD0	; 208
    3d42:	97 e0       	ldi	r25, 0x07	; 7
    if(period_ms > 2000) period_ms = 2000;			//ograniczenie ze wzgldu na przepenienie
    TCF0_PER = (period_ms * 32000UL) / 1024;			//przeliczenie okresu na 1ms*period
    3d44:	9c 01       	movw	r18, r24
    3d46:	a0 e0       	ldi	r26, 0x00	; 0
    3d48:	bd e7       	ldi	r27, 0x7D	; 125
    3d4a:	0e 94 43 34 	call	0x6886	; 0x6886 <__umulhisi3>
    3d4e:	dc 01       	movw	r26, r24
    3d50:	cb 01       	movw	r24, r22
    3d52:	07 2e       	mov	r0, r23
    3d54:	7a e0       	ldi	r23, 0x0A	; 10
    3d56:	b6 95       	lsr	r27
    3d58:	a7 95       	ror	r26
    3d5a:	97 95       	ror	r25
    3d5c:	87 95       	ror	r24
    3d5e:	7a 95       	dec	r23
    3d60:	d1 f7       	brne	.-12     	; 0x3d56 <TimerFInit+0x30>
    3d62:	70 2d       	mov	r23, r0
    3d64:	80 93 26 0b 	sts	0x0B26, r24
    3d68:	90 93 27 0b 	sts	0x0B27, r25
    TCF0_INTCTRLA = TC_OVFINTLVL_MED_gc;			//redni poziom przerwania od przepenienia
    3d6c:	82 e0       	ldi	r24, 0x02	; 2
    3d6e:	80 93 06 0b 	sts	0x0B06, r24
    3d72:	08 95       	ret

00003d74 <ADC_Init>:
}

void ADC_Init(void) {
    ADCB.CTRLA = ADC_ENABLE_bm;
    3d74:	e0 e4       	ldi	r30, 0x40	; 64
    3d76:	f2 e0       	ldi	r31, 0x02	; 2
    3d78:	91 e0       	ldi	r25, 0x01	; 1
    3d7a:	90 83       	st	Z, r25
    ADCB.CTRLB = ADC_RESOLUTION_12BIT_gc;		//rozdzielczo 12bit, CONVMODE=0
    3d7c:	11 82       	std	Z+1, r1	; 0x01
    ADCB.CTRLB |= ADC_FREERUN_bm;				//ciga konwersja
    3d7e:	81 81       	ldd	r24, Z+1	; 0x01
    3d80:	88 60       	ori	r24, 0x08	; 8
    3d82:	81 83       	std	Z+1, r24	; 0x01
    ADCB.CTRLB |= ADC_CONMODE_bm;				//tryb ze znakiem
    3d84:	81 81       	ldd	r24, Z+1	; 0x01
    3d86:	80 61       	ori	r24, 0x10	; 16
    3d88:	81 83       	std	Z+1, r24	; 0x01
    ADCB.EVCTRL = ADC_SWEEP_0123_gc;			//przemiatanie kanaw 0,1,2,3
    3d8a:	80 ec       	ldi	r24, 0xC0	; 192
    3d8c:	83 83       	std	Z+3, r24	; 0x03
    ADCB.REFCTRL = ADC_REFSEL_INTVCC2_gc;		//wybr napicia odniesienia VCC/2
    3d8e:	80 e4       	ldi	r24, 0x40	; 64
    3d90:	82 83       	std	Z+2, r24	; 0x02
    ADCB.PRESCALER = ADC_PRESCALER_DIV512_gc;	//preskaler 62.5kHz@32MHz -> ~15ksps@32MHz
    3d92:	27 e0       	ldi	r18, 0x07	; 7
    3d94:	24 83       	std	Z+4, r18	; 0x04
    ADCB.CH0.CTRL = ADC_CH_INPUTMODE_DIFFWGAIN_gc | ADC_CH_GAIN_DIV2_gc;	//tryb rnicowy ze wzmocnieniem 1/2
    3d96:	8f e1       	ldi	r24, 0x1F	; 31
    3d98:	80 a3       	std	Z+32, r24	; 0x20
    ADCB.CH0.MUXCTRL = ADC_CH_MUXPOS_PIN0_gc | ADC_CH_MUXNEG_GND_MODE4_gc;	//pocztek przemiatania od PIN13
    3d9a:	21 a3       	std	Z+33, r18	; 0x21
    ADCB.CH1.CTRL = ADC_CH_INPUTMODE_DIFFWGAIN_gc | ADC_CH_GAIN_DIV2_gc;	//tryb rnicowy ze wzmocnieniem 1/2
    3d9c:	80 a7       	std	Z+40, r24	; 0x28
    ADCB.CH1.MUXCTRL = ADC_CH_MUXPOS_PIN1_gc | ADC_CH_MUXNEG_GND_MODE4_gc;	//pocztek przemiatania od PIN14
    3d9e:	2f e0       	ldi	r18, 0x0F	; 15
    3da0:	21 a7       	std	Z+41, r18	; 0x29
    ADCB.CH2.CTRL = ADC_CH_INPUTMODE_DIFFWGAIN_gc | ADC_CH_GAIN_DIV2_gc;	//tryb rnicowy ze wzmocnieniem 1/2
    3da2:	80 ab       	std	Z+48, r24	; 0x30
    ADCB.CH2.MUXCTRL = ADC_CH_MUXPOS_PIN2_gc | ADC_CH_MUXNEG_GND_MODE4_gc;	//pocztek przemiatania od PIN15
    3da4:	27 e1       	ldi	r18, 0x17	; 23
    3da6:	21 ab       	std	Z+49, r18	; 0x31
    ADCB.CH3.CTRL = ADC_CH_INPUTMODE_DIFFWGAIN_gc | ADC_CH_GAIN_DIV2_gc;	//tryb rnicowy ze wzmocnieniem 1/2
    3da8:	80 af       	std	Z+56, r24	; 0x38
    ADCB.CH3.MUXCTRL = ADC_CH_MUXPOS_PIN3_gc | ADC_CH_MUXNEG_GND_MODE4_gc;	//pocztek przemiatania od PIN15
    3daa:	81 af       	std	Z+57, r24	; 0x39
    ADCB.CH3.INTCTRL = ADC_CH_INTMODE_COMPLETE_gc | ADC_CH_INTLVL_LO_gc;	//przerwanie od zakoczenia przetwarzania ostatniego kanau
    3dac:	92 af       	std	Z+58, r25	; 0x3a
    3dae:	08 95       	ret

00003db0 <USART_Init>:
}

void USART_Init(void) {
    PORTD.OUTCLR = PIN2_bm;					//konfiguracja pinw Rx i Tx
    3db0:	e0 e6       	ldi	r30, 0x60	; 96
    3db2:	f6 e0       	ldi	r31, 0x06	; 6
    3db4:	84 e0       	ldi	r24, 0x04	; 4
    3db6:	86 83       	std	Z+6, r24	; 0x06
    PORTD.OUTSET = PIN3_bm;
    3db8:	88 e0       	ldi	r24, 0x08	; 8
    3dba:	85 83       	std	Z+5, r24	; 0x05
    PORTD.DIRSET = PIN3_bm;
    3dbc:	81 83       	std	Z+1, r24	; 0x01
    USARTD0.CTRLC = USART_CHSIZE_8BIT_gc;	//ramka: 8bitw, 1 bit stopu, brak bitu parzystoci
    3dbe:	e0 ea       	ldi	r30, 0xA0	; 160
    3dc0:	f9 e0       	ldi	r31, 0x09	; 9
    3dc2:	83 e0       	ldi	r24, 0x03	; 3
    3dc4:	85 83       	std	Z+5, r24	; 0x05
    int16_t BSEL = 1047;					//konfiguracja prdkoci transmisji 115200
    int8_t BSCALE = 0b10100000;				//-6
    USARTD0.BAUDCTRLA = (uint8_t)(BSEL & 0x00FF);
    3dc6:	87 e1       	ldi	r24, 0x17	; 23
    3dc8:	86 83       	std	Z+6, r24	; 0x06
    USARTD0.BAUDCTRLB = (uint8_t)(((BSEL >> 8) & 0x000F) | BSCALE) ;
    3dca:	84 ea       	ldi	r24, 0xA4	; 164
    3dcc:	87 83       	std	Z+7, r24	; 0x07
    USARTD0.CTRLA |= USART_RXCINTLVL_LO_gc | USART_TXCINTLVL_HI_gc;		//odblokowanie przerwa nadajnika i odbiornika, niski priorytet
    3dce:	83 81       	ldd	r24, Z+3	; 0x03
    3dd0:	8c 61       	ori	r24, 0x1C	; 28
    3dd2:	83 83       	std	Z+3, r24	; 0x03
    USARTD0.CTRLB = USART_TXEN_bm | USART_RXEN_bm;						//wczenie nadajnika i odbiornika USART
    3dd4:	88 e1       	ldi	r24, 0x18	; 24
    3dd6:	84 83       	std	Z+4, r24	; 0x04
    3dd8:	08 95       	ret

00003dda <IO_Init>:
}

void IO_Init(void) {
    3dda:	0f 93       	push	r16
    3ddc:	1f 93       	push	r17
    3dde:	cf 93       	push	r28
    3de0:	df 93       	push	r29
    //konfiguracja przyciskw
    PORTB.DIRCLR = PIN4_bm | PIN5_bm | PIN6_bm | PIN7_bm;
    3de2:	a0 e2       	ldi	r26, 0x20	; 32
    3de4:	b6 e0       	ldi	r27, 0x06	; 6
    3de6:	80 ef       	ldi	r24, 0xF0	; 240
    3de8:	12 96       	adiw	r26, 0x02	; 2
    3dea:	8c 93       	st	X, r24
    3dec:	12 97       	sbiw	r26, 0x02	; 2
    PORTB.PIN4CTRL = PORT_OPC_PULLUP_gc;		//wczenie Pull-up przycisku UP
    3dee:	88 e1       	ldi	r24, 0x18	; 24
    3df0:	54 96       	adiw	r26, 0x14	; 20
    3df2:	8c 93       	st	X, r24
    3df4:	54 97       	sbiw	r26, 0x14	; 20
    PORTB.PIN5CTRL = PORT_OPC_PULLUP_gc;		//wczenie Pull-up przycisku DOWN
    3df6:	55 96       	adiw	r26, 0x15	; 21
    3df8:	8c 93       	st	X, r24
    3dfa:	55 97       	sbiw	r26, 0x15	; 21
    PORTB.PIN6CTRL = PORT_OPC_PULLUP_gc;		//wczenie Pull-up przycisku LEFT
    3dfc:	56 96       	adiw	r26, 0x16	; 22
    3dfe:	8c 93       	st	X, r24
    3e00:	56 97       	sbiw	r26, 0x16	; 22
    PORTB.PIN7CTRL = PORT_OPC_PULLUP_gc;		//wczenie Pull-up przycisku RIGHT
    3e02:	57 96       	adiw	r26, 0x17	; 23
    3e04:	8c 93       	st	X, r24
    3e06:	57 97       	sbiw	r26, 0x17	; 23
    //konfiguracja LED
    PORTF.DIRSET = PIN0_bm | PIN1_bm | PIN2_bm | PIN3_bm | PIN4_bm | PIN5_bm;	//konfiguracja kierunku pinw LED
    3e08:	e0 ea       	ldi	r30, 0xA0	; 160
    3e0a:	f6 e0       	ldi	r31, 0x06	; 6
    3e0c:	8f e3       	ldi	r24, 0x3F	; 63
    3e0e:	81 83       	std	Z+1, r24	; 0x01
    PORTF.OUTCLR = PIN0_bm | PIN1_bm | PIN2_bm | PIN3_bm | PIN4_bm | PIN5_bm;	//konfiguracja stanu pinw LED
    3e10:	86 83       	std	Z+6, r24	; 0x06
    //konfiguracja buzzera
    PORTF.DIRSET = PIN6_bm;						//konfiguracja kierunku pinu buzzera
    3e12:	80 e4       	ldi	r24, 0x40	; 64
    3e14:	81 83       	std	Z+1, r24	; 0x01
    PORTF.OUTCLR = PIN6_bm;						//konfiguracja stanu pinu buzzer
    3e16:	86 83       	std	Z+6, r24	; 0x06
    PORTD.DIRSET = PIN0_bm;						//konfiguracja kierunku pinu buzzera
    3e18:	e0 e6       	ldi	r30, 0x60	; 96
    3e1a:	f6 e0       	ldi	r31, 0x06	; 6
    3e1c:	81 e0       	ldi	r24, 0x01	; 1
    3e1e:	81 83       	std	Z+1, r24	; 0x01
    PORTD.OUTCLR = PIN0_bm;						//konfiguracja stanu pinu buzzer
    3e20:	86 83       	std	Z+6, r24	; 0x06
    //konfiguracja wyj RELAY
    PORTE.DIRSET = PIN0_bm | PIN1_bm | PIN2_bm;			//konfiguracja kierunku pinw RELAY
    3e22:	c0 e8       	ldi	r28, 0x80	; 128
    3e24:	d6 e0       	ldi	r29, 0x06	; 6
    3e26:	87 e0       	ldi	r24, 0x07	; 7
    3e28:	89 83       	std	Y+1, r24	; 0x01
    PORTE.OUTCLR = PIN0_bm | PIN1_bm | PIN2_bm;			//konfiguracja stanu pinw RELAY
    3e2a:	8e 83       	std	Y+6, r24	; 0x06
    PORTR.DIRSET = PIN0_bm | PIN1_bm;					//konfiguracja kierunku pinw RELAY
    3e2c:	c0 ee       	ldi	r28, 0xE0	; 224
    3e2e:	d7 e0       	ldi	r29, 0x07	; 7
    3e30:	83 e0       	ldi	r24, 0x03	; 3
    3e32:	89 83       	std	Y+1, r24	; 0x01
    PORTR.OUTCLR = PIN0_bm | PIN1_bm;					//konfiguracja stanu pinw RELAY
    3e34:	8e 83       	std	Y+6, r24	; 0x06
    PORTA.DIRSET = PIN6_bm | PIN7_bm;					//konfiguracja kierunku pinw RELAY
    3e36:	20 e0       	ldi	r18, 0x00	; 0
    3e38:	36 e0       	ldi	r19, 0x06	; 6
    3e3a:	90 ec       	ldi	r25, 0xC0	; 192
    3e3c:	e9 01       	movw	r28, r18
    3e3e:	99 83       	std	Y+1, r25	; 0x01
    PORTA.OUTCLR = PIN6_bm | PIN7_bm;					//konfiguracja stanu pinw RELAY
    3e40:	9e 83       	std	Y+6, r25	; 0x06
    //konfiguracja interfejsu XBEE
    PORTD_OUTCLR = PIN2_bm;		//RX
    3e42:	06 e6       	ldi	r16, 0x66	; 102
    3e44:	16 e0       	ldi	r17, 0x06	; 6
    3e46:	94 e0       	ldi	r25, 0x04	; 4
    3e48:	e8 01       	movw	r28, r16
    3e4a:	98 83       	st	Y, r25
    PORTD_DIRSET = PIN3_bm;		//TX
    3e4c:	61 e6       	ldi	r22, 0x61	; 97
    3e4e:	76 e0       	ldi	r23, 0x06	; 6
    3e50:	48 e0       	ldi	r20, 0x08	; 8
    3e52:	eb 01       	movw	r28, r22
    3e54:	48 83       	st	Y, r20
    PORTD_DIRSET = PIN5_bm;		//sleep pin
    3e56:	40 e2       	ldi	r20, 0x20	; 32
    3e58:	48 83       	st	Y, r20
    PORTD_OUTCLR = PIN5_bm;
    3e5a:	e8 01       	movw	r28, r16
    3e5c:	48 83       	st	Y, r20
    //konfiguracja pinw I2C
    PORTC_DIR = PIN0_bm | PIN1_bm;
    3e5e:	40 e4       	ldi	r20, 0x40	; 64
    3e60:	56 e0       	ldi	r21, 0x06	; 6
    3e62:	ea 01       	movw	r28, r20
    3e64:	88 83       	st	Y, r24
    PORTC_OUT = PIN0_bm | PIN1_bm;
    3e66:	80 93 44 06 	sts	0x0644, r24
    //konfiguracja wej ADC
    PORTA.OUTCLR = PIN0_bm | PIN1_bm;							//Vsense
    3e6a:	e9 01       	movw	r28, r18
    3e6c:	8e 83       	std	Y+6, r24	; 0x06
    PORTB.OUTCLR = PIN0_bm | PIN1_bm | PIN2_bm | PIN3_bm;		//Temperature
    3e6e:	8f e0       	ldi	r24, 0x0F	; 15
    3e70:	16 96       	adiw	r26, 0x06	; 6
    3e72:	8c 93       	st	X, r24
    //wyjcia servo
    PORTD.DIRSET = PIN4_bm | PIN5_bm;					//konfiguracja kierunku pinw SERVO
    3e74:	80 e3       	ldi	r24, 0x30	; 48
    3e76:	81 83       	std	Z+1, r24	; 0x01
    PORTD.OUTCLR = PIN4_bm | PIN5_bm;					//konfiguracja stanu pinw SERVO
    3e78:	86 83       	std	Z+6, r24	; 0x06
    //ADC sync
    PORTD.DIRSET = PIN1_bm;						//konfiguracja kierunku pinu synchronizacja ADC
    3e7a:	82 e0       	ldi	r24, 0x02	; 2
    3e7c:	81 83       	std	Z+1, r24	; 0x01
    PORTD.OUTCLR = PIN1_bm;						//konfiguracja stanu pinu synchronizacji ADC
    3e7e:	86 83       	std	Z+6, r24	; 0x06
    //podwietlenie LCD
    PORTC.DIRSET = PIN2_bm;
    3e80:	fa 01       	movw	r30, r20
    3e82:	91 83       	std	Z+1, r25	; 0x01
    PORTC.OUTCLR = PIN2_bm;
    3e84:	96 83       	std	Z+6, r25	; 0x06
}
    3e86:	df 91       	pop	r29
    3e88:	cf 91       	pop	r28
    3e8a:	1f 91       	pop	r17
    3e8c:	0f 91       	pop	r16
    3e8e:	08 95       	ret

00003e90 <I2C_Init>:

void I2C_Init(void) {
    SENSORS_I2C.MASTER.CTRLA = TWI_MASTER_RIEN_bm | TWI_MASTER_WIEN_bm;		//ustawienie priorytetu przerwania na Low i w?aczenie przerwania od odbioru
    3e90:	e0 e8       	ldi	r30, 0x80	; 128
    3e92:	f4 e0       	ldi	r31, 0x04	; 4
    3e94:	80 e3       	ldi	r24, 0x30	; 48
    3e96:	81 83       	std	Z+1, r24	; 0x01
    SENSORS_I2C.MASTER.CTRLB = TWI_MASTER_SMEN_bm;                             //uruchomienie Smart Mode
    3e98:	91 e0       	ldi	r25, 0x01	; 1
    3e9a:	92 83       	std	Z+2, r25	; 0x02
    SENSORS_I2C.MASTER.BAUD = 48;                                             //BAUD = 48 -> f=300kHz    BAUD = 21 -> f=600kHz
    3e9c:	85 83       	std	Z+5, r24	; 0x05
    SENSORS_I2C.MASTER.CTRLA |= TWI_MASTER_ENABLE_bm;                          //wczenie TWI
    3e9e:	81 81       	ldd	r24, Z+1	; 0x01
    3ea0:	88 60       	ori	r24, 0x08	; 8
    3ea2:	81 83       	std	Z+1, r24	; 0x01
    SENSORS_I2C.MASTER.STATUS = TWI_MASTER_BUSSTATE_IDLE_gc;                   //I2C wolne
    3ea4:	94 83       	std	Z+4, r25	; 0x04
    3ea6:	08 95       	ret

00003ea8 <SPI_Init>:
}

void SPI_Init(void) {
    SPI_PORT.DIRSET = PIN4_bm;						//podcignicie CS
    3ea8:	e0 e4       	ldi	r30, 0x40	; 64
    3eaa:	f6 e0       	ldi	r31, 0x06	; 6
    3eac:	80 e1       	ldi	r24, 0x10	; 16
    3eae:	81 83       	std	Z+1, r24	; 0x01
    SPI_PORT.DIRSET = PIN5_bm | PIN7_bm;
    3eb0:	80 ea       	ldi	r24, 0xA0	; 160
    3eb2:	81 83       	std	Z+1, r24	; 0x01
    SPI_PORT.DIRCLR = PIN6_bm;
    3eb4:	80 e4       	ldi	r24, 0x40	; 64
    3eb6:	82 83       	std	Z+2, r24	; 0x02
    SPI_PORT.OUTSET = PIN5_bm | PIN6_bm | PIN7_bm;	//moe doda PIN6_bm
    3eb8:	80 ee       	ldi	r24, 0xE0	; 224
    3eba:	85 83       	std	Z+5, r24	; 0x05
    //-----------Clk = 4 MHz-------------------------
    ADC_SPI.CTRL = SPI_ENABLE_bm | SPI_MODE_0_gc | SPI_PRESCALER_DIV16_gc | SPI_CLK2X_bm | SPI_MASTER_bm;
    3ebc:	81 ed       	ldi	r24, 0xD1	; 209
    3ebe:	80 93 c0 08 	sts	0x08C0, r24
    3ec2:	08 95       	ret

00003ec4 <prepareFrameDEBUG>:
	stan->SERVO1 = PORTD.IN & PIN5_bm;
	stan->SERVO2 = PORTD.IN & PIN4_bm;
}

void TempConvPT100(Analog_t * Analog){
	Analog->Temp1 = 0;
    3ec4:	4f 92       	push	r4
    3ec6:	5f 92       	push	r5
    3ec8:	6f 92       	push	r6
    3eca:	7f 92       	push	r7
    3ecc:	af 92       	push	r10
    3ece:	bf 92       	push	r11
    3ed0:	cf 92       	push	r12
    3ed2:	df 92       	push	r13
    3ed4:	ef 92       	push	r14
    3ed6:	ff 92       	push	r15
    3ed8:	0f 93       	push	r16
    3eda:	1f 93       	push	r17
    3edc:	cf 93       	push	r28
    3ede:	df 93       	push	r29
    3ee0:	cd b7       	in	r28, 0x3d	; 61
    3ee2:	de b7       	in	r29, 0x3e	; 62
    3ee4:	2c 97       	sbiw	r28, 0x0c	; 12
    3ee6:	cd bf       	out	0x3d, r28	; 61
    3ee8:	de bf       	out	0x3e, r29	; 62
    3eea:	8c 01       	movw	r16, r24
    3eec:	19 82       	std	Y+1, r1	; 0x01
    3eee:	1a 82       	std	Y+2, r1	; 0x02
    3ef0:	1b 82       	std	Y+3, r1	; 0x03
    3ef2:	1c 82       	std	Y+4, r1	; 0x04
    3ef4:	dc 01       	movw	r26, r24
    3ef6:	1c 96       	adiw	r26, 0x0c	; 12
    3ef8:	ed 91       	ld	r30, X+
    3efa:	fc 91       	ld	r31, X
    3efc:	1d 97       	sbiw	r26, 0x0d	; 13
    3efe:	80 a1       	ldd	r24, Z+32	; 0x20
    3f00:	91 a1       	ldd	r25, Z+33	; 0x21
    3f02:	a2 a1       	ldd	r26, Z+34	; 0x22
    3f04:	b3 a1       	ldd	r27, Z+35	; 0x23
    3f06:	8d 83       	std	Y+5, r24	; 0x05
    3f08:	9e 83       	std	Y+6, r25	; 0x06
    3f0a:	af 83       	std	Y+7, r26	; 0x07
    3f0c:	b8 87       	std	Y+8, r27	; 0x08
    3f0e:	8d 81       	ldd	r24, Y+5	; 0x05
    3f10:	9e 81       	ldd	r25, Y+6	; 0x06
    3f12:	af 81       	ldd	r26, Y+7	; 0x07
    3f14:	b8 85       	ldd	r27, Y+8	; 0x08
    3f16:	bb 23       	and	r27, r27
    3f18:	7c f4       	brge	.+30     	; 0x3f38 <prepareFrameDEBUG+0x74>
    3f1a:	8d 81       	ldd	r24, Y+5	; 0x05
    3f1c:	9e 81       	ldd	r25, Y+6	; 0x06
    3f1e:	af 81       	ldd	r26, Y+7	; 0x07
    3f20:	b8 85       	ldd	r27, Y+8	; 0x08
    3f22:	b0 95       	com	r27
    3f24:	a0 95       	com	r26
    3f26:	90 95       	com	r25
    3f28:	81 95       	neg	r24
    3f2a:	9f 4f       	sbci	r25, 0xFF	; 255
    3f2c:	af 4f       	sbci	r26, 0xFF	; 255
    3f2e:	bf 4f       	sbci	r27, 0xFF	; 255
    3f30:	8d 83       	std	Y+5, r24	; 0x05
    3f32:	9e 83       	std	Y+6, r25	; 0x06
    3f34:	af 83       	std	Y+7, r26	; 0x07
    3f36:	b8 87       	std	Y+8, r27	; 0x08
    3f38:	f8 01       	movw	r30, r16
    3f3a:	a6 80       	ldd	r10, Z+6	; 0x06
    3f3c:	b7 80       	ldd	r11, Z+7	; 0x07
    3f3e:	c9 80       	ldd	r12, Y+1	; 0x01
    3f40:	da 80       	ldd	r13, Y+2	; 0x02
    3f42:	eb 80       	ldd	r14, Y+3	; 0x03
    3f44:	fc 80       	ldd	r15, Y+4	; 0x04
    3f46:	b7 01       	movw	r22, r14
    3f48:	a6 01       	movw	r20, r12
    3f4a:	4f 5f       	subi	r20, 0xFF	; 255
    3f4c:	5f 4f       	sbci	r21, 0xFF	; 255
    3f4e:	6f 4f       	sbci	r22, 0xFF	; 255
    3f50:	7f 4f       	sbci	r23, 0xFF	; 255
    3f52:	49 83       	std	Y+1, r20	; 0x01
    3f54:	5a 83       	std	Y+2, r21	; 0x02
    3f56:	6b 83       	std	Y+3, r22	; 0x03
    3f58:	7c 83       	std	Y+4, r23	; 0x04
    3f5a:	6d 81       	ldd	r22, Y+5	; 0x05
    3f5c:	7e 81       	ldd	r23, Y+6	; 0x06
    3f5e:	8f 81       	ldd	r24, Y+7	; 0x07
    3f60:	98 85       	ldd	r25, Y+8	; 0x08
    3f62:	ac 0c       	add	r10, r12
    3f64:	bd 1c       	adc	r11, r13
    3f66:	20 e8       	ldi	r18, 0x80	; 128
    3f68:	36 e9       	ldi	r19, 0x96	; 150
    3f6a:	48 e9       	ldi	r20, 0x98	; 152
    3f6c:	50 e0       	ldi	r21, 0x00	; 0
    3f6e:	0e 94 27 34 	call	0x684e	; 0x684e <__divmodsi4>
    3f72:	0f 2e       	mov	r0, r31
    3f74:	fa e0       	ldi	r31, 0x0A	; 10
    3f76:	cf 2e       	mov	r12, r31
    3f78:	d1 2c       	mov	r13, r1
    3f7a:	e1 2c       	mov	r14, r1
    3f7c:	f1 2c       	mov	r15, r1
    3f7e:	f0 2d       	mov	r31, r0
    3f80:	ca 01       	movw	r24, r20
    3f82:	b9 01       	movw	r22, r18
    3f84:	a7 01       	movw	r20, r14
    3f86:	96 01       	movw	r18, r12
    3f88:	0e 94 27 34 	call	0x684e	; 0x684e <__divmodsi4>
    3f8c:	60 5d       	subi	r22, 0xD0	; 208
    3f8e:	d5 01       	movw	r26, r10
    3f90:	6c 93       	st	X, r22
    3f92:	f8 01       	movw	r30, r16
    3f94:	a6 80       	ldd	r10, Z+6	; 0x06
    3f96:	b7 80       	ldd	r11, Z+7	; 0x07
    3f98:	49 80       	ldd	r4, Y+1	; 0x01
    3f9a:	5a 80       	ldd	r5, Y+2	; 0x02
    3f9c:	6b 80       	ldd	r6, Y+3	; 0x03
    3f9e:	7c 80       	ldd	r7, Y+4	; 0x04
    3fa0:	b3 01       	movw	r22, r6
    3fa2:	a2 01       	movw	r20, r4
    3fa4:	4f 5f       	subi	r20, 0xFF	; 255
    3fa6:	5f 4f       	sbci	r21, 0xFF	; 255
    3fa8:	6f 4f       	sbci	r22, 0xFF	; 255
    3faa:	7f 4f       	sbci	r23, 0xFF	; 255
    3fac:	49 83       	std	Y+1, r20	; 0x01
    3fae:	5a 83       	std	Y+2, r21	; 0x02
    3fb0:	6b 83       	std	Y+3, r22	; 0x03
    3fb2:	7c 83       	std	Y+4, r23	; 0x04
    3fb4:	6d 81       	ldd	r22, Y+5	; 0x05
    3fb6:	7e 81       	ldd	r23, Y+6	; 0x06
    3fb8:	8f 81       	ldd	r24, Y+7	; 0x07
    3fba:	98 85       	ldd	r25, Y+8	; 0x08
    3fbc:	a4 0c       	add	r10, r4
    3fbe:	b5 1c       	adc	r11, r5
    3fc0:	20 e4       	ldi	r18, 0x40	; 64
    3fc2:	32 e4       	ldi	r19, 0x42	; 66
    3fc4:	4f e0       	ldi	r20, 0x0F	; 15
    3fc6:	50 e0       	ldi	r21, 0x00	; 0
    3fc8:	0e 94 27 34 	call	0x684e	; 0x684e <__divmodsi4>
    3fcc:	ca 01       	movw	r24, r20
    3fce:	b9 01       	movw	r22, r18
    3fd0:	a7 01       	movw	r20, r14
    3fd2:	96 01       	movw	r18, r12
    3fd4:	0e 94 27 34 	call	0x684e	; 0x684e <__divmodsi4>
    3fd8:	60 5d       	subi	r22, 0xD0	; 208
    3fda:	d5 01       	movw	r26, r10
    3fdc:	6c 93       	st	X, r22
    3fde:	f8 01       	movw	r30, r16
    3fe0:	a6 80       	ldd	r10, Z+6	; 0x06
    3fe2:	b7 80       	ldd	r11, Z+7	; 0x07
    3fe4:	49 80       	ldd	r4, Y+1	; 0x01
    3fe6:	5a 80       	ldd	r5, Y+2	; 0x02
    3fe8:	6b 80       	ldd	r6, Y+3	; 0x03
    3fea:	7c 80       	ldd	r7, Y+4	; 0x04
    3fec:	b3 01       	movw	r22, r6
    3fee:	a2 01       	movw	r20, r4
    3ff0:	4f 5f       	subi	r20, 0xFF	; 255
    3ff2:	5f 4f       	sbci	r21, 0xFF	; 255
    3ff4:	6f 4f       	sbci	r22, 0xFF	; 255
    3ff6:	7f 4f       	sbci	r23, 0xFF	; 255
    3ff8:	49 83       	std	Y+1, r20	; 0x01
    3ffa:	5a 83       	std	Y+2, r21	; 0x02
    3ffc:	6b 83       	std	Y+3, r22	; 0x03
    3ffe:	7c 83       	std	Y+4, r23	; 0x04
    4000:	6d 81       	ldd	r22, Y+5	; 0x05
    4002:	7e 81       	ldd	r23, Y+6	; 0x06
    4004:	8f 81       	ldd	r24, Y+7	; 0x07
    4006:	98 85       	ldd	r25, Y+8	; 0x08
    4008:	a4 0c       	add	r10, r4
    400a:	b5 1c       	adc	r11, r5
    400c:	20 ea       	ldi	r18, 0xA0	; 160
    400e:	36 e8       	ldi	r19, 0x86	; 134
    4010:	41 e0       	ldi	r20, 0x01	; 1
    4012:	50 e0       	ldi	r21, 0x00	; 0
    4014:	0e 94 27 34 	call	0x684e	; 0x684e <__divmodsi4>
    4018:	ca 01       	movw	r24, r20
    401a:	b9 01       	movw	r22, r18
    401c:	a7 01       	movw	r20, r14
    401e:	96 01       	movw	r18, r12
    4020:	0e 94 27 34 	call	0x684e	; 0x684e <__divmodsi4>
    4024:	60 5d       	subi	r22, 0xD0	; 208
    4026:	d5 01       	movw	r26, r10
    4028:	6c 93       	st	X, r22
    402a:	f8 01       	movw	r30, r16
    402c:	a6 80       	ldd	r10, Z+6	; 0x06
    402e:	b7 80       	ldd	r11, Z+7	; 0x07
    4030:	49 80       	ldd	r4, Y+1	; 0x01
    4032:	5a 80       	ldd	r5, Y+2	; 0x02
    4034:	6b 80       	ldd	r6, Y+3	; 0x03
    4036:	7c 80       	ldd	r7, Y+4	; 0x04
    4038:	b3 01       	movw	r22, r6
    403a:	a2 01       	movw	r20, r4
    403c:	4f 5f       	subi	r20, 0xFF	; 255
    403e:	5f 4f       	sbci	r21, 0xFF	; 255
    4040:	6f 4f       	sbci	r22, 0xFF	; 255
    4042:	7f 4f       	sbci	r23, 0xFF	; 255
    4044:	49 83       	std	Y+1, r20	; 0x01
    4046:	5a 83       	std	Y+2, r21	; 0x02
    4048:	6b 83       	std	Y+3, r22	; 0x03
    404a:	7c 83       	std	Y+4, r23	; 0x04
    404c:	6d 81       	ldd	r22, Y+5	; 0x05
    404e:	7e 81       	ldd	r23, Y+6	; 0x06
    4050:	8f 81       	ldd	r24, Y+7	; 0x07
    4052:	98 85       	ldd	r25, Y+8	; 0x08
    4054:	a4 0c       	add	r10, r4
    4056:	b5 1c       	adc	r11, r5
    4058:	20 e1       	ldi	r18, 0x10	; 16
    405a:	37 e2       	ldi	r19, 0x27	; 39
    405c:	40 e0       	ldi	r20, 0x00	; 0
    405e:	50 e0       	ldi	r21, 0x00	; 0
    4060:	0e 94 27 34 	call	0x684e	; 0x684e <__divmodsi4>
    4064:	ca 01       	movw	r24, r20
    4066:	b9 01       	movw	r22, r18
    4068:	a7 01       	movw	r20, r14
    406a:	96 01       	movw	r18, r12
    406c:	0e 94 27 34 	call	0x684e	; 0x684e <__divmodsi4>
    4070:	60 5d       	subi	r22, 0xD0	; 208
    4072:	d5 01       	movw	r26, r10
    4074:	6c 93       	st	X, r22
    4076:	f8 01       	movw	r30, r16
    4078:	a6 80       	ldd	r10, Z+6	; 0x06
    407a:	b7 80       	ldd	r11, Z+7	; 0x07
    407c:	49 80       	ldd	r4, Y+1	; 0x01
    407e:	5a 80       	ldd	r5, Y+2	; 0x02
    4080:	6b 80       	ldd	r6, Y+3	; 0x03
    4082:	7c 80       	ldd	r7, Y+4	; 0x04
    4084:	b3 01       	movw	r22, r6
    4086:	a2 01       	movw	r20, r4
    4088:	4f 5f       	subi	r20, 0xFF	; 255
    408a:	5f 4f       	sbci	r21, 0xFF	; 255
    408c:	6f 4f       	sbci	r22, 0xFF	; 255
    408e:	7f 4f       	sbci	r23, 0xFF	; 255
    4090:	49 83       	std	Y+1, r20	; 0x01
    4092:	5a 83       	std	Y+2, r21	; 0x02
    4094:	6b 83       	std	Y+3, r22	; 0x03
    4096:	7c 83       	std	Y+4, r23	; 0x04
    4098:	6d 81       	ldd	r22, Y+5	; 0x05
    409a:	7e 81       	ldd	r23, Y+6	; 0x06
    409c:	8f 81       	ldd	r24, Y+7	; 0x07
    409e:	98 85       	ldd	r25, Y+8	; 0x08
    40a0:	a4 0c       	add	r10, r4
    40a2:	b5 1c       	adc	r11, r5
    40a4:	28 ee       	ldi	r18, 0xE8	; 232
    40a6:	33 e0       	ldi	r19, 0x03	; 3
    40a8:	40 e0       	ldi	r20, 0x00	; 0
    40aa:	50 e0       	ldi	r21, 0x00	; 0
    40ac:	0e 94 27 34 	call	0x684e	; 0x684e <__divmodsi4>
    40b0:	ca 01       	movw	r24, r20
    40b2:	b9 01       	movw	r22, r18
    40b4:	a7 01       	movw	r20, r14
    40b6:	96 01       	movw	r18, r12
    40b8:	0e 94 27 34 	call	0x684e	; 0x684e <__divmodsi4>
    40bc:	60 5d       	subi	r22, 0xD0	; 208
    40be:	d5 01       	movw	r26, r10
    40c0:	6c 93       	st	X, r22
    40c2:	f8 01       	movw	r30, r16
    40c4:	a6 80       	ldd	r10, Z+6	; 0x06
    40c6:	b7 80       	ldd	r11, Z+7	; 0x07
    40c8:	49 80       	ldd	r4, Y+1	; 0x01
    40ca:	5a 80       	ldd	r5, Y+2	; 0x02
    40cc:	6b 80       	ldd	r6, Y+3	; 0x03
    40ce:	7c 80       	ldd	r7, Y+4	; 0x04
    40d0:	b3 01       	movw	r22, r6
    40d2:	a2 01       	movw	r20, r4
    40d4:	4f 5f       	subi	r20, 0xFF	; 255
    40d6:	5f 4f       	sbci	r21, 0xFF	; 255
    40d8:	6f 4f       	sbci	r22, 0xFF	; 255
    40da:	7f 4f       	sbci	r23, 0xFF	; 255
    40dc:	49 83       	std	Y+1, r20	; 0x01
    40de:	5a 83       	std	Y+2, r21	; 0x02
    40e0:	6b 83       	std	Y+3, r22	; 0x03
    40e2:	7c 83       	std	Y+4, r23	; 0x04
    40e4:	6d 81       	ldd	r22, Y+5	; 0x05
    40e6:	7e 81       	ldd	r23, Y+6	; 0x06
    40e8:	8f 81       	ldd	r24, Y+7	; 0x07
    40ea:	98 85       	ldd	r25, Y+8	; 0x08
    40ec:	a4 0c       	add	r10, r4
    40ee:	b5 1c       	adc	r11, r5
    40f0:	24 e6       	ldi	r18, 0x64	; 100
    40f2:	30 e0       	ldi	r19, 0x00	; 0
    40f4:	40 e0       	ldi	r20, 0x00	; 0
    40f6:	50 e0       	ldi	r21, 0x00	; 0
    40f8:	0e 94 27 34 	call	0x684e	; 0x684e <__divmodsi4>
    40fc:	ca 01       	movw	r24, r20
    40fe:	b9 01       	movw	r22, r18
    4100:	a7 01       	movw	r20, r14
    4102:	96 01       	movw	r18, r12
    4104:	0e 94 27 34 	call	0x684e	; 0x684e <__divmodsi4>
    4108:	60 5d       	subi	r22, 0xD0	; 208
    410a:	d5 01       	movw	r26, r10
    410c:	6c 93       	st	X, r22
    410e:	f8 01       	movw	r30, r16
    4110:	a6 80       	ldd	r10, Z+6	; 0x06
    4112:	b7 80       	ldd	r11, Z+7	; 0x07
    4114:	49 80       	ldd	r4, Y+1	; 0x01
    4116:	5a 80       	ldd	r5, Y+2	; 0x02
    4118:	6b 80       	ldd	r6, Y+3	; 0x03
    411a:	7c 80       	ldd	r7, Y+4	; 0x04
    411c:	b3 01       	movw	r22, r6
    411e:	a2 01       	movw	r20, r4
    4120:	4f 5f       	subi	r20, 0xFF	; 255
    4122:	5f 4f       	sbci	r21, 0xFF	; 255
    4124:	6f 4f       	sbci	r22, 0xFF	; 255
    4126:	7f 4f       	sbci	r23, 0xFF	; 255
    4128:	49 83       	std	Y+1, r20	; 0x01
    412a:	5a 83       	std	Y+2, r21	; 0x02
    412c:	6b 83       	std	Y+3, r22	; 0x03
    412e:	7c 83       	std	Y+4, r23	; 0x04
    4130:	6d 81       	ldd	r22, Y+5	; 0x05
    4132:	7e 81       	ldd	r23, Y+6	; 0x06
    4134:	8f 81       	ldd	r24, Y+7	; 0x07
    4136:	98 85       	ldd	r25, Y+8	; 0x08
    4138:	a4 0c       	add	r10, r4
    413a:	b5 1c       	adc	r11, r5
    413c:	a7 01       	movw	r20, r14
    413e:	96 01       	movw	r18, r12
    4140:	0e 94 27 34 	call	0x684e	; 0x684e <__divmodsi4>
    4144:	ca 01       	movw	r24, r20
    4146:	b9 01       	movw	r22, r18
    4148:	a7 01       	movw	r20, r14
    414a:	96 01       	movw	r18, r12
    414c:	0e 94 27 34 	call	0x684e	; 0x684e <__divmodsi4>
    4150:	60 5d       	subi	r22, 0xD0	; 208
    4152:	d5 01       	movw	r26, r10
    4154:	6c 93       	st	X, r22
    4156:	f8 01       	movw	r30, r16
    4158:	a6 80       	ldd	r10, Z+6	; 0x06
    415a:	b7 80       	ldd	r11, Z+7	; 0x07
    415c:	49 80       	ldd	r4, Y+1	; 0x01
    415e:	5a 80       	ldd	r5, Y+2	; 0x02
    4160:	6b 80       	ldd	r6, Y+3	; 0x03
    4162:	7c 80       	ldd	r7, Y+4	; 0x04
    4164:	b3 01       	movw	r22, r6
    4166:	a2 01       	movw	r20, r4
    4168:	4f 5f       	subi	r20, 0xFF	; 255
    416a:	5f 4f       	sbci	r21, 0xFF	; 255
    416c:	6f 4f       	sbci	r22, 0xFF	; 255
    416e:	7f 4f       	sbci	r23, 0xFF	; 255
    4170:	49 83       	std	Y+1, r20	; 0x01
    4172:	5a 83       	std	Y+2, r21	; 0x02
    4174:	6b 83       	std	Y+3, r22	; 0x03
    4176:	7c 83       	std	Y+4, r23	; 0x04
    4178:	6d 81       	ldd	r22, Y+5	; 0x05
    417a:	7e 81       	ldd	r23, Y+6	; 0x06
    417c:	8f 81       	ldd	r24, Y+7	; 0x07
    417e:	98 85       	ldd	r25, Y+8	; 0x08
    4180:	a4 0c       	add	r10, r4
    4182:	b5 1c       	adc	r11, r5
    4184:	a7 01       	movw	r20, r14
    4186:	96 01       	movw	r18, r12
    4188:	0e 94 27 34 	call	0x684e	; 0x684e <__divmodsi4>
    418c:	60 5d       	subi	r22, 0xD0	; 208
    418e:	d5 01       	movw	r26, r10
    4190:	6c 93       	st	X, r22
    4192:	f8 01       	movw	r30, r16
    4194:	26 81       	ldd	r18, Z+6	; 0x06
    4196:	37 81       	ldd	r19, Z+7	; 0x07
    4198:	89 81       	ldd	r24, Y+1	; 0x01
    419a:	9a 81       	ldd	r25, Y+2	; 0x02
    419c:	ab 81       	ldd	r26, Y+3	; 0x03
    419e:	bc 81       	ldd	r27, Y+4	; 0x04
    41a0:	ac 01       	movw	r20, r24
    41a2:	bd 01       	movw	r22, r26
    41a4:	4f 5f       	subi	r20, 0xFF	; 255
    41a6:	5f 4f       	sbci	r21, 0xFF	; 255
    41a8:	6f 4f       	sbci	r22, 0xFF	; 255
    41aa:	7f 4f       	sbci	r23, 0xFF	; 255
    41ac:	49 83       	std	Y+1, r20	; 0x01
    41ae:	5a 83       	std	Y+2, r21	; 0x02
    41b0:	6b 83       	std	Y+3, r22	; 0x03
    41b2:	7c 83       	std	Y+4, r23	; 0x04
    41b4:	f9 01       	movw	r30, r18
    41b6:	e8 0f       	add	r30, r24
    41b8:	f9 1f       	adc	r31, r25
    41ba:	29 e0       	ldi	r18, 0x09	; 9
    41bc:	20 83       	st	Z, r18
    41be:	d8 01       	movw	r26, r16
    41c0:	1c 96       	adiw	r26, 0x0c	; 12
    41c2:	ed 91       	ld	r30, X+
    41c4:	fc 91       	ld	r31, X
    41c6:	1d 97       	sbiw	r26, 0x0d	; 13
    41c8:	84 a1       	ldd	r24, Z+36	; 0x24
    41ca:	95 a1       	ldd	r25, Z+37	; 0x25
    41cc:	a6 a1       	ldd	r26, Z+38	; 0x26
    41ce:	b7 a1       	ldd	r27, Z+39	; 0x27
    41d0:	8d 83       	std	Y+5, r24	; 0x05
    41d2:	9e 83       	std	Y+6, r25	; 0x06
    41d4:	af 83       	std	Y+7, r26	; 0x07
    41d6:	b8 87       	std	Y+8, r27	; 0x08
    41d8:	8d 81       	ldd	r24, Y+5	; 0x05
    41da:	9e 81       	ldd	r25, Y+6	; 0x06
    41dc:	af 81       	ldd	r26, Y+7	; 0x07
    41de:	b8 85       	ldd	r27, Y+8	; 0x08
    41e0:	bb 23       	and	r27, r27
    41e2:	7c f4       	brge	.+30     	; 0x4202 <__stack+0x203>
    41e4:	8d 81       	ldd	r24, Y+5	; 0x05
    41e6:	9e 81       	ldd	r25, Y+6	; 0x06
    41e8:	af 81       	ldd	r26, Y+7	; 0x07
    41ea:	b8 85       	ldd	r27, Y+8	; 0x08
    41ec:	b0 95       	com	r27
    41ee:	a0 95       	com	r26
    41f0:	90 95       	com	r25
    41f2:	81 95       	neg	r24
    41f4:	9f 4f       	sbci	r25, 0xFF	; 255
    41f6:	af 4f       	sbci	r26, 0xFF	; 255
    41f8:	bf 4f       	sbci	r27, 0xFF	; 255
    41fa:	8d 83       	std	Y+5, r24	; 0x05
    41fc:	9e 83       	std	Y+6, r25	; 0x06
    41fe:	af 83       	std	Y+7, r26	; 0x07
    4200:	b8 87       	std	Y+8, r27	; 0x08
    4202:	f8 01       	movw	r30, r16
    4204:	a6 80       	ldd	r10, Z+6	; 0x06
    4206:	b7 80       	ldd	r11, Z+7	; 0x07
    4208:	c9 80       	ldd	r12, Y+1	; 0x01
    420a:	da 80       	ldd	r13, Y+2	; 0x02
    420c:	eb 80       	ldd	r14, Y+3	; 0x03
    420e:	fc 80       	ldd	r15, Y+4	; 0x04
    4210:	b7 01       	movw	r22, r14
    4212:	a6 01       	movw	r20, r12
    4214:	4f 5f       	subi	r20, 0xFF	; 255
    4216:	5f 4f       	sbci	r21, 0xFF	; 255
    4218:	6f 4f       	sbci	r22, 0xFF	; 255
    421a:	7f 4f       	sbci	r23, 0xFF	; 255
    421c:	49 83       	std	Y+1, r20	; 0x01
    421e:	5a 83       	std	Y+2, r21	; 0x02
    4220:	6b 83       	std	Y+3, r22	; 0x03
    4222:	7c 83       	std	Y+4, r23	; 0x04
    4224:	6d 81       	ldd	r22, Y+5	; 0x05
    4226:	7e 81       	ldd	r23, Y+6	; 0x06
    4228:	8f 81       	ldd	r24, Y+7	; 0x07
    422a:	98 85       	ldd	r25, Y+8	; 0x08
    422c:	ac 0c       	add	r10, r12
    422e:	bd 1c       	adc	r11, r13
    4230:	20 e8       	ldi	r18, 0x80	; 128
    4232:	36 e9       	ldi	r19, 0x96	; 150
    4234:	48 e9       	ldi	r20, 0x98	; 152
    4236:	50 e0       	ldi	r21, 0x00	; 0
    4238:	0e 94 27 34 	call	0x684e	; 0x684e <__divmodsi4>
    423c:	0f 2e       	mov	r0, r31
    423e:	fa e0       	ldi	r31, 0x0A	; 10
    4240:	cf 2e       	mov	r12, r31
    4242:	d1 2c       	mov	r13, r1
    4244:	e1 2c       	mov	r14, r1
    4246:	f1 2c       	mov	r15, r1
    4248:	f0 2d       	mov	r31, r0
    424a:	ca 01       	movw	r24, r20
    424c:	b9 01       	movw	r22, r18
    424e:	a7 01       	movw	r20, r14
    4250:	96 01       	movw	r18, r12
    4252:	0e 94 27 34 	call	0x684e	; 0x684e <__divmodsi4>
    4256:	60 5d       	subi	r22, 0xD0	; 208
    4258:	d5 01       	movw	r26, r10
    425a:	6c 93       	st	X, r22
    425c:	f8 01       	movw	r30, r16
    425e:	a6 80       	ldd	r10, Z+6	; 0x06
    4260:	b7 80       	ldd	r11, Z+7	; 0x07
    4262:	49 80       	ldd	r4, Y+1	; 0x01
    4264:	5a 80       	ldd	r5, Y+2	; 0x02
    4266:	6b 80       	ldd	r6, Y+3	; 0x03
    4268:	7c 80       	ldd	r7, Y+4	; 0x04
    426a:	b3 01       	movw	r22, r6
    426c:	a2 01       	movw	r20, r4
    426e:	4f 5f       	subi	r20, 0xFF	; 255
    4270:	5f 4f       	sbci	r21, 0xFF	; 255
    4272:	6f 4f       	sbci	r22, 0xFF	; 255
    4274:	7f 4f       	sbci	r23, 0xFF	; 255
    4276:	49 83       	std	Y+1, r20	; 0x01
    4278:	5a 83       	std	Y+2, r21	; 0x02
    427a:	6b 83       	std	Y+3, r22	; 0x03
    427c:	7c 83       	std	Y+4, r23	; 0x04
    427e:	6d 81       	ldd	r22, Y+5	; 0x05
    4280:	7e 81       	ldd	r23, Y+6	; 0x06
    4282:	8f 81       	ldd	r24, Y+7	; 0x07
    4284:	98 85       	ldd	r25, Y+8	; 0x08
    4286:	a4 0c       	add	r10, r4
    4288:	b5 1c       	adc	r11, r5
    428a:	20 e4       	ldi	r18, 0x40	; 64
    428c:	32 e4       	ldi	r19, 0x42	; 66
    428e:	4f e0       	ldi	r20, 0x0F	; 15
    4290:	50 e0       	ldi	r21, 0x00	; 0
    4292:	0e 94 27 34 	call	0x684e	; 0x684e <__divmodsi4>
    4296:	ca 01       	movw	r24, r20
    4298:	b9 01       	movw	r22, r18
    429a:	a7 01       	movw	r20, r14
    429c:	96 01       	movw	r18, r12
    429e:	0e 94 27 34 	call	0x684e	; 0x684e <__divmodsi4>
    42a2:	60 5d       	subi	r22, 0xD0	; 208
    42a4:	d5 01       	movw	r26, r10
    42a6:	6c 93       	st	X, r22
    42a8:	f8 01       	movw	r30, r16
    42aa:	a6 80       	ldd	r10, Z+6	; 0x06
    42ac:	b7 80       	ldd	r11, Z+7	; 0x07
    42ae:	49 80       	ldd	r4, Y+1	; 0x01
    42b0:	5a 80       	ldd	r5, Y+2	; 0x02
    42b2:	6b 80       	ldd	r6, Y+3	; 0x03
    42b4:	7c 80       	ldd	r7, Y+4	; 0x04
    42b6:	b3 01       	movw	r22, r6
    42b8:	a2 01       	movw	r20, r4
    42ba:	4f 5f       	subi	r20, 0xFF	; 255
    42bc:	5f 4f       	sbci	r21, 0xFF	; 255
    42be:	6f 4f       	sbci	r22, 0xFF	; 255
    42c0:	7f 4f       	sbci	r23, 0xFF	; 255
    42c2:	49 83       	std	Y+1, r20	; 0x01
    42c4:	5a 83       	std	Y+2, r21	; 0x02
    42c6:	6b 83       	std	Y+3, r22	; 0x03
    42c8:	7c 83       	std	Y+4, r23	; 0x04
    42ca:	6d 81       	ldd	r22, Y+5	; 0x05
    42cc:	7e 81       	ldd	r23, Y+6	; 0x06
    42ce:	8f 81       	ldd	r24, Y+7	; 0x07
    42d0:	98 85       	ldd	r25, Y+8	; 0x08
    42d2:	a4 0c       	add	r10, r4
    42d4:	b5 1c       	adc	r11, r5
    42d6:	20 ea       	ldi	r18, 0xA0	; 160
    42d8:	36 e8       	ldi	r19, 0x86	; 134
    42da:	41 e0       	ldi	r20, 0x01	; 1
    42dc:	50 e0       	ldi	r21, 0x00	; 0
    42de:	0e 94 27 34 	call	0x684e	; 0x684e <__divmodsi4>
    42e2:	ca 01       	movw	r24, r20
    42e4:	b9 01       	movw	r22, r18
    42e6:	a7 01       	movw	r20, r14
    42e8:	96 01       	movw	r18, r12
    42ea:	0e 94 27 34 	call	0x684e	; 0x684e <__divmodsi4>
    42ee:	60 5d       	subi	r22, 0xD0	; 208
    42f0:	d5 01       	movw	r26, r10
    42f2:	6c 93       	st	X, r22
    42f4:	f8 01       	movw	r30, r16
    42f6:	a6 80       	ldd	r10, Z+6	; 0x06
    42f8:	b7 80       	ldd	r11, Z+7	; 0x07
    42fa:	49 80       	ldd	r4, Y+1	; 0x01
    42fc:	5a 80       	ldd	r5, Y+2	; 0x02
    42fe:	6b 80       	ldd	r6, Y+3	; 0x03
    4300:	7c 80       	ldd	r7, Y+4	; 0x04
    4302:	b3 01       	movw	r22, r6
    4304:	a2 01       	movw	r20, r4
    4306:	4f 5f       	subi	r20, 0xFF	; 255
    4308:	5f 4f       	sbci	r21, 0xFF	; 255
    430a:	6f 4f       	sbci	r22, 0xFF	; 255
    430c:	7f 4f       	sbci	r23, 0xFF	; 255
    430e:	49 83       	std	Y+1, r20	; 0x01
    4310:	5a 83       	std	Y+2, r21	; 0x02
    4312:	6b 83       	std	Y+3, r22	; 0x03
    4314:	7c 83       	std	Y+4, r23	; 0x04
    4316:	6d 81       	ldd	r22, Y+5	; 0x05
    4318:	7e 81       	ldd	r23, Y+6	; 0x06
    431a:	8f 81       	ldd	r24, Y+7	; 0x07
    431c:	98 85       	ldd	r25, Y+8	; 0x08
    431e:	a4 0c       	add	r10, r4
    4320:	b5 1c       	adc	r11, r5
    4322:	20 e1       	ldi	r18, 0x10	; 16
    4324:	37 e2       	ldi	r19, 0x27	; 39
    4326:	40 e0       	ldi	r20, 0x00	; 0
    4328:	50 e0       	ldi	r21, 0x00	; 0
    432a:	0e 94 27 34 	call	0x684e	; 0x684e <__divmodsi4>
    432e:	ca 01       	movw	r24, r20
    4330:	b9 01       	movw	r22, r18
    4332:	a7 01       	movw	r20, r14
    4334:	96 01       	movw	r18, r12
    4336:	0e 94 27 34 	call	0x684e	; 0x684e <__divmodsi4>
    433a:	60 5d       	subi	r22, 0xD0	; 208
    433c:	d5 01       	movw	r26, r10
    433e:	6c 93       	st	X, r22
    4340:	f8 01       	movw	r30, r16
    4342:	a6 80       	ldd	r10, Z+6	; 0x06
    4344:	b7 80       	ldd	r11, Z+7	; 0x07
    4346:	49 80       	ldd	r4, Y+1	; 0x01
    4348:	5a 80       	ldd	r5, Y+2	; 0x02
    434a:	6b 80       	ldd	r6, Y+3	; 0x03
    434c:	7c 80       	ldd	r7, Y+4	; 0x04
    434e:	b3 01       	movw	r22, r6
    4350:	a2 01       	movw	r20, r4
    4352:	4f 5f       	subi	r20, 0xFF	; 255
    4354:	5f 4f       	sbci	r21, 0xFF	; 255
    4356:	6f 4f       	sbci	r22, 0xFF	; 255
    4358:	7f 4f       	sbci	r23, 0xFF	; 255
    435a:	49 83       	std	Y+1, r20	; 0x01
    435c:	5a 83       	std	Y+2, r21	; 0x02
    435e:	6b 83       	std	Y+3, r22	; 0x03
    4360:	7c 83       	std	Y+4, r23	; 0x04
    4362:	6d 81       	ldd	r22, Y+5	; 0x05
    4364:	7e 81       	ldd	r23, Y+6	; 0x06
    4366:	8f 81       	ldd	r24, Y+7	; 0x07
    4368:	98 85       	ldd	r25, Y+8	; 0x08
    436a:	a4 0c       	add	r10, r4
    436c:	b5 1c       	adc	r11, r5
    436e:	28 ee       	ldi	r18, 0xE8	; 232
    4370:	33 e0       	ldi	r19, 0x03	; 3
    4372:	40 e0       	ldi	r20, 0x00	; 0
    4374:	50 e0       	ldi	r21, 0x00	; 0
    4376:	0e 94 27 34 	call	0x684e	; 0x684e <__divmodsi4>
    437a:	ca 01       	movw	r24, r20
    437c:	b9 01       	movw	r22, r18
    437e:	a7 01       	movw	r20, r14
    4380:	96 01       	movw	r18, r12
    4382:	0e 94 27 34 	call	0x684e	; 0x684e <__divmodsi4>
    4386:	60 5d       	subi	r22, 0xD0	; 208
    4388:	d5 01       	movw	r26, r10
    438a:	6c 93       	st	X, r22
    438c:	f8 01       	movw	r30, r16
    438e:	a6 80       	ldd	r10, Z+6	; 0x06
    4390:	b7 80       	ldd	r11, Z+7	; 0x07
    4392:	49 80       	ldd	r4, Y+1	; 0x01
    4394:	5a 80       	ldd	r5, Y+2	; 0x02
    4396:	6b 80       	ldd	r6, Y+3	; 0x03
    4398:	7c 80       	ldd	r7, Y+4	; 0x04
    439a:	b3 01       	movw	r22, r6
    439c:	a2 01       	movw	r20, r4
    439e:	4f 5f       	subi	r20, 0xFF	; 255
    43a0:	5f 4f       	sbci	r21, 0xFF	; 255
    43a2:	6f 4f       	sbci	r22, 0xFF	; 255
    43a4:	7f 4f       	sbci	r23, 0xFF	; 255
    43a6:	49 83       	std	Y+1, r20	; 0x01
    43a8:	5a 83       	std	Y+2, r21	; 0x02
    43aa:	6b 83       	std	Y+3, r22	; 0x03
    43ac:	7c 83       	std	Y+4, r23	; 0x04
    43ae:	6d 81       	ldd	r22, Y+5	; 0x05
    43b0:	7e 81       	ldd	r23, Y+6	; 0x06
    43b2:	8f 81       	ldd	r24, Y+7	; 0x07
    43b4:	98 85       	ldd	r25, Y+8	; 0x08
    43b6:	a4 0c       	add	r10, r4
    43b8:	b5 1c       	adc	r11, r5
    43ba:	24 e6       	ldi	r18, 0x64	; 100
    43bc:	30 e0       	ldi	r19, 0x00	; 0
    43be:	40 e0       	ldi	r20, 0x00	; 0
    43c0:	50 e0       	ldi	r21, 0x00	; 0
    43c2:	0e 94 27 34 	call	0x684e	; 0x684e <__divmodsi4>
    43c6:	ca 01       	movw	r24, r20
    43c8:	b9 01       	movw	r22, r18
    43ca:	a7 01       	movw	r20, r14
    43cc:	96 01       	movw	r18, r12
    43ce:	0e 94 27 34 	call	0x684e	; 0x684e <__divmodsi4>
    43d2:	60 5d       	subi	r22, 0xD0	; 208
    43d4:	d5 01       	movw	r26, r10
    43d6:	6c 93       	st	X, r22
    43d8:	f8 01       	movw	r30, r16
    43da:	a6 80       	ldd	r10, Z+6	; 0x06
    43dc:	b7 80       	ldd	r11, Z+7	; 0x07
    43de:	49 80       	ldd	r4, Y+1	; 0x01
    43e0:	5a 80       	ldd	r5, Y+2	; 0x02
    43e2:	6b 80       	ldd	r6, Y+3	; 0x03
    43e4:	7c 80       	ldd	r7, Y+4	; 0x04
    43e6:	b3 01       	movw	r22, r6
    43e8:	a2 01       	movw	r20, r4
    43ea:	4f 5f       	subi	r20, 0xFF	; 255
    43ec:	5f 4f       	sbci	r21, 0xFF	; 255
    43ee:	6f 4f       	sbci	r22, 0xFF	; 255
    43f0:	7f 4f       	sbci	r23, 0xFF	; 255
    43f2:	49 83       	std	Y+1, r20	; 0x01
    43f4:	5a 83       	std	Y+2, r21	; 0x02
    43f6:	6b 83       	std	Y+3, r22	; 0x03
    43f8:	7c 83       	std	Y+4, r23	; 0x04
    43fa:	6d 81       	ldd	r22, Y+5	; 0x05
    43fc:	7e 81       	ldd	r23, Y+6	; 0x06
    43fe:	8f 81       	ldd	r24, Y+7	; 0x07
    4400:	98 85       	ldd	r25, Y+8	; 0x08
    4402:	a4 0c       	add	r10, r4
    4404:	b5 1c       	adc	r11, r5
    4406:	a7 01       	movw	r20, r14
    4408:	96 01       	movw	r18, r12
    440a:	0e 94 27 34 	call	0x684e	; 0x684e <__divmodsi4>
    440e:	ca 01       	movw	r24, r20
    4410:	b9 01       	movw	r22, r18
    4412:	a7 01       	movw	r20, r14
    4414:	96 01       	movw	r18, r12
    4416:	0e 94 27 34 	call	0x684e	; 0x684e <__divmodsi4>
    441a:	60 5d       	subi	r22, 0xD0	; 208
    441c:	d5 01       	movw	r26, r10
    441e:	6c 93       	st	X, r22
    4420:	f8 01       	movw	r30, r16
    4422:	a6 80       	ldd	r10, Z+6	; 0x06
    4424:	b7 80       	ldd	r11, Z+7	; 0x07
    4426:	49 80       	ldd	r4, Y+1	; 0x01
    4428:	5a 80       	ldd	r5, Y+2	; 0x02
    442a:	6b 80       	ldd	r6, Y+3	; 0x03
    442c:	7c 80       	ldd	r7, Y+4	; 0x04
    442e:	b3 01       	movw	r22, r6
    4430:	a2 01       	movw	r20, r4
    4432:	4f 5f       	subi	r20, 0xFF	; 255
    4434:	5f 4f       	sbci	r21, 0xFF	; 255
    4436:	6f 4f       	sbci	r22, 0xFF	; 255
    4438:	7f 4f       	sbci	r23, 0xFF	; 255
    443a:	49 83       	std	Y+1, r20	; 0x01
    443c:	5a 83       	std	Y+2, r21	; 0x02
    443e:	6b 83       	std	Y+3, r22	; 0x03
    4440:	7c 83       	std	Y+4, r23	; 0x04
    4442:	6d 81       	ldd	r22, Y+5	; 0x05
    4444:	7e 81       	ldd	r23, Y+6	; 0x06
    4446:	8f 81       	ldd	r24, Y+7	; 0x07
    4448:	98 85       	ldd	r25, Y+8	; 0x08
    444a:	a4 0c       	add	r10, r4
    444c:	b5 1c       	adc	r11, r5
    444e:	a7 01       	movw	r20, r14
    4450:	96 01       	movw	r18, r12
    4452:	0e 94 27 34 	call	0x684e	; 0x684e <__divmodsi4>
    4456:	60 5d       	subi	r22, 0xD0	; 208
    4458:	d5 01       	movw	r26, r10
    445a:	6c 93       	st	X, r22
    445c:	f8 01       	movw	r30, r16
    445e:	26 81       	ldd	r18, Z+6	; 0x06
    4460:	37 81       	ldd	r19, Z+7	; 0x07
    4462:	89 81       	ldd	r24, Y+1	; 0x01
    4464:	9a 81       	ldd	r25, Y+2	; 0x02
    4466:	ab 81       	ldd	r26, Y+3	; 0x03
    4468:	bc 81       	ldd	r27, Y+4	; 0x04
    446a:	ac 01       	movw	r20, r24
    446c:	bd 01       	movw	r22, r26
    446e:	4f 5f       	subi	r20, 0xFF	; 255
    4470:	5f 4f       	sbci	r21, 0xFF	; 255
    4472:	6f 4f       	sbci	r22, 0xFF	; 255
    4474:	7f 4f       	sbci	r23, 0xFF	; 255
    4476:	49 83       	std	Y+1, r20	; 0x01
    4478:	5a 83       	std	Y+2, r21	; 0x02
    447a:	6b 83       	std	Y+3, r22	; 0x03
    447c:	7c 83       	std	Y+4, r23	; 0x04
    447e:	f9 01       	movw	r30, r18
    4480:	e8 0f       	add	r30, r24
    4482:	f9 1f       	adc	r31, r25
    4484:	29 e0       	ldi	r18, 0x09	; 9
    4486:	20 83       	st	Z, r18
    4488:	d8 01       	movw	r26, r16
    448a:	1c 96       	adiw	r26, 0x0c	; 12
    448c:	ed 91       	ld	r30, X+
    448e:	fc 91       	ld	r31, X
    4490:	1d 97       	sbiw	r26, 0x0d	; 13
    4492:	80 a5       	ldd	r24, Z+40	; 0x28
    4494:	91 a5       	ldd	r25, Z+41	; 0x29
    4496:	a2 a5       	ldd	r26, Z+42	; 0x2a
    4498:	b3 a5       	ldd	r27, Z+43	; 0x2b
    449a:	8d 83       	std	Y+5, r24	; 0x05
    449c:	9e 83       	std	Y+6, r25	; 0x06
    449e:	af 83       	std	Y+7, r26	; 0x07
    44a0:	b8 87       	std	Y+8, r27	; 0x08
    44a2:	8d 81       	ldd	r24, Y+5	; 0x05
    44a4:	9e 81       	ldd	r25, Y+6	; 0x06
    44a6:	af 81       	ldd	r26, Y+7	; 0x07
    44a8:	b8 85       	ldd	r27, Y+8	; 0x08
    44aa:	bb 23       	and	r27, r27
    44ac:	34 f0       	brlt	.+12     	; 0x44ba <__stack+0x4bb>
    44ae:	89 85       	ldd	r24, Y+9	; 0x09
    44b0:	9a 85       	ldd	r25, Y+10	; 0x0a
    44b2:	ab 85       	ldd	r26, Y+11	; 0x0b
    44b4:	bc 85       	ldd	r27, Y+12	; 0x0c
    44b6:	bb 23       	and	r27, r27
    44b8:	7c f4       	brge	.+30     	; 0x44d8 <__stack+0x4d9>
    44ba:	8d 81       	ldd	r24, Y+5	; 0x05
    44bc:	9e 81       	ldd	r25, Y+6	; 0x06
    44be:	af 81       	ldd	r26, Y+7	; 0x07
    44c0:	b8 85       	ldd	r27, Y+8	; 0x08
    44c2:	b0 95       	com	r27
    44c4:	a0 95       	com	r26
    44c6:	90 95       	com	r25
    44c8:	81 95       	neg	r24
    44ca:	9f 4f       	sbci	r25, 0xFF	; 255
    44cc:	af 4f       	sbci	r26, 0xFF	; 255
    44ce:	bf 4f       	sbci	r27, 0xFF	; 255
    44d0:	8d 83       	std	Y+5, r24	; 0x05
    44d2:	9e 83       	std	Y+6, r25	; 0x06
    44d4:	af 83       	std	Y+7, r26	; 0x07
    44d6:	b8 87       	std	Y+8, r27	; 0x08
    44d8:	f8 01       	movw	r30, r16
    44da:	a6 80       	ldd	r10, Z+6	; 0x06
    44dc:	b7 80       	ldd	r11, Z+7	; 0x07
    44de:	c9 80       	ldd	r12, Y+1	; 0x01
    44e0:	da 80       	ldd	r13, Y+2	; 0x02
    44e2:	eb 80       	ldd	r14, Y+3	; 0x03
    44e4:	fc 80       	ldd	r15, Y+4	; 0x04
    44e6:	b7 01       	movw	r22, r14
    44e8:	a6 01       	movw	r20, r12
    44ea:	4f 5f       	subi	r20, 0xFF	; 255
    44ec:	5f 4f       	sbci	r21, 0xFF	; 255
    44ee:	6f 4f       	sbci	r22, 0xFF	; 255
    44f0:	7f 4f       	sbci	r23, 0xFF	; 255
    44f2:	49 83       	std	Y+1, r20	; 0x01
    44f4:	5a 83       	std	Y+2, r21	; 0x02
    44f6:	6b 83       	std	Y+3, r22	; 0x03
    44f8:	7c 83       	std	Y+4, r23	; 0x04
    44fa:	6d 81       	ldd	r22, Y+5	; 0x05
    44fc:	7e 81       	ldd	r23, Y+6	; 0x06
    44fe:	8f 81       	ldd	r24, Y+7	; 0x07
    4500:	98 85       	ldd	r25, Y+8	; 0x08
    4502:	ac 0c       	add	r10, r12
    4504:	bd 1c       	adc	r11, r13
    4506:	20 e8       	ldi	r18, 0x80	; 128
    4508:	36 e9       	ldi	r19, 0x96	; 150
    450a:	48 e9       	ldi	r20, 0x98	; 152
    450c:	50 e0       	ldi	r21, 0x00	; 0
    450e:	0e 94 27 34 	call	0x684e	; 0x684e <__divmodsi4>
    4512:	0f 2e       	mov	r0, r31
    4514:	fa e0       	ldi	r31, 0x0A	; 10
    4516:	cf 2e       	mov	r12, r31
    4518:	d1 2c       	mov	r13, r1
    451a:	e1 2c       	mov	r14, r1
    451c:	f1 2c       	mov	r15, r1
    451e:	f0 2d       	mov	r31, r0
    4520:	ca 01       	movw	r24, r20
    4522:	b9 01       	movw	r22, r18
    4524:	a7 01       	movw	r20, r14
    4526:	96 01       	movw	r18, r12
    4528:	0e 94 27 34 	call	0x684e	; 0x684e <__divmodsi4>
    452c:	60 5d       	subi	r22, 0xD0	; 208
    452e:	d5 01       	movw	r26, r10
    4530:	6c 93       	st	X, r22
    4532:	f8 01       	movw	r30, r16
    4534:	a6 80       	ldd	r10, Z+6	; 0x06
    4536:	b7 80       	ldd	r11, Z+7	; 0x07
    4538:	49 80       	ldd	r4, Y+1	; 0x01
    453a:	5a 80       	ldd	r5, Y+2	; 0x02
    453c:	6b 80       	ldd	r6, Y+3	; 0x03
    453e:	7c 80       	ldd	r7, Y+4	; 0x04
    4540:	b3 01       	movw	r22, r6
    4542:	a2 01       	movw	r20, r4
    4544:	4f 5f       	subi	r20, 0xFF	; 255
    4546:	5f 4f       	sbci	r21, 0xFF	; 255
    4548:	6f 4f       	sbci	r22, 0xFF	; 255
    454a:	7f 4f       	sbci	r23, 0xFF	; 255
    454c:	49 83       	std	Y+1, r20	; 0x01
    454e:	5a 83       	std	Y+2, r21	; 0x02
    4550:	6b 83       	std	Y+3, r22	; 0x03
    4552:	7c 83       	std	Y+4, r23	; 0x04
    4554:	6d 81       	ldd	r22, Y+5	; 0x05
    4556:	7e 81       	ldd	r23, Y+6	; 0x06
    4558:	8f 81       	ldd	r24, Y+7	; 0x07
    455a:	98 85       	ldd	r25, Y+8	; 0x08
    455c:	a4 0c       	add	r10, r4
    455e:	b5 1c       	adc	r11, r5
    4560:	20 e4       	ldi	r18, 0x40	; 64
    4562:	32 e4       	ldi	r19, 0x42	; 66
    4564:	4f e0       	ldi	r20, 0x0F	; 15
    4566:	50 e0       	ldi	r21, 0x00	; 0
    4568:	0e 94 27 34 	call	0x684e	; 0x684e <__divmodsi4>
    456c:	ca 01       	movw	r24, r20
    456e:	b9 01       	movw	r22, r18
    4570:	a7 01       	movw	r20, r14
    4572:	96 01       	movw	r18, r12
    4574:	0e 94 27 34 	call	0x684e	; 0x684e <__divmodsi4>
    4578:	60 5d       	subi	r22, 0xD0	; 208
    457a:	d5 01       	movw	r26, r10
    457c:	6c 93       	st	X, r22
    457e:	f8 01       	movw	r30, r16
    4580:	a6 80       	ldd	r10, Z+6	; 0x06
    4582:	b7 80       	ldd	r11, Z+7	; 0x07
    4584:	49 80       	ldd	r4, Y+1	; 0x01
    4586:	5a 80       	ldd	r5, Y+2	; 0x02
    4588:	6b 80       	ldd	r6, Y+3	; 0x03
    458a:	7c 80       	ldd	r7, Y+4	; 0x04
    458c:	b3 01       	movw	r22, r6
    458e:	a2 01       	movw	r20, r4
    4590:	4f 5f       	subi	r20, 0xFF	; 255
    4592:	5f 4f       	sbci	r21, 0xFF	; 255
    4594:	6f 4f       	sbci	r22, 0xFF	; 255
    4596:	7f 4f       	sbci	r23, 0xFF	; 255
    4598:	49 83       	std	Y+1, r20	; 0x01
    459a:	5a 83       	std	Y+2, r21	; 0x02
    459c:	6b 83       	std	Y+3, r22	; 0x03
    459e:	7c 83       	std	Y+4, r23	; 0x04
    45a0:	6d 81       	ldd	r22, Y+5	; 0x05
    45a2:	7e 81       	ldd	r23, Y+6	; 0x06
    45a4:	8f 81       	ldd	r24, Y+7	; 0x07
    45a6:	98 85       	ldd	r25, Y+8	; 0x08
    45a8:	a4 0c       	add	r10, r4
    45aa:	b5 1c       	adc	r11, r5
    45ac:	20 ea       	ldi	r18, 0xA0	; 160
    45ae:	36 e8       	ldi	r19, 0x86	; 134
    45b0:	41 e0       	ldi	r20, 0x01	; 1
    45b2:	50 e0       	ldi	r21, 0x00	; 0
    45b4:	0e 94 27 34 	call	0x684e	; 0x684e <__divmodsi4>
    45b8:	ca 01       	movw	r24, r20
    45ba:	b9 01       	movw	r22, r18
    45bc:	a7 01       	movw	r20, r14
    45be:	96 01       	movw	r18, r12
    45c0:	0e 94 27 34 	call	0x684e	; 0x684e <__divmodsi4>
    45c4:	60 5d       	subi	r22, 0xD0	; 208
    45c6:	d5 01       	movw	r26, r10
    45c8:	6c 93       	st	X, r22
    45ca:	f8 01       	movw	r30, r16
    45cc:	a6 80       	ldd	r10, Z+6	; 0x06
    45ce:	b7 80       	ldd	r11, Z+7	; 0x07
    45d0:	49 80       	ldd	r4, Y+1	; 0x01
    45d2:	5a 80       	ldd	r5, Y+2	; 0x02
    45d4:	6b 80       	ldd	r6, Y+3	; 0x03
    45d6:	7c 80       	ldd	r7, Y+4	; 0x04
    45d8:	b3 01       	movw	r22, r6
    45da:	a2 01       	movw	r20, r4
    45dc:	4f 5f       	subi	r20, 0xFF	; 255
    45de:	5f 4f       	sbci	r21, 0xFF	; 255
    45e0:	6f 4f       	sbci	r22, 0xFF	; 255
    45e2:	7f 4f       	sbci	r23, 0xFF	; 255
    45e4:	49 83       	std	Y+1, r20	; 0x01
    45e6:	5a 83       	std	Y+2, r21	; 0x02
    45e8:	6b 83       	std	Y+3, r22	; 0x03
    45ea:	7c 83       	std	Y+4, r23	; 0x04
    45ec:	6d 81       	ldd	r22, Y+5	; 0x05
    45ee:	7e 81       	ldd	r23, Y+6	; 0x06
    45f0:	8f 81       	ldd	r24, Y+7	; 0x07
    45f2:	98 85       	ldd	r25, Y+8	; 0x08
    45f4:	a4 0c       	add	r10, r4
    45f6:	b5 1c       	adc	r11, r5
    45f8:	20 e1       	ldi	r18, 0x10	; 16
    45fa:	37 e2       	ldi	r19, 0x27	; 39
    45fc:	40 e0       	ldi	r20, 0x00	; 0
    45fe:	50 e0       	ldi	r21, 0x00	; 0
    4600:	0e 94 27 34 	call	0x684e	; 0x684e <__divmodsi4>
    4604:	ca 01       	movw	r24, r20
    4606:	b9 01       	movw	r22, r18
    4608:	a7 01       	movw	r20, r14
    460a:	96 01       	movw	r18, r12
    460c:	0e 94 27 34 	call	0x684e	; 0x684e <__divmodsi4>
    4610:	60 5d       	subi	r22, 0xD0	; 208
    4612:	d5 01       	movw	r26, r10
    4614:	6c 93       	st	X, r22
    4616:	f8 01       	movw	r30, r16
    4618:	a6 80       	ldd	r10, Z+6	; 0x06
    461a:	b7 80       	ldd	r11, Z+7	; 0x07
    461c:	49 80       	ldd	r4, Y+1	; 0x01
    461e:	5a 80       	ldd	r5, Y+2	; 0x02
    4620:	6b 80       	ldd	r6, Y+3	; 0x03
    4622:	7c 80       	ldd	r7, Y+4	; 0x04
    4624:	b3 01       	movw	r22, r6
    4626:	a2 01       	movw	r20, r4
    4628:	4f 5f       	subi	r20, 0xFF	; 255
    462a:	5f 4f       	sbci	r21, 0xFF	; 255
    462c:	6f 4f       	sbci	r22, 0xFF	; 255
    462e:	7f 4f       	sbci	r23, 0xFF	; 255
    4630:	49 83       	std	Y+1, r20	; 0x01
    4632:	5a 83       	std	Y+2, r21	; 0x02
    4634:	6b 83       	std	Y+3, r22	; 0x03
    4636:	7c 83       	std	Y+4, r23	; 0x04
    4638:	6d 81       	ldd	r22, Y+5	; 0x05
    463a:	7e 81       	ldd	r23, Y+6	; 0x06
    463c:	8f 81       	ldd	r24, Y+7	; 0x07
    463e:	98 85       	ldd	r25, Y+8	; 0x08
    4640:	a4 0c       	add	r10, r4
    4642:	b5 1c       	adc	r11, r5
    4644:	28 ee       	ldi	r18, 0xE8	; 232
    4646:	33 e0       	ldi	r19, 0x03	; 3
    4648:	40 e0       	ldi	r20, 0x00	; 0
    464a:	50 e0       	ldi	r21, 0x00	; 0
    464c:	0e 94 27 34 	call	0x684e	; 0x684e <__divmodsi4>
    4650:	ca 01       	movw	r24, r20
    4652:	b9 01       	movw	r22, r18
    4654:	a7 01       	movw	r20, r14
    4656:	96 01       	movw	r18, r12
    4658:	0e 94 27 34 	call	0x684e	; 0x684e <__divmodsi4>
    465c:	60 5d       	subi	r22, 0xD0	; 208
    465e:	d5 01       	movw	r26, r10
    4660:	6c 93       	st	X, r22
    4662:	f8 01       	movw	r30, r16
    4664:	a6 80       	ldd	r10, Z+6	; 0x06
    4666:	b7 80       	ldd	r11, Z+7	; 0x07
    4668:	49 80       	ldd	r4, Y+1	; 0x01
    466a:	5a 80       	ldd	r5, Y+2	; 0x02
    466c:	6b 80       	ldd	r6, Y+3	; 0x03
    466e:	7c 80       	ldd	r7, Y+4	; 0x04
    4670:	b3 01       	movw	r22, r6
    4672:	a2 01       	movw	r20, r4
    4674:	4f 5f       	subi	r20, 0xFF	; 255
    4676:	5f 4f       	sbci	r21, 0xFF	; 255
    4678:	6f 4f       	sbci	r22, 0xFF	; 255
    467a:	7f 4f       	sbci	r23, 0xFF	; 255
    467c:	49 83       	std	Y+1, r20	; 0x01
    467e:	5a 83       	std	Y+2, r21	; 0x02
    4680:	6b 83       	std	Y+3, r22	; 0x03
    4682:	7c 83       	std	Y+4, r23	; 0x04
    4684:	6d 81       	ldd	r22, Y+5	; 0x05
    4686:	7e 81       	ldd	r23, Y+6	; 0x06
    4688:	8f 81       	ldd	r24, Y+7	; 0x07
    468a:	98 85       	ldd	r25, Y+8	; 0x08
    468c:	a4 0c       	add	r10, r4
    468e:	b5 1c       	adc	r11, r5
    4690:	24 e6       	ldi	r18, 0x64	; 100
    4692:	30 e0       	ldi	r19, 0x00	; 0
    4694:	40 e0       	ldi	r20, 0x00	; 0
    4696:	50 e0       	ldi	r21, 0x00	; 0
    4698:	0e 94 27 34 	call	0x684e	; 0x684e <__divmodsi4>
    469c:	ca 01       	movw	r24, r20
    469e:	b9 01       	movw	r22, r18
    46a0:	a7 01       	movw	r20, r14
    46a2:	96 01       	movw	r18, r12
    46a4:	0e 94 27 34 	call	0x684e	; 0x684e <__divmodsi4>
    46a8:	60 5d       	subi	r22, 0xD0	; 208
    46aa:	d5 01       	movw	r26, r10
    46ac:	6c 93       	st	X, r22
    46ae:	f8 01       	movw	r30, r16
    46b0:	a6 80       	ldd	r10, Z+6	; 0x06
    46b2:	b7 80       	ldd	r11, Z+7	; 0x07
    46b4:	49 80       	ldd	r4, Y+1	; 0x01
    46b6:	5a 80       	ldd	r5, Y+2	; 0x02
    46b8:	6b 80       	ldd	r6, Y+3	; 0x03
    46ba:	7c 80       	ldd	r7, Y+4	; 0x04
    46bc:	b3 01       	movw	r22, r6
    46be:	a2 01       	movw	r20, r4
    46c0:	4f 5f       	subi	r20, 0xFF	; 255
    46c2:	5f 4f       	sbci	r21, 0xFF	; 255
    46c4:	6f 4f       	sbci	r22, 0xFF	; 255
    46c6:	7f 4f       	sbci	r23, 0xFF	; 255
    46c8:	49 83       	std	Y+1, r20	; 0x01
    46ca:	5a 83       	std	Y+2, r21	; 0x02
    46cc:	6b 83       	std	Y+3, r22	; 0x03
    46ce:	7c 83       	std	Y+4, r23	; 0x04
    46d0:	6d 81       	ldd	r22, Y+5	; 0x05
    46d2:	7e 81       	ldd	r23, Y+6	; 0x06
    46d4:	8f 81       	ldd	r24, Y+7	; 0x07
    46d6:	98 85       	ldd	r25, Y+8	; 0x08
    46d8:	a4 0c       	add	r10, r4
    46da:	b5 1c       	adc	r11, r5
    46dc:	a7 01       	movw	r20, r14
    46de:	96 01       	movw	r18, r12
    46e0:	0e 94 27 34 	call	0x684e	; 0x684e <__divmodsi4>
    46e4:	ca 01       	movw	r24, r20
    46e6:	b9 01       	movw	r22, r18
    46e8:	a7 01       	movw	r20, r14
    46ea:	96 01       	movw	r18, r12
    46ec:	0e 94 27 34 	call	0x684e	; 0x684e <__divmodsi4>
    46f0:	60 5d       	subi	r22, 0xD0	; 208
    46f2:	d5 01       	movw	r26, r10
    46f4:	6c 93       	st	X, r22
    46f6:	f8 01       	movw	r30, r16
    46f8:	a6 80       	ldd	r10, Z+6	; 0x06
    46fa:	b7 80       	ldd	r11, Z+7	; 0x07
    46fc:	49 80       	ldd	r4, Y+1	; 0x01
    46fe:	5a 80       	ldd	r5, Y+2	; 0x02
    4700:	6b 80       	ldd	r6, Y+3	; 0x03
    4702:	7c 80       	ldd	r7, Y+4	; 0x04
    4704:	b3 01       	movw	r22, r6
    4706:	a2 01       	movw	r20, r4
    4708:	4f 5f       	subi	r20, 0xFF	; 255
    470a:	5f 4f       	sbci	r21, 0xFF	; 255
    470c:	6f 4f       	sbci	r22, 0xFF	; 255
    470e:	7f 4f       	sbci	r23, 0xFF	; 255
    4710:	49 83       	std	Y+1, r20	; 0x01
    4712:	5a 83       	std	Y+2, r21	; 0x02
    4714:	6b 83       	std	Y+3, r22	; 0x03
    4716:	7c 83       	std	Y+4, r23	; 0x04
    4718:	6d 81       	ldd	r22, Y+5	; 0x05
    471a:	7e 81       	ldd	r23, Y+6	; 0x06
    471c:	8f 81       	ldd	r24, Y+7	; 0x07
    471e:	98 85       	ldd	r25, Y+8	; 0x08
    4720:	a4 0c       	add	r10, r4
    4722:	b5 1c       	adc	r11, r5
    4724:	a7 01       	movw	r20, r14
    4726:	96 01       	movw	r18, r12
    4728:	0e 94 27 34 	call	0x684e	; 0x684e <__divmodsi4>
    472c:	60 5d       	subi	r22, 0xD0	; 208
    472e:	d5 01       	movw	r26, r10
    4730:	6c 93       	st	X, r22
    4732:	f8 01       	movw	r30, r16
    4734:	26 81       	ldd	r18, Z+6	; 0x06
    4736:	37 81       	ldd	r19, Z+7	; 0x07
    4738:	89 81       	ldd	r24, Y+1	; 0x01
    473a:	9a 81       	ldd	r25, Y+2	; 0x02
    473c:	ab 81       	ldd	r26, Y+3	; 0x03
    473e:	bc 81       	ldd	r27, Y+4	; 0x04
    4740:	ac 01       	movw	r20, r24
    4742:	bd 01       	movw	r22, r26
    4744:	4f 5f       	subi	r20, 0xFF	; 255
    4746:	5f 4f       	sbci	r21, 0xFF	; 255
    4748:	6f 4f       	sbci	r22, 0xFF	; 255
    474a:	7f 4f       	sbci	r23, 0xFF	; 255
    474c:	49 83       	std	Y+1, r20	; 0x01
    474e:	5a 83       	std	Y+2, r21	; 0x02
    4750:	6b 83       	std	Y+3, r22	; 0x03
    4752:	7c 83       	std	Y+4, r23	; 0x04
    4754:	f9 01       	movw	r30, r18
    4756:	e8 0f       	add	r30, r24
    4758:	f9 1f       	adc	r31, r25
    475a:	29 e0       	ldi	r18, 0x09	; 9
    475c:	20 83       	st	Z, r18
    475e:	d8 01       	movw	r26, r16
    4760:	1c 96       	adiw	r26, 0x0c	; 12
    4762:	ed 91       	ld	r30, X+
    4764:	fc 91       	ld	r31, X
    4766:	1d 97       	sbiw	r26, 0x0d	; 13
    4768:	84 a5       	ldd	r24, Z+44	; 0x2c
    476a:	95 a5       	ldd	r25, Z+45	; 0x2d
    476c:	a6 a5       	ldd	r26, Z+46	; 0x2e
    476e:	b7 a5       	ldd	r27, Z+47	; 0x2f
    4770:	8d 83       	std	Y+5, r24	; 0x05
    4772:	9e 83       	std	Y+6, r25	; 0x06
    4774:	af 83       	std	Y+7, r26	; 0x07
    4776:	b8 87       	std	Y+8, r27	; 0x08
    4778:	8d 81       	ldd	r24, Y+5	; 0x05
    477a:	9e 81       	ldd	r25, Y+6	; 0x06
    477c:	af 81       	ldd	r26, Y+7	; 0x07
    477e:	b8 85       	ldd	r27, Y+8	; 0x08
    4780:	bb 23       	and	r27, r27
    4782:	7c f4       	brge	.+30     	; 0x47a2 <__stack+0x7a3>
    4784:	8d 81       	ldd	r24, Y+5	; 0x05
    4786:	9e 81       	ldd	r25, Y+6	; 0x06
    4788:	af 81       	ldd	r26, Y+7	; 0x07
    478a:	b8 85       	ldd	r27, Y+8	; 0x08
    478c:	b0 95       	com	r27
    478e:	a0 95       	com	r26
    4790:	90 95       	com	r25
    4792:	81 95       	neg	r24
    4794:	9f 4f       	sbci	r25, 0xFF	; 255
    4796:	af 4f       	sbci	r26, 0xFF	; 255
    4798:	bf 4f       	sbci	r27, 0xFF	; 255
    479a:	8d 83       	std	Y+5, r24	; 0x05
    479c:	9e 83       	std	Y+6, r25	; 0x06
    479e:	af 83       	std	Y+7, r26	; 0x07
    47a0:	b8 87       	std	Y+8, r27	; 0x08
    47a2:	f8 01       	movw	r30, r16
    47a4:	a6 80       	ldd	r10, Z+6	; 0x06
    47a6:	b7 80       	ldd	r11, Z+7	; 0x07
    47a8:	c9 80       	ldd	r12, Y+1	; 0x01
    47aa:	da 80       	ldd	r13, Y+2	; 0x02
    47ac:	eb 80       	ldd	r14, Y+3	; 0x03
    47ae:	fc 80       	ldd	r15, Y+4	; 0x04
    47b0:	b7 01       	movw	r22, r14
    47b2:	a6 01       	movw	r20, r12
    47b4:	4f 5f       	subi	r20, 0xFF	; 255
    47b6:	5f 4f       	sbci	r21, 0xFF	; 255
    47b8:	6f 4f       	sbci	r22, 0xFF	; 255
    47ba:	7f 4f       	sbci	r23, 0xFF	; 255
    47bc:	49 83       	std	Y+1, r20	; 0x01
    47be:	5a 83       	std	Y+2, r21	; 0x02
    47c0:	6b 83       	std	Y+3, r22	; 0x03
    47c2:	7c 83       	std	Y+4, r23	; 0x04
    47c4:	6d 81       	ldd	r22, Y+5	; 0x05
    47c6:	7e 81       	ldd	r23, Y+6	; 0x06
    47c8:	8f 81       	ldd	r24, Y+7	; 0x07
    47ca:	98 85       	ldd	r25, Y+8	; 0x08
    47cc:	ac 0c       	add	r10, r12
    47ce:	bd 1c       	adc	r11, r13
    47d0:	20 e8       	ldi	r18, 0x80	; 128
    47d2:	36 e9       	ldi	r19, 0x96	; 150
    47d4:	48 e9       	ldi	r20, 0x98	; 152
    47d6:	50 e0       	ldi	r21, 0x00	; 0
    47d8:	0e 94 27 34 	call	0x684e	; 0x684e <__divmodsi4>
    47dc:	0f 2e       	mov	r0, r31
    47de:	fa e0       	ldi	r31, 0x0A	; 10
    47e0:	cf 2e       	mov	r12, r31
    47e2:	d1 2c       	mov	r13, r1
    47e4:	e1 2c       	mov	r14, r1
    47e6:	f1 2c       	mov	r15, r1
    47e8:	f0 2d       	mov	r31, r0
    47ea:	ca 01       	movw	r24, r20
    47ec:	b9 01       	movw	r22, r18
    47ee:	a7 01       	movw	r20, r14
    47f0:	96 01       	movw	r18, r12
    47f2:	0e 94 27 34 	call	0x684e	; 0x684e <__divmodsi4>
    47f6:	60 5d       	subi	r22, 0xD0	; 208
    47f8:	d5 01       	movw	r26, r10
    47fa:	6c 93       	st	X, r22
    47fc:	f8 01       	movw	r30, r16
    47fe:	a6 80       	ldd	r10, Z+6	; 0x06
    4800:	b7 80       	ldd	r11, Z+7	; 0x07
    4802:	49 80       	ldd	r4, Y+1	; 0x01
    4804:	5a 80       	ldd	r5, Y+2	; 0x02
    4806:	6b 80       	ldd	r6, Y+3	; 0x03
    4808:	7c 80       	ldd	r7, Y+4	; 0x04
    480a:	b3 01       	movw	r22, r6
    480c:	a2 01       	movw	r20, r4
    480e:	4f 5f       	subi	r20, 0xFF	; 255
    4810:	5f 4f       	sbci	r21, 0xFF	; 255
    4812:	6f 4f       	sbci	r22, 0xFF	; 255
    4814:	7f 4f       	sbci	r23, 0xFF	; 255
    4816:	49 83       	std	Y+1, r20	; 0x01
    4818:	5a 83       	std	Y+2, r21	; 0x02
    481a:	6b 83       	std	Y+3, r22	; 0x03
    481c:	7c 83       	std	Y+4, r23	; 0x04
    481e:	6d 81       	ldd	r22, Y+5	; 0x05
    4820:	7e 81       	ldd	r23, Y+6	; 0x06
    4822:	8f 81       	ldd	r24, Y+7	; 0x07
    4824:	98 85       	ldd	r25, Y+8	; 0x08
    4826:	a4 0c       	add	r10, r4
    4828:	b5 1c       	adc	r11, r5
    482a:	20 e4       	ldi	r18, 0x40	; 64
    482c:	32 e4       	ldi	r19, 0x42	; 66
    482e:	4f e0       	ldi	r20, 0x0F	; 15
    4830:	50 e0       	ldi	r21, 0x00	; 0
    4832:	0e 94 27 34 	call	0x684e	; 0x684e <__divmodsi4>
    4836:	ca 01       	movw	r24, r20
    4838:	b9 01       	movw	r22, r18
    483a:	a7 01       	movw	r20, r14
    483c:	96 01       	movw	r18, r12
    483e:	0e 94 27 34 	call	0x684e	; 0x684e <__divmodsi4>
    4842:	60 5d       	subi	r22, 0xD0	; 208
    4844:	d5 01       	movw	r26, r10
    4846:	6c 93       	st	X, r22
    4848:	f8 01       	movw	r30, r16
    484a:	a6 80       	ldd	r10, Z+6	; 0x06
    484c:	b7 80       	ldd	r11, Z+7	; 0x07
    484e:	49 80       	ldd	r4, Y+1	; 0x01
    4850:	5a 80       	ldd	r5, Y+2	; 0x02
    4852:	6b 80       	ldd	r6, Y+3	; 0x03
    4854:	7c 80       	ldd	r7, Y+4	; 0x04
    4856:	b3 01       	movw	r22, r6
    4858:	a2 01       	movw	r20, r4
    485a:	4f 5f       	subi	r20, 0xFF	; 255
    485c:	5f 4f       	sbci	r21, 0xFF	; 255
    485e:	6f 4f       	sbci	r22, 0xFF	; 255
    4860:	7f 4f       	sbci	r23, 0xFF	; 255
    4862:	49 83       	std	Y+1, r20	; 0x01
    4864:	5a 83       	std	Y+2, r21	; 0x02
    4866:	6b 83       	std	Y+3, r22	; 0x03
    4868:	7c 83       	std	Y+4, r23	; 0x04
    486a:	6d 81       	ldd	r22, Y+5	; 0x05
    486c:	7e 81       	ldd	r23, Y+6	; 0x06
    486e:	8f 81       	ldd	r24, Y+7	; 0x07
    4870:	98 85       	ldd	r25, Y+8	; 0x08
    4872:	a4 0c       	add	r10, r4
    4874:	b5 1c       	adc	r11, r5
    4876:	20 ea       	ldi	r18, 0xA0	; 160
    4878:	36 e8       	ldi	r19, 0x86	; 134
    487a:	41 e0       	ldi	r20, 0x01	; 1
    487c:	50 e0       	ldi	r21, 0x00	; 0
    487e:	0e 94 27 34 	call	0x684e	; 0x684e <__divmodsi4>
    4882:	ca 01       	movw	r24, r20
    4884:	b9 01       	movw	r22, r18
    4886:	a7 01       	movw	r20, r14
    4888:	96 01       	movw	r18, r12
    488a:	0e 94 27 34 	call	0x684e	; 0x684e <__divmodsi4>
    488e:	60 5d       	subi	r22, 0xD0	; 208
    4890:	d5 01       	movw	r26, r10
    4892:	6c 93       	st	X, r22
    4894:	f8 01       	movw	r30, r16
    4896:	a6 80       	ldd	r10, Z+6	; 0x06
    4898:	b7 80       	ldd	r11, Z+7	; 0x07
    489a:	49 80       	ldd	r4, Y+1	; 0x01
    489c:	5a 80       	ldd	r5, Y+2	; 0x02
    489e:	6b 80       	ldd	r6, Y+3	; 0x03
    48a0:	7c 80       	ldd	r7, Y+4	; 0x04
    48a2:	b3 01       	movw	r22, r6
    48a4:	a2 01       	movw	r20, r4
    48a6:	4f 5f       	subi	r20, 0xFF	; 255
    48a8:	5f 4f       	sbci	r21, 0xFF	; 255
    48aa:	6f 4f       	sbci	r22, 0xFF	; 255
    48ac:	7f 4f       	sbci	r23, 0xFF	; 255
    48ae:	49 83       	std	Y+1, r20	; 0x01
    48b0:	5a 83       	std	Y+2, r21	; 0x02
    48b2:	6b 83       	std	Y+3, r22	; 0x03
    48b4:	7c 83       	std	Y+4, r23	; 0x04
    48b6:	6d 81       	ldd	r22, Y+5	; 0x05
    48b8:	7e 81       	ldd	r23, Y+6	; 0x06
    48ba:	8f 81       	ldd	r24, Y+7	; 0x07
    48bc:	98 85       	ldd	r25, Y+8	; 0x08
    48be:	a4 0c       	add	r10, r4
    48c0:	b5 1c       	adc	r11, r5
    48c2:	20 e1       	ldi	r18, 0x10	; 16
    48c4:	37 e2       	ldi	r19, 0x27	; 39
    48c6:	40 e0       	ldi	r20, 0x00	; 0
    48c8:	50 e0       	ldi	r21, 0x00	; 0
    48ca:	0e 94 27 34 	call	0x684e	; 0x684e <__divmodsi4>
    48ce:	ca 01       	movw	r24, r20
    48d0:	b9 01       	movw	r22, r18
    48d2:	a7 01       	movw	r20, r14
    48d4:	96 01       	movw	r18, r12
    48d6:	0e 94 27 34 	call	0x684e	; 0x684e <__divmodsi4>
    48da:	60 5d       	subi	r22, 0xD0	; 208
    48dc:	d5 01       	movw	r26, r10
    48de:	6c 93       	st	X, r22
    48e0:	f8 01       	movw	r30, r16
    48e2:	a6 80       	ldd	r10, Z+6	; 0x06
    48e4:	b7 80       	ldd	r11, Z+7	; 0x07
    48e6:	49 80       	ldd	r4, Y+1	; 0x01
    48e8:	5a 80       	ldd	r5, Y+2	; 0x02
    48ea:	6b 80       	ldd	r6, Y+3	; 0x03
    48ec:	7c 80       	ldd	r7, Y+4	; 0x04
    48ee:	b3 01       	movw	r22, r6
    48f0:	a2 01       	movw	r20, r4
    48f2:	4f 5f       	subi	r20, 0xFF	; 255
    48f4:	5f 4f       	sbci	r21, 0xFF	; 255
    48f6:	6f 4f       	sbci	r22, 0xFF	; 255
    48f8:	7f 4f       	sbci	r23, 0xFF	; 255
    48fa:	49 83       	std	Y+1, r20	; 0x01
    48fc:	5a 83       	std	Y+2, r21	; 0x02
    48fe:	6b 83       	std	Y+3, r22	; 0x03
    4900:	7c 83       	std	Y+4, r23	; 0x04
    4902:	6d 81       	ldd	r22, Y+5	; 0x05
    4904:	7e 81       	ldd	r23, Y+6	; 0x06
    4906:	8f 81       	ldd	r24, Y+7	; 0x07
    4908:	98 85       	ldd	r25, Y+8	; 0x08
    490a:	a4 0c       	add	r10, r4
    490c:	b5 1c       	adc	r11, r5
    490e:	28 ee       	ldi	r18, 0xE8	; 232
    4910:	33 e0       	ldi	r19, 0x03	; 3
    4912:	40 e0       	ldi	r20, 0x00	; 0
    4914:	50 e0       	ldi	r21, 0x00	; 0
    4916:	0e 94 27 34 	call	0x684e	; 0x684e <__divmodsi4>
    491a:	ca 01       	movw	r24, r20
    491c:	b9 01       	movw	r22, r18
    491e:	a7 01       	movw	r20, r14
    4920:	96 01       	movw	r18, r12
    4922:	0e 94 27 34 	call	0x684e	; 0x684e <__divmodsi4>
    4926:	60 5d       	subi	r22, 0xD0	; 208
    4928:	d5 01       	movw	r26, r10
    492a:	6c 93       	st	X, r22
    492c:	f8 01       	movw	r30, r16
    492e:	a6 80       	ldd	r10, Z+6	; 0x06
    4930:	b7 80       	ldd	r11, Z+7	; 0x07
    4932:	49 80       	ldd	r4, Y+1	; 0x01
    4934:	5a 80       	ldd	r5, Y+2	; 0x02
    4936:	6b 80       	ldd	r6, Y+3	; 0x03
    4938:	7c 80       	ldd	r7, Y+4	; 0x04
    493a:	b3 01       	movw	r22, r6
    493c:	a2 01       	movw	r20, r4
    493e:	4f 5f       	subi	r20, 0xFF	; 255
    4940:	5f 4f       	sbci	r21, 0xFF	; 255
    4942:	6f 4f       	sbci	r22, 0xFF	; 255
    4944:	7f 4f       	sbci	r23, 0xFF	; 255
    4946:	49 83       	std	Y+1, r20	; 0x01
    4948:	5a 83       	std	Y+2, r21	; 0x02
    494a:	6b 83       	std	Y+3, r22	; 0x03
    494c:	7c 83       	std	Y+4, r23	; 0x04
    494e:	6d 81       	ldd	r22, Y+5	; 0x05
    4950:	7e 81       	ldd	r23, Y+6	; 0x06
    4952:	8f 81       	ldd	r24, Y+7	; 0x07
    4954:	98 85       	ldd	r25, Y+8	; 0x08
    4956:	a4 0c       	add	r10, r4
    4958:	b5 1c       	adc	r11, r5
    495a:	24 e6       	ldi	r18, 0x64	; 100
    495c:	30 e0       	ldi	r19, 0x00	; 0
    495e:	40 e0       	ldi	r20, 0x00	; 0
    4960:	50 e0       	ldi	r21, 0x00	; 0
    4962:	0e 94 27 34 	call	0x684e	; 0x684e <__divmodsi4>
    4966:	ca 01       	movw	r24, r20
    4968:	b9 01       	movw	r22, r18
    496a:	a7 01       	movw	r20, r14
    496c:	96 01       	movw	r18, r12
    496e:	0e 94 27 34 	call	0x684e	; 0x684e <__divmodsi4>
    4972:	60 5d       	subi	r22, 0xD0	; 208
    4974:	d5 01       	movw	r26, r10
    4976:	6c 93       	st	X, r22
    4978:	f8 01       	movw	r30, r16
    497a:	a6 80       	ldd	r10, Z+6	; 0x06
    497c:	b7 80       	ldd	r11, Z+7	; 0x07
    497e:	49 80       	ldd	r4, Y+1	; 0x01
    4980:	5a 80       	ldd	r5, Y+2	; 0x02
    4982:	6b 80       	ldd	r6, Y+3	; 0x03
    4984:	7c 80       	ldd	r7, Y+4	; 0x04
    4986:	b3 01       	movw	r22, r6
    4988:	a2 01       	movw	r20, r4
    498a:	4f 5f       	subi	r20, 0xFF	; 255
    498c:	5f 4f       	sbci	r21, 0xFF	; 255
    498e:	6f 4f       	sbci	r22, 0xFF	; 255
    4990:	7f 4f       	sbci	r23, 0xFF	; 255
    4992:	49 83       	std	Y+1, r20	; 0x01
    4994:	5a 83       	std	Y+2, r21	; 0x02
    4996:	6b 83       	std	Y+3, r22	; 0x03
    4998:	7c 83       	std	Y+4, r23	; 0x04
    499a:	6d 81       	ldd	r22, Y+5	; 0x05
    499c:	7e 81       	ldd	r23, Y+6	; 0x06
    499e:	8f 81       	ldd	r24, Y+7	; 0x07
    49a0:	98 85       	ldd	r25, Y+8	; 0x08
    49a2:	a4 0c       	add	r10, r4
    49a4:	b5 1c       	adc	r11, r5
    49a6:	a7 01       	movw	r20, r14
    49a8:	96 01       	movw	r18, r12
    49aa:	0e 94 27 34 	call	0x684e	; 0x684e <__divmodsi4>
    49ae:	ca 01       	movw	r24, r20
    49b0:	b9 01       	movw	r22, r18
    49b2:	a7 01       	movw	r20, r14
    49b4:	96 01       	movw	r18, r12
    49b6:	0e 94 27 34 	call	0x684e	; 0x684e <__divmodsi4>
    49ba:	60 5d       	subi	r22, 0xD0	; 208
    49bc:	d5 01       	movw	r26, r10
    49be:	6c 93       	st	X, r22
    49c0:	f8 01       	movw	r30, r16
    49c2:	a6 80       	ldd	r10, Z+6	; 0x06
    49c4:	b7 80       	ldd	r11, Z+7	; 0x07
    49c6:	49 80       	ldd	r4, Y+1	; 0x01
    49c8:	5a 80       	ldd	r5, Y+2	; 0x02
    49ca:	6b 80       	ldd	r6, Y+3	; 0x03
    49cc:	7c 80       	ldd	r7, Y+4	; 0x04
    49ce:	b3 01       	movw	r22, r6
    49d0:	a2 01       	movw	r20, r4
    49d2:	4f 5f       	subi	r20, 0xFF	; 255
    49d4:	5f 4f       	sbci	r21, 0xFF	; 255
    49d6:	6f 4f       	sbci	r22, 0xFF	; 255
    49d8:	7f 4f       	sbci	r23, 0xFF	; 255
    49da:	49 83       	std	Y+1, r20	; 0x01
    49dc:	5a 83       	std	Y+2, r21	; 0x02
    49de:	6b 83       	std	Y+3, r22	; 0x03
    49e0:	7c 83       	std	Y+4, r23	; 0x04
    49e2:	6d 81       	ldd	r22, Y+5	; 0x05
    49e4:	7e 81       	ldd	r23, Y+6	; 0x06
    49e6:	8f 81       	ldd	r24, Y+7	; 0x07
    49e8:	98 85       	ldd	r25, Y+8	; 0x08
    49ea:	a4 0c       	add	r10, r4
    49ec:	b5 1c       	adc	r11, r5
    49ee:	a7 01       	movw	r20, r14
    49f0:	96 01       	movw	r18, r12
    49f2:	0e 94 27 34 	call	0x684e	; 0x684e <__divmodsi4>
    49f6:	60 5d       	subi	r22, 0xD0	; 208
    49f8:	d5 01       	movw	r26, r10
    49fa:	6c 93       	st	X, r22
    49fc:	f8 01       	movw	r30, r16
    49fe:	26 81       	ldd	r18, Z+6	; 0x06
    4a00:	37 81       	ldd	r19, Z+7	; 0x07
    4a02:	89 81       	ldd	r24, Y+1	; 0x01
    4a04:	9a 81       	ldd	r25, Y+2	; 0x02
    4a06:	ab 81       	ldd	r26, Y+3	; 0x03
    4a08:	bc 81       	ldd	r27, Y+4	; 0x04
    4a0a:	ac 01       	movw	r20, r24
    4a0c:	bd 01       	movw	r22, r26
    4a0e:	4f 5f       	subi	r20, 0xFF	; 255
    4a10:	5f 4f       	sbci	r21, 0xFF	; 255
    4a12:	6f 4f       	sbci	r22, 0xFF	; 255
    4a14:	7f 4f       	sbci	r23, 0xFF	; 255
    4a16:	49 83       	std	Y+1, r20	; 0x01
    4a18:	5a 83       	std	Y+2, r21	; 0x02
    4a1a:	6b 83       	std	Y+3, r22	; 0x03
    4a1c:	7c 83       	std	Y+4, r23	; 0x04
    4a1e:	f9 01       	movw	r30, r18
    4a20:	e8 0f       	add	r30, r24
    4a22:	f9 1f       	adc	r31, r25
    4a24:	29 e0       	ldi	r18, 0x09	; 9
    4a26:	20 83       	st	Z, r18
    4a28:	d8 01       	movw	r26, r16
    4a2a:	1c 96       	adiw	r26, 0x0c	; 12
    4a2c:	ed 91       	ld	r30, X+
    4a2e:	fc 91       	ld	r31, X
    4a30:	1d 97       	sbiw	r26, 0x0d	; 13
    4a32:	80 a9       	ldd	r24, Z+48	; 0x30
    4a34:	91 a9       	ldd	r25, Z+49	; 0x31
    4a36:	a2 a9       	ldd	r26, Z+50	; 0x32
    4a38:	b3 a9       	ldd	r27, Z+51	; 0x33
    4a3a:	8d 83       	std	Y+5, r24	; 0x05
    4a3c:	9e 83       	std	Y+6, r25	; 0x06
    4a3e:	af 83       	std	Y+7, r26	; 0x07
    4a40:	b8 87       	std	Y+8, r27	; 0x08
    4a42:	8d 81       	ldd	r24, Y+5	; 0x05
    4a44:	9e 81       	ldd	r25, Y+6	; 0x06
    4a46:	af 81       	ldd	r26, Y+7	; 0x07
    4a48:	b8 85       	ldd	r27, Y+8	; 0x08
    4a4a:	bb 23       	and	r27, r27
    4a4c:	7c f4       	brge	.+30     	; 0x4a6c <__stack+0xa6d>
    4a4e:	8d 81       	ldd	r24, Y+5	; 0x05
    4a50:	9e 81       	ldd	r25, Y+6	; 0x06
    4a52:	af 81       	ldd	r26, Y+7	; 0x07
    4a54:	b8 85       	ldd	r27, Y+8	; 0x08
    4a56:	b0 95       	com	r27
    4a58:	a0 95       	com	r26
    4a5a:	90 95       	com	r25
    4a5c:	81 95       	neg	r24
    4a5e:	9f 4f       	sbci	r25, 0xFF	; 255
    4a60:	af 4f       	sbci	r26, 0xFF	; 255
    4a62:	bf 4f       	sbci	r27, 0xFF	; 255
    4a64:	8d 83       	std	Y+5, r24	; 0x05
    4a66:	9e 83       	std	Y+6, r25	; 0x06
    4a68:	af 83       	std	Y+7, r26	; 0x07
    4a6a:	b8 87       	std	Y+8, r27	; 0x08
    4a6c:	f8 01       	movw	r30, r16
    4a6e:	a6 80       	ldd	r10, Z+6	; 0x06
    4a70:	b7 80       	ldd	r11, Z+7	; 0x07
    4a72:	c9 80       	ldd	r12, Y+1	; 0x01
    4a74:	da 80       	ldd	r13, Y+2	; 0x02
    4a76:	eb 80       	ldd	r14, Y+3	; 0x03
    4a78:	fc 80       	ldd	r15, Y+4	; 0x04
    4a7a:	b7 01       	movw	r22, r14
    4a7c:	a6 01       	movw	r20, r12
    4a7e:	4f 5f       	subi	r20, 0xFF	; 255
    4a80:	5f 4f       	sbci	r21, 0xFF	; 255
    4a82:	6f 4f       	sbci	r22, 0xFF	; 255
    4a84:	7f 4f       	sbci	r23, 0xFF	; 255
    4a86:	49 83       	std	Y+1, r20	; 0x01
    4a88:	5a 83       	std	Y+2, r21	; 0x02
    4a8a:	6b 83       	std	Y+3, r22	; 0x03
    4a8c:	7c 83       	std	Y+4, r23	; 0x04
    4a8e:	6d 81       	ldd	r22, Y+5	; 0x05
    4a90:	7e 81       	ldd	r23, Y+6	; 0x06
    4a92:	8f 81       	ldd	r24, Y+7	; 0x07
    4a94:	98 85       	ldd	r25, Y+8	; 0x08
    4a96:	ac 0c       	add	r10, r12
    4a98:	bd 1c       	adc	r11, r13
    4a9a:	20 e8       	ldi	r18, 0x80	; 128
    4a9c:	36 e9       	ldi	r19, 0x96	; 150
    4a9e:	48 e9       	ldi	r20, 0x98	; 152
    4aa0:	50 e0       	ldi	r21, 0x00	; 0
    4aa2:	0e 94 27 34 	call	0x684e	; 0x684e <__divmodsi4>
    4aa6:	0f 2e       	mov	r0, r31
    4aa8:	fa e0       	ldi	r31, 0x0A	; 10
    4aaa:	cf 2e       	mov	r12, r31
    4aac:	d1 2c       	mov	r13, r1
    4aae:	e1 2c       	mov	r14, r1
    4ab0:	f1 2c       	mov	r15, r1
    4ab2:	f0 2d       	mov	r31, r0
    4ab4:	ca 01       	movw	r24, r20
    4ab6:	b9 01       	movw	r22, r18
    4ab8:	a7 01       	movw	r20, r14
    4aba:	96 01       	movw	r18, r12
    4abc:	0e 94 27 34 	call	0x684e	; 0x684e <__divmodsi4>
    4ac0:	60 5d       	subi	r22, 0xD0	; 208
    4ac2:	d5 01       	movw	r26, r10
    4ac4:	6c 93       	st	X, r22
    4ac6:	f8 01       	movw	r30, r16
    4ac8:	a6 80       	ldd	r10, Z+6	; 0x06
    4aca:	b7 80       	ldd	r11, Z+7	; 0x07
    4acc:	49 80       	ldd	r4, Y+1	; 0x01
    4ace:	5a 80       	ldd	r5, Y+2	; 0x02
    4ad0:	6b 80       	ldd	r6, Y+3	; 0x03
    4ad2:	7c 80       	ldd	r7, Y+4	; 0x04
    4ad4:	b3 01       	movw	r22, r6
    4ad6:	a2 01       	movw	r20, r4
    4ad8:	4f 5f       	subi	r20, 0xFF	; 255
    4ada:	5f 4f       	sbci	r21, 0xFF	; 255
    4adc:	6f 4f       	sbci	r22, 0xFF	; 255
    4ade:	7f 4f       	sbci	r23, 0xFF	; 255
    4ae0:	49 83       	std	Y+1, r20	; 0x01
    4ae2:	5a 83       	std	Y+2, r21	; 0x02
    4ae4:	6b 83       	std	Y+3, r22	; 0x03
    4ae6:	7c 83       	std	Y+4, r23	; 0x04
    4ae8:	6d 81       	ldd	r22, Y+5	; 0x05
    4aea:	7e 81       	ldd	r23, Y+6	; 0x06
    4aec:	8f 81       	ldd	r24, Y+7	; 0x07
    4aee:	98 85       	ldd	r25, Y+8	; 0x08
    4af0:	a4 0c       	add	r10, r4
    4af2:	b5 1c       	adc	r11, r5
    4af4:	20 e4       	ldi	r18, 0x40	; 64
    4af6:	32 e4       	ldi	r19, 0x42	; 66
    4af8:	4f e0       	ldi	r20, 0x0F	; 15
    4afa:	50 e0       	ldi	r21, 0x00	; 0
    4afc:	0e 94 27 34 	call	0x684e	; 0x684e <__divmodsi4>
    4b00:	ca 01       	movw	r24, r20
    4b02:	b9 01       	movw	r22, r18
    4b04:	a7 01       	movw	r20, r14
    4b06:	96 01       	movw	r18, r12
    4b08:	0e 94 27 34 	call	0x684e	; 0x684e <__divmodsi4>
    4b0c:	60 5d       	subi	r22, 0xD0	; 208
    4b0e:	d5 01       	movw	r26, r10
    4b10:	6c 93       	st	X, r22
    4b12:	f8 01       	movw	r30, r16
    4b14:	a6 80       	ldd	r10, Z+6	; 0x06
    4b16:	b7 80       	ldd	r11, Z+7	; 0x07
    4b18:	49 80       	ldd	r4, Y+1	; 0x01
    4b1a:	5a 80       	ldd	r5, Y+2	; 0x02
    4b1c:	6b 80       	ldd	r6, Y+3	; 0x03
    4b1e:	7c 80       	ldd	r7, Y+4	; 0x04
    4b20:	b3 01       	movw	r22, r6
    4b22:	a2 01       	movw	r20, r4
    4b24:	4f 5f       	subi	r20, 0xFF	; 255
    4b26:	5f 4f       	sbci	r21, 0xFF	; 255
    4b28:	6f 4f       	sbci	r22, 0xFF	; 255
    4b2a:	7f 4f       	sbci	r23, 0xFF	; 255
    4b2c:	49 83       	std	Y+1, r20	; 0x01
    4b2e:	5a 83       	std	Y+2, r21	; 0x02
    4b30:	6b 83       	std	Y+3, r22	; 0x03
    4b32:	7c 83       	std	Y+4, r23	; 0x04
    4b34:	6d 81       	ldd	r22, Y+5	; 0x05
    4b36:	7e 81       	ldd	r23, Y+6	; 0x06
    4b38:	8f 81       	ldd	r24, Y+7	; 0x07
    4b3a:	98 85       	ldd	r25, Y+8	; 0x08
    4b3c:	a4 0c       	add	r10, r4
    4b3e:	b5 1c       	adc	r11, r5
    4b40:	20 ea       	ldi	r18, 0xA0	; 160
    4b42:	36 e8       	ldi	r19, 0x86	; 134
    4b44:	41 e0       	ldi	r20, 0x01	; 1
    4b46:	50 e0       	ldi	r21, 0x00	; 0
    4b48:	0e 94 27 34 	call	0x684e	; 0x684e <__divmodsi4>
    4b4c:	ca 01       	movw	r24, r20
    4b4e:	b9 01       	movw	r22, r18
    4b50:	a7 01       	movw	r20, r14
    4b52:	96 01       	movw	r18, r12
    4b54:	0e 94 27 34 	call	0x684e	; 0x684e <__divmodsi4>
    4b58:	60 5d       	subi	r22, 0xD0	; 208
    4b5a:	d5 01       	movw	r26, r10
    4b5c:	6c 93       	st	X, r22
    4b5e:	f8 01       	movw	r30, r16
    4b60:	a6 80       	ldd	r10, Z+6	; 0x06
    4b62:	b7 80       	ldd	r11, Z+7	; 0x07
    4b64:	49 80       	ldd	r4, Y+1	; 0x01
    4b66:	5a 80       	ldd	r5, Y+2	; 0x02
    4b68:	6b 80       	ldd	r6, Y+3	; 0x03
    4b6a:	7c 80       	ldd	r7, Y+4	; 0x04
    4b6c:	b3 01       	movw	r22, r6
    4b6e:	a2 01       	movw	r20, r4
    4b70:	4f 5f       	subi	r20, 0xFF	; 255
    4b72:	5f 4f       	sbci	r21, 0xFF	; 255
    4b74:	6f 4f       	sbci	r22, 0xFF	; 255
    4b76:	7f 4f       	sbci	r23, 0xFF	; 255
    4b78:	49 83       	std	Y+1, r20	; 0x01
    4b7a:	5a 83       	std	Y+2, r21	; 0x02
    4b7c:	6b 83       	std	Y+3, r22	; 0x03
    4b7e:	7c 83       	std	Y+4, r23	; 0x04
    4b80:	6d 81       	ldd	r22, Y+5	; 0x05
    4b82:	7e 81       	ldd	r23, Y+6	; 0x06
    4b84:	8f 81       	ldd	r24, Y+7	; 0x07
    4b86:	98 85       	ldd	r25, Y+8	; 0x08
    4b88:	a4 0c       	add	r10, r4
    4b8a:	b5 1c       	adc	r11, r5
    4b8c:	20 e1       	ldi	r18, 0x10	; 16
    4b8e:	37 e2       	ldi	r19, 0x27	; 39
    4b90:	40 e0       	ldi	r20, 0x00	; 0
    4b92:	50 e0       	ldi	r21, 0x00	; 0
    4b94:	0e 94 27 34 	call	0x684e	; 0x684e <__divmodsi4>
    4b98:	ca 01       	movw	r24, r20
    4b9a:	b9 01       	movw	r22, r18
    4b9c:	a7 01       	movw	r20, r14
    4b9e:	96 01       	movw	r18, r12
    4ba0:	0e 94 27 34 	call	0x684e	; 0x684e <__divmodsi4>
    4ba4:	60 5d       	subi	r22, 0xD0	; 208
    4ba6:	d5 01       	movw	r26, r10
    4ba8:	6c 93       	st	X, r22
    4baa:	f8 01       	movw	r30, r16
    4bac:	a6 80       	ldd	r10, Z+6	; 0x06
    4bae:	b7 80       	ldd	r11, Z+7	; 0x07
    4bb0:	49 80       	ldd	r4, Y+1	; 0x01
    4bb2:	5a 80       	ldd	r5, Y+2	; 0x02
    4bb4:	6b 80       	ldd	r6, Y+3	; 0x03
    4bb6:	7c 80       	ldd	r7, Y+4	; 0x04
    4bb8:	b3 01       	movw	r22, r6
    4bba:	a2 01       	movw	r20, r4
    4bbc:	4f 5f       	subi	r20, 0xFF	; 255
    4bbe:	5f 4f       	sbci	r21, 0xFF	; 255
    4bc0:	6f 4f       	sbci	r22, 0xFF	; 255
    4bc2:	7f 4f       	sbci	r23, 0xFF	; 255
    4bc4:	49 83       	std	Y+1, r20	; 0x01
    4bc6:	5a 83       	std	Y+2, r21	; 0x02
    4bc8:	6b 83       	std	Y+3, r22	; 0x03
    4bca:	7c 83       	std	Y+4, r23	; 0x04
    4bcc:	6d 81       	ldd	r22, Y+5	; 0x05
    4bce:	7e 81       	ldd	r23, Y+6	; 0x06
    4bd0:	8f 81       	ldd	r24, Y+7	; 0x07
    4bd2:	98 85       	ldd	r25, Y+8	; 0x08
    4bd4:	a4 0c       	add	r10, r4
    4bd6:	b5 1c       	adc	r11, r5
    4bd8:	28 ee       	ldi	r18, 0xE8	; 232
    4bda:	33 e0       	ldi	r19, 0x03	; 3
    4bdc:	40 e0       	ldi	r20, 0x00	; 0
    4bde:	50 e0       	ldi	r21, 0x00	; 0
    4be0:	0e 94 27 34 	call	0x684e	; 0x684e <__divmodsi4>
    4be4:	ca 01       	movw	r24, r20
    4be6:	b9 01       	movw	r22, r18
    4be8:	a7 01       	movw	r20, r14
    4bea:	96 01       	movw	r18, r12
    4bec:	0e 94 27 34 	call	0x684e	; 0x684e <__divmodsi4>
    4bf0:	60 5d       	subi	r22, 0xD0	; 208
    4bf2:	d5 01       	movw	r26, r10
    4bf4:	6c 93       	st	X, r22
    4bf6:	f8 01       	movw	r30, r16
    4bf8:	a6 80       	ldd	r10, Z+6	; 0x06
    4bfa:	b7 80       	ldd	r11, Z+7	; 0x07
    4bfc:	49 80       	ldd	r4, Y+1	; 0x01
    4bfe:	5a 80       	ldd	r5, Y+2	; 0x02
    4c00:	6b 80       	ldd	r6, Y+3	; 0x03
    4c02:	7c 80       	ldd	r7, Y+4	; 0x04
    4c04:	b3 01       	movw	r22, r6
    4c06:	a2 01       	movw	r20, r4
    4c08:	4f 5f       	subi	r20, 0xFF	; 255
    4c0a:	5f 4f       	sbci	r21, 0xFF	; 255
    4c0c:	6f 4f       	sbci	r22, 0xFF	; 255
    4c0e:	7f 4f       	sbci	r23, 0xFF	; 255
    4c10:	49 83       	std	Y+1, r20	; 0x01
    4c12:	5a 83       	std	Y+2, r21	; 0x02
    4c14:	6b 83       	std	Y+3, r22	; 0x03
    4c16:	7c 83       	std	Y+4, r23	; 0x04
    4c18:	6d 81       	ldd	r22, Y+5	; 0x05
    4c1a:	7e 81       	ldd	r23, Y+6	; 0x06
    4c1c:	8f 81       	ldd	r24, Y+7	; 0x07
    4c1e:	98 85       	ldd	r25, Y+8	; 0x08
    4c20:	a4 0c       	add	r10, r4
    4c22:	b5 1c       	adc	r11, r5
    4c24:	24 e6       	ldi	r18, 0x64	; 100
    4c26:	30 e0       	ldi	r19, 0x00	; 0
    4c28:	40 e0       	ldi	r20, 0x00	; 0
    4c2a:	50 e0       	ldi	r21, 0x00	; 0
    4c2c:	0e 94 27 34 	call	0x684e	; 0x684e <__divmodsi4>
    4c30:	ca 01       	movw	r24, r20
    4c32:	b9 01       	movw	r22, r18
    4c34:	a7 01       	movw	r20, r14
    4c36:	96 01       	movw	r18, r12
    4c38:	0e 94 27 34 	call	0x684e	; 0x684e <__divmodsi4>
    4c3c:	60 5d       	subi	r22, 0xD0	; 208
    4c3e:	d5 01       	movw	r26, r10
    4c40:	6c 93       	st	X, r22
    4c42:	f8 01       	movw	r30, r16
    4c44:	a6 80       	ldd	r10, Z+6	; 0x06
    4c46:	b7 80       	ldd	r11, Z+7	; 0x07
    4c48:	49 80       	ldd	r4, Y+1	; 0x01
    4c4a:	5a 80       	ldd	r5, Y+2	; 0x02
    4c4c:	6b 80       	ldd	r6, Y+3	; 0x03
    4c4e:	7c 80       	ldd	r7, Y+4	; 0x04
    4c50:	b3 01       	movw	r22, r6
    4c52:	a2 01       	movw	r20, r4
    4c54:	4f 5f       	subi	r20, 0xFF	; 255
    4c56:	5f 4f       	sbci	r21, 0xFF	; 255
    4c58:	6f 4f       	sbci	r22, 0xFF	; 255
    4c5a:	7f 4f       	sbci	r23, 0xFF	; 255
    4c5c:	49 83       	std	Y+1, r20	; 0x01
    4c5e:	5a 83       	std	Y+2, r21	; 0x02
    4c60:	6b 83       	std	Y+3, r22	; 0x03
    4c62:	7c 83       	std	Y+4, r23	; 0x04
    4c64:	6d 81       	ldd	r22, Y+5	; 0x05
    4c66:	7e 81       	ldd	r23, Y+6	; 0x06
    4c68:	8f 81       	ldd	r24, Y+7	; 0x07
    4c6a:	98 85       	ldd	r25, Y+8	; 0x08
    4c6c:	a4 0c       	add	r10, r4
    4c6e:	b5 1c       	adc	r11, r5
    4c70:	a7 01       	movw	r20, r14
    4c72:	96 01       	movw	r18, r12
    4c74:	0e 94 27 34 	call	0x684e	; 0x684e <__divmodsi4>
    4c78:	ca 01       	movw	r24, r20
    4c7a:	b9 01       	movw	r22, r18
    4c7c:	a7 01       	movw	r20, r14
    4c7e:	96 01       	movw	r18, r12
    4c80:	0e 94 27 34 	call	0x684e	; 0x684e <__divmodsi4>
    4c84:	60 5d       	subi	r22, 0xD0	; 208
    4c86:	d5 01       	movw	r26, r10
    4c88:	6c 93       	st	X, r22
    4c8a:	f8 01       	movw	r30, r16
    4c8c:	a6 80       	ldd	r10, Z+6	; 0x06
    4c8e:	b7 80       	ldd	r11, Z+7	; 0x07
    4c90:	49 80       	ldd	r4, Y+1	; 0x01
    4c92:	5a 80       	ldd	r5, Y+2	; 0x02
    4c94:	6b 80       	ldd	r6, Y+3	; 0x03
    4c96:	7c 80       	ldd	r7, Y+4	; 0x04
    4c98:	b3 01       	movw	r22, r6
    4c9a:	a2 01       	movw	r20, r4
    4c9c:	4f 5f       	subi	r20, 0xFF	; 255
    4c9e:	5f 4f       	sbci	r21, 0xFF	; 255
    4ca0:	6f 4f       	sbci	r22, 0xFF	; 255
    4ca2:	7f 4f       	sbci	r23, 0xFF	; 255
    4ca4:	49 83       	std	Y+1, r20	; 0x01
    4ca6:	5a 83       	std	Y+2, r21	; 0x02
    4ca8:	6b 83       	std	Y+3, r22	; 0x03
    4caa:	7c 83       	std	Y+4, r23	; 0x04
    4cac:	6d 81       	ldd	r22, Y+5	; 0x05
    4cae:	7e 81       	ldd	r23, Y+6	; 0x06
    4cb0:	8f 81       	ldd	r24, Y+7	; 0x07
    4cb2:	98 85       	ldd	r25, Y+8	; 0x08
    4cb4:	a4 0c       	add	r10, r4
    4cb6:	b5 1c       	adc	r11, r5
    4cb8:	a7 01       	movw	r20, r14
    4cba:	96 01       	movw	r18, r12
    4cbc:	0e 94 27 34 	call	0x684e	; 0x684e <__divmodsi4>
    4cc0:	60 5d       	subi	r22, 0xD0	; 208
    4cc2:	d5 01       	movw	r26, r10
    4cc4:	6c 93       	st	X, r22
    4cc6:	f8 01       	movw	r30, r16
    4cc8:	26 81       	ldd	r18, Z+6	; 0x06
    4cca:	37 81       	ldd	r19, Z+7	; 0x07
    4ccc:	89 81       	ldd	r24, Y+1	; 0x01
    4cce:	9a 81       	ldd	r25, Y+2	; 0x02
    4cd0:	ab 81       	ldd	r26, Y+3	; 0x03
    4cd2:	bc 81       	ldd	r27, Y+4	; 0x04
    4cd4:	ac 01       	movw	r20, r24
    4cd6:	bd 01       	movw	r22, r26
    4cd8:	4f 5f       	subi	r20, 0xFF	; 255
    4cda:	5f 4f       	sbci	r21, 0xFF	; 255
    4cdc:	6f 4f       	sbci	r22, 0xFF	; 255
    4cde:	7f 4f       	sbci	r23, 0xFF	; 255
    4ce0:	49 83       	std	Y+1, r20	; 0x01
    4ce2:	5a 83       	std	Y+2, r21	; 0x02
    4ce4:	6b 83       	std	Y+3, r22	; 0x03
    4ce6:	7c 83       	std	Y+4, r23	; 0x04
    4ce8:	f9 01       	movw	r30, r18
    4cea:	e8 0f       	add	r30, r24
    4cec:	f9 1f       	adc	r31, r25
    4cee:	29 e0       	ldi	r18, 0x09	; 9
    4cf0:	20 83       	st	Z, r18
    4cf2:	d8 01       	movw	r26, r16
    4cf4:	1c 96       	adiw	r26, 0x0c	; 12
    4cf6:	ed 91       	ld	r30, X+
    4cf8:	fc 91       	ld	r31, X
    4cfa:	1d 97       	sbiw	r26, 0x0d	; 13
    4cfc:	84 a9       	ldd	r24, Z+52	; 0x34
    4cfe:	95 a9       	ldd	r25, Z+53	; 0x35
    4d00:	a6 a9       	ldd	r26, Z+54	; 0x36
    4d02:	b7 a9       	ldd	r27, Z+55	; 0x37
    4d04:	8d 83       	std	Y+5, r24	; 0x05
    4d06:	9e 83       	std	Y+6, r25	; 0x06
    4d08:	af 83       	std	Y+7, r26	; 0x07
    4d0a:	b8 87       	std	Y+8, r27	; 0x08
    4d0c:	8d 81       	ldd	r24, Y+5	; 0x05
    4d0e:	9e 81       	ldd	r25, Y+6	; 0x06
    4d10:	af 81       	ldd	r26, Y+7	; 0x07
    4d12:	b8 85       	ldd	r27, Y+8	; 0x08
    4d14:	bb 23       	and	r27, r27
    4d16:	7c f4       	brge	.+30     	; 0x4d36 <__stack+0xd37>
    4d18:	8d 81       	ldd	r24, Y+5	; 0x05
    4d1a:	9e 81       	ldd	r25, Y+6	; 0x06
    4d1c:	af 81       	ldd	r26, Y+7	; 0x07
    4d1e:	b8 85       	ldd	r27, Y+8	; 0x08
    4d20:	b0 95       	com	r27
    4d22:	a0 95       	com	r26
    4d24:	90 95       	com	r25
    4d26:	81 95       	neg	r24
    4d28:	9f 4f       	sbci	r25, 0xFF	; 255
    4d2a:	af 4f       	sbci	r26, 0xFF	; 255
    4d2c:	bf 4f       	sbci	r27, 0xFF	; 255
    4d2e:	8d 83       	std	Y+5, r24	; 0x05
    4d30:	9e 83       	std	Y+6, r25	; 0x06
    4d32:	af 83       	std	Y+7, r26	; 0x07
    4d34:	b8 87       	std	Y+8, r27	; 0x08
    4d36:	f8 01       	movw	r30, r16
    4d38:	a6 80       	ldd	r10, Z+6	; 0x06
    4d3a:	b7 80       	ldd	r11, Z+7	; 0x07
    4d3c:	c9 80       	ldd	r12, Y+1	; 0x01
    4d3e:	da 80       	ldd	r13, Y+2	; 0x02
    4d40:	eb 80       	ldd	r14, Y+3	; 0x03
    4d42:	fc 80       	ldd	r15, Y+4	; 0x04
    4d44:	b7 01       	movw	r22, r14
    4d46:	a6 01       	movw	r20, r12
    4d48:	4f 5f       	subi	r20, 0xFF	; 255
    4d4a:	5f 4f       	sbci	r21, 0xFF	; 255
    4d4c:	6f 4f       	sbci	r22, 0xFF	; 255
    4d4e:	7f 4f       	sbci	r23, 0xFF	; 255
    4d50:	49 83       	std	Y+1, r20	; 0x01
    4d52:	5a 83       	std	Y+2, r21	; 0x02
    4d54:	6b 83       	std	Y+3, r22	; 0x03
    4d56:	7c 83       	std	Y+4, r23	; 0x04
    4d58:	6d 81       	ldd	r22, Y+5	; 0x05
    4d5a:	7e 81       	ldd	r23, Y+6	; 0x06
    4d5c:	8f 81       	ldd	r24, Y+7	; 0x07
    4d5e:	98 85       	ldd	r25, Y+8	; 0x08
    4d60:	ac 0c       	add	r10, r12
    4d62:	bd 1c       	adc	r11, r13
    4d64:	20 e8       	ldi	r18, 0x80	; 128
    4d66:	36 e9       	ldi	r19, 0x96	; 150
    4d68:	48 e9       	ldi	r20, 0x98	; 152
    4d6a:	50 e0       	ldi	r21, 0x00	; 0
    4d6c:	0e 94 27 34 	call	0x684e	; 0x684e <__divmodsi4>
    4d70:	0f 2e       	mov	r0, r31
    4d72:	fa e0       	ldi	r31, 0x0A	; 10
    4d74:	cf 2e       	mov	r12, r31
    4d76:	d1 2c       	mov	r13, r1
    4d78:	e1 2c       	mov	r14, r1
    4d7a:	f1 2c       	mov	r15, r1
    4d7c:	f0 2d       	mov	r31, r0
    4d7e:	ca 01       	movw	r24, r20
    4d80:	b9 01       	movw	r22, r18
    4d82:	a7 01       	movw	r20, r14
    4d84:	96 01       	movw	r18, r12
    4d86:	0e 94 27 34 	call	0x684e	; 0x684e <__divmodsi4>
    4d8a:	60 5d       	subi	r22, 0xD0	; 208
    4d8c:	d5 01       	movw	r26, r10
    4d8e:	6c 93       	st	X, r22
    4d90:	f8 01       	movw	r30, r16
    4d92:	a6 80       	ldd	r10, Z+6	; 0x06
    4d94:	b7 80       	ldd	r11, Z+7	; 0x07
    4d96:	49 80       	ldd	r4, Y+1	; 0x01
    4d98:	5a 80       	ldd	r5, Y+2	; 0x02
    4d9a:	6b 80       	ldd	r6, Y+3	; 0x03
    4d9c:	7c 80       	ldd	r7, Y+4	; 0x04
    4d9e:	b3 01       	movw	r22, r6
    4da0:	a2 01       	movw	r20, r4
    4da2:	4f 5f       	subi	r20, 0xFF	; 255
    4da4:	5f 4f       	sbci	r21, 0xFF	; 255
    4da6:	6f 4f       	sbci	r22, 0xFF	; 255
    4da8:	7f 4f       	sbci	r23, 0xFF	; 255
    4daa:	49 83       	std	Y+1, r20	; 0x01
    4dac:	5a 83       	std	Y+2, r21	; 0x02
    4dae:	6b 83       	std	Y+3, r22	; 0x03
    4db0:	7c 83       	std	Y+4, r23	; 0x04
    4db2:	6d 81       	ldd	r22, Y+5	; 0x05
    4db4:	7e 81       	ldd	r23, Y+6	; 0x06
    4db6:	8f 81       	ldd	r24, Y+7	; 0x07
    4db8:	98 85       	ldd	r25, Y+8	; 0x08
    4dba:	a4 0c       	add	r10, r4
    4dbc:	b5 1c       	adc	r11, r5
    4dbe:	20 e4       	ldi	r18, 0x40	; 64
    4dc0:	32 e4       	ldi	r19, 0x42	; 66
    4dc2:	4f e0       	ldi	r20, 0x0F	; 15
    4dc4:	50 e0       	ldi	r21, 0x00	; 0
    4dc6:	0e 94 27 34 	call	0x684e	; 0x684e <__divmodsi4>
    4dca:	ca 01       	movw	r24, r20
    4dcc:	b9 01       	movw	r22, r18
    4dce:	a7 01       	movw	r20, r14
    4dd0:	96 01       	movw	r18, r12
    4dd2:	0e 94 27 34 	call	0x684e	; 0x684e <__divmodsi4>
    4dd6:	60 5d       	subi	r22, 0xD0	; 208
    4dd8:	d5 01       	movw	r26, r10
    4dda:	6c 93       	st	X, r22
    4ddc:	f8 01       	movw	r30, r16
    4dde:	a6 80       	ldd	r10, Z+6	; 0x06
    4de0:	b7 80       	ldd	r11, Z+7	; 0x07
    4de2:	49 80       	ldd	r4, Y+1	; 0x01
    4de4:	5a 80       	ldd	r5, Y+2	; 0x02
    4de6:	6b 80       	ldd	r6, Y+3	; 0x03
    4de8:	7c 80       	ldd	r7, Y+4	; 0x04
    4dea:	b3 01       	movw	r22, r6
    4dec:	a2 01       	movw	r20, r4
    4dee:	4f 5f       	subi	r20, 0xFF	; 255
    4df0:	5f 4f       	sbci	r21, 0xFF	; 255
    4df2:	6f 4f       	sbci	r22, 0xFF	; 255
    4df4:	7f 4f       	sbci	r23, 0xFF	; 255
    4df6:	49 83       	std	Y+1, r20	; 0x01
    4df8:	5a 83       	std	Y+2, r21	; 0x02
    4dfa:	6b 83       	std	Y+3, r22	; 0x03
    4dfc:	7c 83       	std	Y+4, r23	; 0x04
    4dfe:	6d 81       	ldd	r22, Y+5	; 0x05
    4e00:	7e 81       	ldd	r23, Y+6	; 0x06
    4e02:	8f 81       	ldd	r24, Y+7	; 0x07
    4e04:	98 85       	ldd	r25, Y+8	; 0x08
    4e06:	a4 0c       	add	r10, r4
    4e08:	b5 1c       	adc	r11, r5
    4e0a:	20 ea       	ldi	r18, 0xA0	; 160
    4e0c:	36 e8       	ldi	r19, 0x86	; 134
    4e0e:	41 e0       	ldi	r20, 0x01	; 1
    4e10:	50 e0       	ldi	r21, 0x00	; 0
    4e12:	0e 94 27 34 	call	0x684e	; 0x684e <__divmodsi4>
    4e16:	ca 01       	movw	r24, r20
    4e18:	b9 01       	movw	r22, r18
    4e1a:	a7 01       	movw	r20, r14
    4e1c:	96 01       	movw	r18, r12
    4e1e:	0e 94 27 34 	call	0x684e	; 0x684e <__divmodsi4>
    4e22:	60 5d       	subi	r22, 0xD0	; 208
    4e24:	d5 01       	movw	r26, r10
    4e26:	6c 93       	st	X, r22
    4e28:	f8 01       	movw	r30, r16
    4e2a:	a6 80       	ldd	r10, Z+6	; 0x06
    4e2c:	b7 80       	ldd	r11, Z+7	; 0x07
    4e2e:	49 80       	ldd	r4, Y+1	; 0x01
    4e30:	5a 80       	ldd	r5, Y+2	; 0x02
    4e32:	6b 80       	ldd	r6, Y+3	; 0x03
    4e34:	7c 80       	ldd	r7, Y+4	; 0x04
    4e36:	b3 01       	movw	r22, r6
    4e38:	a2 01       	movw	r20, r4
    4e3a:	4f 5f       	subi	r20, 0xFF	; 255
    4e3c:	5f 4f       	sbci	r21, 0xFF	; 255
    4e3e:	6f 4f       	sbci	r22, 0xFF	; 255
    4e40:	7f 4f       	sbci	r23, 0xFF	; 255
    4e42:	49 83       	std	Y+1, r20	; 0x01
    4e44:	5a 83       	std	Y+2, r21	; 0x02
    4e46:	6b 83       	std	Y+3, r22	; 0x03
    4e48:	7c 83       	std	Y+4, r23	; 0x04
    4e4a:	6d 81       	ldd	r22, Y+5	; 0x05
    4e4c:	7e 81       	ldd	r23, Y+6	; 0x06
    4e4e:	8f 81       	ldd	r24, Y+7	; 0x07
    4e50:	98 85       	ldd	r25, Y+8	; 0x08
    4e52:	a4 0c       	add	r10, r4
    4e54:	b5 1c       	adc	r11, r5
    4e56:	20 e1       	ldi	r18, 0x10	; 16
    4e58:	37 e2       	ldi	r19, 0x27	; 39
    4e5a:	40 e0       	ldi	r20, 0x00	; 0
    4e5c:	50 e0       	ldi	r21, 0x00	; 0
    4e5e:	0e 94 27 34 	call	0x684e	; 0x684e <__divmodsi4>
    4e62:	ca 01       	movw	r24, r20
    4e64:	b9 01       	movw	r22, r18
    4e66:	a7 01       	movw	r20, r14
    4e68:	96 01       	movw	r18, r12
    4e6a:	0e 94 27 34 	call	0x684e	; 0x684e <__divmodsi4>
    4e6e:	60 5d       	subi	r22, 0xD0	; 208
    4e70:	d5 01       	movw	r26, r10
    4e72:	6c 93       	st	X, r22
    4e74:	f8 01       	movw	r30, r16
    4e76:	a6 80       	ldd	r10, Z+6	; 0x06
    4e78:	b7 80       	ldd	r11, Z+7	; 0x07
    4e7a:	49 80       	ldd	r4, Y+1	; 0x01
    4e7c:	5a 80       	ldd	r5, Y+2	; 0x02
    4e7e:	6b 80       	ldd	r6, Y+3	; 0x03
    4e80:	7c 80       	ldd	r7, Y+4	; 0x04
    4e82:	b3 01       	movw	r22, r6
    4e84:	a2 01       	movw	r20, r4
    4e86:	4f 5f       	subi	r20, 0xFF	; 255
    4e88:	5f 4f       	sbci	r21, 0xFF	; 255
    4e8a:	6f 4f       	sbci	r22, 0xFF	; 255
    4e8c:	7f 4f       	sbci	r23, 0xFF	; 255
    4e8e:	49 83       	std	Y+1, r20	; 0x01
    4e90:	5a 83       	std	Y+2, r21	; 0x02
    4e92:	6b 83       	std	Y+3, r22	; 0x03
    4e94:	7c 83       	std	Y+4, r23	; 0x04
    4e96:	6d 81       	ldd	r22, Y+5	; 0x05
    4e98:	7e 81       	ldd	r23, Y+6	; 0x06
    4e9a:	8f 81       	ldd	r24, Y+7	; 0x07
    4e9c:	98 85       	ldd	r25, Y+8	; 0x08
    4e9e:	a4 0c       	add	r10, r4
    4ea0:	b5 1c       	adc	r11, r5
    4ea2:	28 ee       	ldi	r18, 0xE8	; 232
    4ea4:	33 e0       	ldi	r19, 0x03	; 3
    4ea6:	40 e0       	ldi	r20, 0x00	; 0
    4ea8:	50 e0       	ldi	r21, 0x00	; 0
    4eaa:	0e 94 27 34 	call	0x684e	; 0x684e <__divmodsi4>
    4eae:	ca 01       	movw	r24, r20
    4eb0:	b9 01       	movw	r22, r18
    4eb2:	a7 01       	movw	r20, r14
    4eb4:	96 01       	movw	r18, r12
    4eb6:	0e 94 27 34 	call	0x684e	; 0x684e <__divmodsi4>
    4eba:	60 5d       	subi	r22, 0xD0	; 208
    4ebc:	d5 01       	movw	r26, r10
    4ebe:	6c 93       	st	X, r22
    4ec0:	f8 01       	movw	r30, r16
    4ec2:	a6 80       	ldd	r10, Z+6	; 0x06
    4ec4:	b7 80       	ldd	r11, Z+7	; 0x07
    4ec6:	49 80       	ldd	r4, Y+1	; 0x01
    4ec8:	5a 80       	ldd	r5, Y+2	; 0x02
    4eca:	6b 80       	ldd	r6, Y+3	; 0x03
    4ecc:	7c 80       	ldd	r7, Y+4	; 0x04
    4ece:	b3 01       	movw	r22, r6
    4ed0:	a2 01       	movw	r20, r4
    4ed2:	4f 5f       	subi	r20, 0xFF	; 255
    4ed4:	5f 4f       	sbci	r21, 0xFF	; 255
    4ed6:	6f 4f       	sbci	r22, 0xFF	; 255
    4ed8:	7f 4f       	sbci	r23, 0xFF	; 255
    4eda:	49 83       	std	Y+1, r20	; 0x01
    4edc:	5a 83       	std	Y+2, r21	; 0x02
    4ede:	6b 83       	std	Y+3, r22	; 0x03
    4ee0:	7c 83       	std	Y+4, r23	; 0x04
    4ee2:	6d 81       	ldd	r22, Y+5	; 0x05
    4ee4:	7e 81       	ldd	r23, Y+6	; 0x06
    4ee6:	8f 81       	ldd	r24, Y+7	; 0x07
    4ee8:	98 85       	ldd	r25, Y+8	; 0x08
    4eea:	a4 0c       	add	r10, r4
    4eec:	b5 1c       	adc	r11, r5
    4eee:	24 e6       	ldi	r18, 0x64	; 100
    4ef0:	30 e0       	ldi	r19, 0x00	; 0
    4ef2:	40 e0       	ldi	r20, 0x00	; 0
    4ef4:	50 e0       	ldi	r21, 0x00	; 0
    4ef6:	0e 94 27 34 	call	0x684e	; 0x684e <__divmodsi4>
    4efa:	ca 01       	movw	r24, r20
    4efc:	b9 01       	movw	r22, r18
    4efe:	a7 01       	movw	r20, r14
    4f00:	96 01       	movw	r18, r12
    4f02:	0e 94 27 34 	call	0x684e	; 0x684e <__divmodsi4>
    4f06:	60 5d       	subi	r22, 0xD0	; 208
    4f08:	d5 01       	movw	r26, r10
    4f0a:	6c 93       	st	X, r22
    4f0c:	f8 01       	movw	r30, r16
    4f0e:	a6 80       	ldd	r10, Z+6	; 0x06
    4f10:	b7 80       	ldd	r11, Z+7	; 0x07
    4f12:	49 80       	ldd	r4, Y+1	; 0x01
    4f14:	5a 80       	ldd	r5, Y+2	; 0x02
    4f16:	6b 80       	ldd	r6, Y+3	; 0x03
    4f18:	7c 80       	ldd	r7, Y+4	; 0x04
    4f1a:	b3 01       	movw	r22, r6
    4f1c:	a2 01       	movw	r20, r4
    4f1e:	4f 5f       	subi	r20, 0xFF	; 255
    4f20:	5f 4f       	sbci	r21, 0xFF	; 255
    4f22:	6f 4f       	sbci	r22, 0xFF	; 255
    4f24:	7f 4f       	sbci	r23, 0xFF	; 255
    4f26:	49 83       	std	Y+1, r20	; 0x01
    4f28:	5a 83       	std	Y+2, r21	; 0x02
    4f2a:	6b 83       	std	Y+3, r22	; 0x03
    4f2c:	7c 83       	std	Y+4, r23	; 0x04
    4f2e:	6d 81       	ldd	r22, Y+5	; 0x05
    4f30:	7e 81       	ldd	r23, Y+6	; 0x06
    4f32:	8f 81       	ldd	r24, Y+7	; 0x07
    4f34:	98 85       	ldd	r25, Y+8	; 0x08
    4f36:	a4 0c       	add	r10, r4
    4f38:	b5 1c       	adc	r11, r5
    4f3a:	a7 01       	movw	r20, r14
    4f3c:	96 01       	movw	r18, r12
    4f3e:	0e 94 27 34 	call	0x684e	; 0x684e <__divmodsi4>
    4f42:	ca 01       	movw	r24, r20
    4f44:	b9 01       	movw	r22, r18
    4f46:	a7 01       	movw	r20, r14
    4f48:	96 01       	movw	r18, r12
    4f4a:	0e 94 27 34 	call	0x684e	; 0x684e <__divmodsi4>
    4f4e:	60 5d       	subi	r22, 0xD0	; 208
    4f50:	d5 01       	movw	r26, r10
    4f52:	6c 93       	st	X, r22
    4f54:	f8 01       	movw	r30, r16
    4f56:	a6 80       	ldd	r10, Z+6	; 0x06
    4f58:	b7 80       	ldd	r11, Z+7	; 0x07
    4f5a:	49 80       	ldd	r4, Y+1	; 0x01
    4f5c:	5a 80       	ldd	r5, Y+2	; 0x02
    4f5e:	6b 80       	ldd	r6, Y+3	; 0x03
    4f60:	7c 80       	ldd	r7, Y+4	; 0x04
    4f62:	b3 01       	movw	r22, r6
    4f64:	a2 01       	movw	r20, r4
    4f66:	4f 5f       	subi	r20, 0xFF	; 255
    4f68:	5f 4f       	sbci	r21, 0xFF	; 255
    4f6a:	6f 4f       	sbci	r22, 0xFF	; 255
    4f6c:	7f 4f       	sbci	r23, 0xFF	; 255
    4f6e:	49 83       	std	Y+1, r20	; 0x01
    4f70:	5a 83       	std	Y+2, r21	; 0x02
    4f72:	6b 83       	std	Y+3, r22	; 0x03
    4f74:	7c 83       	std	Y+4, r23	; 0x04
    4f76:	6d 81       	ldd	r22, Y+5	; 0x05
    4f78:	7e 81       	ldd	r23, Y+6	; 0x06
    4f7a:	8f 81       	ldd	r24, Y+7	; 0x07
    4f7c:	98 85       	ldd	r25, Y+8	; 0x08
    4f7e:	a4 0c       	add	r10, r4
    4f80:	b5 1c       	adc	r11, r5
    4f82:	a7 01       	movw	r20, r14
    4f84:	96 01       	movw	r18, r12
    4f86:	0e 94 27 34 	call	0x684e	; 0x684e <__divmodsi4>
    4f8a:	60 5d       	subi	r22, 0xD0	; 208
    4f8c:	d5 01       	movw	r26, r10
    4f8e:	6c 93       	st	X, r22
    4f90:	f8 01       	movw	r30, r16
    4f92:	26 81       	ldd	r18, Z+6	; 0x06
    4f94:	37 81       	ldd	r19, Z+7	; 0x07
    4f96:	89 81       	ldd	r24, Y+1	; 0x01
    4f98:	9a 81       	ldd	r25, Y+2	; 0x02
    4f9a:	ab 81       	ldd	r26, Y+3	; 0x03
    4f9c:	bc 81       	ldd	r27, Y+4	; 0x04
    4f9e:	ac 01       	movw	r20, r24
    4fa0:	bd 01       	movw	r22, r26
    4fa2:	4f 5f       	subi	r20, 0xFF	; 255
    4fa4:	5f 4f       	sbci	r21, 0xFF	; 255
    4fa6:	6f 4f       	sbci	r22, 0xFF	; 255
    4fa8:	7f 4f       	sbci	r23, 0xFF	; 255
    4faa:	49 83       	std	Y+1, r20	; 0x01
    4fac:	5a 83       	std	Y+2, r21	; 0x02
    4fae:	6b 83       	std	Y+3, r22	; 0x03
    4fb0:	7c 83       	std	Y+4, r23	; 0x04
    4fb2:	f9 01       	movw	r30, r18
    4fb4:	e8 0f       	add	r30, r24
    4fb6:	f9 1f       	adc	r31, r25
    4fb8:	29 e0       	ldi	r18, 0x09	; 9
    4fba:	20 83       	st	Z, r18
    4fbc:	d8 01       	movw	r26, r16
    4fbe:	1c 96       	adiw	r26, 0x0c	; 12
    4fc0:	ed 91       	ld	r30, X+
    4fc2:	fc 91       	ld	r31, X
    4fc4:	1d 97       	sbiw	r26, 0x0d	; 13
    4fc6:	80 ad       	ldd	r24, Z+56	; 0x38
    4fc8:	91 ad       	ldd	r25, Z+57	; 0x39
    4fca:	a2 ad       	ldd	r26, Z+58	; 0x3a
    4fcc:	b3 ad       	ldd	r27, Z+59	; 0x3b
    4fce:	8d 83       	std	Y+5, r24	; 0x05
    4fd0:	9e 83       	std	Y+6, r25	; 0x06
    4fd2:	af 83       	std	Y+7, r26	; 0x07
    4fd4:	b8 87       	std	Y+8, r27	; 0x08
    4fd6:	8d 81       	ldd	r24, Y+5	; 0x05
    4fd8:	9e 81       	ldd	r25, Y+6	; 0x06
    4fda:	af 81       	ldd	r26, Y+7	; 0x07
    4fdc:	b8 85       	ldd	r27, Y+8	; 0x08
    4fde:	bb 23       	and	r27, r27
    4fe0:	7c f4       	brge	.+30     	; 0x5000 <__stack+0x1001>
    4fe2:	8d 81       	ldd	r24, Y+5	; 0x05
    4fe4:	9e 81       	ldd	r25, Y+6	; 0x06
    4fe6:	af 81       	ldd	r26, Y+7	; 0x07
    4fe8:	b8 85       	ldd	r27, Y+8	; 0x08
    4fea:	b0 95       	com	r27
    4fec:	a0 95       	com	r26
    4fee:	90 95       	com	r25
    4ff0:	81 95       	neg	r24
    4ff2:	9f 4f       	sbci	r25, 0xFF	; 255
    4ff4:	af 4f       	sbci	r26, 0xFF	; 255
    4ff6:	bf 4f       	sbci	r27, 0xFF	; 255
    4ff8:	8d 83       	std	Y+5, r24	; 0x05
    4ffa:	9e 83       	std	Y+6, r25	; 0x06
    4ffc:	af 83       	std	Y+7, r26	; 0x07
    4ffe:	b8 87       	std	Y+8, r27	; 0x08
    5000:	f8 01       	movw	r30, r16
    5002:	a6 80       	ldd	r10, Z+6	; 0x06
    5004:	b7 80       	ldd	r11, Z+7	; 0x07
    5006:	c9 80       	ldd	r12, Y+1	; 0x01
    5008:	da 80       	ldd	r13, Y+2	; 0x02
    500a:	eb 80       	ldd	r14, Y+3	; 0x03
    500c:	fc 80       	ldd	r15, Y+4	; 0x04
    500e:	b7 01       	movw	r22, r14
    5010:	a6 01       	movw	r20, r12
    5012:	4f 5f       	subi	r20, 0xFF	; 255
    5014:	5f 4f       	sbci	r21, 0xFF	; 255
    5016:	6f 4f       	sbci	r22, 0xFF	; 255
    5018:	7f 4f       	sbci	r23, 0xFF	; 255
    501a:	49 83       	std	Y+1, r20	; 0x01
    501c:	5a 83       	std	Y+2, r21	; 0x02
    501e:	6b 83       	std	Y+3, r22	; 0x03
    5020:	7c 83       	std	Y+4, r23	; 0x04
    5022:	6d 81       	ldd	r22, Y+5	; 0x05
    5024:	7e 81       	ldd	r23, Y+6	; 0x06
    5026:	8f 81       	ldd	r24, Y+7	; 0x07
    5028:	98 85       	ldd	r25, Y+8	; 0x08
    502a:	ac 0c       	add	r10, r12
    502c:	bd 1c       	adc	r11, r13
    502e:	20 e8       	ldi	r18, 0x80	; 128
    5030:	36 e9       	ldi	r19, 0x96	; 150
    5032:	48 e9       	ldi	r20, 0x98	; 152
    5034:	50 e0       	ldi	r21, 0x00	; 0
    5036:	0e 94 27 34 	call	0x684e	; 0x684e <__divmodsi4>
    503a:	0f 2e       	mov	r0, r31
    503c:	fa e0       	ldi	r31, 0x0A	; 10
    503e:	cf 2e       	mov	r12, r31
    5040:	d1 2c       	mov	r13, r1
    5042:	e1 2c       	mov	r14, r1
    5044:	f1 2c       	mov	r15, r1
    5046:	f0 2d       	mov	r31, r0
    5048:	ca 01       	movw	r24, r20
    504a:	b9 01       	movw	r22, r18
    504c:	a7 01       	movw	r20, r14
    504e:	96 01       	movw	r18, r12
    5050:	0e 94 27 34 	call	0x684e	; 0x684e <__divmodsi4>
    5054:	60 5d       	subi	r22, 0xD0	; 208
    5056:	d5 01       	movw	r26, r10
    5058:	6c 93       	st	X, r22
    505a:	f8 01       	movw	r30, r16
    505c:	a6 80       	ldd	r10, Z+6	; 0x06
    505e:	b7 80       	ldd	r11, Z+7	; 0x07
    5060:	49 80       	ldd	r4, Y+1	; 0x01
    5062:	5a 80       	ldd	r5, Y+2	; 0x02
    5064:	6b 80       	ldd	r6, Y+3	; 0x03
    5066:	7c 80       	ldd	r7, Y+4	; 0x04
    5068:	b3 01       	movw	r22, r6
    506a:	a2 01       	movw	r20, r4
    506c:	4f 5f       	subi	r20, 0xFF	; 255
    506e:	5f 4f       	sbci	r21, 0xFF	; 255
    5070:	6f 4f       	sbci	r22, 0xFF	; 255
    5072:	7f 4f       	sbci	r23, 0xFF	; 255
    5074:	49 83       	std	Y+1, r20	; 0x01
    5076:	5a 83       	std	Y+2, r21	; 0x02
    5078:	6b 83       	std	Y+3, r22	; 0x03
    507a:	7c 83       	std	Y+4, r23	; 0x04
    507c:	6d 81       	ldd	r22, Y+5	; 0x05
    507e:	7e 81       	ldd	r23, Y+6	; 0x06
    5080:	8f 81       	ldd	r24, Y+7	; 0x07
    5082:	98 85       	ldd	r25, Y+8	; 0x08
    5084:	a4 0c       	add	r10, r4
    5086:	b5 1c       	adc	r11, r5
    5088:	20 e4       	ldi	r18, 0x40	; 64
    508a:	32 e4       	ldi	r19, 0x42	; 66
    508c:	4f e0       	ldi	r20, 0x0F	; 15
    508e:	50 e0       	ldi	r21, 0x00	; 0
    5090:	0e 94 27 34 	call	0x684e	; 0x684e <__divmodsi4>
    5094:	ca 01       	movw	r24, r20
    5096:	b9 01       	movw	r22, r18
    5098:	a7 01       	movw	r20, r14
    509a:	96 01       	movw	r18, r12
    509c:	0e 94 27 34 	call	0x684e	; 0x684e <__divmodsi4>
    50a0:	60 5d       	subi	r22, 0xD0	; 208
    50a2:	d5 01       	movw	r26, r10
    50a4:	6c 93       	st	X, r22
    50a6:	f8 01       	movw	r30, r16
    50a8:	a6 80       	ldd	r10, Z+6	; 0x06
    50aa:	b7 80       	ldd	r11, Z+7	; 0x07
    50ac:	49 80       	ldd	r4, Y+1	; 0x01
    50ae:	5a 80       	ldd	r5, Y+2	; 0x02
    50b0:	6b 80       	ldd	r6, Y+3	; 0x03
    50b2:	7c 80       	ldd	r7, Y+4	; 0x04
    50b4:	b3 01       	movw	r22, r6
    50b6:	a2 01       	movw	r20, r4
    50b8:	4f 5f       	subi	r20, 0xFF	; 255
    50ba:	5f 4f       	sbci	r21, 0xFF	; 255
    50bc:	6f 4f       	sbci	r22, 0xFF	; 255
    50be:	7f 4f       	sbci	r23, 0xFF	; 255
    50c0:	49 83       	std	Y+1, r20	; 0x01
    50c2:	5a 83       	std	Y+2, r21	; 0x02
    50c4:	6b 83       	std	Y+3, r22	; 0x03
    50c6:	7c 83       	std	Y+4, r23	; 0x04
    50c8:	6d 81       	ldd	r22, Y+5	; 0x05
    50ca:	7e 81       	ldd	r23, Y+6	; 0x06
    50cc:	8f 81       	ldd	r24, Y+7	; 0x07
    50ce:	98 85       	ldd	r25, Y+8	; 0x08
    50d0:	a4 0c       	add	r10, r4
    50d2:	b5 1c       	adc	r11, r5
    50d4:	20 ea       	ldi	r18, 0xA0	; 160
    50d6:	36 e8       	ldi	r19, 0x86	; 134
    50d8:	41 e0       	ldi	r20, 0x01	; 1
    50da:	50 e0       	ldi	r21, 0x00	; 0
    50dc:	0e 94 27 34 	call	0x684e	; 0x684e <__divmodsi4>
    50e0:	ca 01       	movw	r24, r20
    50e2:	b9 01       	movw	r22, r18
    50e4:	a7 01       	movw	r20, r14
    50e6:	96 01       	movw	r18, r12
    50e8:	0e 94 27 34 	call	0x684e	; 0x684e <__divmodsi4>
    50ec:	60 5d       	subi	r22, 0xD0	; 208
    50ee:	d5 01       	movw	r26, r10
    50f0:	6c 93       	st	X, r22
    50f2:	f8 01       	movw	r30, r16
    50f4:	a6 80       	ldd	r10, Z+6	; 0x06
    50f6:	b7 80       	ldd	r11, Z+7	; 0x07
    50f8:	49 80       	ldd	r4, Y+1	; 0x01
    50fa:	5a 80       	ldd	r5, Y+2	; 0x02
    50fc:	6b 80       	ldd	r6, Y+3	; 0x03
    50fe:	7c 80       	ldd	r7, Y+4	; 0x04
    5100:	b3 01       	movw	r22, r6
    5102:	a2 01       	movw	r20, r4
    5104:	4f 5f       	subi	r20, 0xFF	; 255
    5106:	5f 4f       	sbci	r21, 0xFF	; 255
    5108:	6f 4f       	sbci	r22, 0xFF	; 255
    510a:	7f 4f       	sbci	r23, 0xFF	; 255
    510c:	49 83       	std	Y+1, r20	; 0x01
    510e:	5a 83       	std	Y+2, r21	; 0x02
    5110:	6b 83       	std	Y+3, r22	; 0x03
    5112:	7c 83       	std	Y+4, r23	; 0x04
    5114:	6d 81       	ldd	r22, Y+5	; 0x05
    5116:	7e 81       	ldd	r23, Y+6	; 0x06
    5118:	8f 81       	ldd	r24, Y+7	; 0x07
    511a:	98 85       	ldd	r25, Y+8	; 0x08
    511c:	a4 0c       	add	r10, r4
    511e:	b5 1c       	adc	r11, r5
    5120:	20 e1       	ldi	r18, 0x10	; 16
    5122:	37 e2       	ldi	r19, 0x27	; 39
    5124:	40 e0       	ldi	r20, 0x00	; 0
    5126:	50 e0       	ldi	r21, 0x00	; 0
    5128:	0e 94 27 34 	call	0x684e	; 0x684e <__divmodsi4>
    512c:	ca 01       	movw	r24, r20
    512e:	b9 01       	movw	r22, r18
    5130:	a7 01       	movw	r20, r14
    5132:	96 01       	movw	r18, r12
    5134:	0e 94 27 34 	call	0x684e	; 0x684e <__divmodsi4>
    5138:	60 5d       	subi	r22, 0xD0	; 208
    513a:	d5 01       	movw	r26, r10
    513c:	6c 93       	st	X, r22
    513e:	f8 01       	movw	r30, r16
    5140:	a6 80       	ldd	r10, Z+6	; 0x06
    5142:	b7 80       	ldd	r11, Z+7	; 0x07
    5144:	49 80       	ldd	r4, Y+1	; 0x01
    5146:	5a 80       	ldd	r5, Y+2	; 0x02
    5148:	6b 80       	ldd	r6, Y+3	; 0x03
    514a:	7c 80       	ldd	r7, Y+4	; 0x04
    514c:	b3 01       	movw	r22, r6
    514e:	a2 01       	movw	r20, r4
    5150:	4f 5f       	subi	r20, 0xFF	; 255
    5152:	5f 4f       	sbci	r21, 0xFF	; 255
    5154:	6f 4f       	sbci	r22, 0xFF	; 255
    5156:	7f 4f       	sbci	r23, 0xFF	; 255
    5158:	49 83       	std	Y+1, r20	; 0x01
    515a:	5a 83       	std	Y+2, r21	; 0x02
    515c:	6b 83       	std	Y+3, r22	; 0x03
    515e:	7c 83       	std	Y+4, r23	; 0x04
    5160:	6d 81       	ldd	r22, Y+5	; 0x05
    5162:	7e 81       	ldd	r23, Y+6	; 0x06
    5164:	8f 81       	ldd	r24, Y+7	; 0x07
    5166:	98 85       	ldd	r25, Y+8	; 0x08
    5168:	a4 0c       	add	r10, r4
    516a:	b5 1c       	adc	r11, r5
    516c:	28 ee       	ldi	r18, 0xE8	; 232
    516e:	33 e0       	ldi	r19, 0x03	; 3
    5170:	40 e0       	ldi	r20, 0x00	; 0
    5172:	50 e0       	ldi	r21, 0x00	; 0
    5174:	0e 94 27 34 	call	0x684e	; 0x684e <__divmodsi4>
    5178:	ca 01       	movw	r24, r20
    517a:	b9 01       	movw	r22, r18
    517c:	a7 01       	movw	r20, r14
    517e:	96 01       	movw	r18, r12
    5180:	0e 94 27 34 	call	0x684e	; 0x684e <__divmodsi4>
    5184:	60 5d       	subi	r22, 0xD0	; 208
    5186:	d5 01       	movw	r26, r10
    5188:	6c 93       	st	X, r22
    518a:	f8 01       	movw	r30, r16
    518c:	a6 80       	ldd	r10, Z+6	; 0x06
    518e:	b7 80       	ldd	r11, Z+7	; 0x07
    5190:	49 80       	ldd	r4, Y+1	; 0x01
    5192:	5a 80       	ldd	r5, Y+2	; 0x02
    5194:	6b 80       	ldd	r6, Y+3	; 0x03
    5196:	7c 80       	ldd	r7, Y+4	; 0x04
    5198:	b3 01       	movw	r22, r6
    519a:	a2 01       	movw	r20, r4
    519c:	4f 5f       	subi	r20, 0xFF	; 255
    519e:	5f 4f       	sbci	r21, 0xFF	; 255
    51a0:	6f 4f       	sbci	r22, 0xFF	; 255
    51a2:	7f 4f       	sbci	r23, 0xFF	; 255
    51a4:	49 83       	std	Y+1, r20	; 0x01
    51a6:	5a 83       	std	Y+2, r21	; 0x02
    51a8:	6b 83       	std	Y+3, r22	; 0x03
    51aa:	7c 83       	std	Y+4, r23	; 0x04
    51ac:	6d 81       	ldd	r22, Y+5	; 0x05
    51ae:	7e 81       	ldd	r23, Y+6	; 0x06
    51b0:	8f 81       	ldd	r24, Y+7	; 0x07
    51b2:	98 85       	ldd	r25, Y+8	; 0x08
    51b4:	a4 0c       	add	r10, r4
    51b6:	b5 1c       	adc	r11, r5
    51b8:	24 e6       	ldi	r18, 0x64	; 100
    51ba:	30 e0       	ldi	r19, 0x00	; 0
    51bc:	40 e0       	ldi	r20, 0x00	; 0
    51be:	50 e0       	ldi	r21, 0x00	; 0
    51c0:	0e 94 27 34 	call	0x684e	; 0x684e <__divmodsi4>
    51c4:	ca 01       	movw	r24, r20
    51c6:	b9 01       	movw	r22, r18
    51c8:	a7 01       	movw	r20, r14
    51ca:	96 01       	movw	r18, r12
    51cc:	0e 94 27 34 	call	0x684e	; 0x684e <__divmodsi4>
    51d0:	60 5d       	subi	r22, 0xD0	; 208
    51d2:	d5 01       	movw	r26, r10
    51d4:	6c 93       	st	X, r22
    51d6:	f8 01       	movw	r30, r16
    51d8:	a6 80       	ldd	r10, Z+6	; 0x06
    51da:	b7 80       	ldd	r11, Z+7	; 0x07
    51dc:	49 80       	ldd	r4, Y+1	; 0x01
    51de:	5a 80       	ldd	r5, Y+2	; 0x02
    51e0:	6b 80       	ldd	r6, Y+3	; 0x03
    51e2:	7c 80       	ldd	r7, Y+4	; 0x04
    51e4:	b3 01       	movw	r22, r6
    51e6:	a2 01       	movw	r20, r4
    51e8:	4f 5f       	subi	r20, 0xFF	; 255
    51ea:	5f 4f       	sbci	r21, 0xFF	; 255
    51ec:	6f 4f       	sbci	r22, 0xFF	; 255
    51ee:	7f 4f       	sbci	r23, 0xFF	; 255
    51f0:	49 83       	std	Y+1, r20	; 0x01
    51f2:	5a 83       	std	Y+2, r21	; 0x02
    51f4:	6b 83       	std	Y+3, r22	; 0x03
    51f6:	7c 83       	std	Y+4, r23	; 0x04
    51f8:	6d 81       	ldd	r22, Y+5	; 0x05
    51fa:	7e 81       	ldd	r23, Y+6	; 0x06
    51fc:	8f 81       	ldd	r24, Y+7	; 0x07
    51fe:	98 85       	ldd	r25, Y+8	; 0x08
    5200:	a4 0c       	add	r10, r4
    5202:	b5 1c       	adc	r11, r5
    5204:	a7 01       	movw	r20, r14
    5206:	96 01       	movw	r18, r12
    5208:	0e 94 27 34 	call	0x684e	; 0x684e <__divmodsi4>
    520c:	ca 01       	movw	r24, r20
    520e:	b9 01       	movw	r22, r18
    5210:	a7 01       	movw	r20, r14
    5212:	96 01       	movw	r18, r12
    5214:	0e 94 27 34 	call	0x684e	; 0x684e <__divmodsi4>
    5218:	60 5d       	subi	r22, 0xD0	; 208
    521a:	d5 01       	movw	r26, r10
    521c:	6c 93       	st	X, r22
    521e:	f8 01       	movw	r30, r16
    5220:	a6 80       	ldd	r10, Z+6	; 0x06
    5222:	b7 80       	ldd	r11, Z+7	; 0x07
    5224:	49 80       	ldd	r4, Y+1	; 0x01
    5226:	5a 80       	ldd	r5, Y+2	; 0x02
    5228:	6b 80       	ldd	r6, Y+3	; 0x03
    522a:	7c 80       	ldd	r7, Y+4	; 0x04
    522c:	b3 01       	movw	r22, r6
    522e:	a2 01       	movw	r20, r4
    5230:	4f 5f       	subi	r20, 0xFF	; 255
    5232:	5f 4f       	sbci	r21, 0xFF	; 255
    5234:	6f 4f       	sbci	r22, 0xFF	; 255
    5236:	7f 4f       	sbci	r23, 0xFF	; 255
    5238:	49 83       	std	Y+1, r20	; 0x01
    523a:	5a 83       	std	Y+2, r21	; 0x02
    523c:	6b 83       	std	Y+3, r22	; 0x03
    523e:	7c 83       	std	Y+4, r23	; 0x04
    5240:	6d 81       	ldd	r22, Y+5	; 0x05
    5242:	7e 81       	ldd	r23, Y+6	; 0x06
    5244:	8f 81       	ldd	r24, Y+7	; 0x07
    5246:	98 85       	ldd	r25, Y+8	; 0x08
    5248:	a4 0c       	add	r10, r4
    524a:	b5 1c       	adc	r11, r5
    524c:	a7 01       	movw	r20, r14
    524e:	96 01       	movw	r18, r12
    5250:	0e 94 27 34 	call	0x684e	; 0x684e <__divmodsi4>
    5254:	60 5d       	subi	r22, 0xD0	; 208
    5256:	d5 01       	movw	r26, r10
    5258:	6c 93       	st	X, r22
    525a:	f8 01       	movw	r30, r16
    525c:	26 81       	ldd	r18, Z+6	; 0x06
    525e:	37 81       	ldd	r19, Z+7	; 0x07
    5260:	89 81       	ldd	r24, Y+1	; 0x01
    5262:	9a 81       	ldd	r25, Y+2	; 0x02
    5264:	ab 81       	ldd	r26, Y+3	; 0x03
    5266:	bc 81       	ldd	r27, Y+4	; 0x04
    5268:	ac 01       	movw	r20, r24
    526a:	bd 01       	movw	r22, r26
    526c:	4f 5f       	subi	r20, 0xFF	; 255
    526e:	5f 4f       	sbci	r21, 0xFF	; 255
    5270:	6f 4f       	sbci	r22, 0xFF	; 255
    5272:	7f 4f       	sbci	r23, 0xFF	; 255
    5274:	49 83       	std	Y+1, r20	; 0x01
    5276:	5a 83       	std	Y+2, r21	; 0x02
    5278:	6b 83       	std	Y+3, r22	; 0x03
    527a:	7c 83       	std	Y+4, r23	; 0x04
    527c:	f9 01       	movw	r30, r18
    527e:	e8 0f       	add	r30, r24
    5280:	f9 1f       	adc	r31, r25
    5282:	29 e0       	ldi	r18, 0x09	; 9
    5284:	20 83       	st	Z, r18
    5286:	d8 01       	movw	r26, r16
    5288:	1c 96       	adiw	r26, 0x0c	; 12
    528a:	ed 91       	ld	r30, X+
    528c:	fc 91       	ld	r31, X
    528e:	1d 97       	sbiw	r26, 0x0d	; 13
    5290:	84 ad       	ldd	r24, Z+60	; 0x3c
    5292:	95 ad       	ldd	r25, Z+61	; 0x3d
    5294:	a6 ad       	ldd	r26, Z+62	; 0x3e
    5296:	b7 ad       	ldd	r27, Z+63	; 0x3f
    5298:	8d 83       	std	Y+5, r24	; 0x05
    529a:	9e 83       	std	Y+6, r25	; 0x06
    529c:	af 83       	std	Y+7, r26	; 0x07
    529e:	b8 87       	std	Y+8, r27	; 0x08
    52a0:	8d 81       	ldd	r24, Y+5	; 0x05
    52a2:	9e 81       	ldd	r25, Y+6	; 0x06
    52a4:	af 81       	ldd	r26, Y+7	; 0x07
    52a6:	b8 85       	ldd	r27, Y+8	; 0x08
    52a8:	bb 23       	and	r27, r27
    52aa:	7c f4       	brge	.+30     	; 0x52ca <__stack+0x12cb>
    52ac:	8d 81       	ldd	r24, Y+5	; 0x05
    52ae:	9e 81       	ldd	r25, Y+6	; 0x06
    52b0:	af 81       	ldd	r26, Y+7	; 0x07
    52b2:	b8 85       	ldd	r27, Y+8	; 0x08
    52b4:	b0 95       	com	r27
    52b6:	a0 95       	com	r26
    52b8:	90 95       	com	r25
    52ba:	81 95       	neg	r24
    52bc:	9f 4f       	sbci	r25, 0xFF	; 255
    52be:	af 4f       	sbci	r26, 0xFF	; 255
    52c0:	bf 4f       	sbci	r27, 0xFF	; 255
    52c2:	8d 83       	std	Y+5, r24	; 0x05
    52c4:	9e 83       	std	Y+6, r25	; 0x06
    52c6:	af 83       	std	Y+7, r26	; 0x07
    52c8:	b8 87       	std	Y+8, r27	; 0x08
    52ca:	f8 01       	movw	r30, r16
    52cc:	a6 80       	ldd	r10, Z+6	; 0x06
    52ce:	b7 80       	ldd	r11, Z+7	; 0x07
    52d0:	c9 80       	ldd	r12, Y+1	; 0x01
    52d2:	da 80       	ldd	r13, Y+2	; 0x02
    52d4:	eb 80       	ldd	r14, Y+3	; 0x03
    52d6:	fc 80       	ldd	r15, Y+4	; 0x04
    52d8:	b7 01       	movw	r22, r14
    52da:	a6 01       	movw	r20, r12
    52dc:	4f 5f       	subi	r20, 0xFF	; 255
    52de:	5f 4f       	sbci	r21, 0xFF	; 255
    52e0:	6f 4f       	sbci	r22, 0xFF	; 255
    52e2:	7f 4f       	sbci	r23, 0xFF	; 255
    52e4:	49 83       	std	Y+1, r20	; 0x01
    52e6:	5a 83       	std	Y+2, r21	; 0x02
    52e8:	6b 83       	std	Y+3, r22	; 0x03
    52ea:	7c 83       	std	Y+4, r23	; 0x04
    52ec:	6d 81       	ldd	r22, Y+5	; 0x05
    52ee:	7e 81       	ldd	r23, Y+6	; 0x06
    52f0:	8f 81       	ldd	r24, Y+7	; 0x07
    52f2:	98 85       	ldd	r25, Y+8	; 0x08
    52f4:	ac 0c       	add	r10, r12
    52f6:	bd 1c       	adc	r11, r13
    52f8:	20 e8       	ldi	r18, 0x80	; 128
    52fa:	36 e9       	ldi	r19, 0x96	; 150
    52fc:	48 e9       	ldi	r20, 0x98	; 152
    52fe:	50 e0       	ldi	r21, 0x00	; 0
    5300:	0e 94 27 34 	call	0x684e	; 0x684e <__divmodsi4>
    5304:	0f 2e       	mov	r0, r31
    5306:	fa e0       	ldi	r31, 0x0A	; 10
    5308:	cf 2e       	mov	r12, r31
    530a:	d1 2c       	mov	r13, r1
    530c:	e1 2c       	mov	r14, r1
    530e:	f1 2c       	mov	r15, r1
    5310:	f0 2d       	mov	r31, r0
    5312:	ca 01       	movw	r24, r20
    5314:	b9 01       	movw	r22, r18
    5316:	a7 01       	movw	r20, r14
    5318:	96 01       	movw	r18, r12
    531a:	0e 94 27 34 	call	0x684e	; 0x684e <__divmodsi4>
    531e:	60 5d       	subi	r22, 0xD0	; 208
    5320:	d5 01       	movw	r26, r10
    5322:	6c 93       	st	X, r22
    5324:	f8 01       	movw	r30, r16
    5326:	a6 80       	ldd	r10, Z+6	; 0x06
    5328:	b7 80       	ldd	r11, Z+7	; 0x07
    532a:	49 80       	ldd	r4, Y+1	; 0x01
    532c:	5a 80       	ldd	r5, Y+2	; 0x02
    532e:	6b 80       	ldd	r6, Y+3	; 0x03
    5330:	7c 80       	ldd	r7, Y+4	; 0x04
    5332:	b3 01       	movw	r22, r6
    5334:	a2 01       	movw	r20, r4
    5336:	4f 5f       	subi	r20, 0xFF	; 255
    5338:	5f 4f       	sbci	r21, 0xFF	; 255
    533a:	6f 4f       	sbci	r22, 0xFF	; 255
    533c:	7f 4f       	sbci	r23, 0xFF	; 255
    533e:	49 83       	std	Y+1, r20	; 0x01
    5340:	5a 83       	std	Y+2, r21	; 0x02
    5342:	6b 83       	std	Y+3, r22	; 0x03
    5344:	7c 83       	std	Y+4, r23	; 0x04
    5346:	6d 81       	ldd	r22, Y+5	; 0x05
    5348:	7e 81       	ldd	r23, Y+6	; 0x06
    534a:	8f 81       	ldd	r24, Y+7	; 0x07
    534c:	98 85       	ldd	r25, Y+8	; 0x08
    534e:	a4 0c       	add	r10, r4
    5350:	b5 1c       	adc	r11, r5
    5352:	20 e4       	ldi	r18, 0x40	; 64
    5354:	32 e4       	ldi	r19, 0x42	; 66
    5356:	4f e0       	ldi	r20, 0x0F	; 15
    5358:	50 e0       	ldi	r21, 0x00	; 0
    535a:	0e 94 27 34 	call	0x684e	; 0x684e <__divmodsi4>
    535e:	ca 01       	movw	r24, r20
    5360:	b9 01       	movw	r22, r18
    5362:	a7 01       	movw	r20, r14
    5364:	96 01       	movw	r18, r12
    5366:	0e 94 27 34 	call	0x684e	; 0x684e <__divmodsi4>
    536a:	60 5d       	subi	r22, 0xD0	; 208
    536c:	d5 01       	movw	r26, r10
    536e:	6c 93       	st	X, r22
    5370:	f8 01       	movw	r30, r16
    5372:	a6 80       	ldd	r10, Z+6	; 0x06
    5374:	b7 80       	ldd	r11, Z+7	; 0x07
    5376:	49 80       	ldd	r4, Y+1	; 0x01
    5378:	5a 80       	ldd	r5, Y+2	; 0x02
    537a:	6b 80       	ldd	r6, Y+3	; 0x03
    537c:	7c 80       	ldd	r7, Y+4	; 0x04
    537e:	b3 01       	movw	r22, r6
    5380:	a2 01       	movw	r20, r4
    5382:	4f 5f       	subi	r20, 0xFF	; 255
    5384:	5f 4f       	sbci	r21, 0xFF	; 255
    5386:	6f 4f       	sbci	r22, 0xFF	; 255
    5388:	7f 4f       	sbci	r23, 0xFF	; 255
    538a:	49 83       	std	Y+1, r20	; 0x01
    538c:	5a 83       	std	Y+2, r21	; 0x02
    538e:	6b 83       	std	Y+3, r22	; 0x03
    5390:	7c 83       	std	Y+4, r23	; 0x04
    5392:	6d 81       	ldd	r22, Y+5	; 0x05
    5394:	7e 81       	ldd	r23, Y+6	; 0x06
    5396:	8f 81       	ldd	r24, Y+7	; 0x07
    5398:	98 85       	ldd	r25, Y+8	; 0x08
    539a:	a4 0c       	add	r10, r4
    539c:	b5 1c       	adc	r11, r5
    539e:	20 ea       	ldi	r18, 0xA0	; 160
    53a0:	36 e8       	ldi	r19, 0x86	; 134
    53a2:	41 e0       	ldi	r20, 0x01	; 1
    53a4:	50 e0       	ldi	r21, 0x00	; 0
    53a6:	0e 94 27 34 	call	0x684e	; 0x684e <__divmodsi4>
    53aa:	ca 01       	movw	r24, r20
    53ac:	b9 01       	movw	r22, r18
    53ae:	a7 01       	movw	r20, r14
    53b0:	96 01       	movw	r18, r12
    53b2:	0e 94 27 34 	call	0x684e	; 0x684e <__divmodsi4>
    53b6:	60 5d       	subi	r22, 0xD0	; 208
    53b8:	d5 01       	movw	r26, r10
    53ba:	6c 93       	st	X, r22
    53bc:	f8 01       	movw	r30, r16
    53be:	a6 80       	ldd	r10, Z+6	; 0x06
    53c0:	b7 80       	ldd	r11, Z+7	; 0x07
    53c2:	49 80       	ldd	r4, Y+1	; 0x01
    53c4:	5a 80       	ldd	r5, Y+2	; 0x02
    53c6:	6b 80       	ldd	r6, Y+3	; 0x03
    53c8:	7c 80       	ldd	r7, Y+4	; 0x04
    53ca:	b3 01       	movw	r22, r6
    53cc:	a2 01       	movw	r20, r4
    53ce:	4f 5f       	subi	r20, 0xFF	; 255
    53d0:	5f 4f       	sbci	r21, 0xFF	; 255
    53d2:	6f 4f       	sbci	r22, 0xFF	; 255
    53d4:	7f 4f       	sbci	r23, 0xFF	; 255
    53d6:	49 83       	std	Y+1, r20	; 0x01
    53d8:	5a 83       	std	Y+2, r21	; 0x02
    53da:	6b 83       	std	Y+3, r22	; 0x03
    53dc:	7c 83       	std	Y+4, r23	; 0x04
    53de:	6d 81       	ldd	r22, Y+5	; 0x05
    53e0:	7e 81       	ldd	r23, Y+6	; 0x06
    53e2:	8f 81       	ldd	r24, Y+7	; 0x07
    53e4:	98 85       	ldd	r25, Y+8	; 0x08
    53e6:	a4 0c       	add	r10, r4
    53e8:	b5 1c       	adc	r11, r5
    53ea:	20 e1       	ldi	r18, 0x10	; 16
    53ec:	37 e2       	ldi	r19, 0x27	; 39
    53ee:	40 e0       	ldi	r20, 0x00	; 0
    53f0:	50 e0       	ldi	r21, 0x00	; 0
    53f2:	0e 94 27 34 	call	0x684e	; 0x684e <__divmodsi4>
    53f6:	ca 01       	movw	r24, r20
    53f8:	b9 01       	movw	r22, r18
    53fa:	a7 01       	movw	r20, r14
    53fc:	96 01       	movw	r18, r12
    53fe:	0e 94 27 34 	call	0x684e	; 0x684e <__divmodsi4>
    5402:	60 5d       	subi	r22, 0xD0	; 208
    5404:	d5 01       	movw	r26, r10
    5406:	6c 93       	st	X, r22
    5408:	f8 01       	movw	r30, r16
    540a:	a6 80       	ldd	r10, Z+6	; 0x06
    540c:	b7 80       	ldd	r11, Z+7	; 0x07
    540e:	49 80       	ldd	r4, Y+1	; 0x01
    5410:	5a 80       	ldd	r5, Y+2	; 0x02
    5412:	6b 80       	ldd	r6, Y+3	; 0x03
    5414:	7c 80       	ldd	r7, Y+4	; 0x04
    5416:	b3 01       	movw	r22, r6
    5418:	a2 01       	movw	r20, r4
    541a:	4f 5f       	subi	r20, 0xFF	; 255
    541c:	5f 4f       	sbci	r21, 0xFF	; 255
    541e:	6f 4f       	sbci	r22, 0xFF	; 255
    5420:	7f 4f       	sbci	r23, 0xFF	; 255
    5422:	49 83       	std	Y+1, r20	; 0x01
    5424:	5a 83       	std	Y+2, r21	; 0x02
    5426:	6b 83       	std	Y+3, r22	; 0x03
    5428:	7c 83       	std	Y+4, r23	; 0x04
    542a:	6d 81       	ldd	r22, Y+5	; 0x05
    542c:	7e 81       	ldd	r23, Y+6	; 0x06
    542e:	8f 81       	ldd	r24, Y+7	; 0x07
    5430:	98 85       	ldd	r25, Y+8	; 0x08
    5432:	a4 0c       	add	r10, r4
    5434:	b5 1c       	adc	r11, r5
    5436:	28 ee       	ldi	r18, 0xE8	; 232
    5438:	33 e0       	ldi	r19, 0x03	; 3
    543a:	40 e0       	ldi	r20, 0x00	; 0
    543c:	50 e0       	ldi	r21, 0x00	; 0
    543e:	0e 94 27 34 	call	0x684e	; 0x684e <__divmodsi4>
    5442:	ca 01       	movw	r24, r20
    5444:	b9 01       	movw	r22, r18
    5446:	a7 01       	movw	r20, r14
    5448:	96 01       	movw	r18, r12
    544a:	0e 94 27 34 	call	0x684e	; 0x684e <__divmodsi4>
    544e:	60 5d       	subi	r22, 0xD0	; 208
    5450:	d5 01       	movw	r26, r10
    5452:	6c 93       	st	X, r22
    5454:	f8 01       	movw	r30, r16
    5456:	a6 80       	ldd	r10, Z+6	; 0x06
    5458:	b7 80       	ldd	r11, Z+7	; 0x07
    545a:	49 80       	ldd	r4, Y+1	; 0x01
    545c:	5a 80       	ldd	r5, Y+2	; 0x02
    545e:	6b 80       	ldd	r6, Y+3	; 0x03
    5460:	7c 80       	ldd	r7, Y+4	; 0x04
    5462:	b3 01       	movw	r22, r6
    5464:	a2 01       	movw	r20, r4
    5466:	4f 5f       	subi	r20, 0xFF	; 255
    5468:	5f 4f       	sbci	r21, 0xFF	; 255
    546a:	6f 4f       	sbci	r22, 0xFF	; 255
    546c:	7f 4f       	sbci	r23, 0xFF	; 255
    546e:	49 83       	std	Y+1, r20	; 0x01
    5470:	5a 83       	std	Y+2, r21	; 0x02
    5472:	6b 83       	std	Y+3, r22	; 0x03
    5474:	7c 83       	std	Y+4, r23	; 0x04
    5476:	6d 81       	ldd	r22, Y+5	; 0x05
    5478:	7e 81       	ldd	r23, Y+6	; 0x06
    547a:	8f 81       	ldd	r24, Y+7	; 0x07
    547c:	98 85       	ldd	r25, Y+8	; 0x08
    547e:	a4 0c       	add	r10, r4
    5480:	b5 1c       	adc	r11, r5
    5482:	24 e6       	ldi	r18, 0x64	; 100
    5484:	30 e0       	ldi	r19, 0x00	; 0
    5486:	40 e0       	ldi	r20, 0x00	; 0
    5488:	50 e0       	ldi	r21, 0x00	; 0
    548a:	0e 94 27 34 	call	0x684e	; 0x684e <__divmodsi4>
    548e:	ca 01       	movw	r24, r20
    5490:	b9 01       	movw	r22, r18
    5492:	a7 01       	movw	r20, r14
    5494:	96 01       	movw	r18, r12
    5496:	0e 94 27 34 	call	0x684e	; 0x684e <__divmodsi4>
    549a:	60 5d       	subi	r22, 0xD0	; 208
    549c:	d5 01       	movw	r26, r10
    549e:	6c 93       	st	X, r22
    54a0:	f8 01       	movw	r30, r16
    54a2:	a6 80       	ldd	r10, Z+6	; 0x06
    54a4:	b7 80       	ldd	r11, Z+7	; 0x07
    54a6:	49 80       	ldd	r4, Y+1	; 0x01
    54a8:	5a 80       	ldd	r5, Y+2	; 0x02
    54aa:	6b 80       	ldd	r6, Y+3	; 0x03
    54ac:	7c 80       	ldd	r7, Y+4	; 0x04
    54ae:	b3 01       	movw	r22, r6
    54b0:	a2 01       	movw	r20, r4
    54b2:	4f 5f       	subi	r20, 0xFF	; 255
    54b4:	5f 4f       	sbci	r21, 0xFF	; 255
    54b6:	6f 4f       	sbci	r22, 0xFF	; 255
    54b8:	7f 4f       	sbci	r23, 0xFF	; 255
    54ba:	49 83       	std	Y+1, r20	; 0x01
    54bc:	5a 83       	std	Y+2, r21	; 0x02
    54be:	6b 83       	std	Y+3, r22	; 0x03
    54c0:	7c 83       	std	Y+4, r23	; 0x04
    54c2:	6d 81       	ldd	r22, Y+5	; 0x05
    54c4:	7e 81       	ldd	r23, Y+6	; 0x06
    54c6:	8f 81       	ldd	r24, Y+7	; 0x07
    54c8:	98 85       	ldd	r25, Y+8	; 0x08
    54ca:	a4 0c       	add	r10, r4
    54cc:	b5 1c       	adc	r11, r5
    54ce:	a7 01       	movw	r20, r14
    54d0:	96 01       	movw	r18, r12
    54d2:	0e 94 27 34 	call	0x684e	; 0x684e <__divmodsi4>
    54d6:	ca 01       	movw	r24, r20
    54d8:	b9 01       	movw	r22, r18
    54da:	a7 01       	movw	r20, r14
    54dc:	96 01       	movw	r18, r12
    54de:	0e 94 27 34 	call	0x684e	; 0x684e <__divmodsi4>
    54e2:	60 5d       	subi	r22, 0xD0	; 208
    54e4:	d5 01       	movw	r26, r10
    54e6:	6c 93       	st	X, r22
    54e8:	f8 01       	movw	r30, r16
    54ea:	a6 80       	ldd	r10, Z+6	; 0x06
    54ec:	b7 80       	ldd	r11, Z+7	; 0x07
    54ee:	49 80       	ldd	r4, Y+1	; 0x01
    54f0:	5a 80       	ldd	r5, Y+2	; 0x02
    54f2:	6b 80       	ldd	r6, Y+3	; 0x03
    54f4:	7c 80       	ldd	r7, Y+4	; 0x04
    54f6:	b3 01       	movw	r22, r6
    54f8:	a2 01       	movw	r20, r4
    54fa:	4f 5f       	subi	r20, 0xFF	; 255
    54fc:	5f 4f       	sbci	r21, 0xFF	; 255
    54fe:	6f 4f       	sbci	r22, 0xFF	; 255
    5500:	7f 4f       	sbci	r23, 0xFF	; 255
    5502:	49 83       	std	Y+1, r20	; 0x01
    5504:	5a 83       	std	Y+2, r21	; 0x02
    5506:	6b 83       	std	Y+3, r22	; 0x03
    5508:	7c 83       	std	Y+4, r23	; 0x04
    550a:	6d 81       	ldd	r22, Y+5	; 0x05
    550c:	7e 81       	ldd	r23, Y+6	; 0x06
    550e:	8f 81       	ldd	r24, Y+7	; 0x07
    5510:	98 85       	ldd	r25, Y+8	; 0x08
    5512:	a4 0c       	add	r10, r4
    5514:	b5 1c       	adc	r11, r5
    5516:	a7 01       	movw	r20, r14
    5518:	96 01       	movw	r18, r12
    551a:	0e 94 27 34 	call	0x684e	; 0x684e <__divmodsi4>
    551e:	60 5d       	subi	r22, 0xD0	; 208
    5520:	d5 01       	movw	r26, r10
    5522:	6c 93       	st	X, r22
    5524:	f8 01       	movw	r30, r16
    5526:	26 81       	ldd	r18, Z+6	; 0x06
    5528:	37 81       	ldd	r19, Z+7	; 0x07
    552a:	89 81       	ldd	r24, Y+1	; 0x01
    552c:	9a 81       	ldd	r25, Y+2	; 0x02
    552e:	ab 81       	ldd	r26, Y+3	; 0x03
    5530:	bc 81       	ldd	r27, Y+4	; 0x04
    5532:	ac 01       	movw	r20, r24
    5534:	bd 01       	movw	r22, r26
    5536:	4f 5f       	subi	r20, 0xFF	; 255
    5538:	5f 4f       	sbci	r21, 0xFF	; 255
    553a:	6f 4f       	sbci	r22, 0xFF	; 255
    553c:	7f 4f       	sbci	r23, 0xFF	; 255
    553e:	49 83       	std	Y+1, r20	; 0x01
    5540:	5a 83       	std	Y+2, r21	; 0x02
    5542:	6b 83       	std	Y+3, r22	; 0x03
    5544:	7c 83       	std	Y+4, r23	; 0x04
    5546:	f9 01       	movw	r30, r18
    5548:	e8 0f       	add	r30, r24
    554a:	f9 1f       	adc	r31, r25
    554c:	29 e0       	ldi	r18, 0x09	; 9
    554e:	20 83       	st	Z, r18
    5550:	d8 01       	movw	r26, r16
    5552:	ed 91       	ld	r30, X+
    5554:	fc 91       	ld	r31, X
    5556:	84 81       	ldd	r24, Z+4	; 0x04
    5558:	95 81       	ldd	r25, Z+5	; 0x05
    555a:	09 2e       	mov	r0, r25
    555c:	00 0c       	add	r0, r0
    555e:	aa 0b       	sbc	r26, r26
    5560:	bb 0b       	sbc	r27, r27
    5562:	8d 83       	std	Y+5, r24	; 0x05
    5564:	9e 83       	std	Y+6, r25	; 0x06
    5566:	af 83       	std	Y+7, r26	; 0x07
    5568:	b8 87       	std	Y+8, r27	; 0x08
    556a:	8d 81       	ldd	r24, Y+5	; 0x05
    556c:	9e 81       	ldd	r25, Y+6	; 0x06
    556e:	af 81       	ldd	r26, Y+7	; 0x07
    5570:	b8 85       	ldd	r27, Y+8	; 0x08
    5572:	bb 23       	and	r27, r27
    5574:	2c f5       	brge	.+74     	; 0x55c0 <__stack+0x15c1>
    5576:	8d 81       	ldd	r24, Y+5	; 0x05
    5578:	9e 81       	ldd	r25, Y+6	; 0x06
    557a:	af 81       	ldd	r26, Y+7	; 0x07
    557c:	b8 85       	ldd	r27, Y+8	; 0x08
    557e:	b0 95       	com	r27
    5580:	a0 95       	com	r26
    5582:	90 95       	com	r25
    5584:	81 95       	neg	r24
    5586:	9f 4f       	sbci	r25, 0xFF	; 255
    5588:	af 4f       	sbci	r26, 0xFF	; 255
    558a:	bf 4f       	sbci	r27, 0xFF	; 255
    558c:	8d 83       	std	Y+5, r24	; 0x05
    558e:	9e 83       	std	Y+6, r25	; 0x06
    5590:	af 83       	std	Y+7, r26	; 0x07
    5592:	b8 87       	std	Y+8, r27	; 0x08
    5594:	f8 01       	movw	r30, r16
    5596:	26 81       	ldd	r18, Z+6	; 0x06
    5598:	37 81       	ldd	r19, Z+7	; 0x07
    559a:	89 81       	ldd	r24, Y+1	; 0x01
    559c:	9a 81       	ldd	r25, Y+2	; 0x02
    559e:	ab 81       	ldd	r26, Y+3	; 0x03
    55a0:	bc 81       	ldd	r27, Y+4	; 0x04
    55a2:	ac 01       	movw	r20, r24
    55a4:	bd 01       	movw	r22, r26
    55a6:	4f 5f       	subi	r20, 0xFF	; 255
    55a8:	5f 4f       	sbci	r21, 0xFF	; 255
    55aa:	6f 4f       	sbci	r22, 0xFF	; 255
    55ac:	7f 4f       	sbci	r23, 0xFF	; 255
    55ae:	49 83       	std	Y+1, r20	; 0x01
    55b0:	5a 83       	std	Y+2, r21	; 0x02
    55b2:	6b 83       	std	Y+3, r22	; 0x03
    55b4:	7c 83       	std	Y+4, r23	; 0x04
    55b6:	f9 01       	movw	r30, r18
    55b8:	e8 0f       	add	r30, r24
    55ba:	f9 1f       	adc	r31, r25
    55bc:	2d e2       	ldi	r18, 0x2D	; 45
    55be:	20 83       	st	Z, r18
    55c0:	d8 01       	movw	r26, r16
    55c2:	16 96       	adiw	r26, 0x06	; 6
    55c4:	ad 90       	ld	r10, X+
    55c6:	bc 90       	ld	r11, X
    55c8:	17 97       	sbiw	r26, 0x07	; 7
    55ca:	c9 80       	ldd	r12, Y+1	; 0x01
    55cc:	da 80       	ldd	r13, Y+2	; 0x02
    55ce:	eb 80       	ldd	r14, Y+3	; 0x03
    55d0:	fc 80       	ldd	r15, Y+4	; 0x04
    55d2:	b7 01       	movw	r22, r14
    55d4:	a6 01       	movw	r20, r12
    55d6:	4f 5f       	subi	r20, 0xFF	; 255
    55d8:	5f 4f       	sbci	r21, 0xFF	; 255
    55da:	6f 4f       	sbci	r22, 0xFF	; 255
    55dc:	7f 4f       	sbci	r23, 0xFF	; 255
    55de:	49 83       	std	Y+1, r20	; 0x01
    55e0:	5a 83       	std	Y+2, r21	; 0x02
    55e2:	6b 83       	std	Y+3, r22	; 0x03
    55e4:	7c 83       	std	Y+4, r23	; 0x04
    55e6:	6d 81       	ldd	r22, Y+5	; 0x05
    55e8:	7e 81       	ldd	r23, Y+6	; 0x06
    55ea:	8f 81       	ldd	r24, Y+7	; 0x07
    55ec:	98 85       	ldd	r25, Y+8	; 0x08
    55ee:	ac 0c       	add	r10, r12
    55f0:	bd 1c       	adc	r11, r13
    55f2:	28 ee       	ldi	r18, 0xE8	; 232
    55f4:	33 e0       	ldi	r19, 0x03	; 3
    55f6:	40 e0       	ldi	r20, 0x00	; 0
    55f8:	50 e0       	ldi	r21, 0x00	; 0
    55fa:	0e 94 27 34 	call	0x684e	; 0x684e <__divmodsi4>
    55fe:	0f 2e       	mov	r0, r31
    5600:	fa e0       	ldi	r31, 0x0A	; 10
    5602:	cf 2e       	mov	r12, r31
    5604:	d1 2c       	mov	r13, r1
    5606:	e1 2c       	mov	r14, r1
    5608:	f1 2c       	mov	r15, r1
    560a:	f0 2d       	mov	r31, r0
    560c:	ca 01       	movw	r24, r20
    560e:	b9 01       	movw	r22, r18
    5610:	a7 01       	movw	r20, r14
    5612:	96 01       	movw	r18, r12
    5614:	0e 94 27 34 	call	0x684e	; 0x684e <__divmodsi4>
    5618:	60 5d       	subi	r22, 0xD0	; 208
    561a:	f5 01       	movw	r30, r10
    561c:	60 83       	st	Z, r22
    561e:	d8 01       	movw	r26, r16
    5620:	16 96       	adiw	r26, 0x06	; 6
    5622:	ad 90       	ld	r10, X+
    5624:	bc 90       	ld	r11, X
    5626:	17 97       	sbiw	r26, 0x07	; 7
    5628:	49 80       	ldd	r4, Y+1	; 0x01
    562a:	5a 80       	ldd	r5, Y+2	; 0x02
    562c:	6b 80       	ldd	r6, Y+3	; 0x03
    562e:	7c 80       	ldd	r7, Y+4	; 0x04
    5630:	b3 01       	movw	r22, r6
    5632:	a2 01       	movw	r20, r4
    5634:	4f 5f       	subi	r20, 0xFF	; 255
    5636:	5f 4f       	sbci	r21, 0xFF	; 255
    5638:	6f 4f       	sbci	r22, 0xFF	; 255
    563a:	7f 4f       	sbci	r23, 0xFF	; 255
    563c:	49 83       	std	Y+1, r20	; 0x01
    563e:	5a 83       	std	Y+2, r21	; 0x02
    5640:	6b 83       	std	Y+3, r22	; 0x03
    5642:	7c 83       	std	Y+4, r23	; 0x04
    5644:	6d 81       	ldd	r22, Y+5	; 0x05
    5646:	7e 81       	ldd	r23, Y+6	; 0x06
    5648:	8f 81       	ldd	r24, Y+7	; 0x07
    564a:	98 85       	ldd	r25, Y+8	; 0x08
    564c:	a4 0c       	add	r10, r4
    564e:	b5 1c       	adc	r11, r5
    5650:	24 e6       	ldi	r18, 0x64	; 100
    5652:	30 e0       	ldi	r19, 0x00	; 0
    5654:	40 e0       	ldi	r20, 0x00	; 0
    5656:	50 e0       	ldi	r21, 0x00	; 0
    5658:	0e 94 27 34 	call	0x684e	; 0x684e <__divmodsi4>
    565c:	ca 01       	movw	r24, r20
    565e:	b9 01       	movw	r22, r18
    5660:	a7 01       	movw	r20, r14
    5662:	96 01       	movw	r18, r12
    5664:	0e 94 27 34 	call	0x684e	; 0x684e <__divmodsi4>
    5668:	60 5d       	subi	r22, 0xD0	; 208
    566a:	f5 01       	movw	r30, r10
    566c:	60 83       	st	Z, r22
    566e:	d8 01       	movw	r26, r16
    5670:	16 96       	adiw	r26, 0x06	; 6
    5672:	ad 90       	ld	r10, X+
    5674:	bc 90       	ld	r11, X
    5676:	17 97       	sbiw	r26, 0x07	; 7
    5678:	49 80       	ldd	r4, Y+1	; 0x01
    567a:	5a 80       	ldd	r5, Y+2	; 0x02
    567c:	6b 80       	ldd	r6, Y+3	; 0x03
    567e:	7c 80       	ldd	r7, Y+4	; 0x04
    5680:	b3 01       	movw	r22, r6
    5682:	a2 01       	movw	r20, r4
    5684:	4f 5f       	subi	r20, 0xFF	; 255
    5686:	5f 4f       	sbci	r21, 0xFF	; 255
    5688:	6f 4f       	sbci	r22, 0xFF	; 255
    568a:	7f 4f       	sbci	r23, 0xFF	; 255
    568c:	49 83       	std	Y+1, r20	; 0x01
    568e:	5a 83       	std	Y+2, r21	; 0x02
    5690:	6b 83       	std	Y+3, r22	; 0x03
    5692:	7c 83       	std	Y+4, r23	; 0x04
    5694:	6d 81       	ldd	r22, Y+5	; 0x05
    5696:	7e 81       	ldd	r23, Y+6	; 0x06
    5698:	8f 81       	ldd	r24, Y+7	; 0x07
    569a:	98 85       	ldd	r25, Y+8	; 0x08
    569c:	a4 0c       	add	r10, r4
    569e:	b5 1c       	adc	r11, r5
    56a0:	a7 01       	movw	r20, r14
    56a2:	96 01       	movw	r18, r12
    56a4:	0e 94 27 34 	call	0x684e	; 0x684e <__divmodsi4>
    56a8:	ca 01       	movw	r24, r20
    56aa:	b9 01       	movw	r22, r18
    56ac:	a7 01       	movw	r20, r14
    56ae:	96 01       	movw	r18, r12
    56b0:	0e 94 27 34 	call	0x684e	; 0x684e <__divmodsi4>
    56b4:	60 5d       	subi	r22, 0xD0	; 208
    56b6:	f5 01       	movw	r30, r10
    56b8:	60 83       	st	Z, r22
    56ba:	d8 01       	movw	r26, r16
    56bc:	16 96       	adiw	r26, 0x06	; 6
    56be:	ad 90       	ld	r10, X+
    56c0:	bc 90       	ld	r11, X
    56c2:	17 97       	sbiw	r26, 0x07	; 7
    56c4:	49 80       	ldd	r4, Y+1	; 0x01
    56c6:	5a 80       	ldd	r5, Y+2	; 0x02
    56c8:	6b 80       	ldd	r6, Y+3	; 0x03
    56ca:	7c 80       	ldd	r7, Y+4	; 0x04
    56cc:	b3 01       	movw	r22, r6
    56ce:	a2 01       	movw	r20, r4
    56d0:	4f 5f       	subi	r20, 0xFF	; 255
    56d2:	5f 4f       	sbci	r21, 0xFF	; 255
    56d4:	6f 4f       	sbci	r22, 0xFF	; 255
    56d6:	7f 4f       	sbci	r23, 0xFF	; 255
    56d8:	49 83       	std	Y+1, r20	; 0x01
    56da:	5a 83       	std	Y+2, r21	; 0x02
    56dc:	6b 83       	std	Y+3, r22	; 0x03
    56de:	7c 83       	std	Y+4, r23	; 0x04
    56e0:	6d 81       	ldd	r22, Y+5	; 0x05
    56e2:	7e 81       	ldd	r23, Y+6	; 0x06
    56e4:	8f 81       	ldd	r24, Y+7	; 0x07
    56e6:	98 85       	ldd	r25, Y+8	; 0x08
    56e8:	a4 0c       	add	r10, r4
    56ea:	b5 1c       	adc	r11, r5
    56ec:	a7 01       	movw	r20, r14
    56ee:	96 01       	movw	r18, r12
    56f0:	0e 94 27 34 	call	0x684e	; 0x684e <__divmodsi4>
    56f4:	60 5d       	subi	r22, 0xD0	; 208
    56f6:	f5 01       	movw	r30, r10
    56f8:	60 83       	st	Z, r22
    56fa:	d8 01       	movw	r26, r16
    56fc:	16 96       	adiw	r26, 0x06	; 6
    56fe:	2d 91       	ld	r18, X+
    5700:	3c 91       	ld	r19, X
    5702:	17 97       	sbiw	r26, 0x07	; 7
    5704:	89 81       	ldd	r24, Y+1	; 0x01
    5706:	9a 81       	ldd	r25, Y+2	; 0x02
    5708:	ab 81       	ldd	r26, Y+3	; 0x03
    570a:	bc 81       	ldd	r27, Y+4	; 0x04
    570c:	ac 01       	movw	r20, r24
    570e:	bd 01       	movw	r22, r26
    5710:	4f 5f       	subi	r20, 0xFF	; 255
    5712:	5f 4f       	sbci	r21, 0xFF	; 255
    5714:	6f 4f       	sbci	r22, 0xFF	; 255
    5716:	7f 4f       	sbci	r23, 0xFF	; 255
    5718:	49 83       	std	Y+1, r20	; 0x01
    571a:	5a 83       	std	Y+2, r21	; 0x02
    571c:	6b 83       	std	Y+3, r22	; 0x03
    571e:	7c 83       	std	Y+4, r23	; 0x04
    5720:	f9 01       	movw	r30, r18
    5722:	e8 0f       	add	r30, r24
    5724:	f9 1f       	adc	r31, r25
    5726:	29 e0       	ldi	r18, 0x09	; 9
    5728:	20 83       	st	Z, r18
    572a:	d8 01       	movw	r26, r16
    572c:	ed 91       	ld	r30, X+
    572e:	fc 91       	ld	r31, X
    5730:	86 81       	ldd	r24, Z+6	; 0x06
    5732:	97 81       	ldd	r25, Z+7	; 0x07
    5734:	09 2e       	mov	r0, r25
    5736:	00 0c       	add	r0, r0
    5738:	aa 0b       	sbc	r26, r26
    573a:	bb 0b       	sbc	r27, r27
    573c:	8d 83       	std	Y+5, r24	; 0x05
    573e:	9e 83       	std	Y+6, r25	; 0x06
    5740:	af 83       	std	Y+7, r26	; 0x07
    5742:	b8 87       	std	Y+8, r27	; 0x08
    5744:	8d 81       	ldd	r24, Y+5	; 0x05
    5746:	9e 81       	ldd	r25, Y+6	; 0x06
    5748:	af 81       	ldd	r26, Y+7	; 0x07
    574a:	b8 85       	ldd	r27, Y+8	; 0x08
    574c:	bb 23       	and	r27, r27
    574e:	2c f5       	brge	.+74     	; 0x579a <__stack+0x179b>
    5750:	8d 81       	ldd	r24, Y+5	; 0x05
    5752:	9e 81       	ldd	r25, Y+6	; 0x06
    5754:	af 81       	ldd	r26, Y+7	; 0x07
    5756:	b8 85       	ldd	r27, Y+8	; 0x08
    5758:	b0 95       	com	r27
    575a:	a0 95       	com	r26
    575c:	90 95       	com	r25
    575e:	81 95       	neg	r24
    5760:	9f 4f       	sbci	r25, 0xFF	; 255
    5762:	af 4f       	sbci	r26, 0xFF	; 255
    5764:	bf 4f       	sbci	r27, 0xFF	; 255
    5766:	8d 83       	std	Y+5, r24	; 0x05
    5768:	9e 83       	std	Y+6, r25	; 0x06
    576a:	af 83       	std	Y+7, r26	; 0x07
    576c:	b8 87       	std	Y+8, r27	; 0x08
    576e:	f8 01       	movw	r30, r16
    5770:	26 81       	ldd	r18, Z+6	; 0x06
    5772:	37 81       	ldd	r19, Z+7	; 0x07
    5774:	89 81       	ldd	r24, Y+1	; 0x01
    5776:	9a 81       	ldd	r25, Y+2	; 0x02
    5778:	ab 81       	ldd	r26, Y+3	; 0x03
    577a:	bc 81       	ldd	r27, Y+4	; 0x04
    577c:	ac 01       	movw	r20, r24
    577e:	bd 01       	movw	r22, r26
    5780:	4f 5f       	subi	r20, 0xFF	; 255
    5782:	5f 4f       	sbci	r21, 0xFF	; 255
    5784:	6f 4f       	sbci	r22, 0xFF	; 255
    5786:	7f 4f       	sbci	r23, 0xFF	; 255
    5788:	49 83       	std	Y+1, r20	; 0x01
    578a:	5a 83       	std	Y+2, r21	; 0x02
    578c:	6b 83       	std	Y+3, r22	; 0x03
    578e:	7c 83       	std	Y+4, r23	; 0x04
    5790:	f9 01       	movw	r30, r18
    5792:	e8 0f       	add	r30, r24
    5794:	f9 1f       	adc	r31, r25
    5796:	2d e2       	ldi	r18, 0x2D	; 45
    5798:	20 83       	st	Z, r18
    579a:	d8 01       	movw	r26, r16
    579c:	16 96       	adiw	r26, 0x06	; 6
    579e:	ad 90       	ld	r10, X+
    57a0:	bc 90       	ld	r11, X
    57a2:	17 97       	sbiw	r26, 0x07	; 7
    57a4:	c9 80       	ldd	r12, Y+1	; 0x01
    57a6:	da 80       	ldd	r13, Y+2	; 0x02
    57a8:	eb 80       	ldd	r14, Y+3	; 0x03
    57aa:	fc 80       	ldd	r15, Y+4	; 0x04
    57ac:	b7 01       	movw	r22, r14
    57ae:	a6 01       	movw	r20, r12
    57b0:	4f 5f       	subi	r20, 0xFF	; 255
    57b2:	5f 4f       	sbci	r21, 0xFF	; 255
    57b4:	6f 4f       	sbci	r22, 0xFF	; 255
    57b6:	7f 4f       	sbci	r23, 0xFF	; 255
    57b8:	49 83       	std	Y+1, r20	; 0x01
    57ba:	5a 83       	std	Y+2, r21	; 0x02
    57bc:	6b 83       	std	Y+3, r22	; 0x03
    57be:	7c 83       	std	Y+4, r23	; 0x04
    57c0:	6d 81       	ldd	r22, Y+5	; 0x05
    57c2:	7e 81       	ldd	r23, Y+6	; 0x06
    57c4:	8f 81       	ldd	r24, Y+7	; 0x07
    57c6:	98 85       	ldd	r25, Y+8	; 0x08
    57c8:	ac 0c       	add	r10, r12
    57ca:	bd 1c       	adc	r11, r13
    57cc:	28 ee       	ldi	r18, 0xE8	; 232
    57ce:	33 e0       	ldi	r19, 0x03	; 3
    57d0:	40 e0       	ldi	r20, 0x00	; 0
    57d2:	50 e0       	ldi	r21, 0x00	; 0
    57d4:	0e 94 27 34 	call	0x684e	; 0x684e <__divmodsi4>
    57d8:	0f 2e       	mov	r0, r31
    57da:	fa e0       	ldi	r31, 0x0A	; 10
    57dc:	cf 2e       	mov	r12, r31
    57de:	d1 2c       	mov	r13, r1
    57e0:	e1 2c       	mov	r14, r1
    57e2:	f1 2c       	mov	r15, r1
    57e4:	f0 2d       	mov	r31, r0
    57e6:	ca 01       	movw	r24, r20
    57e8:	b9 01       	movw	r22, r18
    57ea:	a7 01       	movw	r20, r14
    57ec:	96 01       	movw	r18, r12
    57ee:	0e 94 27 34 	call	0x684e	; 0x684e <__divmodsi4>
    57f2:	60 5d       	subi	r22, 0xD0	; 208
    57f4:	f5 01       	movw	r30, r10
    57f6:	60 83       	st	Z, r22
    57f8:	d8 01       	movw	r26, r16
    57fa:	16 96       	adiw	r26, 0x06	; 6
    57fc:	ad 90       	ld	r10, X+
    57fe:	bc 90       	ld	r11, X
    5800:	17 97       	sbiw	r26, 0x07	; 7
    5802:	49 80       	ldd	r4, Y+1	; 0x01
    5804:	5a 80       	ldd	r5, Y+2	; 0x02
    5806:	6b 80       	ldd	r6, Y+3	; 0x03
    5808:	7c 80       	ldd	r7, Y+4	; 0x04
    580a:	b3 01       	movw	r22, r6
    580c:	a2 01       	movw	r20, r4
    580e:	4f 5f       	subi	r20, 0xFF	; 255
    5810:	5f 4f       	sbci	r21, 0xFF	; 255
    5812:	6f 4f       	sbci	r22, 0xFF	; 255
    5814:	7f 4f       	sbci	r23, 0xFF	; 255
    5816:	49 83       	std	Y+1, r20	; 0x01
    5818:	5a 83       	std	Y+2, r21	; 0x02
    581a:	6b 83       	std	Y+3, r22	; 0x03
    581c:	7c 83       	std	Y+4, r23	; 0x04
    581e:	6d 81       	ldd	r22, Y+5	; 0x05
    5820:	7e 81       	ldd	r23, Y+6	; 0x06
    5822:	8f 81       	ldd	r24, Y+7	; 0x07
    5824:	98 85       	ldd	r25, Y+8	; 0x08
    5826:	a4 0c       	add	r10, r4
    5828:	b5 1c       	adc	r11, r5
    582a:	24 e6       	ldi	r18, 0x64	; 100
    582c:	30 e0       	ldi	r19, 0x00	; 0
    582e:	40 e0       	ldi	r20, 0x00	; 0
    5830:	50 e0       	ldi	r21, 0x00	; 0
    5832:	0e 94 27 34 	call	0x684e	; 0x684e <__divmodsi4>
    5836:	ca 01       	movw	r24, r20
    5838:	b9 01       	movw	r22, r18
    583a:	a7 01       	movw	r20, r14
    583c:	96 01       	movw	r18, r12
    583e:	0e 94 27 34 	call	0x684e	; 0x684e <__divmodsi4>
    5842:	60 5d       	subi	r22, 0xD0	; 208
    5844:	f5 01       	movw	r30, r10
    5846:	60 83       	st	Z, r22
    5848:	d8 01       	movw	r26, r16
    584a:	16 96       	adiw	r26, 0x06	; 6
    584c:	ad 90       	ld	r10, X+
    584e:	bc 90       	ld	r11, X
    5850:	17 97       	sbiw	r26, 0x07	; 7
    5852:	49 80       	ldd	r4, Y+1	; 0x01
    5854:	5a 80       	ldd	r5, Y+2	; 0x02
    5856:	6b 80       	ldd	r6, Y+3	; 0x03
    5858:	7c 80       	ldd	r7, Y+4	; 0x04
    585a:	b3 01       	movw	r22, r6
    585c:	a2 01       	movw	r20, r4
    585e:	4f 5f       	subi	r20, 0xFF	; 255
    5860:	5f 4f       	sbci	r21, 0xFF	; 255
    5862:	6f 4f       	sbci	r22, 0xFF	; 255
    5864:	7f 4f       	sbci	r23, 0xFF	; 255
    5866:	49 83       	std	Y+1, r20	; 0x01
    5868:	5a 83       	std	Y+2, r21	; 0x02
    586a:	6b 83       	std	Y+3, r22	; 0x03
    586c:	7c 83       	std	Y+4, r23	; 0x04
    586e:	6d 81       	ldd	r22, Y+5	; 0x05
    5870:	7e 81       	ldd	r23, Y+6	; 0x06
    5872:	8f 81       	ldd	r24, Y+7	; 0x07
    5874:	98 85       	ldd	r25, Y+8	; 0x08
    5876:	a4 0c       	add	r10, r4
    5878:	b5 1c       	adc	r11, r5
    587a:	a7 01       	movw	r20, r14
    587c:	96 01       	movw	r18, r12
    587e:	e7 d7       	rcall	.+4046   	; 0x684e <__divmodsi4>
    5880:	ca 01       	movw	r24, r20
    5882:	b9 01       	movw	r22, r18
    5884:	a7 01       	movw	r20, r14
    5886:	96 01       	movw	r18, r12
    5888:	e2 d7       	rcall	.+4036   	; 0x684e <__divmodsi4>
    588a:	60 5d       	subi	r22, 0xD0	; 208
    588c:	f5 01       	movw	r30, r10
    588e:	60 83       	st	Z, r22
    5890:	d8 01       	movw	r26, r16
    5892:	16 96       	adiw	r26, 0x06	; 6
    5894:	ad 90       	ld	r10, X+
    5896:	bc 90       	ld	r11, X
    5898:	17 97       	sbiw	r26, 0x07	; 7
    589a:	49 80       	ldd	r4, Y+1	; 0x01
    589c:	5a 80       	ldd	r5, Y+2	; 0x02
    589e:	6b 80       	ldd	r6, Y+3	; 0x03
    58a0:	7c 80       	ldd	r7, Y+4	; 0x04
    58a2:	b3 01       	movw	r22, r6
    58a4:	a2 01       	movw	r20, r4
    58a6:	4f 5f       	subi	r20, 0xFF	; 255
    58a8:	5f 4f       	sbci	r21, 0xFF	; 255
    58aa:	6f 4f       	sbci	r22, 0xFF	; 255
    58ac:	7f 4f       	sbci	r23, 0xFF	; 255
    58ae:	49 83       	std	Y+1, r20	; 0x01
    58b0:	5a 83       	std	Y+2, r21	; 0x02
    58b2:	6b 83       	std	Y+3, r22	; 0x03
    58b4:	7c 83       	std	Y+4, r23	; 0x04
    58b6:	6d 81       	ldd	r22, Y+5	; 0x05
    58b8:	7e 81       	ldd	r23, Y+6	; 0x06
    58ba:	8f 81       	ldd	r24, Y+7	; 0x07
    58bc:	98 85       	ldd	r25, Y+8	; 0x08
    58be:	a4 0c       	add	r10, r4
    58c0:	b5 1c       	adc	r11, r5
    58c2:	a7 01       	movw	r20, r14
    58c4:	96 01       	movw	r18, r12
    58c6:	c3 d7       	rcall	.+3974   	; 0x684e <__divmodsi4>
    58c8:	60 5d       	subi	r22, 0xD0	; 208
    58ca:	f5 01       	movw	r30, r10
    58cc:	60 83       	st	Z, r22
    58ce:	d8 01       	movw	r26, r16
    58d0:	16 96       	adiw	r26, 0x06	; 6
    58d2:	2d 91       	ld	r18, X+
    58d4:	3c 91       	ld	r19, X
    58d6:	17 97       	sbiw	r26, 0x07	; 7
    58d8:	89 81       	ldd	r24, Y+1	; 0x01
    58da:	9a 81       	ldd	r25, Y+2	; 0x02
    58dc:	ab 81       	ldd	r26, Y+3	; 0x03
    58de:	bc 81       	ldd	r27, Y+4	; 0x04
    58e0:	ac 01       	movw	r20, r24
    58e2:	bd 01       	movw	r22, r26
    58e4:	4f 5f       	subi	r20, 0xFF	; 255
    58e6:	5f 4f       	sbci	r21, 0xFF	; 255
    58e8:	6f 4f       	sbci	r22, 0xFF	; 255
    58ea:	7f 4f       	sbci	r23, 0xFF	; 255
    58ec:	49 83       	std	Y+1, r20	; 0x01
    58ee:	5a 83       	std	Y+2, r21	; 0x02
    58f0:	6b 83       	std	Y+3, r22	; 0x03
    58f2:	7c 83       	std	Y+4, r23	; 0x04
    58f4:	f9 01       	movw	r30, r18
    58f6:	e8 0f       	add	r30, r24
    58f8:	f9 1f       	adc	r31, r25
    58fa:	29 e0       	ldi	r18, 0x09	; 9
    58fc:	20 83       	st	Z, r18
    58fe:	d8 01       	movw	r26, r16
    5900:	ed 91       	ld	r30, X+
    5902:	fc 91       	ld	r31, X
    5904:	80 85       	ldd	r24, Z+8	; 0x08
    5906:	91 85       	ldd	r25, Z+9	; 0x09
    5908:	09 2e       	mov	r0, r25
    590a:	00 0c       	add	r0, r0
    590c:	aa 0b       	sbc	r26, r26
    590e:	bb 0b       	sbc	r27, r27
    5910:	8d 83       	std	Y+5, r24	; 0x05
    5912:	9e 83       	std	Y+6, r25	; 0x06
    5914:	af 83       	std	Y+7, r26	; 0x07
    5916:	b8 87       	std	Y+8, r27	; 0x08
    5918:	8d 81       	ldd	r24, Y+5	; 0x05
    591a:	9e 81       	ldd	r25, Y+6	; 0x06
    591c:	af 81       	ldd	r26, Y+7	; 0x07
    591e:	b8 85       	ldd	r27, Y+8	; 0x08
    5920:	bb 23       	and	r27, r27
    5922:	2c f5       	brge	.+74     	; 0x596e <__stack+0x196f>
    5924:	8d 81       	ldd	r24, Y+5	; 0x05
    5926:	9e 81       	ldd	r25, Y+6	; 0x06
    5928:	af 81       	ldd	r26, Y+7	; 0x07
    592a:	b8 85       	ldd	r27, Y+8	; 0x08
    592c:	b0 95       	com	r27
    592e:	a0 95       	com	r26
    5930:	90 95       	com	r25
    5932:	81 95       	neg	r24
    5934:	9f 4f       	sbci	r25, 0xFF	; 255
    5936:	af 4f       	sbci	r26, 0xFF	; 255
    5938:	bf 4f       	sbci	r27, 0xFF	; 255
    593a:	8d 83       	std	Y+5, r24	; 0x05
    593c:	9e 83       	std	Y+6, r25	; 0x06
    593e:	af 83       	std	Y+7, r26	; 0x07
    5940:	b8 87       	std	Y+8, r27	; 0x08
    5942:	f8 01       	movw	r30, r16
    5944:	26 81       	ldd	r18, Z+6	; 0x06
    5946:	37 81       	ldd	r19, Z+7	; 0x07
    5948:	89 81       	ldd	r24, Y+1	; 0x01
    594a:	9a 81       	ldd	r25, Y+2	; 0x02
    594c:	ab 81       	ldd	r26, Y+3	; 0x03
    594e:	bc 81       	ldd	r27, Y+4	; 0x04
    5950:	ac 01       	movw	r20, r24
    5952:	bd 01       	movw	r22, r26
    5954:	4f 5f       	subi	r20, 0xFF	; 255
    5956:	5f 4f       	sbci	r21, 0xFF	; 255
    5958:	6f 4f       	sbci	r22, 0xFF	; 255
    595a:	7f 4f       	sbci	r23, 0xFF	; 255
    595c:	49 83       	std	Y+1, r20	; 0x01
    595e:	5a 83       	std	Y+2, r21	; 0x02
    5960:	6b 83       	std	Y+3, r22	; 0x03
    5962:	7c 83       	std	Y+4, r23	; 0x04
    5964:	f9 01       	movw	r30, r18
    5966:	e8 0f       	add	r30, r24
    5968:	f9 1f       	adc	r31, r25
    596a:	2d e2       	ldi	r18, 0x2D	; 45
    596c:	20 83       	st	Z, r18
    596e:	d8 01       	movw	r26, r16
    5970:	16 96       	adiw	r26, 0x06	; 6
    5972:	ad 90       	ld	r10, X+
    5974:	bc 90       	ld	r11, X
    5976:	17 97       	sbiw	r26, 0x07	; 7
    5978:	c9 80       	ldd	r12, Y+1	; 0x01
    597a:	da 80       	ldd	r13, Y+2	; 0x02
    597c:	eb 80       	ldd	r14, Y+3	; 0x03
    597e:	fc 80       	ldd	r15, Y+4	; 0x04
    5980:	b7 01       	movw	r22, r14
    5982:	a6 01       	movw	r20, r12
    5984:	4f 5f       	subi	r20, 0xFF	; 255
    5986:	5f 4f       	sbci	r21, 0xFF	; 255
    5988:	6f 4f       	sbci	r22, 0xFF	; 255
    598a:	7f 4f       	sbci	r23, 0xFF	; 255
    598c:	49 83       	std	Y+1, r20	; 0x01
    598e:	5a 83       	std	Y+2, r21	; 0x02
    5990:	6b 83       	std	Y+3, r22	; 0x03
    5992:	7c 83       	std	Y+4, r23	; 0x04
    5994:	6d 81       	ldd	r22, Y+5	; 0x05
    5996:	7e 81       	ldd	r23, Y+6	; 0x06
    5998:	8f 81       	ldd	r24, Y+7	; 0x07
    599a:	98 85       	ldd	r25, Y+8	; 0x08
    599c:	ac 0c       	add	r10, r12
    599e:	bd 1c       	adc	r11, r13
    59a0:	28 ee       	ldi	r18, 0xE8	; 232
    59a2:	33 e0       	ldi	r19, 0x03	; 3
    59a4:	40 e0       	ldi	r20, 0x00	; 0
    59a6:	50 e0       	ldi	r21, 0x00	; 0
    59a8:	52 d7       	rcall	.+3748   	; 0x684e <__divmodsi4>
    59aa:	0f 2e       	mov	r0, r31
    59ac:	fa e0       	ldi	r31, 0x0A	; 10
    59ae:	cf 2e       	mov	r12, r31
    59b0:	d1 2c       	mov	r13, r1
    59b2:	e1 2c       	mov	r14, r1
    59b4:	f1 2c       	mov	r15, r1
    59b6:	f0 2d       	mov	r31, r0
    59b8:	ca 01       	movw	r24, r20
    59ba:	b9 01       	movw	r22, r18
    59bc:	a7 01       	movw	r20, r14
    59be:	96 01       	movw	r18, r12
    59c0:	46 d7       	rcall	.+3724   	; 0x684e <__divmodsi4>
    59c2:	60 5d       	subi	r22, 0xD0	; 208
    59c4:	f5 01       	movw	r30, r10
    59c6:	60 83       	st	Z, r22
    59c8:	d8 01       	movw	r26, r16
    59ca:	16 96       	adiw	r26, 0x06	; 6
    59cc:	ad 90       	ld	r10, X+
    59ce:	bc 90       	ld	r11, X
    59d0:	17 97       	sbiw	r26, 0x07	; 7
    59d2:	49 80       	ldd	r4, Y+1	; 0x01
    59d4:	5a 80       	ldd	r5, Y+2	; 0x02
    59d6:	6b 80       	ldd	r6, Y+3	; 0x03
    59d8:	7c 80       	ldd	r7, Y+4	; 0x04
    59da:	b3 01       	movw	r22, r6
    59dc:	a2 01       	movw	r20, r4
    59de:	4f 5f       	subi	r20, 0xFF	; 255
    59e0:	5f 4f       	sbci	r21, 0xFF	; 255
    59e2:	6f 4f       	sbci	r22, 0xFF	; 255
    59e4:	7f 4f       	sbci	r23, 0xFF	; 255
    59e6:	49 83       	std	Y+1, r20	; 0x01
    59e8:	5a 83       	std	Y+2, r21	; 0x02
    59ea:	6b 83       	std	Y+3, r22	; 0x03
    59ec:	7c 83       	std	Y+4, r23	; 0x04
    59ee:	6d 81       	ldd	r22, Y+5	; 0x05
    59f0:	7e 81       	ldd	r23, Y+6	; 0x06
    59f2:	8f 81       	ldd	r24, Y+7	; 0x07
    59f4:	98 85       	ldd	r25, Y+8	; 0x08
    59f6:	a4 0c       	add	r10, r4
    59f8:	b5 1c       	adc	r11, r5
    59fa:	24 e6       	ldi	r18, 0x64	; 100
    59fc:	30 e0       	ldi	r19, 0x00	; 0
    59fe:	40 e0       	ldi	r20, 0x00	; 0
    5a00:	50 e0       	ldi	r21, 0x00	; 0
    5a02:	25 d7       	rcall	.+3658   	; 0x684e <__divmodsi4>
    5a04:	ca 01       	movw	r24, r20
    5a06:	b9 01       	movw	r22, r18
    5a08:	a7 01       	movw	r20, r14
    5a0a:	96 01       	movw	r18, r12
    5a0c:	20 d7       	rcall	.+3648   	; 0x684e <__divmodsi4>
    5a0e:	60 5d       	subi	r22, 0xD0	; 208
    5a10:	f5 01       	movw	r30, r10
    5a12:	60 83       	st	Z, r22
    5a14:	d8 01       	movw	r26, r16
    5a16:	16 96       	adiw	r26, 0x06	; 6
    5a18:	ad 90       	ld	r10, X+
    5a1a:	bc 90       	ld	r11, X
    5a1c:	17 97       	sbiw	r26, 0x07	; 7
    5a1e:	49 80       	ldd	r4, Y+1	; 0x01
    5a20:	5a 80       	ldd	r5, Y+2	; 0x02
    5a22:	6b 80       	ldd	r6, Y+3	; 0x03
    5a24:	7c 80       	ldd	r7, Y+4	; 0x04
    5a26:	b3 01       	movw	r22, r6
    5a28:	a2 01       	movw	r20, r4
    5a2a:	4f 5f       	subi	r20, 0xFF	; 255
    5a2c:	5f 4f       	sbci	r21, 0xFF	; 255
    5a2e:	6f 4f       	sbci	r22, 0xFF	; 255
    5a30:	7f 4f       	sbci	r23, 0xFF	; 255
    5a32:	49 83       	std	Y+1, r20	; 0x01
    5a34:	5a 83       	std	Y+2, r21	; 0x02
    5a36:	6b 83       	std	Y+3, r22	; 0x03
    5a38:	7c 83       	std	Y+4, r23	; 0x04
    5a3a:	6d 81       	ldd	r22, Y+5	; 0x05
    5a3c:	7e 81       	ldd	r23, Y+6	; 0x06
    5a3e:	8f 81       	ldd	r24, Y+7	; 0x07
    5a40:	98 85       	ldd	r25, Y+8	; 0x08
    5a42:	a4 0c       	add	r10, r4
    5a44:	b5 1c       	adc	r11, r5
    5a46:	a7 01       	movw	r20, r14
    5a48:	96 01       	movw	r18, r12
    5a4a:	01 d7       	rcall	.+3586   	; 0x684e <__divmodsi4>
    5a4c:	ca 01       	movw	r24, r20
    5a4e:	b9 01       	movw	r22, r18
    5a50:	a7 01       	movw	r20, r14
    5a52:	96 01       	movw	r18, r12
    5a54:	fc d6       	rcall	.+3576   	; 0x684e <__divmodsi4>
    5a56:	60 5d       	subi	r22, 0xD0	; 208
    5a58:	f5 01       	movw	r30, r10
    5a5a:	60 83       	st	Z, r22
    5a5c:	d8 01       	movw	r26, r16
    5a5e:	16 96       	adiw	r26, 0x06	; 6
    5a60:	ad 90       	ld	r10, X+
    5a62:	bc 90       	ld	r11, X
    5a64:	17 97       	sbiw	r26, 0x07	; 7
    5a66:	49 80       	ldd	r4, Y+1	; 0x01
    5a68:	5a 80       	ldd	r5, Y+2	; 0x02
    5a6a:	6b 80       	ldd	r6, Y+3	; 0x03
    5a6c:	7c 80       	ldd	r7, Y+4	; 0x04
    5a6e:	b3 01       	movw	r22, r6
    5a70:	a2 01       	movw	r20, r4
    5a72:	4f 5f       	subi	r20, 0xFF	; 255
    5a74:	5f 4f       	sbci	r21, 0xFF	; 255
    5a76:	6f 4f       	sbci	r22, 0xFF	; 255
    5a78:	7f 4f       	sbci	r23, 0xFF	; 255
    5a7a:	49 83       	std	Y+1, r20	; 0x01
    5a7c:	5a 83       	std	Y+2, r21	; 0x02
    5a7e:	6b 83       	std	Y+3, r22	; 0x03
    5a80:	7c 83       	std	Y+4, r23	; 0x04
    5a82:	6d 81       	ldd	r22, Y+5	; 0x05
    5a84:	7e 81       	ldd	r23, Y+6	; 0x06
    5a86:	8f 81       	ldd	r24, Y+7	; 0x07
    5a88:	98 85       	ldd	r25, Y+8	; 0x08
    5a8a:	a4 0c       	add	r10, r4
    5a8c:	b5 1c       	adc	r11, r5
    5a8e:	a7 01       	movw	r20, r14
    5a90:	96 01       	movw	r18, r12
    5a92:	dd d6       	rcall	.+3514   	; 0x684e <__divmodsi4>
    5a94:	60 5d       	subi	r22, 0xD0	; 208
    5a96:	f5 01       	movw	r30, r10
    5a98:	60 83       	st	Z, r22
    5a9a:	d8 01       	movw	r26, r16
    5a9c:	16 96       	adiw	r26, 0x06	; 6
    5a9e:	2d 91       	ld	r18, X+
    5aa0:	3c 91       	ld	r19, X
    5aa2:	17 97       	sbiw	r26, 0x07	; 7
    5aa4:	89 81       	ldd	r24, Y+1	; 0x01
    5aa6:	9a 81       	ldd	r25, Y+2	; 0x02
    5aa8:	ab 81       	ldd	r26, Y+3	; 0x03
    5aaa:	bc 81       	ldd	r27, Y+4	; 0x04
    5aac:	ac 01       	movw	r20, r24
    5aae:	bd 01       	movw	r22, r26
    5ab0:	4f 5f       	subi	r20, 0xFF	; 255
    5ab2:	5f 4f       	sbci	r21, 0xFF	; 255
    5ab4:	6f 4f       	sbci	r22, 0xFF	; 255
    5ab6:	7f 4f       	sbci	r23, 0xFF	; 255
    5ab8:	49 83       	std	Y+1, r20	; 0x01
    5aba:	5a 83       	std	Y+2, r21	; 0x02
    5abc:	6b 83       	std	Y+3, r22	; 0x03
    5abe:	7c 83       	std	Y+4, r23	; 0x04
    5ac0:	f9 01       	movw	r30, r18
    5ac2:	e8 0f       	add	r30, r24
    5ac4:	f9 1f       	adc	r31, r25
    5ac6:	29 e0       	ldi	r18, 0x09	; 9
    5ac8:	20 83       	st	Z, r18
    5aca:	d8 01       	movw	r26, r16
    5acc:	ed 91       	ld	r30, X+
    5ace:	fc 91       	ld	r31, X
    5ad0:	82 85       	ldd	r24, Z+10	; 0x0a
    5ad2:	93 85       	ldd	r25, Z+11	; 0x0b
    5ad4:	09 2e       	mov	r0, r25
    5ad6:	00 0c       	add	r0, r0
    5ad8:	aa 0b       	sbc	r26, r26
    5ada:	bb 0b       	sbc	r27, r27
    5adc:	8d 83       	std	Y+5, r24	; 0x05
    5ade:	9e 83       	std	Y+6, r25	; 0x06
    5ae0:	af 83       	std	Y+7, r26	; 0x07
    5ae2:	b8 87       	std	Y+8, r27	; 0x08
    5ae4:	8d 81       	ldd	r24, Y+5	; 0x05
    5ae6:	9e 81       	ldd	r25, Y+6	; 0x06
    5ae8:	af 81       	ldd	r26, Y+7	; 0x07
    5aea:	b8 85       	ldd	r27, Y+8	; 0x08
    5aec:	bb 23       	and	r27, r27
    5aee:	2c f5       	brge	.+74     	; 0x5b3a <__stack+0x1b3b>
    5af0:	8d 81       	ldd	r24, Y+5	; 0x05
    5af2:	9e 81       	ldd	r25, Y+6	; 0x06
    5af4:	af 81       	ldd	r26, Y+7	; 0x07
    5af6:	b8 85       	ldd	r27, Y+8	; 0x08
    5af8:	b0 95       	com	r27
    5afa:	a0 95       	com	r26
    5afc:	90 95       	com	r25
    5afe:	81 95       	neg	r24
    5b00:	9f 4f       	sbci	r25, 0xFF	; 255
    5b02:	af 4f       	sbci	r26, 0xFF	; 255
    5b04:	bf 4f       	sbci	r27, 0xFF	; 255
    5b06:	8d 83       	std	Y+5, r24	; 0x05
    5b08:	9e 83       	std	Y+6, r25	; 0x06
    5b0a:	af 83       	std	Y+7, r26	; 0x07
    5b0c:	b8 87       	std	Y+8, r27	; 0x08
    5b0e:	f8 01       	movw	r30, r16
    5b10:	26 81       	ldd	r18, Z+6	; 0x06
    5b12:	37 81       	ldd	r19, Z+7	; 0x07
    5b14:	89 81       	ldd	r24, Y+1	; 0x01
    5b16:	9a 81       	ldd	r25, Y+2	; 0x02
    5b18:	ab 81       	ldd	r26, Y+3	; 0x03
    5b1a:	bc 81       	ldd	r27, Y+4	; 0x04
    5b1c:	ac 01       	movw	r20, r24
    5b1e:	bd 01       	movw	r22, r26
    5b20:	4f 5f       	subi	r20, 0xFF	; 255
    5b22:	5f 4f       	sbci	r21, 0xFF	; 255
    5b24:	6f 4f       	sbci	r22, 0xFF	; 255
    5b26:	7f 4f       	sbci	r23, 0xFF	; 255
    5b28:	49 83       	std	Y+1, r20	; 0x01
    5b2a:	5a 83       	std	Y+2, r21	; 0x02
    5b2c:	6b 83       	std	Y+3, r22	; 0x03
    5b2e:	7c 83       	std	Y+4, r23	; 0x04
    5b30:	f9 01       	movw	r30, r18
    5b32:	e8 0f       	add	r30, r24
    5b34:	f9 1f       	adc	r31, r25
    5b36:	2d e2       	ldi	r18, 0x2D	; 45
    5b38:	20 83       	st	Z, r18
    5b3a:	d8 01       	movw	r26, r16
    5b3c:	16 96       	adiw	r26, 0x06	; 6
    5b3e:	ad 90       	ld	r10, X+
    5b40:	bc 90       	ld	r11, X
    5b42:	17 97       	sbiw	r26, 0x07	; 7
    5b44:	c9 80       	ldd	r12, Y+1	; 0x01
    5b46:	da 80       	ldd	r13, Y+2	; 0x02
    5b48:	eb 80       	ldd	r14, Y+3	; 0x03
    5b4a:	fc 80       	ldd	r15, Y+4	; 0x04
    5b4c:	b7 01       	movw	r22, r14
    5b4e:	a6 01       	movw	r20, r12
    5b50:	4f 5f       	subi	r20, 0xFF	; 255
    5b52:	5f 4f       	sbci	r21, 0xFF	; 255
    5b54:	6f 4f       	sbci	r22, 0xFF	; 255
    5b56:	7f 4f       	sbci	r23, 0xFF	; 255
    5b58:	49 83       	std	Y+1, r20	; 0x01
    5b5a:	5a 83       	std	Y+2, r21	; 0x02
    5b5c:	6b 83       	std	Y+3, r22	; 0x03
    5b5e:	7c 83       	std	Y+4, r23	; 0x04
    5b60:	6d 81       	ldd	r22, Y+5	; 0x05
    5b62:	7e 81       	ldd	r23, Y+6	; 0x06
    5b64:	8f 81       	ldd	r24, Y+7	; 0x07
    5b66:	98 85       	ldd	r25, Y+8	; 0x08
    5b68:	ac 0c       	add	r10, r12
    5b6a:	bd 1c       	adc	r11, r13
    5b6c:	28 ee       	ldi	r18, 0xE8	; 232
    5b6e:	33 e0       	ldi	r19, 0x03	; 3
    5b70:	40 e0       	ldi	r20, 0x00	; 0
    5b72:	50 e0       	ldi	r21, 0x00	; 0
    5b74:	6c d6       	rcall	.+3288   	; 0x684e <__divmodsi4>
    5b76:	0f 2e       	mov	r0, r31
    5b78:	fa e0       	ldi	r31, 0x0A	; 10
    5b7a:	cf 2e       	mov	r12, r31
    5b7c:	d1 2c       	mov	r13, r1
    5b7e:	e1 2c       	mov	r14, r1
    5b80:	f1 2c       	mov	r15, r1
    5b82:	f0 2d       	mov	r31, r0
    5b84:	ca 01       	movw	r24, r20
    5b86:	b9 01       	movw	r22, r18
    5b88:	a7 01       	movw	r20, r14
    5b8a:	96 01       	movw	r18, r12
    5b8c:	60 d6       	rcall	.+3264   	; 0x684e <__divmodsi4>
    5b8e:	60 5d       	subi	r22, 0xD0	; 208
    5b90:	f5 01       	movw	r30, r10
    5b92:	60 83       	st	Z, r22
    5b94:	d8 01       	movw	r26, r16
    5b96:	16 96       	adiw	r26, 0x06	; 6
    5b98:	ad 90       	ld	r10, X+
    5b9a:	bc 90       	ld	r11, X
    5b9c:	17 97       	sbiw	r26, 0x07	; 7
    5b9e:	49 80       	ldd	r4, Y+1	; 0x01
    5ba0:	5a 80       	ldd	r5, Y+2	; 0x02
    5ba2:	6b 80       	ldd	r6, Y+3	; 0x03
    5ba4:	7c 80       	ldd	r7, Y+4	; 0x04
    5ba6:	b3 01       	movw	r22, r6
    5ba8:	a2 01       	movw	r20, r4
    5baa:	4f 5f       	subi	r20, 0xFF	; 255
    5bac:	5f 4f       	sbci	r21, 0xFF	; 255
    5bae:	6f 4f       	sbci	r22, 0xFF	; 255
    5bb0:	7f 4f       	sbci	r23, 0xFF	; 255
    5bb2:	49 83       	std	Y+1, r20	; 0x01
    5bb4:	5a 83       	std	Y+2, r21	; 0x02
    5bb6:	6b 83       	std	Y+3, r22	; 0x03
    5bb8:	7c 83       	std	Y+4, r23	; 0x04
    5bba:	6d 81       	ldd	r22, Y+5	; 0x05
    5bbc:	7e 81       	ldd	r23, Y+6	; 0x06
    5bbe:	8f 81       	ldd	r24, Y+7	; 0x07
    5bc0:	98 85       	ldd	r25, Y+8	; 0x08
    5bc2:	a4 0c       	add	r10, r4
    5bc4:	b5 1c       	adc	r11, r5
    5bc6:	24 e6       	ldi	r18, 0x64	; 100
    5bc8:	30 e0       	ldi	r19, 0x00	; 0
    5bca:	40 e0       	ldi	r20, 0x00	; 0
    5bcc:	50 e0       	ldi	r21, 0x00	; 0
    5bce:	3f d6       	rcall	.+3198   	; 0x684e <__divmodsi4>
    5bd0:	ca 01       	movw	r24, r20
    5bd2:	b9 01       	movw	r22, r18
    5bd4:	a7 01       	movw	r20, r14
    5bd6:	96 01       	movw	r18, r12
    5bd8:	3a d6       	rcall	.+3188   	; 0x684e <__divmodsi4>
    5bda:	60 5d       	subi	r22, 0xD0	; 208
    5bdc:	f5 01       	movw	r30, r10
    5bde:	60 83       	st	Z, r22
    5be0:	d8 01       	movw	r26, r16
    5be2:	16 96       	adiw	r26, 0x06	; 6
    5be4:	ad 90       	ld	r10, X+
    5be6:	bc 90       	ld	r11, X
    5be8:	17 97       	sbiw	r26, 0x07	; 7
    5bea:	49 80       	ldd	r4, Y+1	; 0x01
    5bec:	5a 80       	ldd	r5, Y+2	; 0x02
    5bee:	6b 80       	ldd	r6, Y+3	; 0x03
    5bf0:	7c 80       	ldd	r7, Y+4	; 0x04
    5bf2:	b3 01       	movw	r22, r6
    5bf4:	a2 01       	movw	r20, r4
    5bf6:	4f 5f       	subi	r20, 0xFF	; 255
    5bf8:	5f 4f       	sbci	r21, 0xFF	; 255
    5bfa:	6f 4f       	sbci	r22, 0xFF	; 255
    5bfc:	7f 4f       	sbci	r23, 0xFF	; 255
    5bfe:	49 83       	std	Y+1, r20	; 0x01
    5c00:	5a 83       	std	Y+2, r21	; 0x02
    5c02:	6b 83       	std	Y+3, r22	; 0x03
    5c04:	7c 83       	std	Y+4, r23	; 0x04
    5c06:	6d 81       	ldd	r22, Y+5	; 0x05
    5c08:	7e 81       	ldd	r23, Y+6	; 0x06
    5c0a:	8f 81       	ldd	r24, Y+7	; 0x07
    5c0c:	98 85       	ldd	r25, Y+8	; 0x08
    5c0e:	a4 0c       	add	r10, r4
    5c10:	b5 1c       	adc	r11, r5
    5c12:	a7 01       	movw	r20, r14
    5c14:	96 01       	movw	r18, r12
    5c16:	1b d6       	rcall	.+3126   	; 0x684e <__divmodsi4>
    5c18:	ca 01       	movw	r24, r20
    5c1a:	b9 01       	movw	r22, r18
    5c1c:	a7 01       	movw	r20, r14
    5c1e:	96 01       	movw	r18, r12
    5c20:	16 d6       	rcall	.+3116   	; 0x684e <__divmodsi4>
    5c22:	60 5d       	subi	r22, 0xD0	; 208
    5c24:	f5 01       	movw	r30, r10
    5c26:	60 83       	st	Z, r22
    5c28:	d8 01       	movw	r26, r16
    5c2a:	16 96       	adiw	r26, 0x06	; 6
    5c2c:	ad 90       	ld	r10, X+
    5c2e:	bc 90       	ld	r11, X
    5c30:	17 97       	sbiw	r26, 0x07	; 7
    5c32:	49 80       	ldd	r4, Y+1	; 0x01
    5c34:	5a 80       	ldd	r5, Y+2	; 0x02
    5c36:	6b 80       	ldd	r6, Y+3	; 0x03
    5c38:	7c 80       	ldd	r7, Y+4	; 0x04
    5c3a:	b3 01       	movw	r22, r6
    5c3c:	a2 01       	movw	r20, r4
    5c3e:	4f 5f       	subi	r20, 0xFF	; 255
    5c40:	5f 4f       	sbci	r21, 0xFF	; 255
    5c42:	6f 4f       	sbci	r22, 0xFF	; 255
    5c44:	7f 4f       	sbci	r23, 0xFF	; 255
    5c46:	49 83       	std	Y+1, r20	; 0x01
    5c48:	5a 83       	std	Y+2, r21	; 0x02
    5c4a:	6b 83       	std	Y+3, r22	; 0x03
    5c4c:	7c 83       	std	Y+4, r23	; 0x04
    5c4e:	6d 81       	ldd	r22, Y+5	; 0x05
    5c50:	7e 81       	ldd	r23, Y+6	; 0x06
    5c52:	8f 81       	ldd	r24, Y+7	; 0x07
    5c54:	98 85       	ldd	r25, Y+8	; 0x08
    5c56:	a4 0c       	add	r10, r4
    5c58:	b5 1c       	adc	r11, r5
    5c5a:	a7 01       	movw	r20, r14
    5c5c:	96 01       	movw	r18, r12
    5c5e:	f7 d5       	rcall	.+3054   	; 0x684e <__divmodsi4>
    5c60:	60 5d       	subi	r22, 0xD0	; 208
    5c62:	f5 01       	movw	r30, r10
    5c64:	60 83       	st	Z, r22
    5c66:	d8 01       	movw	r26, r16
    5c68:	16 96       	adiw	r26, 0x06	; 6
    5c6a:	2d 91       	ld	r18, X+
    5c6c:	3c 91       	ld	r19, X
    5c6e:	17 97       	sbiw	r26, 0x07	; 7
    5c70:	89 81       	ldd	r24, Y+1	; 0x01
    5c72:	9a 81       	ldd	r25, Y+2	; 0x02
    5c74:	ab 81       	ldd	r26, Y+3	; 0x03
    5c76:	bc 81       	ldd	r27, Y+4	; 0x04
    5c78:	ac 01       	movw	r20, r24
    5c7a:	bd 01       	movw	r22, r26
    5c7c:	4f 5f       	subi	r20, 0xFF	; 255
    5c7e:	5f 4f       	sbci	r21, 0xFF	; 255
    5c80:	6f 4f       	sbci	r22, 0xFF	; 255
    5c82:	7f 4f       	sbci	r23, 0xFF	; 255
    5c84:	49 83       	std	Y+1, r20	; 0x01
    5c86:	5a 83       	std	Y+2, r21	; 0x02
    5c88:	6b 83       	std	Y+3, r22	; 0x03
    5c8a:	7c 83       	std	Y+4, r23	; 0x04
    5c8c:	f9 01       	movw	r30, r18
    5c8e:	e8 0f       	add	r30, r24
    5c90:	f9 1f       	adc	r31, r25
    5c92:	29 e0       	ldi	r18, 0x09	; 9
    5c94:	20 83       	st	Z, r18
    5c96:	d8 01       	movw	r26, r16
    5c98:	18 96       	adiw	r26, 0x08	; 8
    5c9a:	ed 91       	ld	r30, X+
    5c9c:	fc 91       	ld	r31, X
    5c9e:	19 97       	sbiw	r26, 0x09	; 9
    5ca0:	80 85       	ldd	r24, Z+8	; 0x08
    5ca2:	91 85       	ldd	r25, Z+9	; 0x09
    5ca4:	a2 85       	ldd	r26, Z+10	; 0x0a
    5ca6:	b3 85       	ldd	r27, Z+11	; 0x0b
    5ca8:	8d 83       	std	Y+5, r24	; 0x05
    5caa:	9e 83       	std	Y+6, r25	; 0x06
    5cac:	af 83       	std	Y+7, r26	; 0x07
    5cae:	b8 87       	std	Y+8, r27	; 0x08
    5cb0:	f8 01       	movw	r30, r16
    5cb2:	a6 80       	ldd	r10, Z+6	; 0x06
    5cb4:	b7 80       	ldd	r11, Z+7	; 0x07
    5cb6:	49 80       	ldd	r4, Y+1	; 0x01
    5cb8:	5a 80       	ldd	r5, Y+2	; 0x02
    5cba:	6b 80       	ldd	r6, Y+3	; 0x03
    5cbc:	7c 80       	ldd	r7, Y+4	; 0x04
    5cbe:	b3 01       	movw	r22, r6
    5cc0:	a2 01       	movw	r20, r4
    5cc2:	4f 5f       	subi	r20, 0xFF	; 255
    5cc4:	5f 4f       	sbci	r21, 0xFF	; 255
    5cc6:	6f 4f       	sbci	r22, 0xFF	; 255
    5cc8:	7f 4f       	sbci	r23, 0xFF	; 255
    5cca:	49 83       	std	Y+1, r20	; 0x01
    5ccc:	5a 83       	std	Y+2, r21	; 0x02
    5cce:	6b 83       	std	Y+3, r22	; 0x03
    5cd0:	7c 83       	std	Y+4, r23	; 0x04
    5cd2:	6d 81       	ldd	r22, Y+5	; 0x05
    5cd4:	7e 81       	ldd	r23, Y+6	; 0x06
    5cd6:	8f 81       	ldd	r24, Y+7	; 0x07
    5cd8:	98 85       	ldd	r25, Y+8	; 0x08
    5cda:	a4 0c       	add	r10, r4
    5cdc:	b5 1c       	adc	r11, r5
    5cde:	20 e8       	ldi	r18, 0x80	; 128
    5ce0:	36 e9       	ldi	r19, 0x96	; 150
    5ce2:	48 e9       	ldi	r20, 0x98	; 152
    5ce4:	50 e0       	ldi	r21, 0x00	; 0
    5ce6:	b3 d5       	rcall	.+2918   	; 0x684e <__divmodsi4>
    5ce8:	ca 01       	movw	r24, r20
    5cea:	b9 01       	movw	r22, r18
    5cec:	a7 01       	movw	r20, r14
    5cee:	96 01       	movw	r18, r12
    5cf0:	ae d5       	rcall	.+2908   	; 0x684e <__divmodsi4>
    5cf2:	60 5d       	subi	r22, 0xD0	; 208
    5cf4:	d5 01       	movw	r26, r10
    5cf6:	6c 93       	st	X, r22
    5cf8:	f8 01       	movw	r30, r16
    5cfa:	a6 80       	ldd	r10, Z+6	; 0x06
    5cfc:	b7 80       	ldd	r11, Z+7	; 0x07
    5cfe:	49 80       	ldd	r4, Y+1	; 0x01
    5d00:	5a 80       	ldd	r5, Y+2	; 0x02
    5d02:	6b 80       	ldd	r6, Y+3	; 0x03
    5d04:	7c 80       	ldd	r7, Y+4	; 0x04
    5d06:	b3 01       	movw	r22, r6
    5d08:	a2 01       	movw	r20, r4
    5d0a:	4f 5f       	subi	r20, 0xFF	; 255
    5d0c:	5f 4f       	sbci	r21, 0xFF	; 255
    5d0e:	6f 4f       	sbci	r22, 0xFF	; 255
    5d10:	7f 4f       	sbci	r23, 0xFF	; 255
    5d12:	49 83       	std	Y+1, r20	; 0x01
    5d14:	5a 83       	std	Y+2, r21	; 0x02
    5d16:	6b 83       	std	Y+3, r22	; 0x03
    5d18:	7c 83       	std	Y+4, r23	; 0x04
    5d1a:	6d 81       	ldd	r22, Y+5	; 0x05
    5d1c:	7e 81       	ldd	r23, Y+6	; 0x06
    5d1e:	8f 81       	ldd	r24, Y+7	; 0x07
    5d20:	98 85       	ldd	r25, Y+8	; 0x08
    5d22:	a4 0c       	add	r10, r4
    5d24:	b5 1c       	adc	r11, r5
    5d26:	20 e4       	ldi	r18, 0x40	; 64
    5d28:	32 e4       	ldi	r19, 0x42	; 66
    5d2a:	4f e0       	ldi	r20, 0x0F	; 15
    5d2c:	50 e0       	ldi	r21, 0x00	; 0
    5d2e:	8f d5       	rcall	.+2846   	; 0x684e <__divmodsi4>
    5d30:	ca 01       	movw	r24, r20
    5d32:	b9 01       	movw	r22, r18
    5d34:	a7 01       	movw	r20, r14
    5d36:	96 01       	movw	r18, r12
    5d38:	8a d5       	rcall	.+2836   	; 0x684e <__divmodsi4>
    5d3a:	60 5d       	subi	r22, 0xD0	; 208
    5d3c:	d5 01       	movw	r26, r10
    5d3e:	6c 93       	st	X, r22
    5d40:	f8 01       	movw	r30, r16
    5d42:	a6 80       	ldd	r10, Z+6	; 0x06
    5d44:	b7 80       	ldd	r11, Z+7	; 0x07
    5d46:	49 80       	ldd	r4, Y+1	; 0x01
    5d48:	5a 80       	ldd	r5, Y+2	; 0x02
    5d4a:	6b 80       	ldd	r6, Y+3	; 0x03
    5d4c:	7c 80       	ldd	r7, Y+4	; 0x04
    5d4e:	b3 01       	movw	r22, r6
    5d50:	a2 01       	movw	r20, r4
    5d52:	4f 5f       	subi	r20, 0xFF	; 255
    5d54:	5f 4f       	sbci	r21, 0xFF	; 255
    5d56:	6f 4f       	sbci	r22, 0xFF	; 255
    5d58:	7f 4f       	sbci	r23, 0xFF	; 255
    5d5a:	49 83       	std	Y+1, r20	; 0x01
    5d5c:	5a 83       	std	Y+2, r21	; 0x02
    5d5e:	6b 83       	std	Y+3, r22	; 0x03
    5d60:	7c 83       	std	Y+4, r23	; 0x04
    5d62:	6d 81       	ldd	r22, Y+5	; 0x05
    5d64:	7e 81       	ldd	r23, Y+6	; 0x06
    5d66:	8f 81       	ldd	r24, Y+7	; 0x07
    5d68:	98 85       	ldd	r25, Y+8	; 0x08
    5d6a:	a4 0c       	add	r10, r4
    5d6c:	b5 1c       	adc	r11, r5
    5d6e:	20 ea       	ldi	r18, 0xA0	; 160
    5d70:	36 e8       	ldi	r19, 0x86	; 134
    5d72:	41 e0       	ldi	r20, 0x01	; 1
    5d74:	50 e0       	ldi	r21, 0x00	; 0
    5d76:	6b d5       	rcall	.+2774   	; 0x684e <__divmodsi4>
    5d78:	ca 01       	movw	r24, r20
    5d7a:	b9 01       	movw	r22, r18
    5d7c:	a7 01       	movw	r20, r14
    5d7e:	96 01       	movw	r18, r12
    5d80:	66 d5       	rcall	.+2764   	; 0x684e <__divmodsi4>
    5d82:	60 5d       	subi	r22, 0xD0	; 208
    5d84:	d5 01       	movw	r26, r10
    5d86:	6c 93       	st	X, r22
    5d88:	f8 01       	movw	r30, r16
    5d8a:	a6 80       	ldd	r10, Z+6	; 0x06
    5d8c:	b7 80       	ldd	r11, Z+7	; 0x07
    5d8e:	49 80       	ldd	r4, Y+1	; 0x01
    5d90:	5a 80       	ldd	r5, Y+2	; 0x02
    5d92:	6b 80       	ldd	r6, Y+3	; 0x03
    5d94:	7c 80       	ldd	r7, Y+4	; 0x04
    5d96:	b3 01       	movw	r22, r6
    5d98:	a2 01       	movw	r20, r4
    5d9a:	4f 5f       	subi	r20, 0xFF	; 255
    5d9c:	5f 4f       	sbci	r21, 0xFF	; 255
    5d9e:	6f 4f       	sbci	r22, 0xFF	; 255
    5da0:	7f 4f       	sbci	r23, 0xFF	; 255
    5da2:	49 83       	std	Y+1, r20	; 0x01
    5da4:	5a 83       	std	Y+2, r21	; 0x02
    5da6:	6b 83       	std	Y+3, r22	; 0x03
    5da8:	7c 83       	std	Y+4, r23	; 0x04
    5daa:	6d 81       	ldd	r22, Y+5	; 0x05
    5dac:	7e 81       	ldd	r23, Y+6	; 0x06
    5dae:	8f 81       	ldd	r24, Y+7	; 0x07
    5db0:	98 85       	ldd	r25, Y+8	; 0x08
    5db2:	a4 0c       	add	r10, r4
    5db4:	b5 1c       	adc	r11, r5
    5db6:	20 e1       	ldi	r18, 0x10	; 16
    5db8:	37 e2       	ldi	r19, 0x27	; 39
    5dba:	40 e0       	ldi	r20, 0x00	; 0
    5dbc:	50 e0       	ldi	r21, 0x00	; 0
    5dbe:	47 d5       	rcall	.+2702   	; 0x684e <__divmodsi4>
    5dc0:	ca 01       	movw	r24, r20
    5dc2:	b9 01       	movw	r22, r18
    5dc4:	a7 01       	movw	r20, r14
    5dc6:	96 01       	movw	r18, r12
    5dc8:	42 d5       	rcall	.+2692   	; 0x684e <__divmodsi4>
    5dca:	60 5d       	subi	r22, 0xD0	; 208
    5dcc:	d5 01       	movw	r26, r10
    5dce:	6c 93       	st	X, r22
    5dd0:	f8 01       	movw	r30, r16
    5dd2:	a6 80       	ldd	r10, Z+6	; 0x06
    5dd4:	b7 80       	ldd	r11, Z+7	; 0x07
    5dd6:	49 80       	ldd	r4, Y+1	; 0x01
    5dd8:	5a 80       	ldd	r5, Y+2	; 0x02
    5dda:	6b 80       	ldd	r6, Y+3	; 0x03
    5ddc:	7c 80       	ldd	r7, Y+4	; 0x04
    5dde:	b3 01       	movw	r22, r6
    5de0:	a2 01       	movw	r20, r4
    5de2:	4f 5f       	subi	r20, 0xFF	; 255
    5de4:	5f 4f       	sbci	r21, 0xFF	; 255
    5de6:	6f 4f       	sbci	r22, 0xFF	; 255
    5de8:	7f 4f       	sbci	r23, 0xFF	; 255
    5dea:	49 83       	std	Y+1, r20	; 0x01
    5dec:	5a 83       	std	Y+2, r21	; 0x02
    5dee:	6b 83       	std	Y+3, r22	; 0x03
    5df0:	7c 83       	std	Y+4, r23	; 0x04
    5df2:	6d 81       	ldd	r22, Y+5	; 0x05
    5df4:	7e 81       	ldd	r23, Y+6	; 0x06
    5df6:	8f 81       	ldd	r24, Y+7	; 0x07
    5df8:	98 85       	ldd	r25, Y+8	; 0x08
    5dfa:	a4 0c       	add	r10, r4
    5dfc:	b5 1c       	adc	r11, r5
    5dfe:	28 ee       	ldi	r18, 0xE8	; 232
    5e00:	33 e0       	ldi	r19, 0x03	; 3
    5e02:	40 e0       	ldi	r20, 0x00	; 0
    5e04:	50 e0       	ldi	r21, 0x00	; 0
    5e06:	23 d5       	rcall	.+2630   	; 0x684e <__divmodsi4>
    5e08:	ca 01       	movw	r24, r20
    5e0a:	b9 01       	movw	r22, r18
    5e0c:	a7 01       	movw	r20, r14
    5e0e:	96 01       	movw	r18, r12
    5e10:	1e d5       	rcall	.+2620   	; 0x684e <__divmodsi4>
    5e12:	60 5d       	subi	r22, 0xD0	; 208
    5e14:	d5 01       	movw	r26, r10
    5e16:	6c 93       	st	X, r22
    5e18:	f8 01       	movw	r30, r16
    5e1a:	a6 80       	ldd	r10, Z+6	; 0x06
    5e1c:	b7 80       	ldd	r11, Z+7	; 0x07
    5e1e:	49 80       	ldd	r4, Y+1	; 0x01
    5e20:	5a 80       	ldd	r5, Y+2	; 0x02
    5e22:	6b 80       	ldd	r6, Y+3	; 0x03
    5e24:	7c 80       	ldd	r7, Y+4	; 0x04
    5e26:	b3 01       	movw	r22, r6
    5e28:	a2 01       	movw	r20, r4
    5e2a:	4f 5f       	subi	r20, 0xFF	; 255
    5e2c:	5f 4f       	sbci	r21, 0xFF	; 255
    5e2e:	6f 4f       	sbci	r22, 0xFF	; 255
    5e30:	7f 4f       	sbci	r23, 0xFF	; 255
    5e32:	49 83       	std	Y+1, r20	; 0x01
    5e34:	5a 83       	std	Y+2, r21	; 0x02
    5e36:	6b 83       	std	Y+3, r22	; 0x03
    5e38:	7c 83       	std	Y+4, r23	; 0x04
    5e3a:	6d 81       	ldd	r22, Y+5	; 0x05
    5e3c:	7e 81       	ldd	r23, Y+6	; 0x06
    5e3e:	8f 81       	ldd	r24, Y+7	; 0x07
    5e40:	98 85       	ldd	r25, Y+8	; 0x08
    5e42:	a4 0c       	add	r10, r4
    5e44:	b5 1c       	adc	r11, r5
    5e46:	24 e6       	ldi	r18, 0x64	; 100
    5e48:	30 e0       	ldi	r19, 0x00	; 0
    5e4a:	40 e0       	ldi	r20, 0x00	; 0
    5e4c:	50 e0       	ldi	r21, 0x00	; 0
    5e4e:	ff d4       	rcall	.+2558   	; 0x684e <__divmodsi4>
    5e50:	ca 01       	movw	r24, r20
    5e52:	b9 01       	movw	r22, r18
    5e54:	a7 01       	movw	r20, r14
    5e56:	96 01       	movw	r18, r12
    5e58:	fa d4       	rcall	.+2548   	; 0x684e <__divmodsi4>
    5e5a:	60 5d       	subi	r22, 0xD0	; 208
    5e5c:	d5 01       	movw	r26, r10
    5e5e:	6c 93       	st	X, r22
    5e60:	f8 01       	movw	r30, r16
    5e62:	a6 80       	ldd	r10, Z+6	; 0x06
    5e64:	b7 80       	ldd	r11, Z+7	; 0x07
    5e66:	49 80       	ldd	r4, Y+1	; 0x01
    5e68:	5a 80       	ldd	r5, Y+2	; 0x02
    5e6a:	6b 80       	ldd	r6, Y+3	; 0x03
    5e6c:	7c 80       	ldd	r7, Y+4	; 0x04
    5e6e:	b3 01       	movw	r22, r6
    5e70:	a2 01       	movw	r20, r4
    5e72:	4f 5f       	subi	r20, 0xFF	; 255
    5e74:	5f 4f       	sbci	r21, 0xFF	; 255
    5e76:	6f 4f       	sbci	r22, 0xFF	; 255
    5e78:	7f 4f       	sbci	r23, 0xFF	; 255
    5e7a:	49 83       	std	Y+1, r20	; 0x01
    5e7c:	5a 83       	std	Y+2, r21	; 0x02
    5e7e:	6b 83       	std	Y+3, r22	; 0x03
    5e80:	7c 83       	std	Y+4, r23	; 0x04
    5e82:	6d 81       	ldd	r22, Y+5	; 0x05
    5e84:	7e 81       	ldd	r23, Y+6	; 0x06
    5e86:	8f 81       	ldd	r24, Y+7	; 0x07
    5e88:	98 85       	ldd	r25, Y+8	; 0x08
    5e8a:	a4 0c       	add	r10, r4
    5e8c:	b5 1c       	adc	r11, r5
    5e8e:	a7 01       	movw	r20, r14
    5e90:	96 01       	movw	r18, r12
    5e92:	dd d4       	rcall	.+2490   	; 0x684e <__divmodsi4>
    5e94:	ca 01       	movw	r24, r20
    5e96:	b9 01       	movw	r22, r18
    5e98:	a7 01       	movw	r20, r14
    5e9a:	96 01       	movw	r18, r12
    5e9c:	d8 d4       	rcall	.+2480   	; 0x684e <__divmodsi4>
    5e9e:	60 5d       	subi	r22, 0xD0	; 208
    5ea0:	d5 01       	movw	r26, r10
    5ea2:	6c 93       	st	X, r22
    5ea4:	f8 01       	movw	r30, r16
    5ea6:	a6 80       	ldd	r10, Z+6	; 0x06
    5ea8:	b7 80       	ldd	r11, Z+7	; 0x07
    5eaa:	49 80       	ldd	r4, Y+1	; 0x01
    5eac:	5a 80       	ldd	r5, Y+2	; 0x02
    5eae:	6b 80       	ldd	r6, Y+3	; 0x03
    5eb0:	7c 80       	ldd	r7, Y+4	; 0x04
    5eb2:	b3 01       	movw	r22, r6
    5eb4:	a2 01       	movw	r20, r4
    5eb6:	4f 5f       	subi	r20, 0xFF	; 255
    5eb8:	5f 4f       	sbci	r21, 0xFF	; 255
    5eba:	6f 4f       	sbci	r22, 0xFF	; 255
    5ebc:	7f 4f       	sbci	r23, 0xFF	; 255
    5ebe:	49 83       	std	Y+1, r20	; 0x01
    5ec0:	5a 83       	std	Y+2, r21	; 0x02
    5ec2:	6b 83       	std	Y+3, r22	; 0x03
    5ec4:	7c 83       	std	Y+4, r23	; 0x04
    5ec6:	6d 81       	ldd	r22, Y+5	; 0x05
    5ec8:	7e 81       	ldd	r23, Y+6	; 0x06
    5eca:	8f 81       	ldd	r24, Y+7	; 0x07
    5ecc:	98 85       	ldd	r25, Y+8	; 0x08
    5ece:	a4 0c       	add	r10, r4
    5ed0:	b5 1c       	adc	r11, r5
    5ed2:	a7 01       	movw	r20, r14
    5ed4:	96 01       	movw	r18, r12
    5ed6:	bb d4       	rcall	.+2422   	; 0x684e <__divmodsi4>
    5ed8:	60 5d       	subi	r22, 0xD0	; 208
    5eda:	d5 01       	movw	r26, r10
    5edc:	6c 93       	st	X, r22
    5ede:	f8 01       	movw	r30, r16
    5ee0:	26 81       	ldd	r18, Z+6	; 0x06
    5ee2:	37 81       	ldd	r19, Z+7	; 0x07
    5ee4:	89 81       	ldd	r24, Y+1	; 0x01
    5ee6:	9a 81       	ldd	r25, Y+2	; 0x02
    5ee8:	ab 81       	ldd	r26, Y+3	; 0x03
    5eea:	bc 81       	ldd	r27, Y+4	; 0x04
    5eec:	ac 01       	movw	r20, r24
    5eee:	bd 01       	movw	r22, r26
    5ef0:	4f 5f       	subi	r20, 0xFF	; 255
    5ef2:	5f 4f       	sbci	r21, 0xFF	; 255
    5ef4:	6f 4f       	sbci	r22, 0xFF	; 255
    5ef6:	7f 4f       	sbci	r23, 0xFF	; 255
    5ef8:	49 83       	std	Y+1, r20	; 0x01
    5efa:	5a 83       	std	Y+2, r21	; 0x02
    5efc:	6b 83       	std	Y+3, r22	; 0x03
    5efe:	7c 83       	std	Y+4, r23	; 0x04
    5f00:	f9 01       	movw	r30, r18
    5f02:	e8 0f       	add	r30, r24
    5f04:	f9 1f       	adc	r31, r25
    5f06:	2d e0       	ldi	r18, 0x0D	; 13
    5f08:	20 83       	st	Z, r18
    5f0a:	d8 01       	movw	r26, r16
    5f0c:	16 96       	adiw	r26, 0x06	; 6
    5f0e:	2d 91       	ld	r18, X+
    5f10:	3c 91       	ld	r19, X
    5f12:	17 97       	sbiw	r26, 0x07	; 7
    5f14:	89 81       	ldd	r24, Y+1	; 0x01
    5f16:	9a 81       	ldd	r25, Y+2	; 0x02
    5f18:	ab 81       	ldd	r26, Y+3	; 0x03
    5f1a:	bc 81       	ldd	r27, Y+4	; 0x04
    5f1c:	ac 01       	movw	r20, r24
    5f1e:	bd 01       	movw	r22, r26
    5f20:	4f 5f       	subi	r20, 0xFF	; 255
    5f22:	5f 4f       	sbci	r21, 0xFF	; 255
    5f24:	6f 4f       	sbci	r22, 0xFF	; 255
    5f26:	7f 4f       	sbci	r23, 0xFF	; 255
    5f28:	49 83       	std	Y+1, r20	; 0x01
    5f2a:	5a 83       	std	Y+2, r21	; 0x02
    5f2c:	6b 83       	std	Y+3, r22	; 0x03
    5f2e:	7c 83       	std	Y+4, r23	; 0x04
    5f30:	f9 01       	movw	r30, r18
    5f32:	e8 0f       	add	r30, r24
    5f34:	f9 1f       	adc	r31, r25
    5f36:	2a e0       	ldi	r18, 0x0A	; 10
    5f38:	20 83       	st	Z, r18
    5f3a:	f8 01       	movw	r30, r16
    5f3c:	26 81       	ldd	r18, Z+6	; 0x06
    5f3e:	37 81       	ldd	r19, Z+7	; 0x07
    5f40:	89 81       	ldd	r24, Y+1	; 0x01
    5f42:	9a 81       	ldd	r25, Y+2	; 0x02
    5f44:	ab 81       	ldd	r26, Y+3	; 0x03
    5f46:	bc 81       	ldd	r27, Y+4	; 0x04
    5f48:	ac 01       	movw	r20, r24
    5f4a:	bd 01       	movw	r22, r26
    5f4c:	4f 5f       	subi	r20, 0xFF	; 255
    5f4e:	5f 4f       	sbci	r21, 0xFF	; 255
    5f50:	6f 4f       	sbci	r22, 0xFF	; 255
    5f52:	7f 4f       	sbci	r23, 0xFF	; 255
    5f54:	49 83       	std	Y+1, r20	; 0x01
    5f56:	5a 83       	std	Y+2, r21	; 0x02
    5f58:	6b 83       	std	Y+3, r22	; 0x03
    5f5a:	7c 83       	std	Y+4, r23	; 0x04
    5f5c:	f9 01       	movw	r30, r18
    5f5e:	e8 0f       	add	r30, r24
    5f60:	f9 1f       	adc	r31, r25
    5f62:	10 82       	st	Z, r1
    5f64:	d8 01       	movw	r26, r16
    5f66:	16 96       	adiw	r26, 0x06	; 6
    5f68:	2d 91       	ld	r18, X+
    5f6a:	3c 91       	ld	r19, X
    5f6c:	17 97       	sbiw	r26, 0x07	; 7
    5f6e:	89 81       	ldd	r24, Y+1	; 0x01
    5f70:	9a 81       	ldd	r25, Y+2	; 0x02
    5f72:	ab 81       	ldd	r26, Y+3	; 0x03
    5f74:	bc 81       	ldd	r27, Y+4	; 0x04
    5f76:	ac 01       	movw	r20, r24
    5f78:	bd 01       	movw	r22, r26
    5f7a:	4f 5f       	subi	r20, 0xFF	; 255
    5f7c:	5f 4f       	sbci	r21, 0xFF	; 255
    5f7e:	6f 4f       	sbci	r22, 0xFF	; 255
    5f80:	7f 4f       	sbci	r23, 0xFF	; 255
    5f82:	49 83       	std	Y+1, r20	; 0x01
    5f84:	5a 83       	std	Y+2, r21	; 0x02
    5f86:	6b 83       	std	Y+3, r22	; 0x03
    5f88:	7c 83       	std	Y+4, r23	; 0x04
    5f8a:	f9 01       	movw	r30, r18
    5f8c:	e8 0f       	add	r30, r24
    5f8e:	f9 1f       	adc	r31, r25
    5f90:	28 e5       	ldi	r18, 0x58	; 88
    5f92:	20 83       	st	Z, r18
    5f94:	2c 96       	adiw	r28, 0x0c	; 12
    5f96:	cd bf       	out	0x3d, r28	; 61
    5f98:	de bf       	out	0x3e, r29	; 62
    5f9a:	df 91       	pop	r29
    5f9c:	cf 91       	pop	r28
    5f9e:	1f 91       	pop	r17
    5fa0:	0f 91       	pop	r16
    5fa2:	ff 90       	pop	r15
    5fa4:	ef 90       	pop	r14
    5fa6:	df 90       	pop	r13
    5fa8:	cf 90       	pop	r12
    5faa:	bf 90       	pop	r11
    5fac:	af 90       	pop	r10
    5fae:	7f 90       	pop	r7
    5fb0:	6f 90       	pop	r6
    5fb2:	5f 90       	pop	r5
    5fb4:	4f 90       	pop	r4
    5fb6:	08 95       	ret

00005fb8 <Ignition_active>:
    5fb8:	84 e0       	ldi	r24, 0x04	; 4
    5fba:	80 93 85 06 	sts	0x0685, r24
    5fbe:	08 95       	ret

00005fc0 <Ignition_inactive>:
    5fc0:	84 e0       	ldi	r24, 0x04	; 4
    5fc2:	80 93 86 06 	sts	0x0686, r24
    5fc6:	08 95       	ret

00005fc8 <MFV_valve_open>:
    5fc8:	82 e0       	ldi	r24, 0x02	; 2
    5fca:	80 93 85 06 	sts	0x0685, r24
    5fce:	08 95       	ret

00005fd0 <MFV_valve_close>:
    5fd0:	82 e0       	ldi	r24, 0x02	; 2
    5fd2:	80 93 86 06 	sts	0x0686, r24
    5fd6:	08 95       	ret

00005fd8 <MOV_valve_open>:
    5fd8:	81 e0       	ldi	r24, 0x01	; 1
    5fda:	80 93 85 06 	sts	0x0685, r24
    5fde:	08 95       	ret

00005fe0 <MOV_valve_close>:
    5fe0:	81 e0       	ldi	r24, 0x01	; 1
    5fe2:	80 93 86 06 	sts	0x0686, r24
    5fe6:	08 95       	ret

00005fe8 <MPV_valve_open>:
    5fe8:	81 e0       	ldi	r24, 0x01	; 1
    5fea:	80 93 e5 07 	sts	0x07E5, r24
    5fee:	08 95       	ret

00005ff0 <MPV_valve_close>:
    5ff0:	81 e0       	ldi	r24, 0x01	; 1
    5ff2:	80 93 e6 07 	sts	0x07E6, r24
    5ff6:	08 95       	ret

00005ff8 <FPV_valve_open>:
    5ff8:	82 e0       	ldi	r24, 0x02	; 2
    5ffa:	80 93 e5 07 	sts	0x07E5, r24
    5ffe:	08 95       	ret

00006000 <FPV_valve_close>:
    6000:	82 e0       	ldi	r24, 0x02	; 2
    6002:	80 93 e6 07 	sts	0x07E6, r24
    6006:	08 95       	ret

00006008 <SERVO_open>:
    6008:	e0 e6       	ldi	r30, 0x60	; 96
    600a:	f6 e0       	ldi	r31, 0x06	; 6
    600c:	80 e1       	ldi	r24, 0x10	; 16
    600e:	85 83       	std	Z+5, r24	; 0x05
    6010:	80 e2       	ldi	r24, 0x20	; 32
    6012:	86 83       	std	Z+6, r24	; 0x06
    6014:	08 95       	ret

00006016 <SERVO_close>:
    6016:	e0 e6       	ldi	r30, 0x60	; 96
    6018:	f6 e0       	ldi	r31, 0x06	; 6
    601a:	80 e1       	ldi	r24, 0x10	; 16
    601c:	86 83       	std	Z+6, r24	; 0x06
    601e:	80 e2       	ldi	r24, 0x20	; 32
    6020:	85 83       	std	Z+5, r24	; 0x05
    6022:	08 95       	ret

00006024 <Buzzer_active>:
    6024:	81 e0       	ldi	r24, 0x01	; 1
    6026:	80 93 65 06 	sts	0x0665, r24
    602a:	08 95       	ret

0000602c <Buzzer_inactive>:
    602c:	81 e0       	ldi	r24, 0x01	; 1
    602e:	80 93 66 06 	sts	0x0666, r24
    6032:	08 95       	ret

00006034 <Light_Green>:
    6034:	80 e8       	ldi	r24, 0x80	; 128
    6036:	80 93 05 06 	sts	0x0605, r24
    603a:	08 95       	ret

0000603c <Light_Red>:
    603c:	80 e8       	ldi	r24, 0x80	; 128
    603e:	80 93 06 06 	sts	0x0606, r24
    6042:	08 95       	ret

00006044 <CheckOutputState>:
    6044:	cf 93       	push	r28
    6046:	df 93       	push	r29
    6048:	fc 01       	movw	r30, r24
    604a:	a0 e8       	ldi	r26, 0x80	; 128
    604c:	b6 e0       	ldi	r27, 0x06	; 6
    604e:	18 96       	adiw	r26, 0x08	; 8
    6050:	8c 91       	ld	r24, X
    6052:	18 97       	sbiw	r26, 0x08	; 8
    6054:	81 70       	andi	r24, 0x01	; 1
    6056:	86 87       	std	Z+14, r24	; 0x0e
    6058:	18 96       	adiw	r26, 0x08	; 8
    605a:	8c 91       	ld	r24, X
    605c:	18 97       	sbiw	r26, 0x08	; 8
    605e:	86 95       	lsr	r24
    6060:	81 70       	andi	r24, 0x01	; 1
    6062:	85 87       	std	Z+13, r24	; 0x0d
    6064:	c0 ee       	ldi	r28, 0xE0	; 224
    6066:	d7 e0       	ldi	r29, 0x07	; 7
    6068:	88 85       	ldd	r24, Y+8	; 0x08
    606a:	81 70       	andi	r24, 0x01	; 1
    606c:	80 8b       	std	Z+16, r24	; 0x10
    606e:	88 85       	ldd	r24, Y+8	; 0x08
    6070:	86 95       	lsr	r24
    6072:	81 70       	andi	r24, 0x01	; 1
    6074:	87 87       	std	Z+15, r24	; 0x0f
    6076:	18 96       	adiw	r26, 0x08	; 8
    6078:	8c 91       	ld	r24, X
    607a:	82 fb       	bst	r24, 2
    607c:	88 27       	eor	r24, r24
    607e:	80 f9       	bld	r24, 0
    6080:	81 8b       	std	Z+17, r24	; 0x11
    6082:	a0 e6       	ldi	r26, 0x60	; 96
    6084:	b6 e0       	ldi	r27, 0x06	; 6
    6086:	18 96       	adiw	r26, 0x08	; 8
    6088:	8c 91       	ld	r24, X
    608a:	18 97       	sbiw	r26, 0x08	; 8
    608c:	85 fb       	bst	r24, 5
    608e:	88 27       	eor	r24, r24
    6090:	80 f9       	bld	r24, 0
    6092:	82 8b       	std	Z+18, r24	; 0x12
    6094:	18 96       	adiw	r26, 0x08	; 8
    6096:	8c 91       	ld	r24, X
    6098:	82 95       	swap	r24
    609a:	81 70       	andi	r24, 0x01	; 1
    609c:	83 8b       	std	Z+19, r24	; 0x13
    609e:	df 91       	pop	r29
    60a0:	cf 91       	pop	r28
    60a2:	08 95       	ret

000060a4 <Add2Buffer>:
}

uint16_t Add2Buffer(frame_t * source, frameSD_t * destination){
    60a4:	cf 93       	push	r28
    60a6:	df 93       	push	r29
    60a8:	00 d0       	rcall	.+0      	; 0x60aa <Add2Buffer+0x6>
    60aa:	1f 92       	push	r1
    60ac:	cd b7       	in	r28, 0x3d	; 61
    60ae:	de b7       	in	r29, 0x3e	; 62
	volatile uint16_t i=0, j=0;
    60b0:	19 82       	std	Y+1, r1	; 0x01
    60b2:	1a 82       	std	Y+2, r1	; 0x02
    60b4:	1b 82       	std	Y+3, r1	; 0x03
    60b6:	1c 82       	std	Y+4, r1	; 0x04
	while(destination->frameASCII[j]) j++;
    60b8:	eb 81       	ldd	r30, Y+3	; 0x03
    60ba:	fc 81       	ldd	r31, Y+4	; 0x04
    60bc:	e6 0f       	add	r30, r22
    60be:	f7 1f       	adc	r31, r23
    60c0:	20 81       	ld	r18, Z
    60c2:	22 23       	and	r18, r18
    60c4:	69 f0       	breq	.+26     	; 0x60e0 <Add2Buffer+0x3c>
    60c6:	2b 81       	ldd	r18, Y+3	; 0x03
    60c8:	3c 81       	ldd	r19, Y+4	; 0x04
    60ca:	2f 5f       	subi	r18, 0xFF	; 255
    60cc:	3f 4f       	sbci	r19, 0xFF	; 255
    60ce:	2b 83       	std	Y+3, r18	; 0x03
    60d0:	3c 83       	std	Y+4, r19	; 0x04
    60d2:	eb 81       	ldd	r30, Y+3	; 0x03
    60d4:	fc 81       	ldd	r31, Y+4	; 0x04
    60d6:	e6 0f       	add	r30, r22
    60d8:	f7 1f       	adc	r31, r23
    60da:	20 81       	ld	r18, Z
    60dc:	21 11       	cpse	r18, r1
    60de:	f3 cf       	rjmp	.-26     	; 0x60c6 <Add2Buffer+0x22>
	while(source->frameASCII[i]) destination->frameASCII[j++] = source->frameASCII[i++];
    60e0:	e9 81       	ldd	r30, Y+1	; 0x01
    60e2:	fa 81       	ldd	r31, Y+2	; 0x02
    60e4:	e8 0f       	add	r30, r24
    60e6:	f9 1f       	adc	r31, r25
    60e8:	20 81       	ld	r18, Z
    60ea:	22 23       	and	r18, r18
    60ec:	e1 f0       	breq	.+56     	; 0x6126 <Add2Buffer+0x82>
    60ee:	2b 81       	ldd	r18, Y+3	; 0x03
    60f0:	3c 81       	ldd	r19, Y+4	; 0x04
    60f2:	a9 01       	movw	r20, r18
    60f4:	4f 5f       	subi	r20, 0xFF	; 255
    60f6:	5f 4f       	sbci	r21, 0xFF	; 255
    60f8:	4b 83       	std	Y+3, r20	; 0x03
    60fa:	5c 83       	std	Y+4, r21	; 0x04
    60fc:	49 81       	ldd	r20, Y+1	; 0x01
    60fe:	5a 81       	ldd	r21, Y+2	; 0x02
    6100:	fa 01       	movw	r30, r20
    6102:	31 96       	adiw	r30, 0x01	; 1
    6104:	e9 83       	std	Y+1, r30	; 0x01
    6106:	fa 83       	std	Y+2, r31	; 0x02
    6108:	fc 01       	movw	r30, r24
    610a:	e4 0f       	add	r30, r20
    610c:	f5 1f       	adc	r31, r21
    610e:	40 81       	ld	r20, Z
    6110:	fb 01       	movw	r30, r22
    6112:	e2 0f       	add	r30, r18
    6114:	f3 1f       	adc	r31, r19
    6116:	40 83       	st	Z, r20
    6118:	e9 81       	ldd	r30, Y+1	; 0x01
    611a:	fa 81       	ldd	r31, Y+2	; 0x02
    611c:	e8 0f       	add	r30, r24
    611e:	f9 1f       	adc	r31, r25
    6120:	20 81       	ld	r18, Z
    6122:	21 11       	cpse	r18, r1
    6124:	e4 cf       	rjmp	.-56     	; 0x60ee <Add2Buffer+0x4a>
	destination->frameASCII[j++] = 0;
    6126:	8b 81       	ldd	r24, Y+3	; 0x03
    6128:	9c 81       	ldd	r25, Y+4	; 0x04
    612a:	9c 01       	movw	r18, r24
    612c:	2f 5f       	subi	r18, 0xFF	; 255
    612e:	3f 4f       	sbci	r19, 0xFF	; 255
    6130:	2b 83       	std	Y+3, r18	; 0x03
    6132:	3c 83       	std	Y+4, r19	; 0x04
    6134:	fb 01       	movw	r30, r22
    6136:	e8 0f       	add	r30, r24
    6138:	f9 1f       	adc	r31, r25
    613a:	10 82       	st	Z, r1
	return j;
    613c:	8b 81       	ldd	r24, Y+3	; 0x03
    613e:	9c 81       	ldd	r25, Y+4	; 0x04
}
    6140:	24 96       	adiw	r28, 0x04	; 4
    6142:	cd bf       	out	0x3d, r28	; 61
    6144:	de bf       	out	0x3e, r29	; 62
    6146:	df 91       	pop	r29
    6148:	cf 91       	pop	r28
    614a:	08 95       	ret

0000614c <ADC_tempCalc>:

void ADC_tempCalc(Analog_t * Analog){
    614c:	4f 92       	push	r4
    614e:	5f 92       	push	r5
    6150:	6f 92       	push	r6
    6152:	7f 92       	push	r7
    6154:	8f 92       	push	r8
    6156:	9f 92       	push	r9
    6158:	af 92       	push	r10
    615a:	bf 92       	push	r11
    615c:	cf 92       	push	r12
    615e:	df 92       	push	r13
    6160:	ef 92       	push	r14
    6162:	ff 92       	push	r15
    6164:	cf 93       	push	r28
    6166:	df 93       	push	r29
    6168:	ec 01       	movw	r28, r24
	Analog->Temp1 = 2.616979*220.0*(Analog->AnalogIn1)/2048.0*3.0 / (5.0-(Analog->AnalogIn1)/2048.0*3.0) - 260.1696;
    616a:	6c 81       	ldd	r22, Y+4	; 0x04
    616c:	7d 81       	ldd	r23, Y+5	; 0x05
    616e:	07 2e       	mov	r0, r23
    6170:	00 0c       	add	r0, r0
    6172:	88 0b       	sbc	r24, r24
    6174:	99 0b       	sbc	r25, r25
    6176:	5a d2       	rcall	.+1204   	; 0x662c <__floatsisf>
    6178:	4b 01       	movw	r8, r22
    617a:	5c 01       	movw	r10, r24
    617c:	20 e0       	ldi	r18, 0x00	; 0
    617e:	30 e0       	ldi	r19, 0x00	; 0
    6180:	40 e0       	ldi	r20, 0x00	; 0
    6182:	5a e3       	ldi	r21, 0x3A	; 58
    6184:	df d2       	rcall	.+1470   	; 0x6744 <__mulsf3>
    6186:	6b 01       	movw	r12, r22
    6188:	7c 01       	movw	r14, r24
    618a:	20 e1       	ldi	r18, 0x10	; 16
    618c:	3f ee       	ldi	r19, 0xEF	; 239
    618e:	4f e0       	ldi	r20, 0x0F	; 15
    6190:	54 e4       	ldi	r21, 0x44	; 68
    6192:	c5 01       	movw	r24, r10
    6194:	b4 01       	movw	r22, r8
    6196:	d6 d2       	rcall	.+1452   	; 0x6744 <__mulsf3>
    6198:	20 e0       	ldi	r18, 0x00	; 0
    619a:	30 e0       	ldi	r19, 0x00	; 0
    619c:	40 e0       	ldi	r20, 0x00	; 0
    619e:	5a e3       	ldi	r21, 0x3A	; 58
    61a0:	d1 d2       	rcall	.+1442   	; 0x6744 <__mulsf3>
    61a2:	20 e0       	ldi	r18, 0x00	; 0
    61a4:	30 e0       	ldi	r19, 0x00	; 0
    61a6:	40 e4       	ldi	r20, 0x40	; 64
    61a8:	50 e4       	ldi	r21, 0x40	; 64
    61aa:	cc d2       	rcall	.+1432   	; 0x6744 <__mulsf3>
    61ac:	4b 01       	movw	r8, r22
    61ae:	5c 01       	movw	r10, r24
    61b0:	20 e0       	ldi	r18, 0x00	; 0
    61b2:	30 e0       	ldi	r19, 0x00	; 0
    61b4:	40 e4       	ldi	r20, 0x40	; 64
    61b6:	50 e4       	ldi	r21, 0x40	; 64
    61b8:	c7 01       	movw	r24, r14
    61ba:	b6 01       	movw	r22, r12
    61bc:	c3 d2       	rcall	.+1414   	; 0x6744 <__mulsf3>
    61be:	9b 01       	movw	r18, r22
    61c0:	ac 01       	movw	r20, r24
    61c2:	60 e0       	ldi	r22, 0x00	; 0
    61c4:	70 e0       	ldi	r23, 0x00	; 0
    61c6:	80 ea       	ldi	r24, 0xA0	; 160
    61c8:	90 e4       	ldi	r25, 0x40	; 64
    61ca:	61 d1       	rcall	.+706    	; 0x648e <__subsf3>
    61cc:	9b 01       	movw	r18, r22
    61ce:	ac 01       	movw	r20, r24
    61d0:	c5 01       	movw	r24, r10
    61d2:	b4 01       	movw	r22, r8
    61d4:	c1 d1       	rcall	.+898    	; 0x6558 <__divsf3>
    61d6:	25 eb       	ldi	r18, 0xB5	; 181
    61d8:	35 e1       	ldi	r19, 0x15	; 21
    61da:	42 e8       	ldi	r20, 0x82	; 130
    61dc:	53 e4       	ldi	r21, 0x43	; 67
    61de:	57 d1       	rcall	.+686    	; 0x648e <__subsf3>
    61e0:	6c 8b       	std	Y+20, r22	; 0x14
    61e2:	7d 8b       	std	Y+21, r23	; 0x15
    61e4:	8e 8b       	std	Y+22, r24	; 0x16
    61e6:	9f 8b       	std	Y+23, r25	; 0x17
	Analog->Temp2 = 2.616979*220.0*(Analog->AnalogIn2)/2048.0*3.0 / (5.0-(Analog->AnalogIn2)/2048.0*3.0) - 260.1696;
    61e8:	6e 81       	ldd	r22, Y+6	; 0x06
    61ea:	7f 81       	ldd	r23, Y+7	; 0x07
    61ec:	07 2e       	mov	r0, r23
    61ee:	00 0c       	add	r0, r0
    61f0:	88 0b       	sbc	r24, r24
    61f2:	99 0b       	sbc	r25, r25
    61f4:	1b d2       	rcall	.+1078   	; 0x662c <__floatsisf>
    61f6:	4b 01       	movw	r8, r22
    61f8:	5c 01       	movw	r10, r24
    61fa:	20 e1       	ldi	r18, 0x10	; 16
    61fc:	3f ee       	ldi	r19, 0xEF	; 239
    61fe:	4f e0       	ldi	r20, 0x0F	; 15
    6200:	54 e4       	ldi	r21, 0x44	; 68
    6202:	a0 d2       	rcall	.+1344   	; 0x6744 <__mulsf3>
    6204:	20 e0       	ldi	r18, 0x00	; 0
    6206:	30 e0       	ldi	r19, 0x00	; 0
    6208:	40 e0       	ldi	r20, 0x00	; 0
    620a:	5a e3       	ldi	r21, 0x3A	; 58
    620c:	9b d2       	rcall	.+1334   	; 0x6744 <__mulsf3>
    620e:	20 e0       	ldi	r18, 0x00	; 0
    6210:	30 e0       	ldi	r19, 0x00	; 0
    6212:	40 e4       	ldi	r20, 0x40	; 64
    6214:	50 e4       	ldi	r21, 0x40	; 64
    6216:	96 d2       	rcall	.+1324   	; 0x6744 <__mulsf3>
    6218:	2b 01       	movw	r4, r22
    621a:	3c 01       	movw	r6, r24
    621c:	20 e0       	ldi	r18, 0x00	; 0
    621e:	30 e0       	ldi	r19, 0x00	; 0
    6220:	40 e0       	ldi	r20, 0x00	; 0
    6222:	5a e3       	ldi	r21, 0x3A	; 58
    6224:	c5 01       	movw	r24, r10
    6226:	b4 01       	movw	r22, r8
    6228:	8d d2       	rcall	.+1306   	; 0x6744 <__mulsf3>
    622a:	20 e0       	ldi	r18, 0x00	; 0
    622c:	30 e0       	ldi	r19, 0x00	; 0
    622e:	40 e4       	ldi	r20, 0x40	; 64
    6230:	50 e4       	ldi	r21, 0x40	; 64
    6232:	88 d2       	rcall	.+1296   	; 0x6744 <__mulsf3>
    6234:	9b 01       	movw	r18, r22
    6236:	ac 01       	movw	r20, r24
    6238:	60 e0       	ldi	r22, 0x00	; 0
    623a:	70 e0       	ldi	r23, 0x00	; 0
    623c:	80 ea       	ldi	r24, 0xA0	; 160
    623e:	90 e4       	ldi	r25, 0x40	; 64
    6240:	26 d1       	rcall	.+588    	; 0x648e <__subsf3>
    6242:	9b 01       	movw	r18, r22
    6244:	ac 01       	movw	r20, r24
    6246:	c3 01       	movw	r24, r6
    6248:	b2 01       	movw	r22, r4
    624a:	86 d1       	rcall	.+780    	; 0x6558 <__divsf3>
    624c:	25 eb       	ldi	r18, 0xB5	; 181
    624e:	35 e1       	ldi	r19, 0x15	; 21
    6250:	42 e8       	ldi	r20, 0x82	; 130
    6252:	53 e4       	ldi	r21, 0x43	; 67
    6254:	1c d1       	rcall	.+568    	; 0x648e <__subsf3>
    6256:	68 8f       	std	Y+24, r22	; 0x18
    6258:	79 8f       	std	Y+25, r23	; 0x19
    625a:	8a 8f       	std	Y+26, r24	; 0x1a
    625c:	9b 8f       	std	Y+27, r25	; 0x1b
	Analog->Temp3 = 2.616979*220.0*(Analog->AnalogIn3)/2048.0*3.0 / (5.0-(Analog->AnalogIn3)/2048.0*3.0) - 260.1696;
    625e:	68 85       	ldd	r22, Y+8	; 0x08
    6260:	79 85       	ldd	r23, Y+9	; 0x09
    6262:	07 2e       	mov	r0, r23
    6264:	00 0c       	add	r0, r0
    6266:	88 0b       	sbc	r24, r24
    6268:	99 0b       	sbc	r25, r25
    626a:	e0 d1       	rcall	.+960    	; 0x662c <__floatsisf>
    626c:	4b 01       	movw	r8, r22
    626e:	5c 01       	movw	r10, r24
    6270:	20 e1       	ldi	r18, 0x10	; 16
    6272:	3f ee       	ldi	r19, 0xEF	; 239
    6274:	4f e0       	ldi	r20, 0x0F	; 15
    6276:	54 e4       	ldi	r21, 0x44	; 68
    6278:	65 d2       	rcall	.+1226   	; 0x6744 <__mulsf3>
    627a:	20 e0       	ldi	r18, 0x00	; 0
    627c:	30 e0       	ldi	r19, 0x00	; 0
    627e:	40 e0       	ldi	r20, 0x00	; 0
    6280:	5a e3       	ldi	r21, 0x3A	; 58
    6282:	60 d2       	rcall	.+1216   	; 0x6744 <__mulsf3>
    6284:	20 e0       	ldi	r18, 0x00	; 0
    6286:	30 e0       	ldi	r19, 0x00	; 0
    6288:	40 e4       	ldi	r20, 0x40	; 64
    628a:	50 e4       	ldi	r21, 0x40	; 64
    628c:	5b d2       	rcall	.+1206   	; 0x6744 <__mulsf3>
    628e:	2b 01       	movw	r4, r22
    6290:	3c 01       	movw	r6, r24
    6292:	20 e0       	ldi	r18, 0x00	; 0
    6294:	30 e0       	ldi	r19, 0x00	; 0
    6296:	40 e0       	ldi	r20, 0x00	; 0
    6298:	5a e3       	ldi	r21, 0x3A	; 58
    629a:	c5 01       	movw	r24, r10
    629c:	b4 01       	movw	r22, r8
    629e:	52 d2       	rcall	.+1188   	; 0x6744 <__mulsf3>
    62a0:	20 e0       	ldi	r18, 0x00	; 0
    62a2:	30 e0       	ldi	r19, 0x00	; 0
    62a4:	40 e4       	ldi	r20, 0x40	; 64
    62a6:	50 e4       	ldi	r21, 0x40	; 64
    62a8:	4d d2       	rcall	.+1178   	; 0x6744 <__mulsf3>
    62aa:	9b 01       	movw	r18, r22
    62ac:	ac 01       	movw	r20, r24
    62ae:	60 e0       	ldi	r22, 0x00	; 0
    62b0:	70 e0       	ldi	r23, 0x00	; 0
    62b2:	80 ea       	ldi	r24, 0xA0	; 160
    62b4:	90 e4       	ldi	r25, 0x40	; 64
    62b6:	eb d0       	rcall	.+470    	; 0x648e <__subsf3>
    62b8:	9b 01       	movw	r18, r22
    62ba:	ac 01       	movw	r20, r24
    62bc:	c3 01       	movw	r24, r6
    62be:	b2 01       	movw	r22, r4
    62c0:	4b d1       	rcall	.+662    	; 0x6558 <__divsf3>
    62c2:	25 eb       	ldi	r18, 0xB5	; 181
    62c4:	35 e1       	ldi	r19, 0x15	; 21
    62c6:	42 e8       	ldi	r20, 0x82	; 130
    62c8:	53 e4       	ldi	r21, 0x43	; 67
    62ca:	e1 d0       	rcall	.+450    	; 0x648e <__subsf3>
    62cc:	6c 8f       	std	Y+28, r22	; 0x1c
    62ce:	7d 8f       	std	Y+29, r23	; 0x1d
    62d0:	8e 8f       	std	Y+30, r24	; 0x1e
    62d2:	9f 8f       	std	Y+31, r25	; 0x1f
	Analog->Temp4 = 2.616979*220.0*(Analog->AnalogIn4)/2048.0*3.0 / (5.0-(Analog->AnalogIn4)/2048.0*3.0) - 260.1696;
    62d4:	8a 85       	ldd	r24, Y+10	; 0x0a
    62d6:	9b 85       	ldd	r25, Y+11	; 0x0b
    62d8:	bc 01       	movw	r22, r24
    62da:	99 0f       	add	r25, r25
    62dc:	88 0b       	sbc	r24, r24
    62de:	99 0b       	sbc	r25, r25
    62e0:	a5 d1       	rcall	.+842    	; 0x662c <__floatsisf>
    62e2:	4b 01       	movw	r8, r22
    62e4:	5c 01       	movw	r10, r24
    62e6:	20 e1       	ldi	r18, 0x10	; 16
    62e8:	3f ee       	ldi	r19, 0xEF	; 239
    62ea:	4f e0       	ldi	r20, 0x0F	; 15
    62ec:	54 e4       	ldi	r21, 0x44	; 68
    62ee:	2a d2       	rcall	.+1108   	; 0x6744 <__mulsf3>
    62f0:	20 e0       	ldi	r18, 0x00	; 0
    62f2:	30 e0       	ldi	r19, 0x00	; 0
    62f4:	40 e0       	ldi	r20, 0x00	; 0
    62f6:	5a e3       	ldi	r21, 0x3A	; 58
    62f8:	25 d2       	rcall	.+1098   	; 0x6744 <__mulsf3>
    62fa:	20 e0       	ldi	r18, 0x00	; 0
    62fc:	30 e0       	ldi	r19, 0x00	; 0
    62fe:	40 e4       	ldi	r20, 0x40	; 64
    6300:	50 e4       	ldi	r21, 0x40	; 64
    6302:	20 d2       	rcall	.+1088   	; 0x6744 <__mulsf3>
    6304:	2b 01       	movw	r4, r22
    6306:	3c 01       	movw	r6, r24
    6308:	20 e0       	ldi	r18, 0x00	; 0
    630a:	30 e0       	ldi	r19, 0x00	; 0
    630c:	40 e0       	ldi	r20, 0x00	; 0
    630e:	5a e3       	ldi	r21, 0x3A	; 58
    6310:	c5 01       	movw	r24, r10
    6312:	b4 01       	movw	r22, r8
    6314:	17 d2       	rcall	.+1070   	; 0x6744 <__mulsf3>
    6316:	20 e0       	ldi	r18, 0x00	; 0
    6318:	30 e0       	ldi	r19, 0x00	; 0
    631a:	40 e4       	ldi	r20, 0x40	; 64
    631c:	50 e4       	ldi	r21, 0x40	; 64
    631e:	12 d2       	rcall	.+1060   	; 0x6744 <__mulsf3>
    6320:	9b 01       	movw	r18, r22
    6322:	ac 01       	movw	r20, r24
    6324:	60 e0       	ldi	r22, 0x00	; 0
    6326:	70 e0       	ldi	r23, 0x00	; 0
    6328:	80 ea       	ldi	r24, 0xA0	; 160
    632a:	90 e4       	ldi	r25, 0x40	; 64
    632c:	b0 d0       	rcall	.+352    	; 0x648e <__subsf3>
    632e:	9b 01       	movw	r18, r22
    6330:	ac 01       	movw	r20, r24
    6332:	c3 01       	movw	r24, r6
    6334:	b2 01       	movw	r22, r4
    6336:	10 d1       	rcall	.+544    	; 0x6558 <__divsf3>
    6338:	25 eb       	ldi	r18, 0xB5	; 181
    633a:	35 e1       	ldi	r19, 0x15	; 21
    633c:	42 e8       	ldi	r20, 0x82	; 130
    633e:	53 e4       	ldi	r21, 0x43	; 67
    6340:	a6 d0       	rcall	.+332    	; 0x648e <__subsf3>
    6342:	68 a3       	std	Y+32, r22	; 0x20
    6344:	79 a3       	std	Y+33, r23	; 0x21
    6346:	8a a3       	std	Y+34, r24	; 0x22
    6348:	9b a3       	std	Y+35, r25	; 0x23
	
	float V = (Analog->AnalogIn1)/2048.0*3.3;
    634a:	23 e3       	ldi	r18, 0x33	; 51
    634c:	33 e3       	ldi	r19, 0x33	; 51
    634e:	43 e5       	ldi	r20, 0x53	; 83
    6350:	50 e4       	ldi	r21, 0x40	; 64
    6352:	c7 01       	movw	r24, r14
    6354:	b6 01       	movw	r22, r12
    6356:	f6 d1       	rcall	.+1004   	; 0x6744 <__mulsf3>
    6358:	6b 01       	movw	r12, r22
    635a:	7c 01       	movw	r14, r24
	Analog->R1 = (V*221)/(5-V);
    635c:	20 e0       	ldi	r18, 0x00	; 0
    635e:	30 e0       	ldi	r19, 0x00	; 0
    6360:	4d e5       	ldi	r20, 0x5D	; 93
    6362:	53 e4       	ldi	r21, 0x43	; 67
    6364:	ef d1       	rcall	.+990    	; 0x6744 <__mulsf3>
    6366:	4b 01       	movw	r8, r22
    6368:	5c 01       	movw	r10, r24
    636a:	a7 01       	movw	r20, r14
    636c:	96 01       	movw	r18, r12
    636e:	60 e0       	ldi	r22, 0x00	; 0
    6370:	70 e0       	ldi	r23, 0x00	; 0
    6372:	80 ea       	ldi	r24, 0xA0	; 160
    6374:	90 e4       	ldi	r25, 0x40	; 64
    6376:	8b d0       	rcall	.+278    	; 0x648e <__subsf3>
    6378:	9b 01       	movw	r18, r22
    637a:	ac 01       	movw	r20, r24
    637c:	c5 01       	movw	r24, r10
    637e:	b4 01       	movw	r22, r8
    6380:	eb d0       	rcall	.+470    	; 0x6558 <__divsf3>
    6382:	6c ab       	std	Y+52, r22	; 0x34
    6384:	7d ab       	std	Y+53, r23	; 0x35
    6386:	8e ab       	std	Y+54, r24	; 0x36
    6388:	9f ab       	std	Y+55, r25	; 0x37
	V = (Analog->AnalogIn1)/2048.0*3.3;
	Analog->R2 = (V*221)/(5-V);
    638a:	68 af       	std	Y+56, r22	; 0x38
    638c:	79 af       	std	Y+57, r23	; 0x39
    638e:	8a af       	std	Y+58, r24	; 0x3a
    6390:	9b af       	std	Y+59, r25	; 0x3b
	V = (Analog->AnalogIn1)/2048.0*3.3;
	Analog->R3 = (V*221)/(5-V);
    6392:	6c af       	std	Y+60, r22	; 0x3c
    6394:	7d af       	std	Y+61, r23	; 0x3d
    6396:	8e af       	std	Y+62, r24	; 0x3e
    6398:	9f af       	std	Y+63, r25	; 0x3f
	V = (Analog->AnalogIn1)/2048.0*3.3;
	Analog->R4 = (V*221)/(5-V);
    639a:	c0 5c       	subi	r28, 0xC0	; 192
    639c:	df 4f       	sbci	r29, 0xFF	; 255
    639e:	68 83       	st	Y, r22
    63a0:	79 83       	std	Y+1, r23	; 0x01
    63a2:	8a 83       	std	Y+2, r24	; 0x02
    63a4:	9b 83       	std	Y+3, r25	; 0x03
}
    63a6:	df 91       	pop	r29
    63a8:	cf 91       	pop	r28
    63aa:	ff 90       	pop	r15
    63ac:	ef 90       	pop	r14
    63ae:	df 90       	pop	r13
    63b0:	cf 90       	pop	r12
    63b2:	bf 90       	pop	r11
    63b4:	af 90       	pop	r10
    63b6:	9f 90       	pop	r9
    63b8:	8f 90       	pop	r8
    63ba:	7f 90       	pop	r7
    63bc:	6f 90       	pop	r6
    63be:	5f 90       	pop	r5
    63c0:	4f 90       	pop	r4
    63c2:	08 95       	ret

000063c4 <FindNextFilename>:

uint8_t FindNextFilename(char * filename){
    63c4:	af 92       	push	r10
    63c6:	bf 92       	push	r11
    63c8:	cf 92       	push	r12
    63ca:	df 92       	push	r13
    63cc:	ef 92       	push	r14
    63ce:	ff 92       	push	r15
    63d0:	1f 93       	push	r17
    63d2:	cf 93       	push	r28
    63d4:	df 93       	push	r29
    63d6:	cd b7       	in	r28, 0x3d	; 61
    63d8:	de b7       	in	r29, 0x3e	; 62
    63da:	6e 97       	sbiw	r28, 0x1e	; 30
    63dc:	cd bf       	out	0x3d, r28	; 61
    63de:	de bf       	out	0x3e, r29	; 62
    63e0:	5c 01       	movw	r10, r24
	FILINFO fno;
	uint8_t i = 0;
    63e2:	10 e0       	ldi	r17, 0x00	; 0
	char name[8];
	do{
		i++;
		sprintf(name, "%03u.csv",i);
    63e4:	0f 2e       	mov	r0, r31
    63e6:	f3 e7       	ldi	r31, 0x73	; 115
    63e8:	cf 2e       	mov	r12, r31
    63ea:	f0 e2       	ldi	r31, 0x20	; 32
    63ec:	df 2e       	mov	r13, r31
    63ee:	f0 2d       	mov	r31, r0
    63f0:	7e 01       	movw	r14, r28
    63f2:	87 e1       	ldi	r24, 0x17	; 23
    63f4:	e8 0e       	add	r14, r24
    63f6:	f1 1c       	adc	r15, r1
uint8_t FindNextFilename(char * filename){
	FILINFO fno;
	uint8_t i = 0;
	char name[8];
	do{
		i++;
    63f8:	1f 5f       	subi	r17, 0xFF	; 255
		sprintf(name, "%03u.csv",i);
    63fa:	1f 92       	push	r1
    63fc:	1f 93       	push	r17
    63fe:	df 92       	push	r13
    6400:	cf 92       	push	r12
    6402:	ff 92       	push	r15
    6404:	ef 92       	push	r14
    6406:	e0 d2       	rcall	.+1472   	; 0x69c8 <sprintf>
	}while(f_stat(name, &fno) == FR_OK);
    6408:	be 01       	movw	r22, r28
    640a:	6f 5f       	subi	r22, 0xFF	; 255
    640c:	7f 4f       	sbci	r23, 0xFF	; 255
    640e:	c7 01       	movw	r24, r14
    6410:	0e 94 29 1a 	call	0x3452	; 0x3452 <f_stat>
    6414:	0f 90       	pop	r0
    6416:	0f 90       	pop	r0
    6418:	0f 90       	pop	r0
    641a:	0f 90       	pop	r0
    641c:	0f 90       	pop	r0
    641e:	0f 90       	pop	r0
    6420:	88 23       	and	r24, r24
    6422:	51 f3       	breq	.-44     	; 0x63f8 <FindNextFilename+0x34>
	*filename++ = name[0];
    6424:	8f 89       	ldd	r24, Y+23	; 0x17
    6426:	f5 01       	movw	r30, r10
    6428:	80 83       	st	Z, r24
	*filename++ = name[1];
    642a:	88 8d       	ldd	r24, Y+24	; 0x18
    642c:	81 83       	std	Z+1, r24	; 0x01
	*filename++ = name[2];
    642e:	89 8d       	ldd	r24, Y+25	; 0x19
    6430:	82 83       	std	Z+2, r24	; 0x02
	*filename++ = name[3];
    6432:	8a 8d       	ldd	r24, Y+26	; 0x1a
    6434:	83 83       	std	Z+3, r24	; 0x03
	*filename++ = name[4];
    6436:	8b 8d       	ldd	r24, Y+27	; 0x1b
    6438:	84 83       	std	Z+4, r24	; 0x04
	*filename++ = name[5];
    643a:	8c 8d       	ldd	r24, Y+28	; 0x1c
    643c:	85 83       	std	Z+5, r24	; 0x05
	*filename++ = name[6];
    643e:	8d 8d       	ldd	r24, Y+29	; 0x1d
    6440:	86 83       	std	Z+6, r24	; 0x06
	*filename++ = name[7];
    6442:	8e 8d       	ldd	r24, Y+30	; 0x1e
    6444:	87 83       	std	Z+7, r24	; 0x07
	*filename++ = name[8];
    6446:	8f 8d       	ldd	r24, Y+31	; 0x1f
    6448:	80 87       	std	Z+8, r24	; 0x08
	
	return i;
}
    644a:	81 2f       	mov	r24, r17
    644c:	6e 96       	adiw	r28, 0x1e	; 30
    644e:	cd bf       	out	0x3d, r28	; 61
    6450:	de bf       	out	0x3e, r29	; 62
    6452:	df 91       	pop	r29
    6454:	cf 91       	pop	r28
    6456:	1f 91       	pop	r17
    6458:	ff 90       	pop	r15
    645a:	ef 90       	pop	r14
    645c:	df 90       	pop	r13
    645e:	cf 90       	pop	r12
    6460:	bf 90       	pop	r11
    6462:	af 90       	pop	r10
    6464:	08 95       	ret

00006466 <FindTableLength>:

uint16_t FindTableLength(char * table){
	uint16_t i=0;
	while((*table++) && (i < 512)) i++;
    6466:	fc 01       	movw	r30, r24
    6468:	31 96       	adiw	r30, 0x01	; 1
    646a:	dc 01       	movw	r26, r24
    646c:	8c 91       	ld	r24, X
    646e:	88 23       	and	r24, r24
    6470:	59 f0       	breq	.+22     	; 0x6488 <FindTableLength+0x22>
    6472:	80 e0       	ldi	r24, 0x00	; 0
    6474:	90 e0       	ldi	r25, 0x00	; 0
    6476:	01 96       	adiw	r24, 0x01	; 1
    6478:	21 91       	ld	r18, Z+
    647a:	22 23       	and	r18, r18
    647c:	39 f0       	breq	.+14     	; 0x648c <FindTableLength+0x26>
    647e:	81 15       	cp	r24, r1
    6480:	b2 e0       	ldi	r27, 0x02	; 2
    6482:	9b 07       	cpc	r25, r27
    6484:	c1 f7       	brne	.-16     	; 0x6476 <FindTableLength+0x10>
    6486:	08 95       	ret
	
	return i;
}

uint16_t FindTableLength(char * table){
	uint16_t i=0;
    6488:	80 e0       	ldi	r24, 0x00	; 0
    648a:	90 e0       	ldi	r25, 0x00	; 0
	while((*table++) && (i < 512)) i++;
	return i;
}
    648c:	08 95       	ret

0000648e <__subsf3>:
    648e:	50 58       	subi	r21, 0x80	; 128

00006490 <__addsf3>:
    6490:	bb 27       	eor	r27, r27
    6492:	aa 27       	eor	r26, r26
    6494:	0e d0       	rcall	.+28     	; 0x64b2 <__addsf3x>
    6496:	1c c1       	rjmp	.+568    	; 0x66d0 <__fp_round>
    6498:	0d d1       	rcall	.+538    	; 0x66b4 <__fp_pscA>
    649a:	30 f0       	brcs	.+12     	; 0x64a8 <__addsf3+0x18>
    649c:	12 d1       	rcall	.+548    	; 0x66c2 <__fp_pscB>
    649e:	20 f0       	brcs	.+8      	; 0x64a8 <__addsf3+0x18>
    64a0:	31 f4       	brne	.+12     	; 0x64ae <__addsf3+0x1e>
    64a2:	9f 3f       	cpi	r25, 0xFF	; 255
    64a4:	11 f4       	brne	.+4      	; 0x64aa <__addsf3+0x1a>
    64a6:	1e f4       	brtc	.+6      	; 0x64ae <__addsf3+0x1e>
    64a8:	02 c1       	rjmp	.+516    	; 0x66ae <__fp_nan>
    64aa:	0e f4       	brtc	.+2      	; 0x64ae <__addsf3+0x1e>
    64ac:	e0 95       	com	r30
    64ae:	e7 fb       	bst	r30, 7
    64b0:	f8 c0       	rjmp	.+496    	; 0x66a2 <__fp_inf>

000064b2 <__addsf3x>:
    64b2:	e9 2f       	mov	r30, r25
    64b4:	1e d1       	rcall	.+572    	; 0x66f2 <__fp_split3>
    64b6:	80 f3       	brcs	.-32     	; 0x6498 <__addsf3+0x8>
    64b8:	ba 17       	cp	r27, r26
    64ba:	62 07       	cpc	r22, r18
    64bc:	73 07       	cpc	r23, r19
    64be:	84 07       	cpc	r24, r20
    64c0:	95 07       	cpc	r25, r21
    64c2:	18 f0       	brcs	.+6      	; 0x64ca <__addsf3x+0x18>
    64c4:	71 f4       	brne	.+28     	; 0x64e2 <__addsf3x+0x30>
    64c6:	9e f5       	brtc	.+102    	; 0x652e <__addsf3x+0x7c>
    64c8:	36 c1       	rjmp	.+620    	; 0x6736 <__fp_zero>
    64ca:	0e f4       	brtc	.+2      	; 0x64ce <__addsf3x+0x1c>
    64cc:	e0 95       	com	r30
    64ce:	0b 2e       	mov	r0, r27
    64d0:	ba 2f       	mov	r27, r26
    64d2:	a0 2d       	mov	r26, r0
    64d4:	0b 01       	movw	r0, r22
    64d6:	b9 01       	movw	r22, r18
    64d8:	90 01       	movw	r18, r0
    64da:	0c 01       	movw	r0, r24
    64dc:	ca 01       	movw	r24, r20
    64de:	a0 01       	movw	r20, r0
    64e0:	11 24       	eor	r1, r1
    64e2:	ff 27       	eor	r31, r31
    64e4:	59 1b       	sub	r21, r25
    64e6:	99 f0       	breq	.+38     	; 0x650e <__addsf3x+0x5c>
    64e8:	59 3f       	cpi	r21, 0xF9	; 249
    64ea:	50 f4       	brcc	.+20     	; 0x6500 <__addsf3x+0x4e>
    64ec:	50 3e       	cpi	r21, 0xE0	; 224
    64ee:	68 f1       	brcs	.+90     	; 0x654a <__addsf3x+0x98>
    64f0:	1a 16       	cp	r1, r26
    64f2:	f0 40       	sbci	r31, 0x00	; 0
    64f4:	a2 2f       	mov	r26, r18
    64f6:	23 2f       	mov	r18, r19
    64f8:	34 2f       	mov	r19, r20
    64fa:	44 27       	eor	r20, r20
    64fc:	58 5f       	subi	r21, 0xF8	; 248
    64fe:	f3 cf       	rjmp	.-26     	; 0x64e6 <__addsf3x+0x34>
    6500:	46 95       	lsr	r20
    6502:	37 95       	ror	r19
    6504:	27 95       	ror	r18
    6506:	a7 95       	ror	r26
    6508:	f0 40       	sbci	r31, 0x00	; 0
    650a:	53 95       	inc	r21
    650c:	c9 f7       	brne	.-14     	; 0x6500 <__addsf3x+0x4e>
    650e:	7e f4       	brtc	.+30     	; 0x652e <__addsf3x+0x7c>
    6510:	1f 16       	cp	r1, r31
    6512:	ba 0b       	sbc	r27, r26
    6514:	62 0b       	sbc	r22, r18
    6516:	73 0b       	sbc	r23, r19
    6518:	84 0b       	sbc	r24, r20
    651a:	ba f0       	brmi	.+46     	; 0x654a <__addsf3x+0x98>
    651c:	91 50       	subi	r25, 0x01	; 1
    651e:	a1 f0       	breq	.+40     	; 0x6548 <__addsf3x+0x96>
    6520:	ff 0f       	add	r31, r31
    6522:	bb 1f       	adc	r27, r27
    6524:	66 1f       	adc	r22, r22
    6526:	77 1f       	adc	r23, r23
    6528:	88 1f       	adc	r24, r24
    652a:	c2 f7       	brpl	.-16     	; 0x651c <__addsf3x+0x6a>
    652c:	0e c0       	rjmp	.+28     	; 0x654a <__addsf3x+0x98>
    652e:	ba 0f       	add	r27, r26
    6530:	62 1f       	adc	r22, r18
    6532:	73 1f       	adc	r23, r19
    6534:	84 1f       	adc	r24, r20
    6536:	48 f4       	brcc	.+18     	; 0x654a <__addsf3x+0x98>
    6538:	87 95       	ror	r24
    653a:	77 95       	ror	r23
    653c:	67 95       	ror	r22
    653e:	b7 95       	ror	r27
    6540:	f7 95       	ror	r31
    6542:	9e 3f       	cpi	r25, 0xFE	; 254
    6544:	08 f0       	brcs	.+2      	; 0x6548 <__addsf3x+0x96>
    6546:	b3 cf       	rjmp	.-154    	; 0x64ae <__addsf3+0x1e>
    6548:	93 95       	inc	r25
    654a:	88 0f       	add	r24, r24
    654c:	08 f0       	brcs	.+2      	; 0x6550 <__addsf3x+0x9e>
    654e:	99 27       	eor	r25, r25
    6550:	ee 0f       	add	r30, r30
    6552:	97 95       	ror	r25
    6554:	87 95       	ror	r24
    6556:	08 95       	ret

00006558 <__divsf3>:
    6558:	0c d0       	rcall	.+24     	; 0x6572 <__divsf3x>
    655a:	ba c0       	rjmp	.+372    	; 0x66d0 <__fp_round>
    655c:	b2 d0       	rcall	.+356    	; 0x66c2 <__fp_pscB>
    655e:	40 f0       	brcs	.+16     	; 0x6570 <__divsf3+0x18>
    6560:	a9 d0       	rcall	.+338    	; 0x66b4 <__fp_pscA>
    6562:	30 f0       	brcs	.+12     	; 0x6570 <__divsf3+0x18>
    6564:	21 f4       	brne	.+8      	; 0x656e <__divsf3+0x16>
    6566:	5f 3f       	cpi	r21, 0xFF	; 255
    6568:	19 f0       	breq	.+6      	; 0x6570 <__divsf3+0x18>
    656a:	9b c0       	rjmp	.+310    	; 0x66a2 <__fp_inf>
    656c:	51 11       	cpse	r21, r1
    656e:	e4 c0       	rjmp	.+456    	; 0x6738 <__fp_szero>
    6570:	9e c0       	rjmp	.+316    	; 0x66ae <__fp_nan>

00006572 <__divsf3x>:
    6572:	bf d0       	rcall	.+382    	; 0x66f2 <__fp_split3>
    6574:	98 f3       	brcs	.-26     	; 0x655c <__divsf3+0x4>

00006576 <__divsf3_pse>:
    6576:	99 23       	and	r25, r25
    6578:	c9 f3       	breq	.-14     	; 0x656c <__divsf3+0x14>
    657a:	55 23       	and	r21, r21
    657c:	b1 f3       	breq	.-20     	; 0x656a <__divsf3+0x12>
    657e:	95 1b       	sub	r25, r21
    6580:	55 0b       	sbc	r21, r21
    6582:	bb 27       	eor	r27, r27
    6584:	aa 27       	eor	r26, r26
    6586:	62 17       	cp	r22, r18
    6588:	73 07       	cpc	r23, r19
    658a:	84 07       	cpc	r24, r20
    658c:	38 f0       	brcs	.+14     	; 0x659c <__divsf3_pse+0x26>
    658e:	9f 5f       	subi	r25, 0xFF	; 255
    6590:	5f 4f       	sbci	r21, 0xFF	; 255
    6592:	22 0f       	add	r18, r18
    6594:	33 1f       	adc	r19, r19
    6596:	44 1f       	adc	r20, r20
    6598:	aa 1f       	adc	r26, r26
    659a:	a9 f3       	breq	.-22     	; 0x6586 <__divsf3_pse+0x10>
    659c:	33 d0       	rcall	.+102    	; 0x6604 <__divsf3_pse+0x8e>
    659e:	0e 2e       	mov	r0, r30
    65a0:	3a f0       	brmi	.+14     	; 0x65b0 <__divsf3_pse+0x3a>
    65a2:	e0 e8       	ldi	r30, 0x80	; 128
    65a4:	30 d0       	rcall	.+96     	; 0x6606 <__divsf3_pse+0x90>
    65a6:	91 50       	subi	r25, 0x01	; 1
    65a8:	50 40       	sbci	r21, 0x00	; 0
    65aa:	e6 95       	lsr	r30
    65ac:	00 1c       	adc	r0, r0
    65ae:	ca f7       	brpl	.-14     	; 0x65a2 <__divsf3_pse+0x2c>
    65b0:	29 d0       	rcall	.+82     	; 0x6604 <__divsf3_pse+0x8e>
    65b2:	fe 2f       	mov	r31, r30
    65b4:	27 d0       	rcall	.+78     	; 0x6604 <__divsf3_pse+0x8e>
    65b6:	66 0f       	add	r22, r22
    65b8:	77 1f       	adc	r23, r23
    65ba:	88 1f       	adc	r24, r24
    65bc:	bb 1f       	adc	r27, r27
    65be:	26 17       	cp	r18, r22
    65c0:	37 07       	cpc	r19, r23
    65c2:	48 07       	cpc	r20, r24
    65c4:	ab 07       	cpc	r26, r27
    65c6:	b0 e8       	ldi	r27, 0x80	; 128
    65c8:	09 f0       	breq	.+2      	; 0x65cc <__divsf3_pse+0x56>
    65ca:	bb 0b       	sbc	r27, r27
    65cc:	80 2d       	mov	r24, r0
    65ce:	bf 01       	movw	r22, r30
    65d0:	ff 27       	eor	r31, r31
    65d2:	93 58       	subi	r25, 0x83	; 131
    65d4:	5f 4f       	sbci	r21, 0xFF	; 255
    65d6:	2a f0       	brmi	.+10     	; 0x65e2 <__divsf3_pse+0x6c>
    65d8:	9e 3f       	cpi	r25, 0xFE	; 254
    65da:	51 05       	cpc	r21, r1
    65dc:	68 f0       	brcs	.+26     	; 0x65f8 <__divsf3_pse+0x82>
    65de:	61 c0       	rjmp	.+194    	; 0x66a2 <__fp_inf>
    65e0:	ab c0       	rjmp	.+342    	; 0x6738 <__fp_szero>
    65e2:	5f 3f       	cpi	r21, 0xFF	; 255
    65e4:	ec f3       	brlt	.-6      	; 0x65e0 <__divsf3_pse+0x6a>
    65e6:	98 3e       	cpi	r25, 0xE8	; 232
    65e8:	dc f3       	brlt	.-10     	; 0x65e0 <__divsf3_pse+0x6a>
    65ea:	86 95       	lsr	r24
    65ec:	77 95       	ror	r23
    65ee:	67 95       	ror	r22
    65f0:	b7 95       	ror	r27
    65f2:	f7 95       	ror	r31
    65f4:	9f 5f       	subi	r25, 0xFF	; 255
    65f6:	c9 f7       	brne	.-14     	; 0x65ea <__divsf3_pse+0x74>
    65f8:	88 0f       	add	r24, r24
    65fa:	91 1d       	adc	r25, r1
    65fc:	96 95       	lsr	r25
    65fe:	87 95       	ror	r24
    6600:	97 f9       	bld	r25, 7
    6602:	08 95       	ret
    6604:	e1 e0       	ldi	r30, 0x01	; 1
    6606:	66 0f       	add	r22, r22
    6608:	77 1f       	adc	r23, r23
    660a:	88 1f       	adc	r24, r24
    660c:	bb 1f       	adc	r27, r27
    660e:	62 17       	cp	r22, r18
    6610:	73 07       	cpc	r23, r19
    6612:	84 07       	cpc	r24, r20
    6614:	ba 07       	cpc	r27, r26
    6616:	20 f0       	brcs	.+8      	; 0x6620 <__divsf3_pse+0xaa>
    6618:	62 1b       	sub	r22, r18
    661a:	73 0b       	sbc	r23, r19
    661c:	84 0b       	sbc	r24, r20
    661e:	ba 0b       	sbc	r27, r26
    6620:	ee 1f       	adc	r30, r30
    6622:	88 f7       	brcc	.-30     	; 0x6606 <__divsf3_pse+0x90>
    6624:	e0 95       	com	r30
    6626:	08 95       	ret

00006628 <__floatunsisf>:
    6628:	e8 94       	clt
    662a:	09 c0       	rjmp	.+18     	; 0x663e <__floatsisf+0x12>

0000662c <__floatsisf>:
    662c:	97 fb       	bst	r25, 7
    662e:	3e f4       	brtc	.+14     	; 0x663e <__floatsisf+0x12>
    6630:	90 95       	com	r25
    6632:	80 95       	com	r24
    6634:	70 95       	com	r23
    6636:	61 95       	neg	r22
    6638:	7f 4f       	sbci	r23, 0xFF	; 255
    663a:	8f 4f       	sbci	r24, 0xFF	; 255
    663c:	9f 4f       	sbci	r25, 0xFF	; 255
    663e:	99 23       	and	r25, r25
    6640:	a9 f0       	breq	.+42     	; 0x666c <__floatsisf+0x40>
    6642:	f9 2f       	mov	r31, r25
    6644:	96 e9       	ldi	r25, 0x96	; 150
    6646:	bb 27       	eor	r27, r27
    6648:	93 95       	inc	r25
    664a:	f6 95       	lsr	r31
    664c:	87 95       	ror	r24
    664e:	77 95       	ror	r23
    6650:	67 95       	ror	r22
    6652:	b7 95       	ror	r27
    6654:	f1 11       	cpse	r31, r1
    6656:	f8 cf       	rjmp	.-16     	; 0x6648 <__floatsisf+0x1c>
    6658:	fa f4       	brpl	.+62     	; 0x6698 <__floatsisf+0x6c>
    665a:	bb 0f       	add	r27, r27
    665c:	11 f4       	brne	.+4      	; 0x6662 <__floatsisf+0x36>
    665e:	60 ff       	sbrs	r22, 0
    6660:	1b c0       	rjmp	.+54     	; 0x6698 <__floatsisf+0x6c>
    6662:	6f 5f       	subi	r22, 0xFF	; 255
    6664:	7f 4f       	sbci	r23, 0xFF	; 255
    6666:	8f 4f       	sbci	r24, 0xFF	; 255
    6668:	9f 4f       	sbci	r25, 0xFF	; 255
    666a:	16 c0       	rjmp	.+44     	; 0x6698 <__floatsisf+0x6c>
    666c:	88 23       	and	r24, r24
    666e:	11 f0       	breq	.+4      	; 0x6674 <__floatsisf+0x48>
    6670:	96 e9       	ldi	r25, 0x96	; 150
    6672:	11 c0       	rjmp	.+34     	; 0x6696 <__floatsisf+0x6a>
    6674:	77 23       	and	r23, r23
    6676:	21 f0       	breq	.+8      	; 0x6680 <__floatsisf+0x54>
    6678:	9e e8       	ldi	r25, 0x8E	; 142
    667a:	87 2f       	mov	r24, r23
    667c:	76 2f       	mov	r23, r22
    667e:	05 c0       	rjmp	.+10     	; 0x668a <__floatsisf+0x5e>
    6680:	66 23       	and	r22, r22
    6682:	71 f0       	breq	.+28     	; 0x66a0 <__floatsisf+0x74>
    6684:	96 e8       	ldi	r25, 0x86	; 134
    6686:	86 2f       	mov	r24, r22
    6688:	70 e0       	ldi	r23, 0x00	; 0
    668a:	60 e0       	ldi	r22, 0x00	; 0
    668c:	2a f0       	brmi	.+10     	; 0x6698 <__floatsisf+0x6c>
    668e:	9a 95       	dec	r25
    6690:	66 0f       	add	r22, r22
    6692:	77 1f       	adc	r23, r23
    6694:	88 1f       	adc	r24, r24
    6696:	da f7       	brpl	.-10     	; 0x668e <__floatsisf+0x62>
    6698:	88 0f       	add	r24, r24
    669a:	96 95       	lsr	r25
    669c:	87 95       	ror	r24
    669e:	97 f9       	bld	r25, 7
    66a0:	08 95       	ret

000066a2 <__fp_inf>:
    66a2:	97 f9       	bld	r25, 7
    66a4:	9f 67       	ori	r25, 0x7F	; 127
    66a6:	80 e8       	ldi	r24, 0x80	; 128
    66a8:	70 e0       	ldi	r23, 0x00	; 0
    66aa:	60 e0       	ldi	r22, 0x00	; 0
    66ac:	08 95       	ret

000066ae <__fp_nan>:
    66ae:	9f ef       	ldi	r25, 0xFF	; 255
    66b0:	80 ec       	ldi	r24, 0xC0	; 192
    66b2:	08 95       	ret

000066b4 <__fp_pscA>:
    66b4:	00 24       	eor	r0, r0
    66b6:	0a 94       	dec	r0
    66b8:	16 16       	cp	r1, r22
    66ba:	17 06       	cpc	r1, r23
    66bc:	18 06       	cpc	r1, r24
    66be:	09 06       	cpc	r0, r25
    66c0:	08 95       	ret

000066c2 <__fp_pscB>:
    66c2:	00 24       	eor	r0, r0
    66c4:	0a 94       	dec	r0
    66c6:	12 16       	cp	r1, r18
    66c8:	13 06       	cpc	r1, r19
    66ca:	14 06       	cpc	r1, r20
    66cc:	05 06       	cpc	r0, r21
    66ce:	08 95       	ret

000066d0 <__fp_round>:
    66d0:	09 2e       	mov	r0, r25
    66d2:	03 94       	inc	r0
    66d4:	00 0c       	add	r0, r0
    66d6:	11 f4       	brne	.+4      	; 0x66dc <__fp_round+0xc>
    66d8:	88 23       	and	r24, r24
    66da:	52 f0       	brmi	.+20     	; 0x66f0 <__fp_round+0x20>
    66dc:	bb 0f       	add	r27, r27
    66de:	40 f4       	brcc	.+16     	; 0x66f0 <__fp_round+0x20>
    66e0:	bf 2b       	or	r27, r31
    66e2:	11 f4       	brne	.+4      	; 0x66e8 <__fp_round+0x18>
    66e4:	60 ff       	sbrs	r22, 0
    66e6:	04 c0       	rjmp	.+8      	; 0x66f0 <__fp_round+0x20>
    66e8:	6f 5f       	subi	r22, 0xFF	; 255
    66ea:	7f 4f       	sbci	r23, 0xFF	; 255
    66ec:	8f 4f       	sbci	r24, 0xFF	; 255
    66ee:	9f 4f       	sbci	r25, 0xFF	; 255
    66f0:	08 95       	ret

000066f2 <__fp_split3>:
    66f2:	57 fd       	sbrc	r21, 7
    66f4:	90 58       	subi	r25, 0x80	; 128
    66f6:	44 0f       	add	r20, r20
    66f8:	55 1f       	adc	r21, r21
    66fa:	59 f0       	breq	.+22     	; 0x6712 <__fp_splitA+0x10>
    66fc:	5f 3f       	cpi	r21, 0xFF	; 255
    66fe:	71 f0       	breq	.+28     	; 0x671c <__fp_splitA+0x1a>
    6700:	47 95       	ror	r20

00006702 <__fp_splitA>:
    6702:	88 0f       	add	r24, r24
    6704:	97 fb       	bst	r25, 7
    6706:	99 1f       	adc	r25, r25
    6708:	61 f0       	breq	.+24     	; 0x6722 <__fp_splitA+0x20>
    670a:	9f 3f       	cpi	r25, 0xFF	; 255
    670c:	79 f0       	breq	.+30     	; 0x672c <__fp_splitA+0x2a>
    670e:	87 95       	ror	r24
    6710:	08 95       	ret
    6712:	12 16       	cp	r1, r18
    6714:	13 06       	cpc	r1, r19
    6716:	14 06       	cpc	r1, r20
    6718:	55 1f       	adc	r21, r21
    671a:	f2 cf       	rjmp	.-28     	; 0x6700 <__fp_split3+0xe>
    671c:	46 95       	lsr	r20
    671e:	f1 df       	rcall	.-30     	; 0x6702 <__fp_splitA>
    6720:	08 c0       	rjmp	.+16     	; 0x6732 <__fp_splitA+0x30>
    6722:	16 16       	cp	r1, r22
    6724:	17 06       	cpc	r1, r23
    6726:	18 06       	cpc	r1, r24
    6728:	99 1f       	adc	r25, r25
    672a:	f1 cf       	rjmp	.-30     	; 0x670e <__fp_splitA+0xc>
    672c:	86 95       	lsr	r24
    672e:	71 05       	cpc	r23, r1
    6730:	61 05       	cpc	r22, r1
    6732:	08 94       	sec
    6734:	08 95       	ret

00006736 <__fp_zero>:
    6736:	e8 94       	clt

00006738 <__fp_szero>:
    6738:	bb 27       	eor	r27, r27
    673a:	66 27       	eor	r22, r22
    673c:	77 27       	eor	r23, r23
    673e:	cb 01       	movw	r24, r22
    6740:	97 f9       	bld	r25, 7
    6742:	08 95       	ret

00006744 <__mulsf3>:
    6744:	0b d0       	rcall	.+22     	; 0x675c <__mulsf3x>
    6746:	c4 cf       	rjmp	.-120    	; 0x66d0 <__fp_round>
    6748:	b5 df       	rcall	.-150    	; 0x66b4 <__fp_pscA>
    674a:	28 f0       	brcs	.+10     	; 0x6756 <__mulsf3+0x12>
    674c:	ba df       	rcall	.-140    	; 0x66c2 <__fp_pscB>
    674e:	18 f0       	brcs	.+6      	; 0x6756 <__mulsf3+0x12>
    6750:	95 23       	and	r25, r21
    6752:	09 f0       	breq	.+2      	; 0x6756 <__mulsf3+0x12>
    6754:	a6 cf       	rjmp	.-180    	; 0x66a2 <__fp_inf>
    6756:	ab cf       	rjmp	.-170    	; 0x66ae <__fp_nan>
    6758:	11 24       	eor	r1, r1
    675a:	ee cf       	rjmp	.-36     	; 0x6738 <__fp_szero>

0000675c <__mulsf3x>:
    675c:	ca df       	rcall	.-108    	; 0x66f2 <__fp_split3>
    675e:	a0 f3       	brcs	.-24     	; 0x6748 <__mulsf3+0x4>

00006760 <__mulsf3_pse>:
    6760:	95 9f       	mul	r25, r21
    6762:	d1 f3       	breq	.-12     	; 0x6758 <__mulsf3+0x14>
    6764:	95 0f       	add	r25, r21
    6766:	50 e0       	ldi	r21, 0x00	; 0
    6768:	55 1f       	adc	r21, r21
    676a:	62 9f       	mul	r22, r18
    676c:	f0 01       	movw	r30, r0
    676e:	72 9f       	mul	r23, r18
    6770:	bb 27       	eor	r27, r27
    6772:	f0 0d       	add	r31, r0
    6774:	b1 1d       	adc	r27, r1
    6776:	63 9f       	mul	r22, r19
    6778:	aa 27       	eor	r26, r26
    677a:	f0 0d       	add	r31, r0
    677c:	b1 1d       	adc	r27, r1
    677e:	aa 1f       	adc	r26, r26
    6780:	64 9f       	mul	r22, r20
    6782:	66 27       	eor	r22, r22
    6784:	b0 0d       	add	r27, r0
    6786:	a1 1d       	adc	r26, r1
    6788:	66 1f       	adc	r22, r22
    678a:	82 9f       	mul	r24, r18
    678c:	22 27       	eor	r18, r18
    678e:	b0 0d       	add	r27, r0
    6790:	a1 1d       	adc	r26, r1
    6792:	62 1f       	adc	r22, r18
    6794:	73 9f       	mul	r23, r19
    6796:	b0 0d       	add	r27, r0
    6798:	a1 1d       	adc	r26, r1
    679a:	62 1f       	adc	r22, r18
    679c:	83 9f       	mul	r24, r19
    679e:	a0 0d       	add	r26, r0
    67a0:	61 1d       	adc	r22, r1
    67a2:	22 1f       	adc	r18, r18
    67a4:	74 9f       	mul	r23, r20
    67a6:	33 27       	eor	r19, r19
    67a8:	a0 0d       	add	r26, r0
    67aa:	61 1d       	adc	r22, r1
    67ac:	23 1f       	adc	r18, r19
    67ae:	84 9f       	mul	r24, r20
    67b0:	60 0d       	add	r22, r0
    67b2:	21 1d       	adc	r18, r1
    67b4:	82 2f       	mov	r24, r18
    67b6:	76 2f       	mov	r23, r22
    67b8:	6a 2f       	mov	r22, r26
    67ba:	11 24       	eor	r1, r1
    67bc:	9f 57       	subi	r25, 0x7F	; 127
    67be:	50 40       	sbci	r21, 0x00	; 0
    67c0:	8a f0       	brmi	.+34     	; 0x67e4 <__mulsf3_pse+0x84>
    67c2:	e1 f0       	breq	.+56     	; 0x67fc <__mulsf3_pse+0x9c>
    67c4:	88 23       	and	r24, r24
    67c6:	4a f0       	brmi	.+18     	; 0x67da <__mulsf3_pse+0x7a>
    67c8:	ee 0f       	add	r30, r30
    67ca:	ff 1f       	adc	r31, r31
    67cc:	bb 1f       	adc	r27, r27
    67ce:	66 1f       	adc	r22, r22
    67d0:	77 1f       	adc	r23, r23
    67d2:	88 1f       	adc	r24, r24
    67d4:	91 50       	subi	r25, 0x01	; 1
    67d6:	50 40       	sbci	r21, 0x00	; 0
    67d8:	a9 f7       	brne	.-22     	; 0x67c4 <__mulsf3_pse+0x64>
    67da:	9e 3f       	cpi	r25, 0xFE	; 254
    67dc:	51 05       	cpc	r21, r1
    67de:	70 f0       	brcs	.+28     	; 0x67fc <__mulsf3_pse+0x9c>
    67e0:	60 cf       	rjmp	.-320    	; 0x66a2 <__fp_inf>
    67e2:	aa cf       	rjmp	.-172    	; 0x6738 <__fp_szero>
    67e4:	5f 3f       	cpi	r21, 0xFF	; 255
    67e6:	ec f3       	brlt	.-6      	; 0x67e2 <__mulsf3_pse+0x82>
    67e8:	98 3e       	cpi	r25, 0xE8	; 232
    67ea:	dc f3       	brlt	.-10     	; 0x67e2 <__mulsf3_pse+0x82>
    67ec:	86 95       	lsr	r24
    67ee:	77 95       	ror	r23
    67f0:	67 95       	ror	r22
    67f2:	b7 95       	ror	r27
    67f4:	f7 95       	ror	r31
    67f6:	e7 95       	ror	r30
    67f8:	9f 5f       	subi	r25, 0xFF	; 255
    67fa:	c1 f7       	brne	.-16     	; 0x67ec <__mulsf3_pse+0x8c>
    67fc:	fe 2b       	or	r31, r30
    67fe:	88 0f       	add	r24, r24
    6800:	91 1d       	adc	r25, r1
    6802:	96 95       	lsr	r25
    6804:	87 95       	ror	r24
    6806:	97 f9       	bld	r25, 7
    6808:	08 95       	ret

0000680a <__udivmodsi4>:
    680a:	a1 e2       	ldi	r26, 0x21	; 33
    680c:	1a 2e       	mov	r1, r26
    680e:	aa 1b       	sub	r26, r26
    6810:	bb 1b       	sub	r27, r27
    6812:	fd 01       	movw	r30, r26
    6814:	0d c0       	rjmp	.+26     	; 0x6830 <__udivmodsi4_ep>

00006816 <__udivmodsi4_loop>:
    6816:	aa 1f       	adc	r26, r26
    6818:	bb 1f       	adc	r27, r27
    681a:	ee 1f       	adc	r30, r30
    681c:	ff 1f       	adc	r31, r31
    681e:	a2 17       	cp	r26, r18
    6820:	b3 07       	cpc	r27, r19
    6822:	e4 07       	cpc	r30, r20
    6824:	f5 07       	cpc	r31, r21
    6826:	20 f0       	brcs	.+8      	; 0x6830 <__udivmodsi4_ep>
    6828:	a2 1b       	sub	r26, r18
    682a:	b3 0b       	sbc	r27, r19
    682c:	e4 0b       	sbc	r30, r20
    682e:	f5 0b       	sbc	r31, r21

00006830 <__udivmodsi4_ep>:
    6830:	66 1f       	adc	r22, r22
    6832:	77 1f       	adc	r23, r23
    6834:	88 1f       	adc	r24, r24
    6836:	99 1f       	adc	r25, r25
    6838:	1a 94       	dec	r1
    683a:	69 f7       	brne	.-38     	; 0x6816 <__udivmodsi4_loop>
    683c:	60 95       	com	r22
    683e:	70 95       	com	r23
    6840:	80 95       	com	r24
    6842:	90 95       	com	r25
    6844:	9b 01       	movw	r18, r22
    6846:	ac 01       	movw	r20, r24
    6848:	bd 01       	movw	r22, r26
    684a:	cf 01       	movw	r24, r30
    684c:	08 95       	ret

0000684e <__divmodsi4>:
    684e:	05 2e       	mov	r0, r21
    6850:	97 fb       	bst	r25, 7
    6852:	16 f4       	brtc	.+4      	; 0x6858 <__divmodsi4+0xa>
    6854:	00 94       	com	r0
    6856:	0f d0       	rcall	.+30     	; 0x6876 <__negsi2>
    6858:	57 fd       	sbrc	r21, 7
    685a:	05 d0       	rcall	.+10     	; 0x6866 <__divmodsi4_neg2>
    685c:	d6 df       	rcall	.-84     	; 0x680a <__udivmodsi4>
    685e:	07 fc       	sbrc	r0, 7
    6860:	02 d0       	rcall	.+4      	; 0x6866 <__divmodsi4_neg2>
    6862:	46 f4       	brtc	.+16     	; 0x6874 <__divmodsi4_exit>
    6864:	08 c0       	rjmp	.+16     	; 0x6876 <__negsi2>

00006866 <__divmodsi4_neg2>:
    6866:	50 95       	com	r21
    6868:	40 95       	com	r20
    686a:	30 95       	com	r19
    686c:	21 95       	neg	r18
    686e:	3f 4f       	sbci	r19, 0xFF	; 255
    6870:	4f 4f       	sbci	r20, 0xFF	; 255
    6872:	5f 4f       	sbci	r21, 0xFF	; 255

00006874 <__divmodsi4_exit>:
    6874:	08 95       	ret

00006876 <__negsi2>:
    6876:	90 95       	com	r25
    6878:	80 95       	com	r24
    687a:	70 95       	com	r23
    687c:	61 95       	neg	r22
    687e:	7f 4f       	sbci	r23, 0xFF	; 255
    6880:	8f 4f       	sbci	r24, 0xFF	; 255
    6882:	9f 4f       	sbci	r25, 0xFF	; 255
    6884:	08 95       	ret

00006886 <__umulhisi3>:
    6886:	a2 9f       	mul	r26, r18
    6888:	b0 01       	movw	r22, r0
    688a:	b3 9f       	mul	r27, r19
    688c:	c0 01       	movw	r24, r0
    688e:	a3 9f       	mul	r26, r19
    6890:	70 0d       	add	r23, r0
    6892:	81 1d       	adc	r24, r1
    6894:	11 24       	eor	r1, r1
    6896:	91 1d       	adc	r25, r1
    6898:	b2 9f       	mul	r27, r18
    689a:	70 0d       	add	r23, r0
    689c:	81 1d       	adc	r24, r1
    689e:	11 24       	eor	r1, r1
    68a0:	91 1d       	adc	r25, r1
    68a2:	08 95       	ret

000068a4 <__muluhisi3>:
    68a4:	f0 df       	rcall	.-32     	; 0x6886 <__umulhisi3>
    68a6:	a5 9f       	mul	r26, r21
    68a8:	90 0d       	add	r25, r0
    68aa:	b4 9f       	mul	r27, r20
    68ac:	90 0d       	add	r25, r0
    68ae:	a4 9f       	mul	r26, r20
    68b0:	80 0d       	add	r24, r0
    68b2:	91 1d       	adc	r25, r1
    68b4:	11 24       	eor	r1, r1
    68b6:	08 95       	ret

000068b8 <__muldi3>:
    68b8:	df 93       	push	r29
    68ba:	cf 93       	push	r28
    68bc:	1f 93       	push	r17
    68be:	0f 93       	push	r16
    68c0:	9a 9d       	mul	r25, r10
    68c2:	f0 2d       	mov	r31, r0
    68c4:	21 9f       	mul	r18, r17
    68c6:	f0 0d       	add	r31, r0
    68c8:	8b 9d       	mul	r24, r11
    68ca:	f0 0d       	add	r31, r0
    68cc:	8a 9d       	mul	r24, r10
    68ce:	e0 2d       	mov	r30, r0
    68d0:	f1 0d       	add	r31, r1
    68d2:	03 9f       	mul	r16, r19
    68d4:	f0 0d       	add	r31, r0
    68d6:	02 9f       	mul	r16, r18
    68d8:	e0 0d       	add	r30, r0
    68da:	f1 1d       	adc	r31, r1
    68dc:	4e 9d       	mul	r20, r14
    68de:	e0 0d       	add	r30, r0
    68e0:	f1 1d       	adc	r31, r1
    68e2:	5e 9d       	mul	r21, r14
    68e4:	f0 0d       	add	r31, r0
    68e6:	4f 9d       	mul	r20, r15
    68e8:	f0 0d       	add	r31, r0
    68ea:	7f 93       	push	r23
    68ec:	6f 93       	push	r22
    68ee:	bf 92       	push	r11
    68f0:	af 92       	push	r10
    68f2:	5f 93       	push	r21
    68f4:	4f 93       	push	r20
    68f6:	d5 01       	movw	r26, r10
    68f8:	c6 df       	rcall	.-116    	; 0x6886 <__umulhisi3>
    68fa:	8b 01       	movw	r16, r22
    68fc:	ac 01       	movw	r20, r24
    68fe:	d7 01       	movw	r26, r14
    6900:	c2 df       	rcall	.-124    	; 0x6886 <__umulhisi3>
    6902:	eb 01       	movw	r28, r22
    6904:	e8 0f       	add	r30, r24
    6906:	f9 1f       	adc	r31, r25
    6908:	d6 01       	movw	r26, r12
    690a:	1f d0       	rcall	.+62     	; 0x694a <__muldi3_6>
    690c:	2f 91       	pop	r18
    690e:	3f 91       	pop	r19
    6910:	d6 01       	movw	r26, r12
    6912:	b9 df       	rcall	.-142    	; 0x6886 <__umulhisi3>
    6914:	c6 0f       	add	r28, r22
    6916:	d7 1f       	adc	r29, r23
    6918:	e8 1f       	adc	r30, r24
    691a:	f9 1f       	adc	r31, r25
    691c:	af 91       	pop	r26
    691e:	bf 91       	pop	r27
    6920:	14 d0       	rcall	.+40     	; 0x694a <__muldi3_6>
    6922:	2f 91       	pop	r18
    6924:	3f 91       	pop	r19
    6926:	af df       	rcall	.-162    	; 0x6886 <__umulhisi3>
    6928:	c6 0f       	add	r28, r22
    692a:	d7 1f       	adc	r29, r23
    692c:	e8 1f       	adc	r30, r24
    692e:	f9 1f       	adc	r31, r25
    6930:	d6 01       	movw	r26, r12
    6932:	a9 df       	rcall	.-174    	; 0x6886 <__umulhisi3>
    6934:	e6 0f       	add	r30, r22
    6936:	f7 1f       	adc	r31, r23
    6938:	98 01       	movw	r18, r16
    693a:	be 01       	movw	r22, r28
    693c:	cf 01       	movw	r24, r30
    693e:	11 24       	eor	r1, r1
    6940:	0f 91       	pop	r16
    6942:	1f 91       	pop	r17
    6944:	cf 91       	pop	r28
    6946:	df 91       	pop	r29
    6948:	08 95       	ret

0000694a <__muldi3_6>:
    694a:	9d df       	rcall	.-198    	; 0x6886 <__umulhisi3>
    694c:	46 0f       	add	r20, r22
    694e:	57 1f       	adc	r21, r23
    6950:	c8 1f       	adc	r28, r24
    6952:	d9 1f       	adc	r29, r25
    6954:	08 f4       	brcc	.+2      	; 0x6958 <__muldi3_6+0xe>
    6956:	31 96       	adiw	r30, 0x01	; 1
    6958:	08 95       	ret

0000695a <__ashldi3>:
    695a:	0f 93       	push	r16
    695c:	08 30       	cpi	r16, 0x08	; 8
    695e:	90 f0       	brcs	.+36     	; 0x6984 <__ashldi3+0x2a>
    6960:	98 2f       	mov	r25, r24
    6962:	87 2f       	mov	r24, r23
    6964:	76 2f       	mov	r23, r22
    6966:	65 2f       	mov	r22, r21
    6968:	54 2f       	mov	r21, r20
    696a:	43 2f       	mov	r20, r19
    696c:	32 2f       	mov	r19, r18
    696e:	22 27       	eor	r18, r18
    6970:	08 50       	subi	r16, 0x08	; 8
    6972:	f4 cf       	rjmp	.-24     	; 0x695c <__ashldi3+0x2>
    6974:	22 0f       	add	r18, r18
    6976:	33 1f       	adc	r19, r19
    6978:	44 1f       	adc	r20, r20
    697a:	55 1f       	adc	r21, r21
    697c:	66 1f       	adc	r22, r22
    697e:	77 1f       	adc	r23, r23
    6980:	88 1f       	adc	r24, r24
    6982:	99 1f       	adc	r25, r25
    6984:	0a 95       	dec	r16
    6986:	b2 f7       	brpl	.-20     	; 0x6974 <__ashldi3+0x1a>
    6988:	0f 91       	pop	r16
    698a:	08 95       	ret

0000698c <__ashrdi3>:
    698c:	97 fb       	bst	r25, 7
    698e:	10 f8       	bld	r1, 0

00006990 <__lshrdi3>:
    6990:	16 94       	lsr	r1
    6992:	00 08       	sbc	r0, r0
    6994:	0f 93       	push	r16
    6996:	08 30       	cpi	r16, 0x08	; 8
    6998:	98 f0       	brcs	.+38     	; 0x69c0 <__lshrdi3+0x30>
    699a:	08 50       	subi	r16, 0x08	; 8
    699c:	23 2f       	mov	r18, r19
    699e:	34 2f       	mov	r19, r20
    69a0:	45 2f       	mov	r20, r21
    69a2:	56 2f       	mov	r21, r22
    69a4:	67 2f       	mov	r22, r23
    69a6:	78 2f       	mov	r23, r24
    69a8:	89 2f       	mov	r24, r25
    69aa:	90 2d       	mov	r25, r0
    69ac:	f4 cf       	rjmp	.-24     	; 0x6996 <__lshrdi3+0x6>
    69ae:	05 94       	asr	r0
    69b0:	97 95       	ror	r25
    69b2:	87 95       	ror	r24
    69b4:	77 95       	ror	r23
    69b6:	67 95       	ror	r22
    69b8:	57 95       	ror	r21
    69ba:	47 95       	ror	r20
    69bc:	37 95       	ror	r19
    69be:	27 95       	ror	r18
    69c0:	0a 95       	dec	r16
    69c2:	aa f7       	brpl	.-22     	; 0x69ae <__lshrdi3+0x1e>
    69c4:	0f 91       	pop	r16
    69c6:	08 95       	ret

000069c8 <sprintf>:
    69c8:	0f 93       	push	r16
    69ca:	1f 93       	push	r17
    69cc:	cf 93       	push	r28
    69ce:	df 93       	push	r29
    69d0:	cd b7       	in	r28, 0x3d	; 61
    69d2:	de b7       	in	r29, 0x3e	; 62
    69d4:	2e 97       	sbiw	r28, 0x0e	; 14
    69d6:	cd bf       	out	0x3d, r28	; 61
    69d8:	de bf       	out	0x3e, r29	; 62
    69da:	0e 89       	ldd	r16, Y+22	; 0x16
    69dc:	1f 89       	ldd	r17, Y+23	; 0x17
    69de:	86 e0       	ldi	r24, 0x06	; 6
    69e0:	8c 83       	std	Y+4, r24	; 0x04
    69e2:	09 83       	std	Y+1, r16	; 0x01
    69e4:	1a 83       	std	Y+2, r17	; 0x02
    69e6:	8f ef       	ldi	r24, 0xFF	; 255
    69e8:	9f e7       	ldi	r25, 0x7F	; 127
    69ea:	8d 83       	std	Y+5, r24	; 0x05
    69ec:	9e 83       	std	Y+6, r25	; 0x06
    69ee:	ae 01       	movw	r20, r28
    69f0:	46 5e       	subi	r20, 0xE6	; 230
    69f2:	5f 4f       	sbci	r21, 0xFF	; 255
    69f4:	68 8d       	ldd	r22, Y+24	; 0x18
    69f6:	79 8d       	ldd	r23, Y+25	; 0x19
    69f8:	ce 01       	movw	r24, r28
    69fa:	01 96       	adiw	r24, 0x01	; 1
    69fc:	0e d0       	rcall	.+28     	; 0x6a1a <vfprintf>
    69fe:	2f 81       	ldd	r18, Y+7	; 0x07
    6a00:	38 85       	ldd	r19, Y+8	; 0x08
    6a02:	f8 01       	movw	r30, r16
    6a04:	e2 0f       	add	r30, r18
    6a06:	f3 1f       	adc	r31, r19
    6a08:	10 82       	st	Z, r1
    6a0a:	2e 96       	adiw	r28, 0x0e	; 14
    6a0c:	cd bf       	out	0x3d, r28	; 61
    6a0e:	de bf       	out	0x3e, r29	; 62
    6a10:	df 91       	pop	r29
    6a12:	cf 91       	pop	r28
    6a14:	1f 91       	pop	r17
    6a16:	0f 91       	pop	r16
    6a18:	08 95       	ret

00006a1a <vfprintf>:
    6a1a:	2f 92       	push	r2
    6a1c:	3f 92       	push	r3
    6a1e:	4f 92       	push	r4
    6a20:	5f 92       	push	r5
    6a22:	6f 92       	push	r6
    6a24:	7f 92       	push	r7
    6a26:	8f 92       	push	r8
    6a28:	9f 92       	push	r9
    6a2a:	af 92       	push	r10
    6a2c:	bf 92       	push	r11
    6a2e:	cf 92       	push	r12
    6a30:	df 92       	push	r13
    6a32:	ef 92       	push	r14
    6a34:	ff 92       	push	r15
    6a36:	0f 93       	push	r16
    6a38:	1f 93       	push	r17
    6a3a:	cf 93       	push	r28
    6a3c:	df 93       	push	r29
    6a3e:	cd b7       	in	r28, 0x3d	; 61
    6a40:	de b7       	in	r29, 0x3e	; 62
    6a42:	2c 97       	sbiw	r28, 0x0c	; 12
    6a44:	cd bf       	out	0x3d, r28	; 61
    6a46:	de bf       	out	0x3e, r29	; 62
    6a48:	7c 01       	movw	r14, r24
    6a4a:	6b 01       	movw	r12, r22
    6a4c:	8a 01       	movw	r16, r20
    6a4e:	fc 01       	movw	r30, r24
    6a50:	16 82       	std	Z+6, r1	; 0x06
    6a52:	17 82       	std	Z+7, r1	; 0x07
    6a54:	83 81       	ldd	r24, Z+3	; 0x03
    6a56:	81 ff       	sbrs	r24, 1
    6a58:	b0 c1       	rjmp	.+864    	; 0x6dba <vfprintf+0x3a0>
    6a5a:	ce 01       	movw	r24, r28
    6a5c:	01 96       	adiw	r24, 0x01	; 1
    6a5e:	4c 01       	movw	r8, r24
    6a60:	f7 01       	movw	r30, r14
    6a62:	93 81       	ldd	r25, Z+3	; 0x03
    6a64:	f6 01       	movw	r30, r12
    6a66:	93 fd       	sbrc	r25, 3
    6a68:	85 91       	lpm	r24, Z+
    6a6a:	93 ff       	sbrs	r25, 3
    6a6c:	81 91       	ld	r24, Z+
    6a6e:	6f 01       	movw	r12, r30
    6a70:	88 23       	and	r24, r24
    6a72:	09 f4       	brne	.+2      	; 0x6a76 <vfprintf+0x5c>
    6a74:	9e c1       	rjmp	.+828    	; 0x6db2 <vfprintf+0x398>
    6a76:	85 32       	cpi	r24, 0x25	; 37
    6a78:	39 f4       	brne	.+14     	; 0x6a88 <vfprintf+0x6e>
    6a7a:	93 fd       	sbrc	r25, 3
    6a7c:	85 91       	lpm	r24, Z+
    6a7e:	93 ff       	sbrs	r25, 3
    6a80:	81 91       	ld	r24, Z+
    6a82:	6f 01       	movw	r12, r30
    6a84:	85 32       	cpi	r24, 0x25	; 37
    6a86:	21 f4       	brne	.+8      	; 0x6a90 <vfprintf+0x76>
    6a88:	b7 01       	movw	r22, r14
    6a8a:	90 e0       	ldi	r25, 0x00	; 0
    6a8c:	c4 d1       	rcall	.+904    	; 0x6e16 <fputc>
    6a8e:	e8 cf       	rjmp	.-48     	; 0x6a60 <vfprintf+0x46>
    6a90:	51 2c       	mov	r5, r1
    6a92:	31 2c       	mov	r3, r1
    6a94:	20 e0       	ldi	r18, 0x00	; 0
    6a96:	20 32       	cpi	r18, 0x20	; 32
    6a98:	a0 f4       	brcc	.+40     	; 0x6ac2 <vfprintf+0xa8>
    6a9a:	8b 32       	cpi	r24, 0x2B	; 43
    6a9c:	69 f0       	breq	.+26     	; 0x6ab8 <vfprintf+0x9e>
    6a9e:	30 f4       	brcc	.+12     	; 0x6aac <vfprintf+0x92>
    6aa0:	80 32       	cpi	r24, 0x20	; 32
    6aa2:	59 f0       	breq	.+22     	; 0x6aba <vfprintf+0xa0>
    6aa4:	83 32       	cpi	r24, 0x23	; 35
    6aa6:	69 f4       	brne	.+26     	; 0x6ac2 <vfprintf+0xa8>
    6aa8:	20 61       	ori	r18, 0x10	; 16
    6aaa:	2c c0       	rjmp	.+88     	; 0x6b04 <vfprintf+0xea>
    6aac:	8d 32       	cpi	r24, 0x2D	; 45
    6aae:	39 f0       	breq	.+14     	; 0x6abe <vfprintf+0xa4>
    6ab0:	80 33       	cpi	r24, 0x30	; 48
    6ab2:	39 f4       	brne	.+14     	; 0x6ac2 <vfprintf+0xa8>
    6ab4:	21 60       	ori	r18, 0x01	; 1
    6ab6:	26 c0       	rjmp	.+76     	; 0x6b04 <vfprintf+0xea>
    6ab8:	22 60       	ori	r18, 0x02	; 2
    6aba:	24 60       	ori	r18, 0x04	; 4
    6abc:	23 c0       	rjmp	.+70     	; 0x6b04 <vfprintf+0xea>
    6abe:	28 60       	ori	r18, 0x08	; 8
    6ac0:	21 c0       	rjmp	.+66     	; 0x6b04 <vfprintf+0xea>
    6ac2:	27 fd       	sbrc	r18, 7
    6ac4:	27 c0       	rjmp	.+78     	; 0x6b14 <vfprintf+0xfa>
    6ac6:	30 ed       	ldi	r19, 0xD0	; 208
    6ac8:	38 0f       	add	r19, r24
    6aca:	3a 30       	cpi	r19, 0x0A	; 10
    6acc:	78 f4       	brcc	.+30     	; 0x6aec <vfprintf+0xd2>
    6ace:	26 ff       	sbrs	r18, 6
    6ad0:	06 c0       	rjmp	.+12     	; 0x6ade <vfprintf+0xc4>
    6ad2:	fa e0       	ldi	r31, 0x0A	; 10
    6ad4:	5f 9e       	mul	r5, r31
    6ad6:	30 0d       	add	r19, r0
    6ad8:	11 24       	eor	r1, r1
    6ada:	53 2e       	mov	r5, r19
    6adc:	13 c0       	rjmp	.+38     	; 0x6b04 <vfprintf+0xea>
    6ade:	8a e0       	ldi	r24, 0x0A	; 10
    6ae0:	38 9e       	mul	r3, r24
    6ae2:	30 0d       	add	r19, r0
    6ae4:	11 24       	eor	r1, r1
    6ae6:	33 2e       	mov	r3, r19
    6ae8:	20 62       	ori	r18, 0x20	; 32
    6aea:	0c c0       	rjmp	.+24     	; 0x6b04 <vfprintf+0xea>
    6aec:	8e 32       	cpi	r24, 0x2E	; 46
    6aee:	21 f4       	brne	.+8      	; 0x6af8 <vfprintf+0xde>
    6af0:	26 fd       	sbrc	r18, 6
    6af2:	5f c1       	rjmp	.+702    	; 0x6db2 <vfprintf+0x398>
    6af4:	20 64       	ori	r18, 0x40	; 64
    6af6:	06 c0       	rjmp	.+12     	; 0x6b04 <vfprintf+0xea>
    6af8:	8c 36       	cpi	r24, 0x6C	; 108
    6afa:	11 f4       	brne	.+4      	; 0x6b00 <vfprintf+0xe6>
    6afc:	20 68       	ori	r18, 0x80	; 128
    6afe:	02 c0       	rjmp	.+4      	; 0x6b04 <vfprintf+0xea>
    6b00:	88 36       	cpi	r24, 0x68	; 104
    6b02:	41 f4       	brne	.+16     	; 0x6b14 <vfprintf+0xfa>
    6b04:	f6 01       	movw	r30, r12
    6b06:	93 fd       	sbrc	r25, 3
    6b08:	85 91       	lpm	r24, Z+
    6b0a:	93 ff       	sbrs	r25, 3
    6b0c:	81 91       	ld	r24, Z+
    6b0e:	6f 01       	movw	r12, r30
    6b10:	81 11       	cpse	r24, r1
    6b12:	c1 cf       	rjmp	.-126    	; 0x6a96 <vfprintf+0x7c>
    6b14:	98 2f       	mov	r25, r24
    6b16:	9f 7d       	andi	r25, 0xDF	; 223
    6b18:	95 54       	subi	r25, 0x45	; 69
    6b1a:	93 30       	cpi	r25, 0x03	; 3
    6b1c:	28 f4       	brcc	.+10     	; 0x6b28 <vfprintf+0x10e>
    6b1e:	0c 5f       	subi	r16, 0xFC	; 252
    6b20:	1f 4f       	sbci	r17, 0xFF	; 255
    6b22:	ff e3       	ldi	r31, 0x3F	; 63
    6b24:	f9 83       	std	Y+1, r31	; 0x01
    6b26:	0d c0       	rjmp	.+26     	; 0x6b42 <vfprintf+0x128>
    6b28:	83 36       	cpi	r24, 0x63	; 99
    6b2a:	31 f0       	breq	.+12     	; 0x6b38 <vfprintf+0x11e>
    6b2c:	83 37       	cpi	r24, 0x73	; 115
    6b2e:	71 f0       	breq	.+28     	; 0x6b4c <vfprintf+0x132>
    6b30:	83 35       	cpi	r24, 0x53	; 83
    6b32:	09 f0       	breq	.+2      	; 0x6b36 <vfprintf+0x11c>
    6b34:	57 c0       	rjmp	.+174    	; 0x6be4 <vfprintf+0x1ca>
    6b36:	21 c0       	rjmp	.+66     	; 0x6b7a <vfprintf+0x160>
    6b38:	f8 01       	movw	r30, r16
    6b3a:	80 81       	ld	r24, Z
    6b3c:	89 83       	std	Y+1, r24	; 0x01
    6b3e:	0e 5f       	subi	r16, 0xFE	; 254
    6b40:	1f 4f       	sbci	r17, 0xFF	; 255
    6b42:	44 24       	eor	r4, r4
    6b44:	43 94       	inc	r4
    6b46:	51 2c       	mov	r5, r1
    6b48:	54 01       	movw	r10, r8
    6b4a:	14 c0       	rjmp	.+40     	; 0x6b74 <vfprintf+0x15a>
    6b4c:	38 01       	movw	r6, r16
    6b4e:	f2 e0       	ldi	r31, 0x02	; 2
    6b50:	6f 0e       	add	r6, r31
    6b52:	71 1c       	adc	r7, r1
    6b54:	f8 01       	movw	r30, r16
    6b56:	a0 80       	ld	r10, Z
    6b58:	b1 80       	ldd	r11, Z+1	; 0x01
    6b5a:	26 ff       	sbrs	r18, 6
    6b5c:	03 c0       	rjmp	.+6      	; 0x6b64 <vfprintf+0x14a>
    6b5e:	65 2d       	mov	r22, r5
    6b60:	70 e0       	ldi	r23, 0x00	; 0
    6b62:	02 c0       	rjmp	.+4      	; 0x6b68 <vfprintf+0x14e>
    6b64:	6f ef       	ldi	r22, 0xFF	; 255
    6b66:	7f ef       	ldi	r23, 0xFF	; 255
    6b68:	c5 01       	movw	r24, r10
    6b6a:	2c 87       	std	Y+12, r18	; 0x0c
    6b6c:	49 d1       	rcall	.+658    	; 0x6e00 <strnlen>
    6b6e:	2c 01       	movw	r4, r24
    6b70:	83 01       	movw	r16, r6
    6b72:	2c 85       	ldd	r18, Y+12	; 0x0c
    6b74:	2f 77       	andi	r18, 0x7F	; 127
    6b76:	22 2e       	mov	r2, r18
    6b78:	16 c0       	rjmp	.+44     	; 0x6ba6 <vfprintf+0x18c>
    6b7a:	38 01       	movw	r6, r16
    6b7c:	f2 e0       	ldi	r31, 0x02	; 2
    6b7e:	6f 0e       	add	r6, r31
    6b80:	71 1c       	adc	r7, r1
    6b82:	f8 01       	movw	r30, r16
    6b84:	a0 80       	ld	r10, Z
    6b86:	b1 80       	ldd	r11, Z+1	; 0x01
    6b88:	26 ff       	sbrs	r18, 6
    6b8a:	03 c0       	rjmp	.+6      	; 0x6b92 <vfprintf+0x178>
    6b8c:	65 2d       	mov	r22, r5
    6b8e:	70 e0       	ldi	r23, 0x00	; 0
    6b90:	02 c0       	rjmp	.+4      	; 0x6b96 <vfprintf+0x17c>
    6b92:	6f ef       	ldi	r22, 0xFF	; 255
    6b94:	7f ef       	ldi	r23, 0xFF	; 255
    6b96:	c5 01       	movw	r24, r10
    6b98:	2c 87       	std	Y+12, r18	; 0x0c
    6b9a:	27 d1       	rcall	.+590    	; 0x6dea <strnlen_P>
    6b9c:	2c 01       	movw	r4, r24
    6b9e:	2c 85       	ldd	r18, Y+12	; 0x0c
    6ba0:	20 68       	ori	r18, 0x80	; 128
    6ba2:	22 2e       	mov	r2, r18
    6ba4:	83 01       	movw	r16, r6
    6ba6:	23 fc       	sbrc	r2, 3
    6ba8:	19 c0       	rjmp	.+50     	; 0x6bdc <vfprintf+0x1c2>
    6baa:	83 2d       	mov	r24, r3
    6bac:	90 e0       	ldi	r25, 0x00	; 0
    6bae:	48 16       	cp	r4, r24
    6bb0:	59 06       	cpc	r5, r25
    6bb2:	a0 f4       	brcc	.+40     	; 0x6bdc <vfprintf+0x1c2>
    6bb4:	b7 01       	movw	r22, r14
    6bb6:	80 e2       	ldi	r24, 0x20	; 32
    6bb8:	90 e0       	ldi	r25, 0x00	; 0
    6bba:	2d d1       	rcall	.+602    	; 0x6e16 <fputc>
    6bbc:	3a 94       	dec	r3
    6bbe:	f5 cf       	rjmp	.-22     	; 0x6baa <vfprintf+0x190>
    6bc0:	f5 01       	movw	r30, r10
    6bc2:	27 fc       	sbrc	r2, 7
    6bc4:	85 91       	lpm	r24, Z+
    6bc6:	27 fe       	sbrs	r2, 7
    6bc8:	81 91       	ld	r24, Z+
    6bca:	5f 01       	movw	r10, r30
    6bcc:	b7 01       	movw	r22, r14
    6bce:	90 e0       	ldi	r25, 0x00	; 0
    6bd0:	22 d1       	rcall	.+580    	; 0x6e16 <fputc>
    6bd2:	31 10       	cpse	r3, r1
    6bd4:	3a 94       	dec	r3
    6bd6:	f1 e0       	ldi	r31, 0x01	; 1
    6bd8:	4f 1a       	sub	r4, r31
    6bda:	51 08       	sbc	r5, r1
    6bdc:	41 14       	cp	r4, r1
    6bde:	51 04       	cpc	r5, r1
    6be0:	79 f7       	brne	.-34     	; 0x6bc0 <vfprintf+0x1a6>
    6be2:	de c0       	rjmp	.+444    	; 0x6da0 <vfprintf+0x386>
    6be4:	84 36       	cpi	r24, 0x64	; 100
    6be6:	11 f0       	breq	.+4      	; 0x6bec <vfprintf+0x1d2>
    6be8:	89 36       	cpi	r24, 0x69	; 105
    6bea:	31 f5       	brne	.+76     	; 0x6c38 <vfprintf+0x21e>
    6bec:	f8 01       	movw	r30, r16
    6bee:	27 ff       	sbrs	r18, 7
    6bf0:	07 c0       	rjmp	.+14     	; 0x6c00 <vfprintf+0x1e6>
    6bf2:	60 81       	ld	r22, Z
    6bf4:	71 81       	ldd	r23, Z+1	; 0x01
    6bf6:	82 81       	ldd	r24, Z+2	; 0x02
    6bf8:	93 81       	ldd	r25, Z+3	; 0x03
    6bfa:	0c 5f       	subi	r16, 0xFC	; 252
    6bfc:	1f 4f       	sbci	r17, 0xFF	; 255
    6bfe:	08 c0       	rjmp	.+16     	; 0x6c10 <vfprintf+0x1f6>
    6c00:	60 81       	ld	r22, Z
    6c02:	71 81       	ldd	r23, Z+1	; 0x01
    6c04:	07 2e       	mov	r0, r23
    6c06:	00 0c       	add	r0, r0
    6c08:	88 0b       	sbc	r24, r24
    6c0a:	99 0b       	sbc	r25, r25
    6c0c:	0e 5f       	subi	r16, 0xFE	; 254
    6c0e:	1f 4f       	sbci	r17, 0xFF	; 255
    6c10:	2f 76       	andi	r18, 0x6F	; 111
    6c12:	72 2e       	mov	r7, r18
    6c14:	97 ff       	sbrs	r25, 7
    6c16:	09 c0       	rjmp	.+18     	; 0x6c2a <vfprintf+0x210>
    6c18:	90 95       	com	r25
    6c1a:	80 95       	com	r24
    6c1c:	70 95       	com	r23
    6c1e:	61 95       	neg	r22
    6c20:	7f 4f       	sbci	r23, 0xFF	; 255
    6c22:	8f 4f       	sbci	r24, 0xFF	; 255
    6c24:	9f 4f       	sbci	r25, 0xFF	; 255
    6c26:	20 68       	ori	r18, 0x80	; 128
    6c28:	72 2e       	mov	r7, r18
    6c2a:	2a e0       	ldi	r18, 0x0A	; 10
    6c2c:	30 e0       	ldi	r19, 0x00	; 0
    6c2e:	a4 01       	movw	r20, r8
    6c30:	2a d1       	rcall	.+596    	; 0x6e86 <__ultoa_invert>
    6c32:	a8 2e       	mov	r10, r24
    6c34:	a8 18       	sub	r10, r8
    6c36:	43 c0       	rjmp	.+134    	; 0x6cbe <vfprintf+0x2a4>
    6c38:	85 37       	cpi	r24, 0x75	; 117
    6c3a:	29 f4       	brne	.+10     	; 0x6c46 <vfprintf+0x22c>
    6c3c:	2f 7e       	andi	r18, 0xEF	; 239
    6c3e:	b2 2e       	mov	r11, r18
    6c40:	2a e0       	ldi	r18, 0x0A	; 10
    6c42:	30 e0       	ldi	r19, 0x00	; 0
    6c44:	25 c0       	rjmp	.+74     	; 0x6c90 <vfprintf+0x276>
    6c46:	f2 2f       	mov	r31, r18
    6c48:	f9 7f       	andi	r31, 0xF9	; 249
    6c4a:	bf 2e       	mov	r11, r31
    6c4c:	8f 36       	cpi	r24, 0x6F	; 111
    6c4e:	c1 f0       	breq	.+48     	; 0x6c80 <vfprintf+0x266>
    6c50:	18 f4       	brcc	.+6      	; 0x6c58 <vfprintf+0x23e>
    6c52:	88 35       	cpi	r24, 0x58	; 88
    6c54:	79 f0       	breq	.+30     	; 0x6c74 <vfprintf+0x25a>
    6c56:	ad c0       	rjmp	.+346    	; 0x6db2 <vfprintf+0x398>
    6c58:	80 37       	cpi	r24, 0x70	; 112
    6c5a:	19 f0       	breq	.+6      	; 0x6c62 <vfprintf+0x248>
    6c5c:	88 37       	cpi	r24, 0x78	; 120
    6c5e:	21 f0       	breq	.+8      	; 0x6c68 <vfprintf+0x24e>
    6c60:	a8 c0       	rjmp	.+336    	; 0x6db2 <vfprintf+0x398>
    6c62:	2f 2f       	mov	r18, r31
    6c64:	20 61       	ori	r18, 0x10	; 16
    6c66:	b2 2e       	mov	r11, r18
    6c68:	b4 fe       	sbrs	r11, 4
    6c6a:	0d c0       	rjmp	.+26     	; 0x6c86 <vfprintf+0x26c>
    6c6c:	8b 2d       	mov	r24, r11
    6c6e:	84 60       	ori	r24, 0x04	; 4
    6c70:	b8 2e       	mov	r11, r24
    6c72:	09 c0       	rjmp	.+18     	; 0x6c86 <vfprintf+0x26c>
    6c74:	24 ff       	sbrs	r18, 4
    6c76:	0a c0       	rjmp	.+20     	; 0x6c8c <vfprintf+0x272>
    6c78:	9f 2f       	mov	r25, r31
    6c7a:	96 60       	ori	r25, 0x06	; 6
    6c7c:	b9 2e       	mov	r11, r25
    6c7e:	06 c0       	rjmp	.+12     	; 0x6c8c <vfprintf+0x272>
    6c80:	28 e0       	ldi	r18, 0x08	; 8
    6c82:	30 e0       	ldi	r19, 0x00	; 0
    6c84:	05 c0       	rjmp	.+10     	; 0x6c90 <vfprintf+0x276>
    6c86:	20 e1       	ldi	r18, 0x10	; 16
    6c88:	30 e0       	ldi	r19, 0x00	; 0
    6c8a:	02 c0       	rjmp	.+4      	; 0x6c90 <vfprintf+0x276>
    6c8c:	20 e1       	ldi	r18, 0x10	; 16
    6c8e:	32 e0       	ldi	r19, 0x02	; 2
    6c90:	f8 01       	movw	r30, r16
    6c92:	b7 fe       	sbrs	r11, 7
    6c94:	07 c0       	rjmp	.+14     	; 0x6ca4 <vfprintf+0x28a>
    6c96:	60 81       	ld	r22, Z
    6c98:	71 81       	ldd	r23, Z+1	; 0x01
    6c9a:	82 81       	ldd	r24, Z+2	; 0x02
    6c9c:	93 81       	ldd	r25, Z+3	; 0x03
    6c9e:	0c 5f       	subi	r16, 0xFC	; 252
    6ca0:	1f 4f       	sbci	r17, 0xFF	; 255
    6ca2:	06 c0       	rjmp	.+12     	; 0x6cb0 <vfprintf+0x296>
    6ca4:	60 81       	ld	r22, Z
    6ca6:	71 81       	ldd	r23, Z+1	; 0x01
    6ca8:	80 e0       	ldi	r24, 0x00	; 0
    6caa:	90 e0       	ldi	r25, 0x00	; 0
    6cac:	0e 5f       	subi	r16, 0xFE	; 254
    6cae:	1f 4f       	sbci	r17, 0xFF	; 255
    6cb0:	a4 01       	movw	r20, r8
    6cb2:	e9 d0       	rcall	.+466    	; 0x6e86 <__ultoa_invert>
    6cb4:	a8 2e       	mov	r10, r24
    6cb6:	a8 18       	sub	r10, r8
    6cb8:	fb 2d       	mov	r31, r11
    6cba:	ff 77       	andi	r31, 0x7F	; 127
    6cbc:	7f 2e       	mov	r7, r31
    6cbe:	76 fe       	sbrs	r7, 6
    6cc0:	0b c0       	rjmp	.+22     	; 0x6cd8 <vfprintf+0x2be>
    6cc2:	37 2d       	mov	r19, r7
    6cc4:	3e 7f       	andi	r19, 0xFE	; 254
    6cc6:	a5 14       	cp	r10, r5
    6cc8:	50 f4       	brcc	.+20     	; 0x6cde <vfprintf+0x2c4>
    6cca:	74 fe       	sbrs	r7, 4
    6ccc:	0a c0       	rjmp	.+20     	; 0x6ce2 <vfprintf+0x2c8>
    6cce:	72 fc       	sbrc	r7, 2
    6cd0:	08 c0       	rjmp	.+16     	; 0x6ce2 <vfprintf+0x2c8>
    6cd2:	37 2d       	mov	r19, r7
    6cd4:	3e 7e       	andi	r19, 0xEE	; 238
    6cd6:	05 c0       	rjmp	.+10     	; 0x6ce2 <vfprintf+0x2c8>
    6cd8:	ba 2c       	mov	r11, r10
    6cda:	37 2d       	mov	r19, r7
    6cdc:	03 c0       	rjmp	.+6      	; 0x6ce4 <vfprintf+0x2ca>
    6cde:	ba 2c       	mov	r11, r10
    6ce0:	01 c0       	rjmp	.+2      	; 0x6ce4 <vfprintf+0x2ca>
    6ce2:	b5 2c       	mov	r11, r5
    6ce4:	34 ff       	sbrs	r19, 4
    6ce6:	0d c0       	rjmp	.+26     	; 0x6d02 <vfprintf+0x2e8>
    6ce8:	fe 01       	movw	r30, r28
    6cea:	ea 0d       	add	r30, r10
    6cec:	f1 1d       	adc	r31, r1
    6cee:	80 81       	ld	r24, Z
    6cf0:	80 33       	cpi	r24, 0x30	; 48
    6cf2:	11 f4       	brne	.+4      	; 0x6cf8 <vfprintf+0x2de>
    6cf4:	39 7e       	andi	r19, 0xE9	; 233
    6cf6:	09 c0       	rjmp	.+18     	; 0x6d0a <vfprintf+0x2f0>
    6cf8:	32 ff       	sbrs	r19, 2
    6cfa:	06 c0       	rjmp	.+12     	; 0x6d08 <vfprintf+0x2ee>
    6cfc:	b3 94       	inc	r11
    6cfe:	b3 94       	inc	r11
    6d00:	04 c0       	rjmp	.+8      	; 0x6d0a <vfprintf+0x2f0>
    6d02:	83 2f       	mov	r24, r19
    6d04:	86 78       	andi	r24, 0x86	; 134
    6d06:	09 f0       	breq	.+2      	; 0x6d0a <vfprintf+0x2f0>
    6d08:	b3 94       	inc	r11
    6d0a:	33 fd       	sbrc	r19, 3
    6d0c:	12 c0       	rjmp	.+36     	; 0x6d32 <vfprintf+0x318>
    6d0e:	30 ff       	sbrs	r19, 0
    6d10:	06 c0       	rjmp	.+12     	; 0x6d1e <vfprintf+0x304>
    6d12:	5a 2c       	mov	r5, r10
    6d14:	b3 14       	cp	r11, r3
    6d16:	18 f4       	brcc	.+6      	; 0x6d1e <vfprintf+0x304>
    6d18:	53 0c       	add	r5, r3
    6d1a:	5b 18       	sub	r5, r11
    6d1c:	b3 2c       	mov	r11, r3
    6d1e:	b3 14       	cp	r11, r3
    6d20:	60 f4       	brcc	.+24     	; 0x6d3a <vfprintf+0x320>
    6d22:	b7 01       	movw	r22, r14
    6d24:	80 e2       	ldi	r24, 0x20	; 32
    6d26:	90 e0       	ldi	r25, 0x00	; 0
    6d28:	3c 87       	std	Y+12, r19	; 0x0c
    6d2a:	75 d0       	rcall	.+234    	; 0x6e16 <fputc>
    6d2c:	b3 94       	inc	r11
    6d2e:	3c 85       	ldd	r19, Y+12	; 0x0c
    6d30:	f6 cf       	rjmp	.-20     	; 0x6d1e <vfprintf+0x304>
    6d32:	b3 14       	cp	r11, r3
    6d34:	10 f4       	brcc	.+4      	; 0x6d3a <vfprintf+0x320>
    6d36:	3b 18       	sub	r3, r11
    6d38:	01 c0       	rjmp	.+2      	; 0x6d3c <vfprintf+0x322>
    6d3a:	31 2c       	mov	r3, r1
    6d3c:	34 ff       	sbrs	r19, 4
    6d3e:	11 c0       	rjmp	.+34     	; 0x6d62 <vfprintf+0x348>
    6d40:	b7 01       	movw	r22, r14
    6d42:	80 e3       	ldi	r24, 0x30	; 48
    6d44:	90 e0       	ldi	r25, 0x00	; 0
    6d46:	3c 87       	std	Y+12, r19	; 0x0c
    6d48:	66 d0       	rcall	.+204    	; 0x6e16 <fputc>
    6d4a:	3c 85       	ldd	r19, Y+12	; 0x0c
    6d4c:	32 ff       	sbrs	r19, 2
    6d4e:	16 c0       	rjmp	.+44     	; 0x6d7c <vfprintf+0x362>
    6d50:	31 fd       	sbrc	r19, 1
    6d52:	03 c0       	rjmp	.+6      	; 0x6d5a <vfprintf+0x340>
    6d54:	88 e7       	ldi	r24, 0x78	; 120
    6d56:	90 e0       	ldi	r25, 0x00	; 0
    6d58:	02 c0       	rjmp	.+4      	; 0x6d5e <vfprintf+0x344>
    6d5a:	88 e5       	ldi	r24, 0x58	; 88
    6d5c:	90 e0       	ldi	r25, 0x00	; 0
    6d5e:	b7 01       	movw	r22, r14
    6d60:	0c c0       	rjmp	.+24     	; 0x6d7a <vfprintf+0x360>
    6d62:	83 2f       	mov	r24, r19
    6d64:	86 78       	andi	r24, 0x86	; 134
    6d66:	51 f0       	breq	.+20     	; 0x6d7c <vfprintf+0x362>
    6d68:	31 ff       	sbrs	r19, 1
    6d6a:	02 c0       	rjmp	.+4      	; 0x6d70 <vfprintf+0x356>
    6d6c:	8b e2       	ldi	r24, 0x2B	; 43
    6d6e:	01 c0       	rjmp	.+2      	; 0x6d72 <vfprintf+0x358>
    6d70:	80 e2       	ldi	r24, 0x20	; 32
    6d72:	37 fd       	sbrc	r19, 7
    6d74:	8d e2       	ldi	r24, 0x2D	; 45
    6d76:	b7 01       	movw	r22, r14
    6d78:	90 e0       	ldi	r25, 0x00	; 0
    6d7a:	4d d0       	rcall	.+154    	; 0x6e16 <fputc>
    6d7c:	a5 14       	cp	r10, r5
    6d7e:	30 f4       	brcc	.+12     	; 0x6d8c <vfprintf+0x372>
    6d80:	b7 01       	movw	r22, r14
    6d82:	80 e3       	ldi	r24, 0x30	; 48
    6d84:	90 e0       	ldi	r25, 0x00	; 0
    6d86:	47 d0       	rcall	.+142    	; 0x6e16 <fputc>
    6d88:	5a 94       	dec	r5
    6d8a:	f8 cf       	rjmp	.-16     	; 0x6d7c <vfprintf+0x362>
    6d8c:	aa 94       	dec	r10
    6d8e:	f4 01       	movw	r30, r8
    6d90:	ea 0d       	add	r30, r10
    6d92:	f1 1d       	adc	r31, r1
    6d94:	80 81       	ld	r24, Z
    6d96:	b7 01       	movw	r22, r14
    6d98:	90 e0       	ldi	r25, 0x00	; 0
    6d9a:	3d d0       	rcall	.+122    	; 0x6e16 <fputc>
    6d9c:	a1 10       	cpse	r10, r1
    6d9e:	f6 cf       	rjmp	.-20     	; 0x6d8c <vfprintf+0x372>
    6da0:	33 20       	and	r3, r3
    6da2:	09 f4       	brne	.+2      	; 0x6da6 <vfprintf+0x38c>
    6da4:	5d ce       	rjmp	.-838    	; 0x6a60 <vfprintf+0x46>
    6da6:	b7 01       	movw	r22, r14
    6da8:	80 e2       	ldi	r24, 0x20	; 32
    6daa:	90 e0       	ldi	r25, 0x00	; 0
    6dac:	34 d0       	rcall	.+104    	; 0x6e16 <fputc>
    6dae:	3a 94       	dec	r3
    6db0:	f7 cf       	rjmp	.-18     	; 0x6da0 <vfprintf+0x386>
    6db2:	f7 01       	movw	r30, r14
    6db4:	86 81       	ldd	r24, Z+6	; 0x06
    6db6:	97 81       	ldd	r25, Z+7	; 0x07
    6db8:	02 c0       	rjmp	.+4      	; 0x6dbe <vfprintf+0x3a4>
    6dba:	8f ef       	ldi	r24, 0xFF	; 255
    6dbc:	9f ef       	ldi	r25, 0xFF	; 255
    6dbe:	2c 96       	adiw	r28, 0x0c	; 12
    6dc0:	cd bf       	out	0x3d, r28	; 61
    6dc2:	de bf       	out	0x3e, r29	; 62
    6dc4:	df 91       	pop	r29
    6dc6:	cf 91       	pop	r28
    6dc8:	1f 91       	pop	r17
    6dca:	0f 91       	pop	r16
    6dcc:	ff 90       	pop	r15
    6dce:	ef 90       	pop	r14
    6dd0:	df 90       	pop	r13
    6dd2:	cf 90       	pop	r12
    6dd4:	bf 90       	pop	r11
    6dd6:	af 90       	pop	r10
    6dd8:	9f 90       	pop	r9
    6dda:	8f 90       	pop	r8
    6ddc:	7f 90       	pop	r7
    6dde:	6f 90       	pop	r6
    6de0:	5f 90       	pop	r5
    6de2:	4f 90       	pop	r4
    6de4:	3f 90       	pop	r3
    6de6:	2f 90       	pop	r2
    6de8:	08 95       	ret

00006dea <strnlen_P>:
    6dea:	fc 01       	movw	r30, r24
    6dec:	05 90       	lpm	r0, Z+
    6dee:	61 50       	subi	r22, 0x01	; 1
    6df0:	70 40       	sbci	r23, 0x00	; 0
    6df2:	01 10       	cpse	r0, r1
    6df4:	d8 f7       	brcc	.-10     	; 0x6dec <strnlen_P+0x2>
    6df6:	80 95       	com	r24
    6df8:	90 95       	com	r25
    6dfa:	8e 0f       	add	r24, r30
    6dfc:	9f 1f       	adc	r25, r31
    6dfe:	08 95       	ret

00006e00 <strnlen>:
    6e00:	fc 01       	movw	r30, r24
    6e02:	61 50       	subi	r22, 0x01	; 1
    6e04:	70 40       	sbci	r23, 0x00	; 0
    6e06:	01 90       	ld	r0, Z+
    6e08:	01 10       	cpse	r0, r1
    6e0a:	d8 f7       	brcc	.-10     	; 0x6e02 <strnlen+0x2>
    6e0c:	80 95       	com	r24
    6e0e:	90 95       	com	r25
    6e10:	8e 0f       	add	r24, r30
    6e12:	9f 1f       	adc	r25, r31
    6e14:	08 95       	ret

00006e16 <fputc>:
    6e16:	0f 93       	push	r16
    6e18:	1f 93       	push	r17
    6e1a:	cf 93       	push	r28
    6e1c:	df 93       	push	r29
    6e1e:	fb 01       	movw	r30, r22
    6e20:	23 81       	ldd	r18, Z+3	; 0x03
    6e22:	21 fd       	sbrc	r18, 1
    6e24:	03 c0       	rjmp	.+6      	; 0x6e2c <fputc+0x16>
    6e26:	8f ef       	ldi	r24, 0xFF	; 255
    6e28:	9f ef       	ldi	r25, 0xFF	; 255
    6e2a:	28 c0       	rjmp	.+80     	; 0x6e7c <fputc+0x66>
    6e2c:	22 ff       	sbrs	r18, 2
    6e2e:	16 c0       	rjmp	.+44     	; 0x6e5c <fputc+0x46>
    6e30:	46 81       	ldd	r20, Z+6	; 0x06
    6e32:	57 81       	ldd	r21, Z+7	; 0x07
    6e34:	24 81       	ldd	r18, Z+4	; 0x04
    6e36:	35 81       	ldd	r19, Z+5	; 0x05
    6e38:	42 17       	cp	r20, r18
    6e3a:	53 07       	cpc	r21, r19
    6e3c:	44 f4       	brge	.+16     	; 0x6e4e <fputc+0x38>
    6e3e:	a0 81       	ld	r26, Z
    6e40:	b1 81       	ldd	r27, Z+1	; 0x01
    6e42:	9d 01       	movw	r18, r26
    6e44:	2f 5f       	subi	r18, 0xFF	; 255
    6e46:	3f 4f       	sbci	r19, 0xFF	; 255
    6e48:	20 83       	st	Z, r18
    6e4a:	31 83       	std	Z+1, r19	; 0x01
    6e4c:	8c 93       	st	X, r24
    6e4e:	26 81       	ldd	r18, Z+6	; 0x06
    6e50:	37 81       	ldd	r19, Z+7	; 0x07
    6e52:	2f 5f       	subi	r18, 0xFF	; 255
    6e54:	3f 4f       	sbci	r19, 0xFF	; 255
    6e56:	26 83       	std	Z+6, r18	; 0x06
    6e58:	37 83       	std	Z+7, r19	; 0x07
    6e5a:	10 c0       	rjmp	.+32     	; 0x6e7c <fputc+0x66>
    6e5c:	eb 01       	movw	r28, r22
    6e5e:	09 2f       	mov	r16, r25
    6e60:	18 2f       	mov	r17, r24
    6e62:	00 84       	ldd	r0, Z+8	; 0x08
    6e64:	f1 85       	ldd	r31, Z+9	; 0x09
    6e66:	e0 2d       	mov	r30, r0
    6e68:	19 95       	eicall
    6e6a:	89 2b       	or	r24, r25
    6e6c:	e1 f6       	brne	.-72     	; 0x6e26 <fputc+0x10>
    6e6e:	8e 81       	ldd	r24, Y+6	; 0x06
    6e70:	9f 81       	ldd	r25, Y+7	; 0x07
    6e72:	01 96       	adiw	r24, 0x01	; 1
    6e74:	8e 83       	std	Y+6, r24	; 0x06
    6e76:	9f 83       	std	Y+7, r25	; 0x07
    6e78:	81 2f       	mov	r24, r17
    6e7a:	90 2f       	mov	r25, r16
    6e7c:	df 91       	pop	r29
    6e7e:	cf 91       	pop	r28
    6e80:	1f 91       	pop	r17
    6e82:	0f 91       	pop	r16
    6e84:	08 95       	ret

00006e86 <__ultoa_invert>:
    6e86:	fa 01       	movw	r30, r20
    6e88:	aa 27       	eor	r26, r26
    6e8a:	28 30       	cpi	r18, 0x08	; 8
    6e8c:	51 f1       	breq	.+84     	; 0x6ee2 <__ultoa_invert+0x5c>
    6e8e:	20 31       	cpi	r18, 0x10	; 16
    6e90:	81 f1       	breq	.+96     	; 0x6ef2 <__ultoa_invert+0x6c>
    6e92:	e8 94       	clt
    6e94:	6f 93       	push	r22
    6e96:	6e 7f       	andi	r22, 0xFE	; 254
    6e98:	6e 5f       	subi	r22, 0xFE	; 254
    6e9a:	7f 4f       	sbci	r23, 0xFF	; 255
    6e9c:	8f 4f       	sbci	r24, 0xFF	; 255
    6e9e:	9f 4f       	sbci	r25, 0xFF	; 255
    6ea0:	af 4f       	sbci	r26, 0xFF	; 255
    6ea2:	b1 e0       	ldi	r27, 0x01	; 1
    6ea4:	3e d0       	rcall	.+124    	; 0x6f22 <__ultoa_invert+0x9c>
    6ea6:	b4 e0       	ldi	r27, 0x04	; 4
    6ea8:	3c d0       	rcall	.+120    	; 0x6f22 <__ultoa_invert+0x9c>
    6eaa:	67 0f       	add	r22, r23
    6eac:	78 1f       	adc	r23, r24
    6eae:	89 1f       	adc	r24, r25
    6eb0:	9a 1f       	adc	r25, r26
    6eb2:	a1 1d       	adc	r26, r1
    6eb4:	68 0f       	add	r22, r24
    6eb6:	79 1f       	adc	r23, r25
    6eb8:	8a 1f       	adc	r24, r26
    6eba:	91 1d       	adc	r25, r1
    6ebc:	a1 1d       	adc	r26, r1
    6ebe:	6a 0f       	add	r22, r26
    6ec0:	71 1d       	adc	r23, r1
    6ec2:	81 1d       	adc	r24, r1
    6ec4:	91 1d       	adc	r25, r1
    6ec6:	a1 1d       	adc	r26, r1
    6ec8:	20 d0       	rcall	.+64     	; 0x6f0a <__ultoa_invert+0x84>
    6eca:	09 f4       	brne	.+2      	; 0x6ece <__ultoa_invert+0x48>
    6ecc:	68 94       	set
    6ece:	3f 91       	pop	r19
    6ed0:	2a e0       	ldi	r18, 0x0A	; 10
    6ed2:	26 9f       	mul	r18, r22
    6ed4:	11 24       	eor	r1, r1
    6ed6:	30 19       	sub	r19, r0
    6ed8:	30 5d       	subi	r19, 0xD0	; 208
    6eda:	31 93       	st	Z+, r19
    6edc:	de f6       	brtc	.-74     	; 0x6e94 <__ultoa_invert+0xe>
    6ede:	cf 01       	movw	r24, r30
    6ee0:	08 95       	ret
    6ee2:	46 2f       	mov	r20, r22
    6ee4:	47 70       	andi	r20, 0x07	; 7
    6ee6:	40 5d       	subi	r20, 0xD0	; 208
    6ee8:	41 93       	st	Z+, r20
    6eea:	b3 e0       	ldi	r27, 0x03	; 3
    6eec:	0f d0       	rcall	.+30     	; 0x6f0c <__ultoa_invert+0x86>
    6eee:	c9 f7       	brne	.-14     	; 0x6ee2 <__ultoa_invert+0x5c>
    6ef0:	f6 cf       	rjmp	.-20     	; 0x6ede <__ultoa_invert+0x58>
    6ef2:	46 2f       	mov	r20, r22
    6ef4:	4f 70       	andi	r20, 0x0F	; 15
    6ef6:	40 5d       	subi	r20, 0xD0	; 208
    6ef8:	4a 33       	cpi	r20, 0x3A	; 58
    6efa:	18 f0       	brcs	.+6      	; 0x6f02 <__ultoa_invert+0x7c>
    6efc:	49 5d       	subi	r20, 0xD9	; 217
    6efe:	31 fd       	sbrc	r19, 1
    6f00:	40 52       	subi	r20, 0x20	; 32
    6f02:	41 93       	st	Z+, r20
    6f04:	02 d0       	rcall	.+4      	; 0x6f0a <__ultoa_invert+0x84>
    6f06:	a9 f7       	brne	.-22     	; 0x6ef2 <__ultoa_invert+0x6c>
    6f08:	ea cf       	rjmp	.-44     	; 0x6ede <__ultoa_invert+0x58>
    6f0a:	b4 e0       	ldi	r27, 0x04	; 4
    6f0c:	a6 95       	lsr	r26
    6f0e:	97 95       	ror	r25
    6f10:	87 95       	ror	r24
    6f12:	77 95       	ror	r23
    6f14:	67 95       	ror	r22
    6f16:	ba 95       	dec	r27
    6f18:	c9 f7       	brne	.-14     	; 0x6f0c <__ultoa_invert+0x86>
    6f1a:	00 97       	sbiw	r24, 0x00	; 0
    6f1c:	61 05       	cpc	r22, r1
    6f1e:	71 05       	cpc	r23, r1
    6f20:	08 95       	ret
    6f22:	9b 01       	movw	r18, r22
    6f24:	ac 01       	movw	r20, r24
    6f26:	0a 2e       	mov	r0, r26
    6f28:	06 94       	lsr	r0
    6f2a:	57 95       	ror	r21
    6f2c:	47 95       	ror	r20
    6f2e:	37 95       	ror	r19
    6f30:	27 95       	ror	r18
    6f32:	ba 95       	dec	r27
    6f34:	c9 f7       	brne	.-14     	; 0x6f28 <__ultoa_invert+0xa2>
    6f36:	62 0f       	add	r22, r18
    6f38:	73 1f       	adc	r23, r19
    6f3a:	84 1f       	adc	r24, r20
    6f3c:	95 1f       	adc	r25, r21
    6f3e:	a0 1d       	adc	r26, r0
    6f40:	08 95       	ret

00006f42 <_exit>:
    6f42:	f8 94       	cli

00006f44 <__stop_program>:
    6f44:	ff cf       	rjmp	.-2      	; 0x6f44 <__stop_program>
